LX51 LINKER/LOCATER V4.66.30.0                                                          03/28/2016  20:19:13  PAGE 1


LX51 LINKER/LOCATER V4.66.30.0, INVOKED BY:
Z:\HOME\PP\SIMPLICITYSTUDIO_V3\DEVELOPER\TOOLCHAINS\KEIL_8051\9.53\BIN\LX51.EXE ./src/InitDevice.OBJ, ./src/Interrupts.O
>> BJ, ./src/SILABS_STARTUP.OBJ, ./src/bsp.OBJ, ./src/callback.OBJ, ./src/descriptors.OBJ, ./src/idle.OBJ, ./src/u2f.OBJ
>> , ./src/u2f_hid.OBJ, ./lib/efm8ub1/peripheralDrivers/src/usb_0.OBJ, ./lib/efm8_usb/src/efm8_usbd.OBJ, ./lib/efm8_usb/
>> src/efm8_usbdch9.OBJ, ./lib/efm8_usb/src/efm8_usbdep.OBJ, ./lib/efm8_usb/src/efm8_usbdint.OBJ, ./lib/efm8_assert/asse
>> rt.OBJ, ./tests/tests.OBJ, ./src/atecc508a.OBJ, ./src/eeprom.OBJ, ./src/i2c.OBJ, ./src/main.OBJ, ./src/u2f-atecc.OBJ 
>> TO U2F-FIRMWARE.OMF.CRBUILD REMOVEUNUSED PRINT (.\u2f-firmware.m51) PAGEWIDTH (120) PAGELENGTH (65) CLASSES (CODE (C:
>> 0X0-C:0X3FFE), CONST (C:0X0-C:0X3FFE), ECODE (C:0X0-C:0X3FFE), HCONST (C:0X0-C:0X3FFE), XDATA (X:0X0-X:0X3FF), HDATA 
>> (X:0X0-X:0X3FF))


CPU MODE:     8051 MODE
MEMORY MODEL: LARGE


INPUT MODULES INCLUDED:
  ./src/InitDevice.OBJ (INITDEVICE)
         COMMENT TYPE 0: C51 V9.53.0.0
  ./src/Interrupts.OBJ (INTERRUPTS)
         COMMENT TYPE 0: C51 V9.53.0.0
  ./src/SILABS_STARTUP.OBJ (?C_STARTUP)
         COMMENT TYPE 1: A51 / ASM51 Assembler
  ./src/bsp.OBJ (BSP)
         COMMENT TYPE 0: C51 V9.53.0.0
  ./src/callback.OBJ (CALLBACK)
         COMMENT TYPE 0: C51 V9.53.0.0
  ./src/descriptors.OBJ (DESCRIPTORS)
         COMMENT TYPE 0: C51 V9.53.0.0
  ./src/idle.OBJ (IDLE)
         COMMENT TYPE 0: C51 V9.53.0.0
  ./src/u2f.OBJ (U2F)
         COMMENT TYPE 0: C51 V9.53.0.0
  ./src/u2f_hid.OBJ (U2F_HID)
         COMMENT TYPE 0: C51 V9.53.0.0
  ./lib/efm8ub1/peripheralDrivers/src/usb_0.OBJ (USB_0)
         COMMENT TYPE 0: C51 V9.53.0.0
  ./lib/efm8_usb/src/efm8_usbd.OBJ (EFM8_USBD)
         COMMENT TYPE 0: C51 V9.53.0.0
  ./lib/efm8_usb/src/efm8_usbdch9.OBJ (EFM8_USBDCH9)
         COMMENT TYPE 0: C51 V9.53.0.0
  ./lib/efm8_usb/src/efm8_usbdep.OBJ (EFM8_USBDEP)
         COMMENT TYPE 0: C51 V9.53.0.0
  ./lib/efm8_usb/src/efm8_usbdint.OBJ (EFM8_USBDINT)
         COMMENT TYPE 0: C51 V9.53.0.0
  ./lib/efm8_assert/assert.OBJ (ASSERT)
         COMMENT TYPE 0: C51 V9.53.0.0
  ./tests/tests.OBJ (TESTS)
         COMMENT TYPE 0: C51 V9.53.0.0
  ./src/atecc508a.OBJ (ATECC508A)
         COMMENT TYPE 0: C51 V9.53.0.0
  ./src/eeprom.OBJ (EEPROM)
         COMMENT TYPE 0: C51 V9.53.0.0
  ./src/i2c.OBJ (I2C)
         COMMENT TYPE 0: C51 V9.53.0.0
  ./src/main.OBJ (MAIN)
         COMMENT TYPE 0: C51 V9.53.0.0
  ./src/u2f-atecc.OBJ (U2F_ATECC)
         COMMENT TYPE 0: C51 V9.53.0.0
  /HOME/PP/SIMPLICITYSTUDIO_V3/DEVELOPER/TOOLCHAINS/KEIL_8051/9.53/LIB\C51L.LIB (?C_INIT)
         COMMENT TYPE 1: A51 / ASM51 Assembler
  /HOME/PP/SIMPLICITYSTUDIO_V3/DEVELOPER/TOOLCHAINS/KEIL_8051/9.53/LIB\C51L.LIB (?C?COPY)
         COMMENT TYPE 1: A51 / ASM51 Assembler
  /HOME/PP/SIMPLICITYSTUDIO_V3/DEVELOPER/TOOLCHAINS/KEIL_8051/9.53/LIB\C51L.LIB (?C?CLDPTR)
LX51 LINKER/LOCATER V4.66.30.0                                                        03/28/2016  20:19:13  PAGE 2


         COMMENT TYPE 1: A51 / ASM51 Assembler
  /HOME/PP/SIMPLICITYSTUDIO_V3/DEVELOPER/TOOLCHAINS/KEIL_8051/9.53/LIB\C51L.LIB (?C?CLDOPTR)
         COMMENT TYPE 1: A51 / ASM51 Assembler
  /HOME/PP/SIMPLICITYSTUDIO_V3/DEVELOPER/TOOLCHAINS/KEIL_8051/9.53/LIB\C51L.LIB (?C?CSTPTR)
         COMMENT TYPE 1: A51 / ASM51 Assembler
  /HOME/PP/SIMPLICITYSTUDIO_V3/DEVELOPER/TOOLCHAINS/KEIL_8051/9.53/LIB\C51L.LIB (?C?CSTOPTR)
         COMMENT TYPE 1: A51 / ASM51 Assembler
  /HOME/PP/SIMPLICITYSTUDIO_V3/DEVELOPER/TOOLCHAINS/KEIL_8051/9.53/LIB\C51L.LIB (?C?IILDX)
         COMMENT TYPE 1: A51 / ASM51 Assembler
  /HOME/PP/SIMPLICITYSTUDIO_V3/DEVELOPER/TOOLCHAINS/KEIL_8051/9.53/LIB\C51L.LIB (?C?ILDIX)
         COMMENT TYPE 1: A51 / ASM51 Assembler
  /HOME/PP/SIMPLICITYSTUDIO_V3/DEVELOPER/TOOLCHAINS/KEIL_8051/9.53/LIB\C51L.LIB (?C?ILDPTR)
         COMMENT TYPE 1: A51 / ASM51 Assembler
  /HOME/PP/SIMPLICITYSTUDIO_V3/DEVELOPER/TOOLCHAINS/KEIL_8051/9.53/LIB\C51L.LIB (?C?ILDOPTR)
         COMMENT TYPE 1: A51 / ASM51 Assembler
  /HOME/PP/SIMPLICITYSTUDIO_V3/DEVELOPER/TOOLCHAINS/KEIL_8051/9.53/LIB\C51L.LIB (?C?ISTPTR)
         COMMENT TYPE 1: A51 / ASM51 Assembler
  /HOME/PP/SIMPLICITYSTUDIO_V3/DEVELOPER/TOOLCHAINS/KEIL_8051/9.53/LIB\C51L.LIB (?C?ISTOPTR)
         COMMENT TYPE 1: A51 / ASM51 Assembler
  /HOME/PP/SIMPLICITYSTUDIO_V3/DEVELOPER/TOOLCHAINS/KEIL_8051/9.53/LIB\C51L.LIB (?C?LADD)
         COMMENT TYPE 1: A51 / ASM51 Assembler
  /HOME/PP/SIMPLICITYSTUDIO_V3/DEVELOPER/TOOLCHAINS/KEIL_8051/9.53/LIB\C51L.LIB (?C?ULDIV)
         COMMENT TYPE 1: A51 / ASM51 Assembler
  /HOME/PP/SIMPLICITYSTUDIO_V3/DEVELOPER/TOOLCHAINS/KEIL_8051/9.53/LIB\C51L.LIB (?C?LOR)
         COMMENT TYPE 1: A51 / ASM51 Assembler
  /HOME/PP/SIMPLICITYSTUDIO_V3/DEVELOPER/TOOLCHAINS/KEIL_8051/9.53/LIB\C51L.LIB (?C?ULCMP)
         COMMENT TYPE 1: A51 / ASM51 Assembler
  /HOME/PP/SIMPLICITYSTUDIO_V3/DEVELOPER/TOOLCHAINS/KEIL_8051/9.53/LIB\C51L.LIB (?C?ULSHR)
         COMMENT TYPE 1: A51 / ASM51 Assembler
  /HOME/PP/SIMPLICITYSTUDIO_V3/DEVELOPER/TOOLCHAINS/KEIL_8051/9.53/LIB\C51L.LIB (?C?LSHL)
         COMMENT TYPE 1: A51 / ASM51 Assembler
  /HOME/PP/SIMPLICITYSTUDIO_V3/DEVELOPER/TOOLCHAINS/KEIL_8051/9.53/LIB\C51L.LIB (?C?LLDPTR)
         COMMENT TYPE 1: A51 / ASM51 Assembler
  /HOME/PP/SIMPLICITYSTUDIO_V3/DEVELOPER/TOOLCHAINS/KEIL_8051/9.53/LIB\C51L.LIB (?C?LSTPTR)
         COMMENT TYPE 1: A51 / ASM51 Assembler
  /HOME/PP/SIMPLICITYSTUDIO_V3/DEVELOPER/TOOLCHAINS/KEIL_8051/9.53/LIB\C51L.LIB (?C?LSTOPTR)
         COMMENT TYPE 1: A51 / ASM51 Assembler
  /HOME/PP/SIMPLICITYSTUDIO_V3/DEVELOPER/TOOLCHAINS/KEIL_8051/9.53/LIB\C51L.LIB (?C?LLDXDATA)
         COMMENT TYPE 1: A51 / ASM51 Assembler
  /HOME/PP/SIMPLICITYSTUDIO_V3/DEVELOPER/TOOLCHAINS/KEIL_8051/9.53/LIB\C51L.LIB (?C?LLDXDATA0)
         COMMENT TYPE 1: A51 / ASM51 Assembler
  /HOME/PP/SIMPLICITYSTUDIO_V3/DEVELOPER/TOOLCHAINS/KEIL_8051/9.53/LIB\C51L.LIB (?C?LLDOPTR0)
         COMMENT TYPE 1: A51 / ASM51 Assembler
  /HOME/PP/SIMPLICITYSTUDIO_V3/DEVELOPER/TOOLCHAINS/KEIL_8051/9.53/LIB\C51L.LIB (?C?LSTXDATA)
         COMMENT TYPE 1: A51 / ASM51 Assembler
  /HOME/PP/SIMPLICITYSTUDIO_V3/DEVELOPER/TOOLCHAINS/KEIL_8051/9.53/LIB\C51L.LIB (?C?LSTKXDATA)
         COMMENT TYPE 1: A51 / ASM51 Assembler
  /HOME/PP/SIMPLICITYSTUDIO_V3/DEVELOPER/TOOLCHAINS/KEIL_8051/9.53/LIB\C51L.LIB (?C?PLDXDATA)
         COMMENT TYPE 1: A51 / ASM51 Assembler
  /HOME/PP/SIMPLICITYSTUDIO_V3/DEVELOPER/TOOLCHAINS/KEIL_8051/9.53/LIB\C51L.LIB (?C?PLDIXDATA)
         COMMENT TYPE 1: A51 / ASM51 Assembler
  /HOME/PP/SIMPLICITYSTUDIO_V3/DEVELOPER/TOOLCHAINS/KEIL_8051/9.53/LIB\C51L.LIB (?C?PSTXDATA)
         COMMENT TYPE 1: A51 / ASM51 Assembler
  /HOME/PP/SIMPLICITYSTUDIO_V3/DEVELOPER/TOOLCHAINS/KEIL_8051/9.53/LIB\C51L.LIB (?C?PLDPTR)
         COMMENT TYPE 1: A51 / ASM51 Assembler
  /HOME/PP/SIMPLICITYSTUDIO_V3/DEVELOPER/TOOLCHAINS/KEIL_8051/9.53/LIB\C51L.LIB (?C?PILDPTR)
         COMMENT TYPE 1: A51 / ASM51 Assembler
  /HOME/PP/SIMPLICITYSTUDIO_V3/DEVELOPER/TOOLCHAINS/KEIL_8051/9.53/LIB\C51L.LIB (?C?PLDOPTR)
         COMMENT TYPE 1: A51 / ASM51 Assembler
  /HOME/PP/SIMPLICITYSTUDIO_V3/DEVELOPER/TOOLCHAINS/KEIL_8051/9.53/LIB\C51L.LIB (?C?PSTOPTR)
         COMMENT TYPE 1: A51 / ASM51 Assembler
  /HOME/PP/SIMPLICITYSTUDIO_V3/DEVELOPER/TOOLCHAINS/KEIL_8051/9.53/LIB\C51L.LIB (?C?CCASE)
LX51 LINKER/LOCATER V4.66.30.0                                                        03/28/2016  20:19:13  PAGE 3


         COMMENT TYPE 1: A51 / ASM51 Assembler
  /HOME/PP/SIMPLICITYSTUDIO_V3/DEVELOPER/TOOLCHAINS/KEIL_8051/9.53/LIB\C51L.LIB (?C?MEMSET)
         COMMENT TYPE 1: A51 / ASM51 Assembler
  /HOME/PP/SIMPLICITYSTUDIO_V3/DEVELOPER/TOOLCHAINS/KEIL_8051/9.53/LIB\C51L.LIB (?C?MEMMOVE)
         COMMENT TYPE 1: A51 / ASM51 Assembler
  /HOME/PP/SIMPLICITYSTUDIO_V3/DEVELOPER/TOOLCHAINS/KEIL_8051/9.53/LIB\C51L.LIB (?C?LLDIDATA)
         COMMENT TYPE 1: A51 / ASM51 Assembler
  /HOME/PP/SIMPLICITYSTUDIO_V3/DEVELOPER/TOOLCHAINS/KEIL_8051/9.53/LIB\C51L.LIB (?C?LLDPDATA)
         COMMENT TYPE 1: A51 / ASM51 Assembler
  /HOME/PP/SIMPLICITYSTUDIO_V3/DEVELOPER/TOOLCHAINS/KEIL_8051/9.53/LIB\C51L.LIB (?C?LLDCODE)
         COMMENT TYPE 1: A51 / ASM51 Assembler
  /HOME/PP/SIMPLICITYSTUDIO_V3/DEVELOPER/TOOLCHAINS/KEIL_8051/9.53/LIB\C51L.LIB (?C?LLDIDATA0)
         COMMENT TYPE 1: A51 / ASM51 Assembler
  /HOME/PP/SIMPLICITYSTUDIO_V3/DEVELOPER/TOOLCHAINS/KEIL_8051/9.53/LIB\C51L.LIB (?C?LLDPDATA0)
         COMMENT TYPE 1: A51 / ASM51 Assembler
  /HOME/PP/SIMPLICITYSTUDIO_V3/DEVELOPER/TOOLCHAINS/KEIL_8051/9.53/LIB\C51L.LIB (?C?LLDCODE0)
         COMMENT TYPE 1: A51 / ASM51 Assembler
  /HOME/PP/SIMPLICITYSTUDIO_V3/DEVELOPER/TOOLCHAINS/KEIL_8051/9.53/LIB\C51L.LIB (?C?LSTIDATA)
         COMMENT TYPE 1: A51 / ASM51 Assembler
  /HOME/PP/SIMPLICITYSTUDIO_V3/DEVELOPER/TOOLCHAINS/KEIL_8051/9.53/LIB\C51L.LIB (?C?LSTPDATA)
         COMMENT TYPE 1: A51 / ASM51 Assembler
  /HOME/PP/SIMPLICITYSTUDIO_V3/DEVELOPER/TOOLCHAINS/KEIL_8051/9.53/LIB\C51L.LIB (?C?PLDIDATA)
         COMMENT TYPE 1: A51 / ASM51 Assembler
  /HOME/PP/SIMPLICITYSTUDIO_V3/DEVELOPER/TOOLCHAINS/KEIL_8051/9.53/LIB\C51L.LIB (?C?PILDIDATA)
         COMMENT TYPE 1: A51 / ASM51 Assembler
  /HOME/PP/SIMPLICITYSTUDIO_V3/DEVELOPER/TOOLCHAINS/KEIL_8051/9.53/LIB\C51L.LIB (?C?PSTIDATA)
         COMMENT TYPE 1: A51 / ASM51 Assembler
  /HOME/PP/SIMPLICITYSTUDIO_V3/DEVELOPER/TOOLCHAINS/KEIL_8051/9.53/LIB\C51L.LIB (?C?PILDXDATA)
         COMMENT TYPE 1: A51 / ASM51 Assembler
  /HOME/PP/SIMPLICITYSTUDIO_V3/DEVELOPER/TOOLCHAINS/KEIL_8051/9.53/LIB\C51L.LIB (?C?PLDPDATA)
         COMMENT TYPE 1: A51 / ASM51 Assembler
  /HOME/PP/SIMPLICITYSTUDIO_V3/DEVELOPER/TOOLCHAINS/KEIL_8051/9.53/LIB\C51L.LIB (?C?PILDPDATA)
         COMMENT TYPE 1: A51 / ASM51 Assembler
  /HOME/PP/SIMPLICITYSTUDIO_V3/DEVELOPER/TOOLCHAINS/KEIL_8051/9.53/LIB\C51L.LIB (?C?PSTPDATA)
         COMMENT TYPE 1: A51 / ASM51 Assembler
  /HOME/PP/SIMPLICITYSTUDIO_V3/DEVELOPER/TOOLCHAINS/KEIL_8051/9.53/LIB\C51L.LIB (?C?PLDCODE)
         COMMENT TYPE 1: A51 / ASM51 Assembler


ACTIVE MEMORY CLASSES OF MODULE:  U2F-FIRMWARE.OMF.CRBUILD (INITDEVICE)

BASE        START       END         USED      MEMORY CLASS
==========================================================
C:000000H   C:000000H   C:003FFEH   003DDDH   CODE
C:000000H   C:000000H   C:003FFEH   0000BCH   CONST
C:000000H   C:000000H   C:003FFEH             ECODE
B00:0000H   C:000000H   C:003FFEH             HCONST
X:000000H   X:000000H   X:0003FFH   00035FH   XDATA
X:000000H   X:000000H   X:0003FFH             HDATA
I:000000H   I:000000H   I:00007FH   00006BH   DATA
I:000000H   I:000000H   I:0000FFH   000001H   IDATA
I:000020H.0 I:000020H.0 I:00002FH.7 000000H.7 BIT


MEMORY MAP OF MODULE:  U2F-FIRMWARE.OMF.CRBUILD (INITDEVICE)


START     STOP      LENGTH    ALIGN  RELOC    MEMORY CLASS   SEGMENT NAME
=========================================================================

* * * * * * * * * * *   D A T A   M E M O R Y   * * * * * * * * * * * * *
000000H   000007H   000008H   ---    AT..     DATA           "REG BANK 0"
LX51 LINKER/LOCATER V4.66.30.0                                                        03/28/2016  20:19:13  PAGE 4


000008H   000011H   00000AH   BYTE   UNIT     DATA           _DATA_GROUP_
000012H   000019H   000008H   BYTE   UNIT     DATA           ?DT?ATECC508A
00001AH   00001DH   000004H   BYTE   UNIT     DATA           ?DT?INTERRUPTS
00001EH   00001FH   000002H   BYTE   UNIT     DATA           ?DT?BSP
000020H.0 000020H.6 000000H.7 BIT    UNIT     BIT            _BIT_GROUP_
000020H.7 000020H   000000H.1 ---    ---      **GAP**
000021H   00006BH   00004BH   BYTE   UNIT     DATA           ?DT?MAIN
00006CH   00006CH   000001H   BYTE   UNIT     IDATA          ?STACK

* * * * * * * * * * *   C O D E   M E M O R Y   * * * * * * * * * * * * *
000000H   000002H   000003H   ---    OFFS..   CODE           ?CO??C_STARTUP?0
000003H   00002AH   000028H   BYTE   UNIT     CODE           ?PR?U2F
00002BH   00002DH   000003H   BYTE   OFFS..   CODE           ?INTERRUPTS?0002B
00002EH   00003AH   00000DH   BYTE   UNIT     CODE           ?PR?TIMER16_3_ENTER_DEFAULTMODE_FROM_RESET?INITDEVICE
00003BH   00003DH   000003H   BYTE   OFFS..   CODE           ?INTERRUPTS?0003B
00003EH   000072H   000035H   BYTE   UNIT     CODE           ?PR?_U2F_PRINTD?BSP
000073H   000075H   000003H   BYTE   OFFS..   CODE           ?INTERRUPTS?00073
000076H   00007AH   000005H   BYTE   UNIT     CODE           ?PR?U2F_ATTESTATION_CERT_SIZE?U2F_ATECC
00007BH   00007DH   000003H   BYTE   OFFS..   CODE           ?EFM8_USBDINT?0007B
00007EH   000883H   000806H   BYTE   UNIT     CODE           ?C?LIB_CODE
000884H   000A68H   0001E5H   BYTE   UNIT     CODE           ?PR?_HID_U2F_PARSE?U2F_HID
000A69H   000C32H   0001CAH   BYTE   UNIT     CODE           ?PR?SMBUS0_ISR?INTERRUPTS
000C33H   000DA4H   000172H   BYTE   UNIT     CODE           ?CO?U2F_ATECC
000DA5H   000EF5H   000151H   BYTE   UNIT     CODE           ?PR?_USBD_SETUPCMDCB?CALLBACK
000EF6H   00103BH   000146H   BYTE   UNIT     CODE           ?PR?MAIN?MAIN
00103CH   001152H   000117H   BYTE   UNIT     CODE           ?PR?GETDESCRIPTOR?EFM8_USBDCH9
001153H   001264H   000112H   BYTE   UNIT     CODE           ?PR?_U2F_REGISTER?U2F
001265H   001369H   000105H   BYTE   UNIT     CODE           ?PR?_U2F_HID_REQUEST?U2F_HID
00136AH   001463H   0000FAH   BYTE   UNIT     CODE           ?PR?HANDLEUSBEP0TX?EFM8_USBDINT
001464H   00154FH   0000ECH   BYTE   UNIT     CODE           ?PR?HANDLEUSBOUT1INT?EFM8_USBDEP
001550H   00162BH   0000DCH   BYTE   UNIT     CODE           ?PR?_ATECC_SEND_RECV?ATECC508A
00162CH   001704H   0000D9H   BYTE   UNIT     CODE           ?PR?_U2F_AUTHENTICATE?U2F
001705H   0017DCH   0000D8H   BYTE   UNIT     CODE           ?PR?USBIRQHANDLER?EFM8_USBDINT
0017DDH   0018B0H   0000D4H   BYTE   UNIT     CODE           ?PR?_U2F_HID_WRITEBACK?U2F_HID
0018B1H   001982H   0000D2H   BYTE   UNIT     CODE           ?PR?_USBD_WRITE?EFM8_USBD
001983H   001A48H   0000C6H   BYTE   UNIT     CODE           ?PR?GETSTATUS?EFM8_USBDCH9
001A49H   001B0CH   0000C4H   BYTE   UNIT     CODE           ?PR?_U2F_ECDSA_SIGN?U2F_ATECC
001B0DH   001BCDH   0000C1H   BYTE   UNIT     CODE           ?PR?GET_NEW_CID?U2F_HID
001BCEH   001C8EH   0000C1H   BYTE   UNIT     CODE           ?PR?_ATECC_RECV?ATECC508A
001C8FH   001D48H   0000BAH   BYTE   UNIT     CODE           ?PR?U2F_HID
001D49H   001DFFH   0000B7H   BYTE   UNIT     CODE           ?PR?U2F_INIT?U2F_ATECC
001E00H   001EB1H   0000B2H   BYTE   UNIT     CODE           ?PR?SETCONFIGURATION?EFM8_USBDCH9
001EB2H   001F60H   0000AFH   BYTE   UNIT     CODE           ?PR?_DUMP_SIGNATURE_DER?U2F
001F61H   00200FH   0000AFH   BYTE   UNIT     CODE           ?PR?_USBD_READ?EFM8_USBD
002010H   0020BCH   0000ADH   BYTE   UNIT     CODE           ?PR?_U2F_REQUEST?U2F
0020BDH   002169H   0000ADH   BYTE   UNIT     CODE           ?PR?HANDLEUSBEP0INT?EFM8_USBDINT
00216AH   002213H   0000AAH   BYTE   UNIT     CODE           ?PR?CLEARFEATURE?EFM8_USBDCH9
002214H   0022B8H   0000A5H   BYTE   UNIT     CODE           ?PR?HANDLEUSBIN1INT?EFM8_USBDEP
0022B9H   002350H   000098H   BYTE   UNIT     CODE           ?PR?_USBD_INIT?EFM8_USBD
002351H   0023E3H   000093H   BYTE   UNIT     CODE           ?PR?HANDLEUSBEP0RX?EFM8_USBDINT
0023E4H   002475H   000092H   BYTE   UNIT     CODE           ?CO?U2F_HID
002476H   002507H   000092H   BYTE   UNIT     CODE           ?PR?SETFEATURE?EFM8_USBDCH9
002508H   002598H   000091H   BYTE   UNIT     CODE           ?PR?_U2F_NEW_KEYPAIR?U2F_ATECC
002599H   002624H   00008CH   BYTE   UNIT     CODE           ?C_C51STARTUP
002625H   0026B0H   00008CH   BYTE   UNIT     CODE           ?PR?_USB_ACTIVATEEP?USB_0
0026B1H   002733H   000083H   BYTE   UNIT     CODE           ?PR?_FEED_CRC?I2C
002734H   0027B2H   00007FH   BYTE   UNIT     CODE           ?PR?_USBD_ABORTTRANSFER?EFM8_USBD
0027B3H   00282EH   00007CH   BYTE   UNIT     CODE           ?PR?_REVERSE_BITS?I2C
00282FH   0028A8H   00007AH   BYTE   UNIT     CODE           ?PR?U2F_COUNT?U2F_ATECC
0028A9H   002920H   000078H   BYTE   UNIT     CODE           ?PR?USBDCH9_SETUPCMD?EFM8_USBDCH9
002921H   002998H   000078H   BYTE   UNIT     CODE           ?PR?SETADDRESS?EFM8_USBDCH9
002999H   002A0EH   000076H   BYTE   UNIT     CODE           ?PR?BSP
LX51 LINKER/LOCATER V4.66.30.0                                                        03/28/2016  20:19:13  PAGE 5


002A0FH   002A83H   000075H   BYTE   UNIT     CODE           ?PR?_USB_WRITEFIFO?EFM8_USBDEP
002A84H   002AF0H   00006DH   BYTE   UNIT     CODE           ?PR?_USB_WRITE?BSP
002AF1H   002B5CH   00006CH   BYTE   UNIT     CODE           ?PR?EFM8_USBD
002B5DH   002BC5H   000069H   BYTE   UNIT     CODE           ?PR?U2F_ATECC
002BC6H   002C2CH   000067H   BYTE   UNIT     CODE           ?CO?U2F
002C2DH   002C90H   000064H   BYTE   UNIT     CODE           ?PR?EFM8_USBDCH9
002C91H   002CF3H   000063H   BYTE   UNIT     CODE           ?PR?_U2F_SHA256_UPDATE?U2F_ATECC
002CF4H   002D55H   000062H   BYTE   UNIT     CODE           ?PR?_USB_READFIFO?EFM8_USBDEP
002D56H   002DB5H   000060H   BYTE   UNIT     CODE           ?PR?_U2F_LOAD_KEY?U2F_ATECC
002DB6H   002E0FH   00005AH   BYTE   UNIT     CODE           ?PR?EFM8_USBDINT
002E10H   002E68H   000059H   BYTE   UNIT     CODE           ?PR?_BUFFER_REQUEST?U2F_HID
002E69H   002EBFH   000057H   BYTE   UNIT     CODE           ?PR?USB_READFIFOSETUP?EFM8_USBDINT
002EC0H   002F13H   000054H   BYTE   UNIT     CODE           ?PR?GETCONFIGURATION?EFM8_USBDCH9
002F14H   002F63H   000050H   BYTE   UNIT     CODE           ?PR?_DUMP_HEX?BSP
002F64H   002FB3H   000050H   BYTE   UNIT     CODE           ?PR?_ATECC_SEND?ATECC508A
002FB4H   003000H   00004DH   BYTE   UNIT     CODE           ?PR?CALLBACK
003001H   00304CH   00004CH   BYTE   UNIT     CODE           ?PR?_SMB_READ?I2C
00304DH   003095H   000049H   BYTE   UNIT     CODE           ?PR?__EEPROM_WRITE?EEPROM
003096H   0030DCH   000047H   BYTE   UNIT     CODE           ?PR?_INT2STR_MAP_10?BSP
0030DDH   003121H   000045H   BYTE   UNIT     CODE           ?PR?_GET_CID?U2F_HID
003122H   003163H   000042H   BYTE   UNIT     CODE           ?PR?GETINTERFACE?EFM8_USBDCH9
003164H   0031A4H   000041H   BYTE   UNIT     CODE           ?C_INITSEG
0031A5H   0031E5H   000041H   BYTE   UNIT     CODE           ?PR?_INT2STR_MAP_16?BSP
0031E6H   003226H   000041H   BYTE   UNIT     CODE           ?PR?EEPROM_INIT?EEPROM
003227H   003266H   000040H   BYTE   UNIT     CODE           ?PR?_USBD_SETUSBSTATE?EFM8_USBD
003267H   0032A5H   00003FH   BYTE   UNIT     CODE           ?PR?_SMB_WRITE?I2C
0032A6H   0032E2H   00003DH   BYTE   UNIT     CODE           ?PR?_U2F_DELAY?BSP
0032E3H   00331FH   00003DH   BYTE   UNIT     CODE           ?CO?EFM8_USBD
003320H   00335CH   00003DH   BYTE   UNIT     CODE           ?PR?HANDLEUSBRESETINT?EFM8_USBDINT
00335DH   003397H   00003BH   BYTE   UNIT     CODE           ?PR?___INT2STR10?BSP
003398H   0033D2H   00003BH   BYTE   UNIT     CODE           ?PR?___INT2STR16?BSP
0033D3H   00340DH   00003BH   BYTE   UNIT     CODE           ?PR?_STAMP_ERROR?U2F_HID
00340EH   003447H   00003AH   BYTE   UNIT     CODE           ?PR?ENTER_DEFAULTMODE_FROM_RESET?INITDEVICE
003448H   003481H   00003AH   BYTE   UNIT     CODE           ?PR?_DEL_CID?U2F_HID
003482H   0034BBH   00003AH   BYTE   UNIT     CODE           ?PR?_EEPROM_READ?EEPROM
0034BCH   0034F4H   000039H   BYTE   UNIT     CODE           ?PR?_U2F_PRINTB?BSP
0034F5H   00352CH   000038H   BYTE   UNIT     CODE           ?PR?ATECC508A
00352DH   003563H   000037H   BYTE   UNIT     CODE           ?PR?SETINTERFACE?EFM8_USBDCH9
003564H   003599H   000036H   BYTE   UNIT     CODE           ?PR?USBD_ABORTALLTRANSFERS?EFM8_USBD
00359AH   0035CEH   000035H   BYTE   UNIT     CODE           ?PR?_U2F_PRINTL?BSP
0035CFH   003603H   000035H   BYTE   UNIT     CODE           ?PR?_U2F_PRINTX?BSP
003604H   003638H   000035H   BYTE   UNIT     CODE           ?PR?_IS_CID_FREE?U2F_HID
003639H   00366CH   000034H   BYTE   UNIT     CODE           ?PR?_USB_ABORTINEP?USB_0
00366DH   0036A0H   000034H   BYTE   UNIT     CODE           ?PR?_USB_ABORTOUTEP?USB_0
0036A1H   0036D2H   000032H   BYTE   UNIT     CODE           ?PR?TIMER2_ISR?INTERRUPTS
0036D3H   003700H   00002EH   BYTE   UNIT     CODE           ?PR?_INT2STR_REDUCE_10?BSP
003701H   00372EH   00002EH   BYTE   UNIT     CODE           ?PR?FLUSH_KEY_STORE?U2F_ATECC
00372FH   00375BH   00002DH   BYTE   UNIT     CODE           ?PR?_SMB_SET_EXT_WRITE?I2C
00375CH   003784H   000029H   BYTE   UNIT     CODE           ?PR?_USBD_EPISBUSY?EFM8_USBD
003785H   0037ADH   000029H   BYTE   UNIT     CODE           ?PR?I2C
0037AEH   0037D5H   000028H   BYTE   UNIT     CODE           ?PR?U2F_HID_INIT?U2F_HID
0037D6H   0037FCH   000027H   BYTE   UNIT     CODE           ?PR?_USBD_XFERCOMPLETECB?CALLBACK
0037FDH   003823H   000027H   BYTE   UNIT     CODE           ?PR?U2F_SHA256_FINISH?U2F_ATECC
003824H   003846H   000023H   BYTE   UNIT     CODE           ?PR?_USB_GETSHORTREGISTER?USB_0
003847H   003869H   000023H   BYTE   UNIT     CODE           ?PR?EFM8_USBDEP
00386AH   00388BH   000022H   BYTE   UNIT     CODE           ?PR?IDLETIMERSTART?IDLE
00388CH   0038ACH   000021H   BYTE   UNIT     CODE           ?PR?_U2F_PRINTS?BSP
0038ADH   0038CDH   000021H   BYTE   UNIT     CODE           ?PR?_USB_READFIFO_XDATA?EFM8_USBDEP
0038CEH   0038EEH   000021H   BYTE   UNIT     CODE           ?PR?_DELAY_CMD?ATECC508A
0038EFH   00390EH   000020H   BYTE   UNIT     CODE           ?CO?BSP
00390FH   00392EH   000020H   BYTE   UNIT     CODE           ?CO?MAIN
00392FH   00394DH   00001FH   BYTE   UNIT     CODE           ?PR?UPDATE_FROM_PACKET_LENGTH?INTERRUPTS
LX51 LINKER/LOCATER V4.66.30.0                                                        03/28/2016  20:19:13  PAGE 6


00394EH   00396CH   00001FH   BYTE   UNIT     CODE           ?PR?_GET_SIGNATURE_LENGTH?U2F
00396DH   00398BH   00001FH   BYTE   UNIT     CODE           ?PR?_START_BUFFERING?U2F_HID
00398CH   0039AAH   00001FH   BYTE   UNIT     CODE           ?PR?_EP0_WRITE?EFM8_USBDCH9
0039ABH   0039C9H   00001FH   BYTE   UNIT     CODE           ?PR?_USB_READFIFO_PDATA?EFM8_USBDEP
0039CAH   0039E6H   00001DH   BYTE   UNIT     CODE           ?PR?__FEED_CRC?INTERRUPTS
0039E7H   003A03H   00001DH   BYTE   UNIT     CODE           ?PR?USBD_ACTIVATEALLEPS?EFM8_USBDCH9
003A04H   003A20H   00001DH   BYTE   UNIT     CODE           ?PR?_USB_READFIFO_IDATA?EFM8_USBDEP
003A21H   003A3BH   00001BH   BYTE   UNIT     CODE           ?PR?WHILE_BUSY?I2C
003A3CH   003A56H   00001BH   BYTE   UNIT     CODE           ?PR?_INIT?MAIN
003A57H   003A70H   00001AH   BYTE   UNIT     CODE           ?PR?U2F_SHA256_START?U2F_ATECC
003A71H   003A89H   000019H   BYTE   UNIT     CODE           ?PR?U2F_VERSION?U2F
003A8AH   003AA1H   000018H   BYTE   UNIT     CODE           ?PR?_PUTF?BSP
003AA2H   003AB9H   000018H   BYTE   UNIT     CODE           ?PR?_IDLETIMERSET?IDLE
003ABAH   003AD1H   000018H   BYTE   UNIT     CODE           ?PR?U2F_HID_RESET_PACKET?U2F_HID
003AD2H   003AE8H   000017H   BYTE   UNIT     CODE           ?PR?USBD_CONNECT?EFM8_USBD
003AE9H   003AFFH   000017H   BYTE   UNIT     CODE           ?PR?_USB_WRITEFIFO_CODE?EFM8_USBDEP
003B00H   003B16H   000017H   BYTE   UNIT     CODE           ?PR?SENDEP0STALL?EFM8_USBDINT
003B17H   003B2CH   000016H   BYTE   UNIT     CODE           ?PR?_USB_WRITEFIFO_XDATA?EFM8_USBDEP
003B2DH   003B41H   000015H   BYTE   UNIT     CODE           ?PR?RESTART_BUS?INTERRUPTS
003B42H   003B56H   000015H   BYTE   UNIT     CODE           ?PR?SMB_INIT?I2C
003B57H   003B6AH   000014H   BYTE   UNIT     CODE           ?PR?PORTS_0_ENTER_DEFAULTMODE_FROM_RESET?INITDEVICE
003B6BH   003B7EH   000014H   BYTE   UNIT     CODE           ?PR?_USB_WRITEFIFO_IDATA?EFM8_USBDEP
003B7FH   003B92H   000014H   BYTE   UNIT     CODE           ?PR?_USB_WRITEFIFO_PDATA?EFM8_USBDEP
003B93H   003BA6H   000014H   BYTE   UNIT     CODE           ?PR?SMB_INIT_CRC?I2C
003BA7H   003BB9H   000013H   BYTE   UNIT     CODE           ?PR?TIMER01_0_ENTER_DEFAULTMODE_FROM_RESET?INITDEVICE
003BBAH   003BCCH   000013H   BYTE   UNIT     CODE           ?PR?TIMER16_2_ENTER_DEFAULTMODE_FROM_RESET?INITDEVICE
003BCDH   003BDFH   000013H   BYTE   UNIT     CODE           ?PR?INTERRUPTS
003BE0H   003BF2H   000013H   BYTE   UNIT     CODE           ?PR?_INT2STR_REDUCE_16?BSP
003BF3H   003C04H   000012H   BYTE   UNIT     CODE           ?PR?PORTS_1_ENTER_DEFAULTMODE_FROM_RESET?INITDEVICE
003C05H   003C15H   000011H   BYTE   UNIT     CODE           ?PR?U2F_HID_FLUSH?U2F_HID
003C16H   003C26H   000011H   BYTE   UNIT     CODE           ?PR?ATECC_WAKE?ATECC508A
003C27H   003C36H   000010H   BYTE   UNIT     CODE           ?PR?TIMER3_ISR?INTERRUPTS
003C37H   003C45H   00000FH   BYTE   UNIT     CODE           ?PR?HANDLEUSBSUSPENDINT?EFM8_USBDINT
003C46H   003C53H   00000EH   BYTE   UNIT     CODE           ?PR?CLOCK_0_ENTER_DEFAULTMODE_FROM_RESET?INITDEVICE
003C54H   003C60H   00000DH   BYTE   UNIT     CODE           ?PR?USB_GETSETUPEND?USB_0
003C61H   003C6DH   00000DH   BYTE   UNIT     CODE           ?PR?USB_EP0SENTSTALL?USB_0
003C6EH   003C7AH   00000DH   BYTE   UNIT     CODE           ?PR?USB_EP0INPACKETREADY?USB_0
003C7BH   003C87H   00000DH   BYTE   UNIT     CODE           ?PR?USB_EPNINGETSENTSTALL?USB_0
003C88H   003C94H   00000DH   BYTE   UNIT     CODE           ?PR?USB_EPNOUTGETSENTSTALL?USB_0
003C95H   003CA0H   00000CH   BYTE   UNIT     CODE           ?CO?INTERRUPTS
003CA1H   003CACH   00000CH   BYTE   UNIT     CODE           ?PR?_U2F_PUTD?BSP
003CADH   003CB8H   00000CH   BYTE   UNIT     CODE           ?PR?USB_EP0OUTPACKETREADY?USB_0
003CB9H   003CC4H   00000CH   BYTE   UNIT     CODE           ?PR?USB_EPNGETOUTPACKETREADY?USB_0
003CC5H   003CCFH   00000BH   BYTE   UNIT     CODE           ?PR?_USB_SETINDEX?USB_0
003CD0H   003CDAH   00000BH   BYTE   UNIT     CODE           ?PR?USB_GETCOMMONINTS?USB_0
003CDBH   003CE5H   00000BH   BYTE   UNIT     CODE           ?PR?USB_GETININTS?USB_0
003CE6H   003CF0H   00000BH   BYTE   UNIT     CODE           ?PR?USB_GETOUTINTS?USB_0
003CF1H   003CFBH   00000BH   BYTE   UNIT     CODE           ?PR?USB_GETINDEX?USB_0
003CFCH   003D06H   00000BH   BYTE   UNIT     CODE           ?PR?USB_EP0GETCOUNT?USB_0
003D07H   003D11H   00000BH   BYTE   UNIT     CODE           ?CO?ATECC508A
003D12H   003D1BH   00000AH   BYTE   UNIT     CODE           ?PR?WDT_0_ENTER_DEFAULTMODE_FROM_RESET?INITDEVICE
003D1CH   003D25H   00000AH   BYTE   UNIT     CODE           ?PR?TIMER_SETUP_0_ENTER_DEFAULTMODE_FROM_RESET?INITDEVICE
003D26H   003D2FH   00000AH   BYTE   UNIT     CODE           ?PR?_U2F_PUTB?BSP
003D30H   003D39H   00000AH   BYTE   UNIT     CODE           ?PR?ATECC_IDLE?ATECC508A
003D3AH   003D43H   00000AH   BYTE   UNIT     CODE           ?PR?EEPROM
003D44H   003D4DH   00000AH   BYTE   UNIT     CODE           ?PR?_SET_APP_U2F_HID_MSG?MAIN
003D4EH   003D56H   000009H   BYTE   UNIT     CODE           ?PR?USBLIB_0_ENTER_DEFAULTMODE_FROM_RESET?INITDEVICE
003D57H   003D5FH   000009H   BYTE   UNIT     CODE           ?PR?_U2F_PUTX?BSP
003D60H   003D68H   000009H   BYTE   UNIT     CODE           ?PR?_USBD_DEVICESTATECHANGECB?CALLBACK
003D69H   003D71H   000009H   BYTE   UNIT     CODE           ?PR?_U2F_HID_SET_LEN?U2F_HID
003D72H   003D7AH   000009H   BYTE   UNIT     CODE           ?PR?_REFRESH_CID?U2F_HID
003D7BH   003D82H   000008H   BYTE   UNIT     CODE           ?PR?HANDLEUSBRESUMEINT?EFM8_USBDINT
LX51 LINKER/LOCATER V4.66.30.0                                                        03/28/2016  20:19:13  PAGE 7


003D83H   003D89H   000007H   BYTE   UNIT     CODE           ?PR?VREG_0_ENTER_DEFAULTMODE_FROM_RESET?INITDEVICE
003D8AH   003D90H   000007H   BYTE   UNIT     CODE           ?PR?PBCFG_0_ENTER_DEFAULTMODE_FROM_RESET?INITDEVICE
003D91H   003D97H   000007H   BYTE   UNIT     CODE           ?PR?CIP51_0_ENTER_DEFAULTMODE_FROM_RESET?INITDEVICE
003D98H   003D9EH   000007H   BYTE   UNIT     CODE           ?PR?INTERRUPT_0_ENTER_DEFAULTMODE_FROM_RESET?INITDEVICE
003D9FH   003DA5H   000007H   BYTE   UNIT     CODE           ?PR?USB_GETINTSENABLED?USB_0
003DA6H   003DACH   000007H   BYTE   UNIT     CODE           ?PR?U2F_GET_ATTESTATION_CERT?U2F_ATECC
003DADH   003DB2H   000006H   BYTE   UNIT     CODE           ?PR?_U2F_PUTL?BSP
003DB3H   003DB8H   000006H   BYTE   UNIT     CODE           ?PR?IDLEGETRATE?IDLE
003DB9H   003DBEH   000006H   BYTE   UNIT     CODE           ?PR?USB_EPOUTGETCOUNT?USB_0
003DBFH   003DC2H   000004H   BYTE   UNIT     CODE           ?PR?SMBUS_0_ENTER_DEFAULTMODE_FROM_RESET?INITDEVICE
003DC3H   003DC6H   000004H   BYTE   UNIT     CODE           ?PR?UART_0_ENTER_DEFAULTMODE_FROM_RESET?INITDEVICE
003DC7H   003DC9H   000003H   BYTE   UNIT     CODE           ?PR?_SET_APP_ERROR?MAIN
003DCAH   003DCCH   000003H   BYTE   UNIT     CODE           ?PR?TEST_APP?MAIN
003DCDH   003DCFH   000003H   BYTE   UNIT     CODE           ?PR?_U2F_RESPONSE_WRITEBACK?U2F_ATECC
003DD0H   003DD2H   000003H   BYTE   UNIT     CODE           ?PR?U2F_RESPONSE_FLUSH?U2F_ATECC
003DD3H   003DD5H   000003H   BYTE   UNIT     CODE           ?PR?U2F_GET_USER_FEEDBACK?U2F_ATECC
003DD6H   003DD7H   000002H   BYTE   UNIT     CODE           ?PR?USBD_ISSELFPOWEREDCB?CALLBACK
003DD8H   003DD9H   000002H   BYTE   UNIT     CODE           ?PR?_SLAB_ASSERT?ASSERT
003DDAH   003DDAH   000001H   BYTE   UNIT     CODE           ?PR?USBD_RESETCB?CALLBACK
003DDBH   003DDBH   000001H   BYTE   UNIT     CODE           ?PR?FORCEMODULELOAD_USBINT?EFM8_USBDINT
003DDCH   003DDCH   000001H   BYTE   UNIT     CODE           ?PR?U2F_RESPONSE_START?U2F_ATECC
003DDDH   003E96H   0000BAH   BYTE   UNIT     CONST          ?CO?DESCRIPTORS
003E97H   003E98H   000002H   BYTE   UNIT     CONST          ?CO?EFM8_USBDCH9

* * * * * * * * * * *  X D A T A   M E M O R Y  * * * * * * * * * * * * *
000000H   00011FH   000120H   BYTE   UNIT     XDATA          _XDATA_GROUP_
000120H   000235H   000116H   BYTE   UNIT     XDATA          ?XD?U2F_HID
000236H   0002C8H   000093H   BYTE   UNIT     XDATA          ?XD?U2F_ATECC
0002C9H   000309H   000041H   BYTE   UNIT     XDATA          ?XD?CALLBACK
00030AH   000334H   00002BH   BYTE   UNIT     XDATA          ?XD?EFM8_USBD
000335H   00034BH   000017H   BYTE   UNIT     XDATA          ?XD?INTERRUPTS
00034CH   000357H   00000CH   BYTE   UNIT     XDATA          ?XD?BSP
000358H   00035AH   000003H   BYTE   UNIT     XDATA          ?XD?IDLE
00035BH   00035CH   000002H   BYTE   UNIT     XDATA          ?XD?EFM8_USBDCH9
00035DH   00035EH   000002H   BYTE   UNIT     XDATA          ?XD?ATECC508A

* * * * * * * * *   R E M O V E D     S E G M E N T S   * * * * * * * *
   *DEL*:           000015H   BYTE   UNIT     CODE           ?PR?PORTS_2_ENTER_DEFAULTMODE_FROM_RESET?INITDEVICE
   *DEL*:           000006H   BYTE   UNIT     CODE           ?PR?_U2F_PUTLX?BSP
   *DEL*:           000035H   BYTE   UNIT     CODE           ?PR?_U2F_PRINTLX?BSP
   *DEL*:           00002FH   BYTE   UNIT     XDATA          ?XD?_U2F_PRINTLX?BSP
   *DEL*:           000009H   BYTE   UNIT     CODE           ?PR?ISIDLETIMERINDEFINITE?IDLE
   *DEL*:           000011H   BYTE   UNIT     CODE           ?PR?ISIDLETIMEREXPIRED?IDLE
   *DEL*:           000017H   BYTE   UNIT     CODE           ?PR?IDLETIMERTICK?IDLE
   *DEL*:           000012H   BYTE   UNIT     CODE           ?PR?_CHECK_CID?U2F_HID
   *DEL*:           00000DH   BYTE   UNIT     CODE           ?PR?USB_ISSUSPENDED?USB_0
   *DEL*:           000006H   BYTE   UNIT     CODE           ?PR?USB_GETSOFNUMBER?USB_0
   *DEL*:           000008H   BYTE   UNIT     CODE           ?PR?USB_ISPREFETCHENABLED?USB_0
   *DEL*:           000008H   BYTE   UNIT     CODE           ?PR?USB_ISREGULATORENABLED?USB_0
   *DEL*:           00001DH   BYTE   UNIT     CODE           ?PR?USB_SUSPENDOSCILLATOR?USB_0
   *DEL*:           00000BH   BYTE   UNIT     CODE           ?PR?USBD_DISCONNECT?EFM8_USBD
   *DEL*:           000006H   BYTE   UNIT     CODE           ?PR?USBD_GETUSBSTATE?EFM8_USBD
   *DEL*:           000077H   BYTE   UNIT     CODE           ?PR?_USBD_STALLEP?EFM8_USBD
   *DEL*:           000002H   BYTE   UNIT     XDATA          ?XD?_USBD_STALLEP?EFM8_USBD
   *DEL*:           000000H.1 BIT    UNIT     BIT            ?BI?_USBD_STALLEP?EFM8_USBD
   *DEL*:           00000BH   BYTE   UNIT     CODE           ?PR?USBD_STOP?EFM8_USBD
   *DEL*:           000064H   BYTE   UNIT     CODE           ?PR?USBD_SUSPEND?EFM8_USBD
   *DEL*:           000001H   BYTE   UNIT     XDATA          ?XD?USBD_SUSPEND?EFM8_USBD
   *DEL*:           000000H.2 BIT    UNIT     BIT            ?BI?USBD_SUSPEND?EFM8_USBD
   *DEL*:           000075H   BYTE   UNIT     CODE           ?PR?_USBD_UNSTALLEP?EFM8_USBD
   *DEL*:           000002H   BYTE   UNIT     XDATA          ?XD?_USBD_UNSTALLEP?EFM8_USBD
   *DEL*:           000000H.1 BIT    UNIT     BIT            ?BI?_USBD_UNSTALLEP?EFM8_USBD
LX51 LINKER/LOCATER V4.66.30.0                                                        03/28/2016  20:19:13  PAGE 8


   *DEL*:           00000AH   BYTE   UNIT     CODE           ?PR?ATECC_SLEEP?ATECC508A
   *DEL*:           0000BAH   BYTE   UNIT     CODE           ?PR?_ATECC_WRITE_EEPROM?ATECC508A
   *DEL*:           000014H   BYTE   UNIT     XDATA          ?XD?_ATECC_WRITE_EEPROM?ATECC508A
   *DEL*:           000003H   BYTE   UNIT     CODE           ?PR?_SET_RESPONSE_LENGTH?U2F_ATECC



OVERLAY MAP OF MODULE:   U2F-FIRMWARE.OMF.CRBUILD (INITDEVICE)


FUNCTION/MODULE                                BIT_GROUP   DATA_GROUP   XDATA_GROUP
--> CALLED FUNCTION/MODULE                    START  STOP  START  STOP  START  STOP
===================================================================================
TIMER2_ISR/INTERRUPTS                         ----- -----  ----- -----  ----- -----

*** NEW ROOT ********************************

SMBUS0_ISR/INTERRUPTS                         ----- -----  ----- -----  0000H 0000H
  +--> INTERRUPTS
  +--> __FEED_CRC/INTERRUPTS
  +--> UPDATE_FROM_PACKET_LENGTH/INTERRUPTS
  +--> _FEED_CRC/I2C
  +--> ?CO?INTERRUPTS
  +--> _U2F_PRINTB/BSP
  +--> RESTART_BUS/INTERRUPTS
  +--> _REVERSE_BITS/I2C

INTERRUPTS                                    ----- -----  ----- -----  ----- -----

__FEED_CRC/INTERRUPTS                         ----- -----  ----- -----  ----- -----
  +--> _FEED_CRC/I2C

_FEED_CRC/I2C                                 ----- -----  ----- -----  ----- -----
  +--> I2C

I2C                                           ----- -----  ----- -----  ----- -----

UPDATE_FROM_PACKET_LENGTH/INTERRUPTS          ----- -----  ----- -----  ----- -----

?CO?INTERRUPTS                                ----- -----  ----- -----  ----- -----

_U2F_PRINTB/BSP                               ----- -----  ----- -----  00C3H 00F1H
  +--> _U2F_PRINTS/BSP
  +--> BSP
  +--> _U2F_PUTB/BSP

_U2F_PRINTS/BSP                               ----- -----  ----- -----  0112H 0114H
  +--> BSP
  +--> _PUTF/BSP

BSP                                           ----- -----  ----- -----  ----- -----
  +--> ?CO?BSP

?CO?BSP                                       ----- -----  ----- -----  ----- -----

_PUTF/BSP                                     ----- -----  ----- -----  ----- -----

_U2F_PUTB/BSP                                 ----- -----  ----- -----  ----- -----
  +--> ___INT2STR16/BSP
  +--> _U2F_PRINTS/BSP

___INT2STR16/BSP                              ----- -----  ----- -----  0112H 0118H
LX51 LINKER/LOCATER V4.66.30.0                                                        03/28/2016  20:19:13  PAGE 9


  +--> BSP
  +--> _INT2STR_REDUCE_16/BSP
  +--> _INT2STR_MAP_16/BSP

_INT2STR_REDUCE_16/BSP                        ----- -----  ----- -----  ----- -----

_INT2STR_MAP_16/BSP                           ----- -----  ----- -----  0119H 011FH
  +--> BSP

RESTART_BUS/INTERRUPTS                        ----- -----  ----- -----  ----- -----
  +--> INTERRUPTS

_REVERSE_BITS/I2C                             ----- -----  ----- -----  ----- -----
  +--> I2C

*** NEW ROOT ********************************

TIMER3_ISR/INTERRUPTS                         ----- -----  ----- -----  ----- -----
  +--> RESTART_BUS/INTERRUPTS

*** NEW ROOT ********************************

?C_C51STARTUP                                 ----- -----  ----- -----  ----- -----
  +--> MAIN/MAIN
  +--> ?C_INITSEG

MAIN/MAIN                                     ----- -----  0008H 000FH  003EH 0040H
  +--> ENTER_DEFAULTMODE_FROM_RESET/INITDEVICE
  +--> _INIT/MAIN
  +--> ?CO?MAIN
  +--> _U2F_PRINTS/BSP
  +--> _U2F_PRINTL/BSP
  +--> _U2F_PRINTX/BSP
  +--> TEST_APP/MAIN
  +--> _USBD_EPISBUSY/EFM8_USBD
  +--> _USBD_READ/EFM8_USBD
  +--> _U2F_HID_REQUEST/U2F_HID
  +--> _U2F_PRINTB/BSP

ENTER_DEFAULTMODE_FROM_RESET/INITDEVICE       ----- -----  ----- -----  0041H 0041H
  +--> WDT_0_ENTER_DEFAULTMODE_FROM_RESET/INITDEVICE
  +--> VREG_0_ENTER_DEFAULTMODE_FROM_RESET/INITDEVICE
  +--> PORTS_0_ENTER_DEFAULTMODE_FROM_RESET/INITDEVICE
  +--> PORTS_1_ENTER_DEFAULTMODE_FROM_RESET/INITDEVICE
  +--> PBCFG_0_ENTER_DEFAULTMODE_FROM_RESET/INITDEVICE
  +--> CIP51_0_ENTER_DEFAULTMODE_FROM_RESET/INITDEVICE
  +--> CLOCK_0_ENTER_DEFAULTMODE_FROM_RESET/INITDEVICE
  +--> TIMER01_0_ENTER_DEFAULTMODE_FROM_RESET/INITDEVICE
  +--> TIMER16_2_ENTER_DEFAULTMODE_FROM_RESET/INITDEVICE
  +--> TIMER16_3_ENTER_DEFAULTMODE_FROM_RESET/INITDEVICE
  +--> TIMER_SETUP_0_ENTER_DEFAULTMODE_FROM_RESET/INITDEVICE
  +--> SMBUS_0_ENTER_DEFAULTMODE_FROM_RESET/INITDEVICE
  +--> UART_0_ENTER_DEFAULTMODE_FROM_RESET/INITDEVICE
  +--> INTERRUPT_0_ENTER_DEFAULTMODE_FROM_RESET/INITDEVICE
  +--> USBLIB_0_ENTER_DEFAULTMODE_FROM_RESET/INITDEVICE

WDT_0_ENTER_DEFAULTMODE_FROM_RESET/INITD+     ----- -----  ----- -----  ----- -----
... EVICE

VREG_0_ENTER_DEFAULTMODE_FROM_RESET/INIT+     ----- -----  ----- -----  ----- -----
... DEVICE

LX51 LINKER/LOCATER V4.66.30.0                                                        03/28/2016  20:19:13  PAGE 10


PORTS_0_ENTER_DEFAULTMODE_FROM_RESET/INI+     ----- -----  ----- -----  ----- -----
... TDEVICE

PORTS_1_ENTER_DEFAULTMODE_FROM_RESET/INI+     ----- -----  ----- -----  ----- -----
... TDEVICE

PBCFG_0_ENTER_DEFAULTMODE_FROM_RESET/INI+     ----- -----  ----- -----  ----- -----
... TDEVICE

CIP51_0_ENTER_DEFAULTMODE_FROM_RESET/INI+     ----- -----  ----- -----  ----- -----
... TDEVICE

CLOCK_0_ENTER_DEFAULTMODE_FROM_RESET/INI+     ----- -----  ----- -----  ----- -----
... TDEVICE

TIMER01_0_ENTER_DEFAULTMODE_FROM_RESET/I+     ----- -----  ----- -----  ----- -----
... NITDEVICE

TIMER16_2_ENTER_DEFAULTMODE_FROM_RESET/I+     ----- -----  ----- -----  ----- -----
... NITDEVICE

TIMER16_3_ENTER_DEFAULTMODE_FROM_RESET/I+     ----- -----  ----- -----  ----- -----
... NITDEVICE

TIMER_SETUP_0_ENTER_DEFAULTMODE_FROM_RES+     ----- -----  ----- -----  ----- -----
... ET/INITDEVICE

SMBUS_0_ENTER_DEFAULTMODE_FROM_RESET/INI+     ----- -----  ----- -----  ----- -----
... TDEVICE

UART_0_ENTER_DEFAULTMODE_FROM_RESET/INIT+     ----- -----  ----- -----  ----- -----
... DEVICE

INTERRUPT_0_ENTER_DEFAULTMODE_FROM_RESET+     ----- -----  ----- -----  ----- -----
... /INITDEVICE

USBLIB_0_ENTER_DEFAULTMODE_FROM_RESET/IN+     ----- -----  ----- -----  ----- -----
... ITDEVICE
  +--> ?CO?DESCRIPTORS
  +--> _USBD_INIT/EFM8_USBD

?CO?DESCRIPTORS                               ----- -----  ----- -----  ----- -----

_USBD_INIT/EFM8_USBD                          ----- -----  ----- -----  0042H 0045H
  +--> EFM8_USBD
  +--> FORCEMODULELOAD_USBINT/EFM8_USBDINT
  +--> USBD_CONNECT/EFM8_USBD

EFM8_USBD                                     ----- -----  ----- -----  ----- -----
  +--> ?CO?EFM8_USBD

?CO?EFM8_USBD                                 ----- -----  ----- -----  ----- -----

FORCEMODULELOAD_USBINT/EFM8_USBDINT           ----- -----  ----- -----  ----- -----

USBD_CONNECT/EFM8_USBD                        ----- -----  ----- -----  ----- -----

_INIT/MAIN                                    ----- -----  ----- -----  ----- -----
  +--> U2F_HID_INIT/U2F_HID
  +--> SMB_INIT/I2C
  +--> ATECC_IDLE/ATECC508A
  +--> EEPROM_INIT/EEPROM
LX51 LINKER/LOCATER V4.66.30.0                                                        03/28/2016  20:19:13  PAGE 11


  +--> U2F_INIT/U2F_ATECC

U2F_HID_INIT/U2F_HID                          ----- -----  ----- -----  ----- -----
  +--> U2F_HID

U2F_HID                                       ----- -----  ----- -----  ----- -----

SMB_INIT/I2C                                  ----- -----  ----- -----  ----- -----

ATECC_IDLE/ATECC508A                          ----- -----  ----- -----  ----- -----
  +--> ATECC508A
  +--> _SMB_WRITE/I2C

ATECC508A                                     ----- -----  ----- -----  ----- -----

_SMB_WRITE/I2C                                ----- -----  ----- -----  00CBH 00CFH
  +--> WHILE_BUSY/I2C
  +--> I2C

WHILE_BUSY/I2C                                ----- -----  ----- -----  ----- -----
  +--> _SET_APP_ERROR/MAIN

_SET_APP_ERROR/MAIN                           ----- -----  ----- -----  ----- -----

EEPROM_INIT/EEPROM                            ----- -----  ----- -----  0041H 0041H
  +--> EEPROM
  +--> _EEPROM_READ/EEPROM
  +--> __EEPROM_WRITE/EEPROM

EEPROM                                        ----- -----  ----- -----  ----- -----

_EEPROM_READ/EEPROM                           20H.0 20H.0  ----- -----  00B3H 00B8H

__EEPROM_WRITE/EEPROM                         20H.0 20H.0  0010H 0011H  00B2H 00B8H

U2F_INIT/U2F_ATECC                            ----- -----  ----- -----  0041H 0046H
  +--> U2F_ATECC
  +--> _EEPROM_READ/EEPROM
  +--> ?CO?U2F_ATECC
  +--> _U2F_PRINTS/BSP
  +--> FLUSH_KEY_STORE/U2F_ATECC
  +--> _ATECC_SEND_RECV/ATECC508A
  +--> __EEPROM_WRITE/EEPROM

U2F_ATECC                                     ----- -----  ----- -----  ----- -----

?CO?U2F_ATECC                                 ----- -----  ----- -----  ----- -----

FLUSH_KEY_STORE/U2F_ATECC                     ----- -----  ----- -----  ----- -----
  +--> __EEPROM_WRITE/EEPROM

_ATECC_SEND_RECV/ATECC508A                    ----- -----  ----- -----  00B3H 00C2H
  +--> ATECC_WAKE/ATECC508A
  +--> _ATECC_SEND/ATECC508A
  +--> _U2F_DELAY/BSP
  +--> _ATECC_RECV/ATECC508A
  +--> ?CO?ATECC508A
  +--> _U2F_PRINTB/BSP
  +--> _DELAY_CMD/ATECC508A
  +--> ATECC_IDLE/ATECC508A

ATECC_WAKE/ATECC508A                          ----- -----  ----- -----  ----- -----
LX51 LINKER/LOCATER V4.66.30.0                                                        03/28/2016  20:19:13  PAGE 12


  +--> _SMB_WRITE/I2C

_ATECC_SEND/ATECC508A                         ----- -----  ----- -----  00C3H 00CAH
  +--> SMB_INIT_CRC/I2C
  +--> _SMB_SET_EXT_WRITE/I2C
  +--> ATECC508A
  +--> _SMB_WRITE/I2C

SMB_INIT_CRC/I2C                              ----- -----  ----- -----  ----- -----
  +--> WHILE_BUSY/I2C

_SMB_SET_EXT_WRITE/I2C                        ----- -----  ----- -----  00CBH 00CEH
  +--> WHILE_BUSY/I2C

_U2F_DELAY/BSP                                ----- -----  ----- -----  00C3H 00C8H

_ATECC_RECV/ATECC508A                         ----- -----  ----- -----  00C3H 00CAH
  +--> SMB_INIT_CRC/I2C
  +--> ATECC508A
  +--> _SMB_READ/I2C
  +--> _SET_APP_ERROR/MAIN

_SMB_READ/I2C                                 ----- -----  ----- -----  00CBH 00CFH
  +--> WHILE_BUSY/I2C
  +--> I2C

?CO?ATECC508A                                 ----- -----  ----- -----  ----- -----

_DELAY_CMD/ATECC508A                          ----- -----  ----- -----  ----- -----
  +--> _U2F_DELAY/BSP

?CO?MAIN                                      ----- -----  ----- -----  ----- -----

_U2F_PRINTL/BSP                               ----- -----  ----- -----  0041H 006FH
  +--> _U2F_PRINTS/BSP
  +--> BSP
  +--> _U2F_PUTL/BSP

_U2F_PUTL/BSP                                 ----- -----  ----- -----  ----- -----
  +--> ___INT2STR10/BSP
  +--> _U2F_PRINTS/BSP

___INT2STR10/BSP                              ----- -----  ----- -----  00E5H 00EBH
  +--> BSP
  +--> _INT2STR_REDUCE_10/BSP
  +--> _INT2STR_MAP_10/BSP

_INT2STR_REDUCE_10/BSP                        ----- -----  ----- -----  00ECH 00F2H
  +--> BSP

_INT2STR_MAP_10/BSP                           ----- -----  ----- -----  00ECH 00F2H
  +--> BSP

_U2F_PRINTX/BSP                               ----- -----  ----- -----  0041H 006FH
  +--> _U2F_PRINTS/BSP
  +--> BSP
  +--> _U2F_PUTX/BSP

_U2F_PUTX/BSP                                 ----- -----  ----- -----  ----- -----
  +--> ___INT2STR16/BSP
  +--> _U2F_PRINTS/BSP

LX51 LINKER/LOCATER V4.66.30.0                                                        03/28/2016  20:19:13  PAGE 13


TEST_APP/MAIN                                 ----- -----  ----- -----  ----- -----

_USBD_EPISBUSY/EFM8_USBD                      ----- -----  ----- -----  0041H 0041H
  +--> EFM8_USBD
  +--> _SLAB_ASSERT/ASSERT

_SLAB_ASSERT/ASSERT                           ----- -----  ----- -----  ----- -----

_USBD_READ/EFM8_USBD                          20H.0 20H.1  ----- -----  0041H 0049H
  +--> EFM8_USBD
  +--> _SLAB_ASSERT/ASSERT
  +--> USB_GETINTSENABLED/USB_0

USB_GETINTSENABLED/USB_0                      ----- -----  ----- -----  ----- -----

_U2F_HID_REQUEST/U2F_HID                      ----- -----  ----- -----  0041H 0049H
  +--> U2F_HID
  +--> _GET_CID/U2F_HID
  +--> _REFRESH_CID/U2F_HID
  +--> U2F_HID_RESET_PACKET/U2F_HID
  +--> _STAMP_ERROR/U2F_HID
  +--> ?CO?U2F_HID
  +--> _U2F_PRINTS/BSP
  +--> _HID_U2F_PARSE/U2F_HID

_GET_CID/U2F_HID                              ----- -----  ----- -----  004AH 004EH
  +--> U2F_HID

_REFRESH_CID/U2F_HID                          ----- -----  ----- -----  ----- -----
  +--> U2F_HID

U2F_HID_RESET_PACKET/U2F_HID                  ----- -----  ----- -----  ----- -----
  +--> U2F_HID

_STAMP_ERROR/U2F_HID                          ----- -----  ----- -----  0052H 0056H
  +--> U2F_HID
  +--> _USB_WRITE/BSP
  +--> _DEL_CID/U2F_HID

_USB_WRITE/BSP                                ----- -----  ----- -----  00AFH 00B5H
  +--> _USBD_WRITE/EFM8_USBD
  +--> _U2F_DELAY/BSP
  +--> ?CO?BSP
  +--> _U2F_PRINTD/BSP

_USBD_WRITE/EFM8_USBD                         20H.3 20H.4  ----- -----  0107H 010FH
  +--> EFM8_USBD
  +--> _SLAB_ASSERT/ASSERT
  +--> USB_GETINTSENABLED/USB_0
  +--> _USB_WRITEFIFO/EFM8_USBDEP

_USB_WRITEFIFO/EFM8_USBDEP                    20H.5 20H.5  ----- -----  0110H 0114H
  +--> EFM8_USBDEP
  +--> _USB_WRITEFIFO_IDATA/EFM8_USBDEP
  +--> _USB_WRITEFIFO_XDATA/EFM8_USBDEP
  +--> _USB_WRITEFIFO_PDATA/EFM8_USBDEP
  +--> _USB_WRITEFIFO_CODE/EFM8_USBDEP
  +--> _USB_SETINDEX/USB_0

EFM8_USBDEP                                   ----- -----  ----- -----  ----- -----

_USB_WRITEFIFO_IDATA/EFM8_USBDEP              ----- -----  ----- -----  ----- -----
LX51 LINKER/LOCATER V4.66.30.0                                                        03/28/2016  20:19:13  PAGE 14



_USB_WRITEFIFO_XDATA/EFM8_USBDEP              ----- -----  ----- -----  ----- -----

_USB_WRITEFIFO_PDATA/EFM8_USBDEP              ----- -----  ----- -----  ----- -----

_USB_WRITEFIFO_CODE/EFM8_USBDEP               ----- -----  ----- -----  ----- -----

_USB_SETINDEX/USB_0                           ----- -----  ----- -----  ----- -----

_U2F_PRINTD/BSP                               ----- -----  ----- -----  00B6H 00E4H
  +--> _U2F_PRINTS/BSP
  +--> BSP
  +--> _U2F_PUTD/BSP

_U2F_PUTD/BSP                                 ----- -----  ----- -----  ----- -----
  +--> ___INT2STR10/BSP
  +--> _U2F_PRINTS/BSP

_DEL_CID/U2F_HID                              ----- -----  ----- -----  0057H 005BH
  +--> U2F_HID

?CO?U2F_HID                                   ----- -----  ----- -----  ----- -----

_HID_U2F_PARSE/U2F_HID                        ----- -----  ----- -----  004AH 0051H
  +--> U2F_HID
  +--> ?CO?U2F_HID
  +--> _U2F_HID_SET_LEN/U2F_HID
  +--> GET_NEW_CID/U2F_HID
  +--> _U2F_HID_WRITEBACK/U2F_HID
  +--> U2F_HID_FLUSH/U2F_HID
  +--> _U2F_PRINTS/BSP
  +--> _START_BUFFERING/U2F_HID
  +--> _BUFFER_REQUEST/U2F_HID
  +--> _U2F_REQUEST/U2F
  +--> _STAMP_ERROR/U2F_HID
  +--> _U2F_PRINTB/BSP

_U2F_HID_SET_LEN/U2F_HID                      ----- -----  ----- -----  ----- -----

GET_NEW_CID/U2F_HID                           ----- -----  ----- -----  0052H 0053H
  +--> U2F_HID
  +--> _IS_CID_FREE/U2F_HID
  +--> _REFRESH_CID/U2F_HID

_IS_CID_FREE/U2F_HID                          ----- -----  ----- -----  0054H 0056H
  +--> U2F_HID

_U2F_HID_WRITEBACK/U2F_HID                    ----- -----  ----- -----  00AAH 00AEH
  +--> U2F_HID
  +--> _SET_APP_ERROR/MAIN
  +--> _USB_WRITE/BSP

U2F_HID_FLUSH/U2F_HID                         ----- -----  ----- -----  ----- -----
  +--> U2F_HID
  +--> _USB_WRITE/BSP
  +--> U2F_HID_RESET_PACKET/U2F_HID

_START_BUFFERING/U2F_HID                      ----- -----  ----- -----  ----- -----
  +--> U2F_HID

_BUFFER_REQUEST/U2F_HID                       ----- -----  ----- -----  0052H 0054H
  +--> ?CO?U2F_HID
LX51 LINKER/LOCATER V4.66.30.0                                                        03/28/2016  20:19:13  PAGE 15


  +--> _U2F_PRINTS/BSP
  +--> U2F_HID

_U2F_REQUEST/U2F                              ----- -----  ----- -----  0052H 0057H
  +--> U2F_RESPONSE_START/U2F_ATECC
  +--> ?CO?U2F
  +--> _U2F_REGISTER/U2F
  +--> _U2F_AUTHENTICATE/U2F
  +--> _U2F_PRINTS/BSP
  +--> U2F_VERSION/U2F
  +--> _U2F_RESPONSE_WRITEBACK/U2F_ATECC
  +--> U2F_RESPONSE_FLUSH/U2F_ATECC

U2F_RESPONSE_START/U2F_ATECC                  ----- -----  ----- -----  ----- -----

?CO?U2F                                       ----- -----  ----- -----  ----- -----

_U2F_REGISTER/U2F                             ----- -----  ----- -----  0058H 00A2H
  +--> ?CO?U2F
  +--> U2F
  +--> U2F_ATTESTATION_CERT_SIZE/U2F_ATECC
  +--> U2F_GET_USER_FEEDBACK/U2F_ATECC
  +--> _U2F_NEW_KEYPAIR/U2F_ATECC
  +--> U2F_SHA256_START/U2F_ATECC
  +--> _U2F_SHA256_UPDATE/U2F_ATECC
  +--> U2F_SHA256_FINISH/U2F_ATECC
  +--> _U2F_ECDSA_SIGN/U2F_ATECC
  +--> _GET_SIGNATURE_LENGTH/U2F
  +--> _U2F_HID_SET_LEN/U2F_HID
  +--> _U2F_RESPONSE_WRITEBACK/U2F_ATECC
  +--> U2F_GET_ATTESTATION_CERT/U2F_ATECC
  +--> _DUMP_SIGNATURE_DER/U2F

U2F                                           ----- -----  ----- -----  ----- -----

U2F_ATTESTATION_CERT_SIZE/U2F_ATECC           ----- -----  ----- -----  ----- -----

U2F_GET_USER_FEEDBACK/U2F_ATECC               ----- -----  ----- -----  ----- -----

_U2F_NEW_KEYPAIR/U2F_ATECC                    ----- -----  ----- -----  00A3H 00B1H
  +--> U2F_ATECC
  +--> _ATECC_SEND_RECV/ATECC508A
  +--> _EEPROM_READ/EEPROM
  +--> _SET_APP_ERROR/MAIN
  +--> FLUSH_KEY_STORE/U2F_ATECC

U2F_SHA256_START/U2F_ATECC                    ----- -----  ----- -----  ----- -----
  +--> U2F_ATECC
  +--> _ATECC_SEND_RECV/ATECC508A

_U2F_SHA256_UPDATE/U2F_ATECC                  ----- -----  ----- -----  00A3H 00A7H
  +--> U2F_ATECC
  +--> _ATECC_SEND_RECV/ATECC508A

U2F_SHA256_FINISH/U2F_ATECC                   ----- -----  ----- -----  ----- -----
  +--> U2F_ATECC
  +--> _ATECC_SEND_RECV/ATECC508A

_U2F_ECDSA_SIGN/U2F_ATECC                     ----- -----  ----- -----  00A3H 00B2H
  +--> U2F_ATECC
  +--> _ATECC_SEND_RECV/ATECC508A
  +--> _EEPROM_READ/EEPROM
LX51 LINKER/LOCATER V4.66.30.0                                                        03/28/2016  20:19:13  PAGE 16



_GET_SIGNATURE_LENGTH/U2F                     ----- -----  ----- -----  ----- -----

_U2F_RESPONSE_WRITEBACK/U2F_ATECC             ----- -----  ----- -----  ----- -----
  +--> _U2F_HID_WRITEBACK/U2F_HID

U2F_GET_ATTESTATION_CERT/U2F_ATECC            ----- -----  ----- -----  ----- -----
  +--> ?CO?U2F_ATECC

_DUMP_SIGNATURE_DER/U2F                       ----- -----  ----- -----  00A3H 00A9H
  +--> ?CO?U2F
  +--> U2F
  +--> _U2F_RESPONSE_WRITEBACK/U2F_ATECC

_U2F_AUTHENTICATE/U2F                         ----- -----  ----- -----  0058H 0060H
  +--> U2F
  +--> _U2F_LOAD_KEY/U2F_ATECC
  +--> _U2F_HID_SET_LEN/U2F_HID
  +--> U2F_COUNT/U2F_ATECC
  +--> U2F_SHA256_START/U2F_ATECC
  +--> _U2F_SHA256_UPDATE/U2F_ATECC
  +--> U2F_SHA256_FINISH/U2F_ATECC
  +--> _U2F_ECDSA_SIGN/U2F_ATECC
  +--> _GET_SIGNATURE_LENGTH/U2F
  +--> _U2F_RESPONSE_WRITEBACK/U2F_ATECC
  +--> _DUMP_SIGNATURE_DER/U2F

_U2F_LOAD_KEY/U2F_ATECC                       ----- -----  ----- -----  0061H 0068H
  +--> U2F_ATECC
  +--> _EEPROM_READ/EEPROM

U2F_COUNT/U2F_ATECC                           ----- -----  ----- -----  0061H 0064H
  +--> U2F_ATECC
  +--> _ATECC_SEND_RECV/ATECC508A

U2F_VERSION/U2F                               ----- -----  ----- -----  ----- -----
  +--> _U2F_HID_SET_LEN/U2F_HID
  +--> ?CO?U2F
  +--> _U2F_RESPONSE_WRITEBACK/U2F_ATECC

U2F_RESPONSE_FLUSH/U2F_ATECC                  ----- -----  ----- -----  ----- -----
  +--> U2F_HID_FLUSH/U2F_HID

?C_INITSEG                                    ----- -----  ----- -----  ----- -----
  +--> ?CO?BSP

*** NEW ROOT ********************************

USBIRQHANDLER/EFM8_USBDINT                    ----- -----  ----- -----  0100H 0103H
  +--> USB_GETCOMMONINTS/USB_0
  +--> USB_GETININTS/USB_0
  +--> USB_GETOUTINTS/USB_0
  +--> USB_GETINDEX/USB_0
  +--> HANDLEUSBRESETINT/EFM8_USBDINT
  +--> HANDLEUSBRESUMEINT/EFM8_USBDINT
  +--> HANDLEUSBSUSPENDINT/EFM8_USBDINT
  +--> HANDLEUSBIN1INT/EFM8_USBDEP
  +--> HANDLEUSBOUT1INT/EFM8_USBDEP
  +--> HANDLEUSBEP0INT/EFM8_USBDINT
  +--> _USB_SETINDEX/USB_0

USB_GETCOMMONINTS/USB_0                       ----- -----  ----- -----  ----- -----
LX51 LINKER/LOCATER V4.66.30.0                                                        03/28/2016  20:19:13  PAGE 17



USB_GETININTS/USB_0                           ----- -----  ----- -----  ----- -----

USB_GETOUTINTS/USB_0                          ----- -----  ----- -----  ----- -----

USB_GETINDEX/USB_0                            ----- -----  ----- -----  ----- -----

HANDLEUSBRESETINT/EFM8_USBDINT                ----- -----  ----- -----  ----- -----
  +--> EFM8_USBDINT
  +--> _USBD_SETUSBSTATE/EFM8_USBD
  +--> USBD_RESETCB/CALLBACK

EFM8_USBDINT                                  ----- -----  ----- -----  ----- -----

_USBD_SETUSBSTATE/EFM8_USBD                   ----- -----  ----- -----  0106H 0107H
  +--> USBD_ABORTALLTRANSFERS/EFM8_USBD
  +--> _USBD_DEVICESTATECHANGECB/CALLBACK

USBD_ABORTALLTRANSFERS/EFM8_USBD              20H.3 20H.3  ----- -----  0108H 0109H
  +--> USB_GETINTSENABLED/USB_0
  +--> EFM8_USBD
  +--> _USBD_ABORTTRANSFER/EFM8_USBD

_USBD_ABORTTRANSFER/EFM8_USBD                 20H.4 20H.4  ----- -----  010AH 010EH
  +--> EFM8_USBD
  +--> _SLAB_ASSERT/ASSERT
  +--> USB_GETINTSENABLED/USB_0
  +--> _USB_ABORTINEP/USB_0
  +--> _USB_ABORTOUTEP/USB_0

_USB_ABORTINEP/USB_0                          ----- -----  ----- -----  ----- -----
  +--> _USB_SETINDEX/USB_0

_USB_ABORTOUTEP/USB_0                         ----- -----  ----- -----  ----- -----
  +--> _USB_SETINDEX/USB_0

_USBD_DEVICESTATECHANGECB/CALLBACK            ----- -----  ----- -----  0108H 0109H

USBD_RESETCB/CALLBACK                         ----- -----  ----- -----  ----- -----

HANDLEUSBRESUMEINT/EFM8_USBDINT               ----- -----  ----- -----  ----- -----
  +--> _USBD_SETUSBSTATE/EFM8_USBD

HANDLEUSBSUSPENDINT/EFM8_USBDINT              ----- -----  ----- -----  ----- -----
  +--> _USBD_SETUSBSTATE/EFM8_USBD

HANDLEUSBIN1INT/EFM8_USBDEP                   20H.3 20H.3  ----- -----  0104H 0104H
  +--> _USB_SETINDEX/USB_0
  +--> USB_EPNINGETSENTSTALL/USB_0
  +--> EFM8_USBDEP
  +--> _USB_WRITEFIFO/EFM8_USBDEP
  +--> _USBD_XFERCOMPLETECB/CALLBACK

USB_EPNINGETSENTSTALL/USB_0                   ----- -----  ----- -----  ----- -----

_USBD_XFERCOMPLETECB/CALLBACK                 ----- -----  ----- -----  0107H 010CH
  +--> _DUMP_HEX/BSP
  +--> _SET_APP_U2F_HID_MSG/MAIN

_DUMP_HEX/BSP                                 ----- -----  ----- -----  010DH 0111H
  +--> BSP
  +--> _PUTF/BSP
LX51 LINKER/LOCATER V4.66.30.0                                                        03/28/2016  20:19:13  PAGE 18


  +--> _U2F_PUTB/BSP
  +--> _U2F_PRINTS/BSP

_SET_APP_U2F_HID_MSG/MAIN                     ----- -----  ----- -----  ----- -----

HANDLEUSBOUT1INT/EFM8_USBDEP                  20H.3 20H.3  ----- -----  0104H 0105H
  +--> _USB_SETINDEX/USB_0
  +--> USB_EPNOUTGETSENTSTALL/USB_0
  +--> USB_EPNGETOUTPACKETREADY/USB_0
  +--> USB_EPOUTGETCOUNT/USB_0
  +--> _USB_READFIFO/EFM8_USBDEP
  +--> EFM8_USBDEP
  +--> _USBD_XFERCOMPLETECB/CALLBACK

USB_EPNOUTGETSENTSTALL/USB_0                  ----- -----  ----- -----  ----- -----

USB_EPNGETOUTPACKETREADY/USB_0                ----- -----  ----- -----  ----- -----

USB_EPOUTGETCOUNT/USB_0                       ----- -----  ----- -----  ----- -----
  +--> _USB_GETSHORTREGISTER/USB_0

_USB_GETSHORTREGISTER/USB_0                   ----- -----  ----- -----  ----- -----

_USB_READFIFO/EFM8_USBDEP                     ----- -----  ----- -----  0106H 010AH
  +--> EFM8_USBDEP
  +--> _USB_READFIFO_IDATA/EFM8_USBDEP
  +--> _USB_READFIFO_XDATA/EFM8_USBDEP
  +--> _USB_READFIFO_PDATA/EFM8_USBDEP

_USB_READFIFO_IDATA/EFM8_USBDEP               ----- -----  ----- -----  ----- -----

_USB_READFIFO_XDATA/EFM8_USBDEP               ----- -----  ----- -----  ----- -----

_USB_READFIFO_PDATA/EFM8_USBDEP               ----- -----  ----- -----  ----- -----

HANDLEUSBEP0INT/EFM8_USBDINT                  ----- -----  ----- -----  ----- -----
  +--> _USB_SETINDEX/USB_0
  +--> USB_EP0SENTSTALL/USB_0
  +--> USB_GETSETUPEND/USB_0
  +--> EFM8_USBDINT
  +--> USB_EP0OUTPACKETREADY/USB_0
  +--> USB_READFIFOSETUP/EFM8_USBDINT
  +--> _USBD_SETUPCMDCB/CALLBACK
  +--> USBDCH9_SETUPCMD/EFM8_USBDCH9
  +--> SENDEP0STALL/EFM8_USBDINT
  +--> HANDLEUSBEP0RX/EFM8_USBDINT
  +--> USB_EP0INPACKETREADY/USB_0
  +--> HANDLEUSBEP0TX/EFM8_USBDINT

USB_EP0SENTSTALL/USB_0                        ----- -----  ----- -----  ----- -----

USB_GETSETUPEND/USB_0                         ----- -----  ----- -----  ----- -----

USB_EP0OUTPACKETREADY/USB_0                   ----- -----  ----- -----  ----- -----

USB_READFIFOSETUP/EFM8_USBDINT                ----- -----  ----- -----  0104H 0105H
  +--> _USB_READFIFO/EFM8_USBDEP
  +--> EFM8_USBDINT

_USBD_SETUPCMDCB/CALLBACK                     ----- -----  ----- -----  0104H 0106H
  +--> CALLBACK
  +--> ?CO?DESCRIPTORS
LX51 LINKER/LOCATER V4.66.30.0                                                        03/28/2016  20:19:13  PAGE 19


  +--> _IDLETIMERSET/IDLE
  +--> IDLEGETRATE/IDLE
  +--> _USBD_WRITE/EFM8_USBD

CALLBACK                                      ----- -----  ----- -----  ----- -----

_IDLETIMERSET/IDLE                            ----- -----  ----- -----  ----- -----
  +--> IDLETIMERSTART/IDLE

IDLETIMERSTART/IDLE                           ----- -----  ----- -----  ----- -----

IDLEGETRATE/IDLE                              ----- -----  ----- -----  ----- -----

USBDCH9_SETUPCMD/EFM8_USBDCH9                 ----- -----  ----- -----  0104H 0104H
  +--> GETSTATUS/EFM8_USBDCH9
  +--> CLEARFEATURE/EFM8_USBDCH9
  +--> SETFEATURE/EFM8_USBDCH9
  +--> SETADDRESS/EFM8_USBDCH9
  +--> GETDESCRIPTOR/EFM8_USBDCH9
  +--> GETCONFIGURATION/EFM8_USBDCH9
  +--> SETCONFIGURATION/EFM8_USBDCH9
  +--> GETINTERFACE/EFM8_USBDCH9
  +--> SETINTERFACE/EFM8_USBDCH9
  +--> _USB_SETINDEX/USB_0
  +--> SENDEP0STALL/EFM8_USBDINT

GETSTATUS/EFM8_USBDCH9                        ----- -----  ----- -----  0105H 0105H
  +--> EFM8_USBDCH9
  +--> USBD_ISSELFPOWEREDCB/CALLBACK
  +--> _EP0_WRITE/EFM8_USBDCH9

EFM8_USBDCH9                                  ----- -----  ----- -----  ----- -----

USBD_ISSELFPOWEREDCB/CALLBACK                 ----- -----  ----- -----  ----- -----

_EP0_WRITE/EFM8_USBDCH9                       ----- -----  ----- -----  ----- -----

CLEARFEATURE/EFM8_USBDCH9                     ----- -----  ----- -----  0105H 0105H
  +--> EFM8_USBDCH9
  +--> _USB_SETINDEX/USB_0

SETFEATURE/EFM8_USBDCH9                       ----- -----  ----- -----  0105H 0105H
  +--> EFM8_USBDCH9
  +--> _USB_SETINDEX/USB_0

SETADDRESS/EFM8_USBDCH9                       ----- -----  ----- -----  0105H 0105H
  +--> EFM8_USBDCH9
  +--> _USBD_SETUSBSTATE/EFM8_USBD

GETDESCRIPTOR/EFM8_USBDCH9                    ----- -----  ----- -----  0105H 0109H
  +--> EFM8_USBDCH9
  +--> _EP0_WRITE/EFM8_USBDCH9

GETCONFIGURATION/EFM8_USBDCH9                 ----- -----  ----- -----  ----- -----
  +--> ?CO?EFM8_USBDCH9
  +--> _EP0_WRITE/EFM8_USBDCH9

?CO?EFM8_USBDCH9                              ----- -----  ----- -----  ----- -----

SETCONFIGURATION/EFM8_USBDCH9                 ----- -----  ----- -----  0105H 0105H
  +--> EFM8_USBDCH9
  +--> USBD_ACTIVATEALLEPS/EFM8_USBDCH9
LX51 LINKER/LOCATER V4.66.30.0                                                        03/28/2016  20:19:13  PAGE 20


  +--> _USBD_SETUSBSTATE/EFM8_USBD
  +--> USBD_ABORTALLTRANSFERS/EFM8_USBD

USBD_ACTIVATEALLEPS/EFM8_USBDCH9              20H.3 20H.3  ----- -----  ----- -----
  +--> EFM8_USBDCH9
  +--> _USB_ACTIVATEEP/USB_0

_USB_ACTIVATEEP/USB_0                         20H.4 20H.6  ----- -----  ----- -----
  +--> _USB_SETINDEX/USB_0

GETINTERFACE/EFM8_USBDCH9                     ----- -----  ----- -----  ----- -----
  +--> EFM8_USBDCH9
  +--> ?CO?EFM8_USBDCH9
  +--> _EP0_WRITE/EFM8_USBDCH9

SETINTERFACE/EFM8_USBDCH9                     ----- -----  ----- -----  ----- -----
  +--> EFM8_USBDCH9
  +--> USBD_ACTIVATEALLEPS/EFM8_USBDCH9

SENDEP0STALL/EFM8_USBDINT                     ----- -----  ----- -----  ----- -----
  +--> _USB_SETINDEX/USB_0

HANDLEUSBEP0RX/EFM8_USBDINT                   20H.3 20H.3  ----- -----  0104H 0105H
  +--> USB_EP0GETCOUNT/USB_0
  +--> EFM8_USBDINT
  +--> _USB_READFIFO/EFM8_USBDEP
  +--> _USBD_XFERCOMPLETECB/CALLBACK

USB_EP0GETCOUNT/USB_0                         ----- -----  ----- -----  ----- -----

USB_EP0INPACKETREADY/USB_0                    ----- -----  ----- -----  ----- -----

HANDLEUSBEP0TX/EFM8_USBDINT                   20H.3 20H.3  ----- -----  0104H 0106H
  +--> _USB_WRITEFIFO/EFM8_USBDEP
  +--> EFM8_USBDINT
  +--> ?CO?EFM8_USBDCH9
  +--> _USBD_XFERCOMPLETECB/CALLBACK



PUBLIC SYMBOLS OF MODULE:  U2F-FIRMWARE.OMF.CRBUILD (INITDEVICE)


      VALUE       CLASS    TYPE      PUBLIC SYMBOL NAME
      =================================================
      020000B2H   XDATA    BYTE      ?__eeprom_write?BYTE
      020000C3H   XDATA    BYTE      ?_atecc_recv?BYTE
      020000C3H   XDATA    BYTE      ?_atecc_send?BYTE
      020000B3H   XDATA    BYTE      ?_atecc_send_recv?BYTE
*DEL*:00000000H   XDATA    BYTE      ?_atecc_write_eeprom?BYTE
      020000B3H   XDATA    BYTE      ?_eeprom_read?BYTE
      020000CBH   XDATA    BYTE      ?_smb_read?BYTE
      020000CBH   XDATA    BYTE      ?_smb_write?BYTE
      020000A3H   XDATA    BYTE      ?_u2f_ecdsa_sign?BYTE
      020000A3H   XDATA    BYTE      ?_u2f_new_keypair?BYTE
      020000C3H   XDATA    BYTE      ?_u2f_printb?BYTE
      020000B6H   XDATA    BYTE      ?_u2f_printd?BYTE
      02000041H   XDATA    BYTE      ?_u2f_printl?BYTE
*DEL*:00000000H   XDATA    BYTE      ?_u2f_printlx?BYTE
      02000041H   XDATA    BYTE      ?_u2f_printx?BYTE
      00000020H.4 BIT      BIT       ?_USB_ActivateEp?BIT
      00000020H.5 BIT      BIT       ?_USB_WriteFIFO?BIT
LX51 LINKER/LOCATER V4.66.30.0                                                        03/28/2016  20:19:13  PAGE 21


      00000020H.0 BIT      BIT       ?_USBD_Read?BIT
      02000041H   XDATA    BYTE      ?_USBD_Read?BYTE
      00000020H.3 BIT      BIT       ?_USBD_Write?BIT
      02000107H   XDATA    BYTE      ?_USBD_Write?BYTE
      02000107H   XDATA    BYTE      ?_USBD_XferCompleteCb?BYTE
      010005BFH   CODE     ---       ?C?CCASE
      0100018DH   CODE     ---       ?C?CLDOPTR
      01000174H   CODE     ---       ?C?CLDPTR
      00000000H   NUMBER   ---       ?C?CODESEG
      0100014EH   CODE     ---       ?C?COPY
      010001CCH   CODE     ---       ?C?CSTOPTR
      010001BAH   CODE     ---       ?C?CSTPTR
      010001EEH   CODE     ---       ?C?IILDX
      01000204H   CODE     ---       ?C?ILDIX
      01000245H   CODE     ---       ?C?ILDOPTR
      0100021AH   CODE     ---       ?C?ILDPTR
      0100029CH   CODE     ---       ?C?ISTOPTR
      0100027DH   CODE     ---       ?C?ISTPTR
      010002C9H   CODE     ---       ?C?LADD
      010007CBH   CODE     ---       ?C?LLDCODE
      010007F5H   CODE     ---       ?C?LLDCODE0
      010007B3H   CODE     ---       ?C?LLDIDATA
      010007DBH   CODE     ---       ?C?LLDIDATA0
      0100045EH   CODE     ---       ?C?LLDOPTR0
      010007BFH   CODE     ---       ?C?LLDPDATA
      010007E8H   CODE     ---       ?C?LLDPDATA0
      010003E8H   CODE     ---       ?C?LLDPTR
      01000446H   CODE     ---       ?C?LLDXDATA
      01000452H   CODE     ---       ?C?LLDXDATA0
      010003A4H   CODE     ---       ?C?LOR
      010003D5H   CODE     ---       ?C?LSHL
      01000805H   CODE     ---       ?C?LSTIDATA
      0100049AH   CODE     ---       ?C?LSTKXDATA
      01000422H   CODE     ---       ?C?LSTOPTR
      01000811H   CODE     ---       ?C?LSTPDATA
      01000408H   CODE     ---       ?C?LSTPTR
      0100048EH   CODE     ---       ?C?LSTXDATA
      0100078BH   CODE     ---       ?C?MEMMOVE
      010005E5H   CODE     ---       ?C?MEMSET
      01000826H   CODE     ---       ?C?PILDIDATA
      0100085FH   CODE     ---       ?C?PILDPDATA
      01000514H   CODE     ---       ?C?PILDPTR
      0100083FH   CODE     ---       ?C?PILDXDATA
      01000878H   CODE     ---       ?C?PLDCODE
      0100081DH   CODE     ---       ?C?PLDIDATA
      010004D4H   CODE     ---       ?C?PLDIXDATA
      01000536H   CODE     ---       ?C?PLDOPTR
      01000856H   CODE     ---       ?C?PLDPDATA
      010004F4H   CODE     ---       ?C?PLDPTR
      010004CBH   CODE     ---       ?C?PLDXDATA
      01000836H   CODE     ---       ?C?PSTIDATA
      01000566H   CODE     ---       ?C?PSTOPTR
      0100086FH   CODE     ---       ?C?PSTPDATA
      010004EBH   CODE     ---       ?C?PSTXDATA
      010003B1H   CODE     ---       ?C?ULCMP
      01000312H   CODE     ---       ?C?ULDIV
      010003C2H   CODE     ---       ?C?ULSHR
      00000000H   NUMBER   ---       ?C?XDATASEG
      010025E0H   CODE     ---       ?C_START
      01000000H   CODE     ---       ?C_STARTUP
      0100335DH   CODE     ---       ___int2str10
      01003398H   CODE     ---       ___int2str16
LX51 LINKER/LOCATER V4.66.30.0                                                        03/28/2016  20:19:13  PAGE 22


      01000C46H   CODE     ---       __attest
      0100304DH   CODE     ---       __eeprom_write
      01001BCEH   CODE     ---       _atecc_recv
      01002F64H   CODE     ---       _atecc_send
      01001550H   CODE     ---       _atecc_send_recv
*DEL*:00000000H   CODE     ---       _atecc_write_eeprom
      01002F14H   CODE     ---       _dump_hex
      01003482H   CODE     ---       _eeprom_read
      010026B1H   CODE     ---       _feed_crc
      01003AA2H   CODE     ---       _idleTimerSet
      0000001AH   DATA     DWORD     _MS_
      01003A8AH   CODE     ---       _putf
      010027B3H   CODE     ---       _reverse_bits
      01003DC7H   CODE     ---       _set_app_error
      01003D44H   CODE     ---       _set_app_u2f_hid_msg
*DEL*:00000000H   CODE     ---       _set_response_length
      01003DD8H   CODE     ---       _slab_Assert
      01003001H   CODE     ---       _smb_read
      0100372FH   CODE     ---       _smb_set_ext_write
      01003267H   CODE     ---       _smb_write
      010032A6H   CODE     ---       _u2f_delay
      01001A49H   CODE     ---       _u2f_ecdsa_sign
      01001265H   CODE     ---       _u2f_hid_request
      01003D69H   CODE     ---       _u2f_hid_set_len
      010017DDH   CODE     ---       _u2f_hid_writeback
      01002D56H   CODE     ---       _u2f_load_key
      01002508H   CODE     ---       _u2f_new_keypair
      010034BCH   CODE     ---       _u2f_printb
      0100003EH   CODE     ---       _u2f_printd
      0100359AH   CODE     ---       _u2f_printl
*DEL*:00000000H   CODE     ---       _u2f_printlx
      0100388CH   CODE     ---       _u2f_prints
      010035CFH   CODE     ---       _u2f_printx
      01003D26H   CODE     ---       _u2f_putb
      01003CA1H   CODE     ---       _u2f_putd
      01003DADH   CODE     ---       _u2f_putl
*DEL*:00000000H   CODE     ---       _u2f_putlx
      01003D57H   CODE     ---       _u2f_putx
      01002010H   CODE     ---       _u2f_request
      01003DCDH   CODE     ---       _u2f_response_writeback
      01002C91H   CODE     ---       _u2f_sha256_update
      01003639H   CODE     ---       _USB_AbortInEp
      0100366DH   CODE     ---       _USB_AbortOutEp
      01002625H   CODE     ---       _USB_ActivateEp
      01002CF4H   CODE     ---       _USB_ReadFIFO
      01003CC5H   CODE     ---       _USB_SetIndex
      01002A84H   CODE     ---       _usb_write
      01002A0FH   CODE     ---       _USB_WriteFIFO
      01002734H   CODE     ---       _USBD_AbortTransfer
      01003D60H   CODE     ---       _USBD_DeviceStateChangeCb
      0100375CH   CODE     ---       _USBD_EpIsBusy
      010022B9H   CODE     ---       _USBD_Init
      01001F61H   CODE     ---       _USBD_Read
      01000DA5H   CODE     ---       _USBD_SetupCmdCb
      01003227H   CODE     ---       _USBD_SetUsbState
*DEL*:00000000H   CODE     ---       _USBD_StallEp
*DEL*:00000000H   CODE     ---       _USBD_UnStallEp
      010018B1H   CODE     ---       _USBD_Write
      010037D6H   CODE     ---       _USBD_XferCompleteCb
*SFR* 000000E0H   DATA     BYTE      ACC
*SFR* 000000E0H   DATA     BIT       ACC_ACC0
*SFR* 000000E0H.1 DATA     BIT       ACC_ACC1
LX51 LINKER/LOCATER V4.66.30.0                                                        03/28/2016  20:19:13  PAGE 23


*SFR* 000000E0H.2 DATA     BIT       ACC_ACC2
*SFR* 000000E0H.3 DATA     BIT       ACC_ACC3
*SFR* 000000E0H.4 DATA     BIT       ACC_ACC4
*SFR* 000000E0H.5 DATA     BIT       ACC_ACC5
*SFR* 000000E0H.6 DATA     BIT       ACC_ACC6
*SFR* 000000E0H.7 DATA     BIT       ACC_ACC7
*SFR* 000000BDH   DATA     WORD      ADC0
*SFR* 000000B3H   DATA     BYTE      ADC0AC
*SFR* 000000BCH   DATA     BYTE      ADC0CF
*SFR* 000000E8H   DATA     BYTE      ADC0CN0
*SFR* 000000E8H.6 DATA     BIT       ADC0CN0_ADBMEN
*SFR* 000000E8H.4 DATA     BIT       ADC0CN0_ADBUSY
*SFR* 000000E8H   DATA     BIT       ADC0CN0_ADCM0
*SFR* 000000E8H.1 DATA     BIT       ADC0CN0_ADCM1
*SFR* 000000E8H.2 DATA     BIT       ADC0CN0_ADCM2
*SFR* 000000E8H.7 DATA     BIT       ADC0CN0_ADEN
*SFR* 000000E8H.5 DATA     BIT       ADC0CN0_ADINT
*SFR* 000000E8H.3 DATA     BIT       ADC0CN0_ADWINT
*SFR* 000000B2H   DATA     BYTE      ADC0CN1
*SFR* 000000C3H   DATA     WORD      ADC0GT
*SFR* 000000C4H   DATA     BYTE      ADC0GTH
*SFR* 000000C3H   DATA     BYTE      ADC0GTL
*SFR* 000000BEH   DATA     BYTE      ADC0H
*SFR* 000000BDH   DATA     BYTE      ADC0L
*SFR* 000000C5H   DATA     WORD      ADC0LT
*SFR* 000000C6H   DATA     BYTE      ADC0LTH
*SFR* 000000C5H   DATA     BYTE      ADC0LTL
*SFR* 000000BBH   DATA     BYTE      ADC0MX
*SFR* 000000DFH   DATA     BYTE      ADC0PWR
*SFR* 000000B9H   DATA     BYTE      ADC0TK
      00000021H   DATA     ---       appdata
      01003D30H   CODE     ---       atecc_idle
*DEL*:00000000H   CODE     ---       atecc_sleep
      01003C16H   CODE     ---       atecc_wake
*SFR* 000000F0H   DATA     BYTE      B
*SFR* 000000F0H   DATA     BIT       B_B0
*SFR* 000000F0H.1 DATA     BIT       B_B1
*SFR* 000000F0H.2 DATA     BIT       B_B2
*SFR* 000000F0H.3 DATA     BIT       B_B3
*SFR* 000000F0H.4 DATA     BIT       B_B4
*SFR* 000000F0H.5 DATA     BIT       B_B5
*SFR* 000000F0H.6 DATA     BIT       B_B6
*SFR* 000000F0H.7 DATA     BIT       B_B7
      02000126H   XDATA    ---       CIDS
      01003D91H   CODE     ---       CIP51_0_enter_DefaultMode_from_RESET
*SFR* 0000008EH   DATA     BYTE      CKCON0
*SFR* 000000A6H   DATA     BYTE      CKCON1
*SFR* 000000A9H   DATA     BYTE      CLKSEL
      01003C46H   CODE     ---       CLOCK_0_enter_DefaultMode_from_RESET
*SFR* 0000009BH   DATA     BYTE      CMP0CN0
*SFR* 00000099H   DATA     BYTE      CMP0CN1
*SFR* 0000009DH   DATA     BYTE      CMP0MD
*SFR* 0000009FH   DATA     BYTE      CMP0MX
*SFR* 000000BFH   DATA     BYTE      CMP1CN0
*SFR* 000000ACH   DATA     BYTE      CMP1CN1
*SFR* 000000ABH   DATA     BYTE      CMP1MD
*SFR* 000000AAH   DATA     BYTE      CMP1MX
      01003E11H   CONST    ---       configDesc
      02000335H   XDATA    BYTE      count
*SFR* 000000CEH   DATA     BYTE      CRC0CN0
*SFR* 00000086H   DATA     BYTE      CRC0CN1
*SFR* 000000D3H   DATA     BYTE      CRC0CNT
LX51 LINKER/LOCATER V4.66.30.0                                                        03/28/2016  20:19:13  PAGE 24


*SFR* 000000DEH   DATA     BYTE      CRC0DAT
*SFR* 000000CFH   DATA     BYTE      CRC0FLIP
*SFR* 000000DDH   DATA     BYTE      CRC0IN
*SFR* 000000D2H   DATA     BYTE      CRC0ST
*SFR* 000000ADH   DATA     BYTE      DERIVID
      01003DFFH   CONST    ---       deviceDesc
*SFR* 000000B5H   DATA     BYTE      DEVICEID
*SFR* 00000082H   DATA     WORD      DP
*SFR* 00000083H   DATA     BYTE      DPH
*SFR* 00000082H   DATA     BYTE      DPL
      010031E6H   CODE     ---       eeprom_init
*SFR* 000000E6H   DATA     BYTE      EIE1
*SFR* 000000CEH   DATA     BYTE      EIE2
*SFR* 000000F3H   DATA     BYTE      EIP1
*SFR* 000000F5H   DATA     BYTE      EIP1H
*SFR* 000000F4H   DATA     BYTE      EIP2
*SFR* 000000F6H   DATA     BYTE      EIP2H
*SFR* 000000E7H   DATA     BYTE      EMI0CN
      0100340EH   CODE     ---       enter_DefaultMode_from_RESET
*SFR* 000000B7H   DATA     BYTE      FLKEY
      01003DDBH   CODE     ---       forceModuleLoad_usbint
      01002351H   CODE     ---       handleUsbEp0Rx
      01002214H   CODE     ---       handleUsbIn1Int
      01001464H   CODE     ---       handleUsbOut1Int
*SFR* 000000C7H   DATA     BYTE      HFO0CAL
*SFR* 000000D6H   DATA     BYTE      HFO1CAL
*SFR* 000000EFH   DATA     BYTE      HFOCN
      020002CAH   XDATA    ---       hidmsgbuf
*SFR* 000000BAH   DATA     BYTE      I2C0CN0
*SFR* 000000BCH   DATA     BYTE      I2C0DIN
*SFR* 000000BBH   DATA     BYTE      I2C0DOUT
*SFR* 000000ADH   DATA     BYTE      I2C0FCN0
*SFR* 000000ABH   DATA     BYTE      I2C0FCN1
*SFR* 000000F5H   DATA     BYTE      I2C0FCT
*SFR* 000000BDH   DATA     BYTE      I2C0SLAD
*SFR* 000000B9H   DATA     BYTE      I2C0STAT
      01003DB3H   CODE     ---       idleGetRate
      0100386AH   CODE     ---       idleTimerStart
*DEL*:00000000H   CODE     ---       idleTimerTick
*SFR* 000000A8H   DATA     BYTE      IE
*SFR* 000000A8H.7 DATA     BIT       IE_EA
*SFR* 000000A8H.4 DATA     BIT       IE_ES0
*SFR* 000000A8H.6 DATA     BIT       IE_ESPI0
*SFR* 000000A8H.1 DATA     BIT       IE_ET0
*SFR* 000000A8H.3 DATA     BIT       IE_ET1
*SFR* 000000A8H.5 DATA     BIT       IE_ET2
*SFR* 000000A8H   DATA     BIT       IE_EX0
*SFR* 000000A8H.2 DATA     BIT       IE_EX1
      01003E8DH   CONST    ---       initstruct
      01003D98H   CODE     ---       INTERRUPT_0_enter_DefaultMode_from_RESET
*SFR* 000000B8H   DATA     BYTE      IP
*SFR* 000000B8H.4 DATA     BIT       IP_PS0
*SFR* 000000B8H.6 DATA     BIT       IP_PSPI0
*SFR* 000000B8H.1 DATA     BIT       IP_PT0
*SFR* 000000B8H.3 DATA     BIT       IP_PT1
*SFR* 000000B8H.5 DATA     BIT       IP_PT2
*SFR* 000000B8H   DATA     BIT       IP_PX0
*SFR* 000000B8H.2 DATA     BIT       IP_PX1
*SFR* 000000F2H   DATA     BYTE      IPH
*DEL*:00000000H   CODE     ---       isIdleTimerExpired
*DEL*:00000000H   CODE     ---       isIdleTimerIndefinite
*SFR* 000000E4H   DATA     BYTE      IT01CF
LX51 LINKER/LOCATER V4.66.30.0                                                        03/28/2016  20:19:13  PAGE 25


      0200027FH   XDATA    ---       key_store
*SFR* 00000090H   DATA     BIT       LED_B
*SFR* 00000080H.6 DATA     BIT       LED_G
*SFR* 00000080H.7 DATA     BIT       LED_R
*SFR* 000000B1H   DATA     BYTE      LFO0CN
      01000EF6H   CODE     ---       main
      0200030AH   XDATA    ---       myUsbDevice
*SFR* 00000080H   DATA     BYTE      P0
*SFR* 00000080H   DATA     BIT       P0_B0
*SFR* 00000080H.1 DATA     BIT       P0_B1
*SFR* 00000080H.2 DATA     BIT       P0_B2
*SFR* 00000080H.3 DATA     BIT       P0_B3
*SFR* 00000080H.4 DATA     BIT       P0_B4
*SFR* 00000080H.5 DATA     BIT       P0_B5
*SFR* 00000080H.6 DATA     BIT       P0_B6
*SFR* 00000080H.7 DATA     BIT       P0_B7
*SFR* 000000FEH   DATA     BYTE      P0MASK
*SFR* 000000FDH   DATA     BYTE      P0MAT
*SFR* 000000F1H   DATA     BYTE      P0MDIN
*SFR* 000000A4H   DATA     BYTE      P0MDOUT
*SFR* 000000D4H   DATA     BYTE      P0SKIP
*SFR* 00000090H   DATA     BYTE      P1
*SFR* 00000090H   DATA     BIT       P1_B0
*SFR* 00000090H.1 DATA     BIT       P1_B1
*SFR* 00000090H.2 DATA     BIT       P1_B2
*SFR* 00000090H.3 DATA     BIT       P1_B3
*SFR* 00000090H.4 DATA     BIT       P1_B4
*SFR* 00000090H.5 DATA     BIT       P1_B5
*SFR* 00000090H.6 DATA     BIT       P1_B6
*SFR* 00000090H.7 DATA     BIT       P1_B7
*SFR* 000000EEH   DATA     BYTE      P1MASK
*SFR* 000000EDH   DATA     BYTE      P1MAT
*SFR* 000000F2H   DATA     BYTE      P1MDIN
*SFR* 000000A5H   DATA     BYTE      P1MDOUT
*SFR* 000000D5H   DATA     BYTE      P1SKIP
*SFR* 000000A0H   DATA     BYTE      P2
*SFR* 000000A0H   DATA     BIT       P2_B0
*SFR* 000000A0H.1 DATA     BIT       P2_B1
*SFR* 000000A0H.2 DATA     BIT       P2_B2
*SFR* 000000A0H.3 DATA     BIT       P2_B3
*SFR* 000000FCH   DATA     BYTE      P2MASK
*SFR* 000000FBH   DATA     BYTE      P2MAT
*SFR* 000000F3H   DATA     BYTE      P2MDIN
*SFR* 000000A6H   DATA     BYTE      P2MDOUT
*SFR* 000000CCH   DATA     BYTE      P2SKIP
*SFR* 000000B0H   DATA     BYTE      P3
*SFR* 000000B0H   DATA     BIT       P3_B0
*SFR* 000000B0H.1 DATA     BIT       P3_B1
*SFR* 000000F4H   DATA     BYTE      P3MDIN
*SFR* 0000009CH   DATA     BYTE      P3MDOUT
      01003D8AH   CODE     ---       PBCFG_0_enter_DefaultMode_from_RESET
*SFR* 000000F9H   DATA     WORD      PCA0
*SFR* 0000009EH   DATA     BYTE      PCA0CENT
*SFR* 0000009CH   DATA     BYTE      PCA0CLR
*SFR* 000000D8H   DATA     BYTE      PCA0CN0
*SFR* 000000D8H   DATA     BIT       PCA0CN0_CCF0
*SFR* 000000D8H.1 DATA     BIT       PCA0CN0_CCF1
*SFR* 000000D8H.2 DATA     BIT       PCA0CN0_CCF2
*SFR* 000000D8H.7 DATA     BIT       PCA0CN0_CF
*SFR* 000000D8H.6 DATA     BIT       PCA0CN0_CR
*SFR* 000000FBH   DATA     WORD      PCA0CP0
*SFR* 000000E9H   DATA     WORD      PCA0CP1
LX51 LINKER/LOCATER V4.66.30.0                                                        03/28/2016  20:19:13  PAGE 26


*SFR* 000000EBH   DATA     WORD      PCA0CP2
*SFR* 000000FCH   DATA     BYTE      PCA0CPH0
*SFR* 000000EAH   DATA     BYTE      PCA0CPH1
*SFR* 000000ECH   DATA     BYTE      PCA0CPH2
*SFR* 000000FBH   DATA     BYTE      PCA0CPL0
*SFR* 000000E9H   DATA     BYTE      PCA0CPL1
*SFR* 000000EBH   DATA     BYTE      PCA0CPL2
*SFR* 000000DAH   DATA     BYTE      PCA0CPM0
*SFR* 000000DBH   DATA     BYTE      PCA0CPM1
*SFR* 000000DCH   DATA     BYTE      PCA0CPM2
*SFR* 000000FAH   DATA     BYTE      PCA0H
*SFR* 000000F9H   DATA     BYTE      PCA0L
*SFR* 000000D9H   DATA     BYTE      PCA0MD
*SFR* 00000096H   DATA     BYTE      PCA0POL
*SFR* 000000F7H   DATA     BYTE      PCA0PWM
*SFR* 00000087H   DATA     BYTE      PCON0
*SFR* 0000009AH   DATA     BYTE      PCON1
*SFR* 000000C1H   DATA     BYTE      PFE0CN
      01003B57H   CODE     ---       PORTS_0_enter_DefaultMode_from_RESET
      01003BF3H   CODE     ---       PORTS_1_enter_DefaultMode_from_RESET
*DEL*:00000000H   CODE     ---       PORTS_2_enter_DefaultMode_from_RESET
*SFR* 000000F6H   DATA     BYTE      PRTDRV
*SFR* 0000008FH   DATA     BYTE      PSCTL
*SFR* 000000D0H   DATA     BYTE      PSW
*SFR* 000000D0H.6 DATA     BIT       PSW_AC
*SFR* 000000D0H.7 DATA     BIT       PSW_CY
*SFR* 000000D0H.5 DATA     BIT       PSW_F0
*SFR* 000000D0H.1 DATA     BIT       PSW_F1
*SFR* 000000D0H.2 DATA     BIT       PSW_OV
*SFR* 000000D0H   DATA     BIT       PSW_PARITY
*SFR* 000000D0H.3 DATA     BIT       PSW_RS0
*SFR* 000000D0H.4 DATA     BIT       PSW_RS1
*SFR* 000000D1H   DATA     BYTE      REF0CN
*SFR* 000000C9H   DATA     BYTE      REG0CN
*SFR* 000000C6H   DATA     BYTE      REG1CN
      01003DDDH   CONST    ---       ReportDescriptor0
*SFR* 000000B6H   DATA     BYTE      REVID
*SFR* 000000EFH   DATA     BYTE      RSTSRC
*SFR* 00000094H   DATA     BYTE      SBCON1
*SFR* 00000095H   DATA     WORD      SBRL1
*SFR* 00000096H   DATA     BYTE      SBRLH1
*SFR* 00000095H   DATA     BYTE      SBRLL1
*SFR* 00000099H   DATA     BYTE      SBUF0
*SFR* 00000092H   DATA     BYTE      SBUF1
*SFR* 00000098H   DATA     BYTE      SCON0
*SFR* 00000098H.5 DATA     BIT       SCON0_MCE
*SFR* 00000098H.2 DATA     BIT       SCON0_RB8
*SFR* 00000098H.4 DATA     BIT       SCON0_REN
*SFR* 00000098H   DATA     BIT       SCON0_RI
*SFR* 00000098H.7 DATA     BIT       SCON0_SMODE
*SFR* 00000098H.3 DATA     BIT       SCON0_TB8
*SFR* 00000098H.1 DATA     BIT       SCON0_TI
*SFR* 000000C8H   DATA     BYTE      SCON1
*SFR* 000000C8H.7 DATA     BIT       SCON1_OVR
*SFR* 000000C8H.6 DATA     BIT       SCON1_PERR
*SFR* 000000C8H.2 DATA     BIT       SCON1_RBX
*SFR* 000000C8H.4 DATA     BIT       SCON1_REN
*SFR* 000000C8H   DATA     BIT       SCON1_RI
*SFR* 000000C8H.3 DATA     BIT       SCON1_TBX
*SFR* 000000C8H.1 DATA     BIT       SCON1_TI
      01003B00H   CODE     ---       SendEp0Stall
*SFR* 000000A7H   DATA     BYTE      SFRPAGE
LX51 LINKER/LOCATER V4.66.30.0                                                        03/28/2016  20:19:13  PAGE 27


*SFR* 000000CFH   DATA     BYTE      SFRPGCN
*SFR* 000000D7H   DATA     BYTE      SFRSTACK
      02000337H   XDATA    ---       SMB
*SFR* 000000D6H   DATA     BYTE      SMB0ADM
*SFR* 000000D7H   DATA     BYTE      SMB0ADR
*SFR* 000000C1H   DATA     BYTE      SMB0CF
*SFR* 000000C0H   DATA     BYTE      SMB0CN0
*SFR* 000000C0H.1 DATA     BIT       SMB0CN0_ACK
*SFR* 000000C0H.3 DATA     BIT       SMB0CN0_ACKRQ
*SFR* 000000C0H.2 DATA     BIT       SMB0CN0_ARBLOST
*SFR* 000000C0H.7 DATA     BIT       SMB0CN0_MASTER
*SFR* 000000C0H   DATA     BIT       SMB0CN0_SI
*SFR* 000000C0H.5 DATA     BIT       SMB0CN0_STA
*SFR* 000000C0H.4 DATA     BIT       SMB0CN0_STO
*SFR* 000000C0H.6 DATA     BIT       SMB0CN0_TXMODE
*SFR* 000000C2H   DATA     BYTE      SMB0DAT
*SFR* 000000C3H   DATA     BYTE      SMB0FCN0
*SFR* 000000C4H   DATA     BYTE      SMB0FCN1
*SFR* 000000EFH   DATA     BYTE      SMB0FCT
*SFR* 000000C5H   DATA     BYTE      SMB0RXLN
*SFR* 000000ACH   DATA     BYTE      SMB0TC
      02000336H   XDATA    BYTE      SMB_FLAGS
      01003B42H   CODE     ---       smb_init
      01003B93H   CODE     ---       smb_init_crc
      01000A69H   CODE     ---       SMBUS0_ISR
      01003DBFH   CODE     ---       SMBUS_0_enter_DefaultMode_from_RESET
*SFR* 00000093H   DATA     BYTE      SMOD1
*SFR* 00000081H   DATA     BYTE      SP
*SFR* 000000A1H   DATA     BYTE      SPI0CFG
*SFR* 000000A2H   DATA     BYTE      SPI0CKR
*SFR* 000000F8H   DATA     BYTE      SPI0CN0
*SFR* 000000F8H.5 DATA     BIT       SPI0CN0_MODF
*SFR* 000000F8H.2 DATA     BIT       SPI0CN0_NSSMD0
*SFR* 000000F8H.3 DATA     BIT       SPI0CN0_NSSMD1
*SFR* 000000F8H.4 DATA     BIT       SPI0CN0_RXOVRN
*SFR* 000000F8H   DATA     BIT       SPI0CN0_SPIEN
*SFR* 000000F8H.7 DATA     BIT       SPI0CN0_SPIF
*SFR* 000000F8H.1 DATA     BIT       SPI0CN0_TXNF
*SFR* 000000F8H.6 DATA     BIT       SPI0CN0_WCOL
*SFR* 000000A3H   DATA     BYTE      SPI0DAT
*SFR* 0000009AH   DATA     BYTE      SPI0FCN0
*SFR* 0000009BH   DATA     BYTE      SPI0FCN1
*SFR* 000000F7H   DATA     BYTE      SPI0FCT
*SFR* 00000088H   DATA     BYTE      TCON
*SFR* 00000088H.1 DATA     BIT       TCON_IE0
*SFR* 00000088H.3 DATA     BIT       TCON_IE1
*SFR* 00000088H   DATA     BIT       TCON_IT0
*SFR* 00000088H.2 DATA     BIT       TCON_IT1
*SFR* 00000088H.5 DATA     BIT       TCON_TF0
*SFR* 00000088H.7 DATA     BIT       TCON_TF1
*SFR* 00000088H.4 DATA     BIT       TCON_TR0
*SFR* 00000088H.6 DATA     BIT       TCON_TR1
      01003DCAH   CODE     ---       test_app
*SFR* 0000008CH   DATA     BYTE      TH0
*SFR* 0000008DH   DATA     BYTE      TH1
      01003BA7H   CODE     ---       TIMER01_0_enter_DefaultMode_from_RESET
      01003BBAH   CODE     ---       TIMER16_2_enter_DefaultMode_from_RESET
      0100002EH   CODE     ---       TIMER16_3_enter_DefaultMode_from_RESET
      010036A1H   CODE     ---       TIMER2_ISR
      01003C27H   CODE     ---       TIMER3_ISR
      01003D1CH   CODE     ---       TIMER_SETUP_0_enter_DefaultMode_from_RESET
*SFR* 0000008AH   DATA     BYTE      TL0
LX51 LINKER/LOCATER V4.66.30.0                                                        03/28/2016  20:19:13  PAGE 28


*SFR* 0000008BH   DATA     BYTE      TL1
*SFR* 00000089H   DATA     BYTE      TMOD
      020002C9H   XDATA    BYTE      tmpBuffer
*SFR* 000000CCH   DATA     WORD      TMR2
*SFR* 000000C8H   DATA     BYTE      TMR2CN0
*SFR* 000000C8H.3 DATA     BIT       TMR2CN0_T2SPLIT
*SFR* 000000C8H   DATA     BIT       TMR2CN0_T2XCLK0
*SFR* 000000C8H.1 DATA     BIT       TMR2CN0_T2XCLK1
*SFR* 000000C8H.4 DATA     BIT       TMR2CN0_TF2CEN
*SFR* 000000C8H.7 DATA     BIT       TMR2CN0_TF2H
*SFR* 000000C8H.6 DATA     BIT       TMR2CN0_TF2L
*SFR* 000000C8H.5 DATA     BIT       TMR2CN0_TF2LEN
*SFR* 000000C8H.2 DATA     BIT       TMR2CN0_TR2
*SFR* 000000FDH   DATA     BYTE      TMR2CN1
*SFR* 000000CDH   DATA     BYTE      TMR2H
*SFR* 000000CCH   DATA     BYTE      TMR2L
*SFR* 000000CAH   DATA     WORD      TMR2RL
*SFR* 000000CBH   DATA     BYTE      TMR2RLH
*SFR* 000000CAH   DATA     BYTE      TMR2RLL
*SFR* 00000094H   DATA     WORD      TMR3
*SFR* 00000091H   DATA     BYTE      TMR3CN0
*SFR* 000000FEH   DATA     BYTE      TMR3CN1
*SFR* 00000095H   DATA     BYTE      TMR3H
*SFR* 00000094H   DATA     BYTE      TMR3L
*SFR* 00000092H   DATA     WORD      TMR3RL
*SFR* 00000093H   DATA     BYTE      TMR3RLH
*SFR* 00000092H   DATA     BYTE      TMR3RLL
*SFR* 000000A4H   DATA     WORD      TMR4
*SFR* 00000098H   DATA     BYTE      TMR4CN0
*SFR* 00000098H.3 DATA     BIT       TMR4CN0_T4SPLIT
*SFR* 00000098H   DATA     BIT       TMR4CN0_T4XCLK0
*SFR* 00000098H.1 DATA     BIT       TMR4CN0_T4XCLK1
*SFR* 00000098H.4 DATA     BIT       TMR4CN0_TF4CEN
*SFR* 00000098H.7 DATA     BIT       TMR4CN0_TF4H
*SFR* 00000098H.6 DATA     BIT       TMR4CN0_TF4L
*SFR* 00000098H.5 DATA     BIT       TMR4CN0_TF4LEN
*SFR* 00000098H.2 DATA     BIT       TMR4CN0_TR4
*SFR* 000000FFH   DATA     BYTE      TMR4CN1
*SFR* 000000A5H   DATA     BYTE      TMR4H
*SFR* 000000A4H   DATA     BYTE      TMR4L
*SFR* 000000A2H   DATA     WORD      TMR4RL
*SFR* 000000A3H   DATA     BYTE      TMR4RLH
*SFR* 000000A2H   DATA     BYTE      TMR4RLL
      01003E97H   CONST    ---       txZero
      01000076H   CODE     ---       u2f_attestation_cert_size
*SFR* 00000080H.2 DATA     BIT       U2F_BUTTON
*SFR* 00000080H.3 DATA     BIT       U2F_BUTTON_VAL
      0100282FH   CODE     ---       u2f_count
      01003DA6H   CODE     ---       u2f_get_attestation_cert
      01003DD3H   CODE     ---       u2f_get_user_feedback
      01003C05H   CODE     ---       u2f_hid_flush
      010037AEH   CODE     ---       u2f_hid_init
      01001D49H   CODE     ---       u2f_init
      01003DD0H   CODE     ---       u2f_response_flush
      01003DDCH   CODE     ---       u2f_response_start
      010037FDH   CODE     ---       u2f_sha256_finish
      01003A57H   CODE     ---       u2f_sha256_start
*SFR* 0000009DH   DATA     BYTE      UART1FCN0
*SFR* 000000D8H   DATA     BYTE      UART1FCN1
*SFR* 000000D8H.3 DATA     BIT       UART1FCN1_RFRQ
*SFR* 000000D8H   DATA     BIT       UART1FCN1_RIE
*SFR* 000000D8H.1 DATA     BIT       UART1FCN1_RXTO0
LX51 LINKER/LOCATER V4.66.30.0                                                        03/28/2016  20:19:13  PAGE 29


*SFR* 000000D8H.2 DATA     BIT       UART1FCN1_RXTO1
*SFR* 000000D8H.7 DATA     BIT       UART1FCN1_TFRQ
*SFR* 000000D8H.4 DATA     BIT       UART1FCN1_TIE
*SFR* 000000D8H.5 DATA     BIT       UART1FCN1_TXHOLD
*SFR* 000000D8H.6 DATA     BIT       UART1FCN1_TXNF
*SFR* 000000FAH   DATA     BYTE      UART1FCT
*SFR* 0000009EH   DATA     BYTE      UART1LIN
      01003DC3H   CODE     ---       UART_0_enter_DefaultMode_from_RESET
*SFR* 000000AEH   DATA     BYTE      USB0ADR
*SFR* 000000B2H   DATA     BYTE      USB0AEC
*SFR* 000000B6H   DATA     BYTE      USB0CDCF
*SFR* 000000BEH   DATA     BYTE      USB0CDCN
*SFR* 000000BFH   DATA     BYTE      USB0CDSTA
*SFR* 000000B5H   DATA     BYTE      USB0CF
*SFR* 000000AFH   DATA     BYTE      USB0DAT
*SFR* 000000B3H   DATA     BYTE      USB0XCN
      01003CFCH   CODE     ---       USB_Ep0GetCount
      01003C6EH   CODE     ---       USB_Ep0InPacketReady
      01003CADH   CODE     ---       USB_Ep0OutPacketReady
      01003C61H   CODE     ---       USB_Ep0SentStall
      01003CB9H   CODE     ---       USB_EpnGetOutPacketReady
      01003C7BH   CODE     ---       USB_EpnInGetSentStall
      01003C88H   CODE     ---       USB_EpnOutGetSentStall
      01003DB9H   CODE     ---       USB_EpOutGetCount
      01003CD0H   CODE     ---       USB_GetCommonInts
      01003CF1H   CODE     ---       USB_GetIndex
      01003CDBH   CODE     ---       USB_GetInInts
      01003D9FH   CODE     ---       USB_GetIntsEnabled
      01003CE6H   CODE     ---       USB_GetOutInts
      01003C54H   CODE     ---       USB_GetSetupEnd
*DEL*:00000000H   CODE     ---       USB_GetSofNumber
*DEL*:00000000H   CODE     ---       USB_IsPrefetchEnabled
*DEL*:00000000H   CODE     ---       USB_IsRegulatorEnabled
*DEL*:00000000H   CODE     ---       USB_IsSuspended
*DEL*:00000000H   CODE     ---       USB_SuspendOscillator
      01003564H   CODE     ---       USBD_AbortAllTransfers
      01003AD2H   CODE     ---       USBD_Connect
*DEL*:00000000H   CODE     ---       USBD_Disconnect
*DEL*:00000000H   CODE     ---       USBD_GetUsbState
      01003DD6H   CODE     ---       USBD_IsSelfPoweredCb
      01003DDAH   CODE     ---       USBD_ResetCb
*DEL*:00000000H   CODE     ---       USBD_Stop
*DEL*:00000000H   CODE     ---       USBD_Suspend
      010028A9H   CODE     ---       USBDCH9_SetupCmd
      01001705H   CODE     ---       usbIrqHandler
      01003D4EH   CODE     ---       USBLIB_0_enter_DefaultMode_from_RESET
*SFR* 000000FFH   DATA     BYTE      VDM0CN
      01003D83H   CODE     ---       VREG_0_enter_DefaultMode_from_RESET
      01003D12H   CODE     ---       WDT_0_enter_DefaultMode_from_RESET
*SFR* 00000097H   DATA     BYTE      WDTCN
*SFR* 000000E1H   DATA     BYTE      XBR0
*SFR* 000000E2H   DATA     BYTE      XBR1
*SFR* 000000E3H   DATA     BYTE      XBR2



SYMBOL TABLE OF MODULE:  U2F-FIRMWARE.OMF.CRBUILD (INITDEVICE)

      VALUE       REP       CLASS    TYPE      SYMBOL NAME
      ====================================================
      ---         MODULE    ---      ---       INITDEVICE
      01003D4EH   PUBLIC    CODE     ---       USBLIB_0_enter_DefaultMode_from_RESET
LX51 LINKER/LOCATER V4.66.30.0                                                        03/28/2016  20:19:13  PAGE 30


      01003D98H   PUBLIC    CODE     ---       INTERRUPT_0_enter_DefaultMode_from_RESET
      01003DC3H   PUBLIC    CODE     ---       UART_0_enter_DefaultMode_from_RESET
      01003DBFH   PUBLIC    CODE     ---       SMBUS_0_enter_DefaultMode_from_RESET
      01003D1CH   PUBLIC    CODE     ---       TIMER_SETUP_0_enter_DefaultMode_from_RESET
      0100002EH   PUBLIC    CODE     ---       TIMER16_3_enter_DefaultMode_from_RESET
      01003BBAH   PUBLIC    CODE     ---       TIMER16_2_enter_DefaultMode_from_RESET
      01003BA7H   PUBLIC    CODE     ---       TIMER01_0_enter_DefaultMode_from_RESET
      01003C46H   PUBLIC    CODE     ---       CLOCK_0_enter_DefaultMode_from_RESET
      01003D91H   PUBLIC    CODE     ---       CIP51_0_enter_DefaultMode_from_RESET
      01003D8AH   PUBLIC    CODE     ---       PBCFG_0_enter_DefaultMode_from_RESET
      01003BF3H   PUBLIC    CODE     ---       PORTS_1_enter_DefaultMode_from_RESET
      01003B57H   PUBLIC    CODE     ---       PORTS_0_enter_DefaultMode_from_RESET
      01003D83H   PUBLIC    CODE     ---       VREG_0_enter_DefaultMode_from_RESET
      01003D12H   PUBLIC    CODE     ---       WDT_0_enter_DefaultMode_from_RESET
      0100340EH   PUBLIC    CODE     ---       enter_DefaultMode_from_RESET
      000000A2H   SFRSYM    DATA     BYTE      SPI0CKR
      00000080H   SFRSYM    DATA     BYTE      P0
      000000C8H.6 SFRSYM    DATA     BIT       SCON1_PERR
      000000D0H.2 SFRSYM    DATA     BIT       PSW_OV
      00000090H   SFRSYM    DATA     BYTE      P1
      000000F8H.1 SFRSYM    DATA     BIT       SPI0CN0_TXNF
      00000097H   SFRSYM    DATA     BYTE      WDTCN
      000000A0H   SFRSYM    DATA     BYTE      P2
      000000B0H   SFRSYM    DATA     BYTE      P3
      000000BCH   SFRSYM    DATA     BYTE      ADC0CF
      000000C0H.7 SFRSYM    DATA     BIT       SMB0CN0_MASTER
      000000F9H   SFRSYM    DATA     WORD      PCA0
      000000E6H   SFRSYM    DATA     BYTE      EIE1
      000000C0H.1 SFRSYM    DATA     BIT       SMB0CN0_ACK
      000000B3H   SFRSYM    DATA     BYTE      USB0XCN
      000000CEH   SFRSYM    DATA     BYTE      EIE2
      0000008FH   SFRSYM    DATA     BYTE      PSCTL
      000000E4H   SFRSYM    DATA     BYTE      IT01CF
      000000C0H.6 SFRSYM    DATA     BIT       SMB0CN0_TXMODE
      000000ADH   SFRSYM    DATA     BYTE      DERIVID
      000000A7H   SFRSYM    DATA     BYTE      SFRPAGE
      000000A4H   SFRSYM    DATA     BYTE      P0MDOUT
      000000BFH   SFRSYM    DATA     BYTE      USB0CDSTA
      000000A5H   SFRSYM    DATA     BYTE      P1MDOUT
      000000E8H.5 SFRSYM    DATA     BIT       ADC0CN0_ADINT
      000000CBH   SFRSYM    DATA     BYTE      TMR2RLH
      000000A6H   SFRSYM    DATA     BYTE      P2MDOUT
      000000A8H   SFRSYM    DATA     BYTE      IE
      00000093H   SFRSYM    DATA     BYTE      TMR3RLH
      0000009CH   SFRSYM    DATA     BYTE      P3MDOUT
      000000A3H   SFRSYM    DATA     BYTE      TMR4RLH
      000000F3H   SFRSYM    DATA     BYTE      EIP1
      000000F4H   SFRSYM    DATA     BYTE      EIP2
      00000098H.2 SFRSYM    DATA     BIT       SCON0_RB8
      000000CAH   SFRSYM    DATA     BYTE      TMR2RLL
      000000FCH   SFRSYM    DATA     BYTE      PCA0CPH0
      00000092H   SFRSYM    DATA     BYTE      TMR3RLL
      000000EAH   SFRSYM    DATA     BYTE      PCA0CPH1
      00000098H.3 SFRSYM    DATA     BIT       SCON0_TB8
      000000F0H   SFRSYM    DATA     BIT       B_B0
      00000082H   SFRSYM    DATA     WORD      DP
      000000A2H   SFRSYM    DATA     BYTE      TMR4RLL
      000000ECH   SFRSYM    DATA     BYTE      PCA0CPH2
      000000F0H.1 SFRSYM    DATA     BIT       B_B1
      000000C3H   SFRSYM    DATA     WORD      ADC0GT
      000000BDH   SFRSYM    DATA     BYTE      I2C0SLAD
      000000D8H.3 SFRSYM    DATA     BIT       UART1FCN1_RFRQ
LX51 LINKER/LOCATER V4.66.30.0                                                        03/28/2016  20:19:13  PAGE 31


      000000F0H.2 SFRSYM    DATA     BIT       B_B2
      000000CFH   SFRSYM    DATA     BYTE      SFRPGCN
      000000FBH   SFRSYM    DATA     BYTE      PCA0CPL0
      000000F0H.3 SFRSYM    DATA     BIT       B_B3
      000000D9H   SFRSYM    DATA     BYTE      PCA0MD
      000000DAH   SFRSYM    DATA     BYTE      PCA0CPM0
      000000E9H   SFRSYM    DATA     BYTE      PCA0CPL1
      000000D8H.7 SFRSYM    DATA     BIT       UART1FCN1_TFRQ
      000000F0H.4 SFRSYM    DATA     BIT       B_B4
      000000DBH   SFRSYM    DATA     BYTE      PCA0CPM1
      000000EBH   SFRSYM    DATA     BYTE      PCA0CPL2
      000000F0H.5 SFRSYM    DATA     BIT       B_B5
      000000DCH   SFRSYM    DATA     BYTE      PCA0CPM2
      000000B8H   SFRSYM    DATA     BYTE      IP
      000000B9H   SFRSYM    DATA     BYTE      ADC0TK
      000000F0H.6 SFRSYM    DATA     BIT       B_B6
      000000C5H   SFRSYM    DATA     WORD      ADC0LT
      000000D8H.6 SFRSYM    DATA     BIT       UART1FCN1_TXNF
      00000098H.5 SFRSYM    DATA     BIT       SCON0_MCE
      000000F0H.7 SFRSYM    DATA     BIT       B_B7
      000000C3H   SFRSYM    DATA     BYTE      SMB0FCN0
      000000E1H   SFRSYM    DATA     BYTE      XBR0
      000000C4H   SFRSYM    DATA     BYTE      SMB0FCN1
      000000C1H   SFRSYM    DATA     BYTE      SMB0CF
      000000E2H   SFRSYM    DATA     BYTE      XBR1
      000000C1H   SFRSYM    DATA     BYTE      PFE0CN
      000000E7H   SFRSYM    DATA     BYTE      EMI0CN
      000000C0H.5 SFRSYM    DATA     BIT       SMB0CN0_STA
      000000E3H   SFRSYM    DATA     BYTE      XBR2
      000000BBH   SFRSYM    DATA     BYTE      ADC0MX
      000000E0H   SFRSYM    DATA     BIT       ACC_ACC0
      000000D1H   SFRSYM    DATA     BYTE      REF0CN
      0000008EH   SFRSYM    DATA     BYTE      CKCON0
      000000E0H.1 SFRSYM    DATA     BIT       ACC_ACC1
      000000C9H   SFRSYM    DATA     BYTE      REG0CN
      000000DDH   SFRSYM    DATA     BYTE      CRC0IN
      000000A6H   SFRSYM    DATA     BYTE      CKCON1
      000000C8H.2 SFRSYM    DATA     BIT       TMR2CN0_TR2
      000000E0H.2 SFRSYM    DATA     BIT       ACC_ACC2
      000000C6H   SFRSYM    DATA     BYTE      REG1CN
      000000E0H.3 SFRSYM    DATA     BIT       ACC_ACC3
      00000081H   SFRSYM    DATA     BYTE      SP
      0000009DH   SFRSYM    DATA     BYTE      CMP0MD
      000000E0H.4 SFRSYM    DATA     BIT       ACC_ACC4
      000000B1H   SFRSYM    DATA     BYTE      LFO0CN
      000000ABH   SFRSYM    DATA     BYTE      CMP1MD
      000000D8H   SFRSYM    DATA     BIT       PCA0CN0_CCF0
      000000E0H.5 SFRSYM    DATA     BIT       ACC_ACC5
      000000B5H   SFRSYM    DATA     BYTE      USB0CF
      00000098H.2 SFRSYM    DATA     BIT       TMR4CN0_TR4
      000000D8H.1 SFRSYM    DATA     BIT       PCA0CN0_CCF1
      000000E0H.6 SFRSYM    DATA     BIT       ACC_ACC6
      000000CCH   SFRSYM    DATA     WORD      TMR2
      0000009AH   SFRSYM    DATA     BYTE      SPI0FCN0
      000000D8H.2 SFRSYM    DATA     BIT       PCA0CN0_CCF2
      000000E0H.7 SFRSYM    DATA     BIT       ACC_ACC7
      00000094H   SFRSYM    DATA     WORD      TMR3
      0000009BH   SFRSYM    DATA     BYTE      SPI0FCN1
      000000A4H   SFRSYM    DATA     WORD      TMR4
      00000094H   SFRSYM    DATA     BYTE      SBCON1
      000000C0H.3 SFRSYM    DATA     BIT       SMB0CN0_ACKRQ
      000000FFH   SFRSYM    DATA     BYTE      VDM0CN
LX51 LINKER/LOCATER V4.66.30.0                                                        03/28/2016  20:19:13  PAGE 32


      000000F1H   SFRSYM    DATA     BYTE      P0MDIN
      00000098H.4 SFRSYM    DATA     BIT       SCON0_REN
      000000ACH   SFRSYM    DATA     BYTE      SMB0TC
      000000F2H   SFRSYM    DATA     BYTE      P1MDIN
      000000C8H.4 SFRSYM    DATA     BIT       SCON1_REN
      000000F3H   SFRSYM    DATA     BYTE      P2MDIN
      000000C0H.4 SFRSYM    DATA     BIT       SMB0CN0_STO
      000000B6H   SFRSYM    DATA     BYTE      USB0CDCF
      000000F4H   SFRSYM    DATA     BYTE      P3MDIN
      000000B9H   SFRSYM    DATA     BYTE      I2C0STAT
      000000BBH   SFRSYM    DATA     BYTE      I2C0DOUT
      00000096H   SFRSYM    DATA     BYTE      SBRLH1
      000000FEH   SFRSYM    DATA     BYTE      P0MASK
      000000D8H.5 SFRSYM    DATA     BIT       UART1FCN1_TXHOLD
      000000EEH   SFRSYM    DATA     BYTE      P1MASK
      000000FCH   SFRSYM    DATA     BYTE      P2MASK
      000000D0H.3 SFRSYM    DATA     BIT       PSW_RS0
      000000D8H.7 SFRSYM    DATA     BIT       PCA0CN0_CF
      0000009EH   SFRSYM    DATA     BYTE      PCA0CENT
      000000BAH   SFRSYM    DATA     BYTE      I2C0CN0
      000000D2H   SFRSYM    DATA     BYTE      CRC0ST
      000000F8H.4 SFRSYM    DATA     BIT       SPI0CN0_RXOVRN
      000000D0H.4 SFRSYM    DATA     BIT       PSW_RS1
      00000095H   SFRSYM    DATA     BYTE      SBRLL1
      000000C8H.2 SFRSYM    DATA     BIT       SCON1_RBX
      000000C8H   SFRSYM    DATA     BIT       TMR2CN0_T2XCLK0
      000000C8H.1 SFRSYM    DATA     BIT       TMR2CN0_T2XCLK1
      000000C8H.3 SFRSYM    DATA     BIT       SCON1_TBX
      000000E8H.7 SFRSYM    DATA     BIT       ADC0CN0_ADEN
      000000BEH   SFRSYM    DATA     BYTE      USB0CDCN
      00000089H   SFRSYM    DATA     BYTE      TMOD
      00000088H   SFRSYM    DATA     BYTE      TCON
      000000CFH   SFRSYM    DATA     BYTE      CRC0FLIP
      000000D0H   SFRSYM    DATA     BIT       PSW_PARITY
      000000A8H.4 SFRSYM    DATA     BIT       IE_ES0
      0000009FH   SFRSYM    DATA     BYTE      CMP0MX
      00000098H   SFRSYM    DATA     BIT       TMR4CN0_T4XCLK0
      000000A8H.1 SFRSYM    DATA     BIT       IE_ET0
      000000AAH   SFRSYM    DATA     BYTE      CMP1MX
      00000098H.1 SFRSYM    DATA     BIT       TMR4CN0_T4XCLK1
      000000A8H.3 SFRSYM    DATA     BIT       IE_ET1
      000000D4H   SFRSYM    DATA     BYTE      P0SKIP
      000000D8H   SFRSYM    DATA     BIT       UART1FCN1_RIE
      000000A8H.5 SFRSYM    DATA     BIT       IE_ET2
      000000D5H   SFRSYM    DATA     BYTE      P1SKIP
      000000CCH   SFRSYM    DATA     BYTE      P2SKIP
      000000E8H   SFRSYM    DATA     BYTE      ADC0CN0
      000000D8H.4 SFRSYM    DATA     BIT       UART1FCN1_TIE
      000000A8H   SFRSYM    DATA     BIT       IE_EX0
      000000B2H   SFRSYM    DATA     BYTE      ADC0CN1
      000000D8H.6 SFRSYM    DATA     BIT       PCA0CN0_CR
      000000A8H.2 SFRSYM    DATA     BIT       IE_EX1
      000000C8H.7 SFRSYM    DATA     BIT       SCON1_OVR
      00000098H.7 SFRSYM    DATA     BIT       SCON0_SMODE
      000000B5H   SFRSYM    DATA     BYTE      DEVICEID
      000000A9H   SFRSYM    DATA     BYTE      CLKSEL
      000000F8H   SFRSYM    DATA     BIT       SPI0CN0_SPIEN
      000000F0H   SFRSYM    DATA     BYTE      B
      000000BEH   SFRSYM    DATA     BYTE      ADC0H
      000000E8H.6 SFRSYM    DATA     BIT       ADC0CN0_ADBMEN
      000000CAH   SFRSYM    DATA     WORD      TMR2RL
      000000BDH   SFRSYM    DATA     BYTE      ADC0L
LX51 LINKER/LOCATER V4.66.30.0                                                        03/28/2016  20:19:13  PAGE 33


      00000092H   SFRSYM    DATA     WORD      TMR3RL
      000000A2H   SFRSYM    DATA     WORD      TMR4RL
      000000D8H   SFRSYM    DATA     BYTE      PCA0CN0
      000000E0H   SFRSYM    DATA     BYTE      ACC
      000000FBH   SFRSYM    DATA     WORD      PCA0CP0
      000000E9H   SFRSYM    DATA     WORD      PCA0CP1
      000000EBH   SFRSYM    DATA     WORD      PCA0CP2
      000000BCH   SFRSYM    DATA     BYTE      I2C0DIN
      000000CEH   SFRSYM    DATA     BYTE      CRC0CN0
      0000008CH   SFRSYM    DATA     BYTE      TH0
      00000086H   SFRSYM    DATA     BYTE      CRC0CN1
      000000B8H.4 SFRSYM    DATA     BIT       IP_PS0
      000000FAH   SFRSYM    DATA     BYTE      UART1FCT
      0000008DH   SFRSYM    DATA     BYTE      TH1
      000000FAH   SFRSYM    DATA     BYTE      PCA0H
      000000F5H   SFRSYM    DATA     BYTE      I2C0FCT
      000000B8H.1 SFRSYM    DATA     BIT       IP_PT0
      000000B8H.3 SFRSYM    DATA     BIT       IP_PT1
      000000C0H.2 SFRSYM    DATA     BIT       SMB0CN0_ARBLOST
      000000B8H.5 SFRSYM    DATA     BIT       IP_PT2
      0000008AH   SFRSYM    DATA     BYTE      TL0
      000000D0H.5 SFRSYM    DATA     BIT       PSW_F0
      000000A8H.6 SFRSYM    DATA     BIT       IE_ESPI0
      0000008BH   SFRSYM    DATA     BYTE      TL1
      000000F9H   SFRSYM    DATA     BYTE      PCA0L
      000000C0H   SFRSYM    DATA     BIT       SMB0CN0_SI
      000000D0H.1 SFRSYM    DATA     BIT       PSW_F1
      00000080H   SFRSYM    DATA     BIT       P0_B0
      000000B8H   SFRSYM    DATA     BIT       IP_PX0
      00000090H   SFRSYM    DATA     BIT       P1_B0
      00000080H.1 SFRSYM    DATA     BIT       P0_B1
      000000B8H.2 SFRSYM    DATA     BIT       IP_PX1
      0000009EH   SFRSYM    DATA     BYTE      UART1LIN
      0000009BH   SFRSYM    DATA     BYTE      CMP0CN0
      00000088H.1 SFRSYM    DATA     BIT       TCON_IE0
      000000A0H   SFRSYM    DATA     BIT       P2_B0
      00000090H.1 SFRSYM    DATA     BIT       P1_B1
      00000080H.2 SFRSYM    DATA     BIT       P0_B2
      000000BFH   SFRSYM    DATA     BYTE      CMP1CN0
      00000099H   SFRSYM    DATA     BYTE      CMP0CN1
      00000088H.3 SFRSYM    DATA     BIT       TCON_IE1
      000000B0H   SFRSYM    DATA     BIT       P3_B0
      000000A0H.1 SFRSYM    DATA     BIT       P2_B1
      00000090H.2 SFRSYM    DATA     BIT       P1_B2
      00000080H.3 SFRSYM    DATA     BIT       P0_B3
      000000C0H   SFRSYM    DATA     BYTE      SMB0CN0
      000000ACH   SFRSYM    DATA     BYTE      CMP1CN1
      000000B0H.1 SFRSYM    DATA     BIT       P3_B1
      000000A0H.2 SFRSYM    DATA     BIT       P2_B2
      00000090H.3 SFRSYM    DATA     BIT       P1_B3
      00000080H.4 SFRSYM    DATA     BIT       P0_B4
      000000A0H.3 SFRSYM    DATA     BIT       P2_B3
      00000090H.4 SFRSYM    DATA     BIT       P1_B4
      00000080H.5 SFRSYM    DATA     BIT       P0_B5
      000000D8H.1 SFRSYM    DATA     BIT       UART1FCN1_RXTO0
      00000090H.5 SFRSYM    DATA     BIT       P1_B5
      00000080H.6 SFRSYM    DATA     BIT       P0_B6
      000000F5H   SFRSYM    DATA     BYTE      EIP1H
      000000D8H.2 SFRSYM    DATA     BIT       UART1FCN1_RXTO1
      00000090H.6 SFRSYM    DATA     BIT       P1_B6
      00000080H.7 SFRSYM    DATA     BIT       P0_B7
      000000C5H   SFRSYM    DATA     BYTE      SMB0RXLN
LX51 LINKER/LOCATER V4.66.30.0                                                        03/28/2016  20:19:13  PAGE 34


      000000F6H   SFRSYM    DATA     BYTE      EIP2H
      00000090H.7 SFRSYM    DATA     BIT       P1_B7
      00000083H   SFRSYM    DATA     BYTE      DPH
      000000C4H   SFRSYM    DATA     BYTE      ADC0GTH
      000000C8H.7 SFRSYM    DATA     BIT       TMR2CN0_TF2H
      000000C8H.3 SFRSYM    DATA     BIT       TMR2CN0_T2SPLIT
      000000D0H.6 SFRSYM    DATA     BIT       PSW_AC
      000000F8H   SFRSYM    DATA     BYTE      SPI0CN0
      000000C7H   SFRSYM    DATA     BYTE      HFO0CAL
      00000088H.5 SFRSYM    DATA     BIT       TCON_TF0
      00000098H   SFRSYM    DATA     BIT       SCON0_RI
      000000D6H   SFRSYM    DATA     BYTE      HFO1CAL
      00000082H   SFRSYM    DATA     BYTE      DPL
      00000088H.7 SFRSYM    DATA     BIT       TCON_TF1
      000000C8H   SFRSYM    DATA     BIT       SCON1_RI
      00000099H   SFRSYM    DATA     BYTE      SBUF0
      00000087H   SFRSYM    DATA     BYTE      PCON0
      000000F2H   SFRSYM    DATA     BYTE      IPH
      000000C3H   SFRSYM    DATA     BYTE      ADC0GTL
      00000098H.7 SFRSYM    DATA     BIT       TMR4CN0_TF4H
      00000098H.3 SFRSYM    DATA     BIT       TMR4CN0_T4SPLIT
      000000C8H.6 SFRSYM    DATA     BIT       TMR2CN0_TF2L
      00000098H.1 SFRSYM    DATA     BIT       SCON0_TI
      000000E8H   SFRSYM    DATA     BIT       ADC0CN0_ADCM0
      00000092H   SFRSYM    DATA     BYTE      SBUF1
      0000009AH   SFRSYM    DATA     BYTE      PCON1
      000000C6H   SFRSYM    DATA     BYTE      ADC0LTH
      00000088H   SFRSYM    DATA     BIT       TCON_IT0
      000000C8H.1 SFRSYM    DATA     BIT       SCON1_TI
      000000E8H.1 SFRSYM    DATA     BIT       ADC0CN0_ADCM1
      000000EFH   SFRSYM    DATA     BYTE      RSTSRC
      000000FDH   SFRSYM    DATA     BYTE      P0MAT
      000000DEH   SFRSYM    DATA     BYTE      CRC0DAT
      00000088H.2 SFRSYM    DATA     BIT       TCON_IT1
      000000E8H.2 SFRSYM    DATA     BIT       ADC0CN0_ADCM2
      000000D7H   SFRSYM    DATA     BYTE      SFRSTACK
      00000098H   SFRSYM    DATA     BYTE      SCON0
      000000F6H   SFRSYM    DATA     BYTE      PRTDRV
      000000EDH   SFRSYM    DATA     BYTE      P1MAT
      000000E8H.3 SFRSYM    DATA     BIT       ADC0CN0_ADWINT
      00000095H   SFRSYM    DATA     WORD      SBRL1
      000000B2H   SFRSYM    DATA     BYTE      USB0AEC
      00000093H   SFRSYM    DATA     BYTE      SMOD1
      000000C8H   SFRSYM    DATA     BYTE      SCON1
      000000FBH   SFRSYM    DATA     BYTE      P2MAT
      00000098H.6 SFRSYM    DATA     BIT       TMR4CN0_TF4L
      000000E8H.4 SFRSYM    DATA     BIT       ADC0CN0_ADBUSY
      000000D6H   SFRSYM    DATA     BYTE      SMB0ADM
      000000C5H   SFRSYM    DATA     BYTE      ADC0LTL
      000000F8H.5 SFRSYM    DATA     BIT       SPI0CN0_MODF
      000000B8H.6 SFRSYM    DATA     BIT       IP_PSPI0
      0000009CH   SFRSYM    DATA     BYTE      PCA0CLR
      000000C8H   SFRSYM    DATA     BYTE      TMR2CN0
      00000091H   SFRSYM    DATA     BYTE      TMR3CN0
      000000FDH   SFRSYM    DATA     BYTE      TMR2CN1
      00000098H   SFRSYM    DATA     BYTE      TMR4CN0
      000000FEH   SFRSYM    DATA     BYTE      TMR3CN1
      000000FFH   SFRSYM    DATA     BYTE      TMR4CN1
      000000D7H   SFRSYM    DATA     BYTE      SMB0ADR
      00000088H.4 SFRSYM    DATA     BIT       TCON_TR0
      000000C8H.4 SFRSYM    DATA     BIT       TMR2CN0_TF2CEN
      00000088H.6 SFRSYM    DATA     BIT       TCON_TR1
LX51 LINKER/LOCATER V4.66.30.0                                                        03/28/2016  20:19:13  PAGE 35


      000000C2H   SFRSYM    DATA     BYTE      SMB0DAT
      000000CDH   SFRSYM    DATA     BYTE      TMR2H
      000000A1H   SFRSYM    DATA     BYTE      SPI0CFG
      00000095H   SFRSYM    DATA     BYTE      TMR3H
      000000EFH   SFRSYM    DATA     BYTE      HFOCN
      000000D3H   SFRSYM    DATA     BYTE      CRC0CNT
      000000A5H   SFRSYM    DATA     BYTE      TMR4H
      00000098H.4 SFRSYM    DATA     BIT       TMR4CN0_TF4CEN
      000000EFH   SFRSYM    DATA     BYTE      SMB0FCT
      00000096H   SFRSYM    DATA     BYTE      PCA0POL
      000000CCH   SFRSYM    DATA     BYTE      TMR2L
      000000F8H.7 SFRSYM    DATA     BIT       SPI0CN0_SPIF
      000000AEH   SFRSYM    DATA     BYTE      USB0ADR
      00000094H   SFRSYM    DATA     BYTE      TMR3L
      000000DFH   SFRSYM    DATA     BYTE      ADC0PWR
      000000A8H.7 SFRSYM    DATA     BIT       IE_EA
      000000A4H   SFRSYM    DATA     BYTE      TMR4L
      000000AFH   SFRSYM    DATA     BYTE      USB0DAT
      000000C8H.5 SFRSYM    DATA     BIT       TMR2CN0_TF2LEN
      000000F8H.6 SFRSYM    DATA     BIT       SPI0CN0_WCOL
      000000F8H.2 SFRSYM    DATA     BIT       SPI0CN0_NSSMD0
      000000D0H.7 SFRSYM    DATA     BIT       PSW_CY
      0000009DH   SFRSYM    DATA     BYTE      UART1FCN0
      000000A3H   SFRSYM    DATA     BYTE      SPI0DAT
      000000ADH   SFRSYM    DATA     BYTE      I2C0FCN0
      000000F8H.3 SFRSYM    DATA     BIT       SPI0CN0_NSSMD1
      000000BDH   SFRSYM    DATA     WORD      ADC0
      000000D8H   SFRSYM    DATA     BYTE      UART1FCN1
      000000ABH   SFRSYM    DATA     BYTE      I2C0FCN1
      00000098H.5 SFRSYM    DATA     BIT       TMR4CN0_TF4LEN
      000000D0H   SFRSYM    DATA     BYTE      PSW
      000000F7H   SFRSYM    DATA     BYTE      PCA0PWM
      000000F7H   SFRSYM    DATA     BYTE      SPI0FCT
      000000B6H   SFRSYM    DATA     BYTE      REVID
      000000B7H   SFRSYM    DATA     BYTE      FLKEY
      000000B3H   SFRSYM    DATA     BYTE      ADC0AC

      0100340EH   BLOCK     CODE     ---       LVL=0
      0100340EH   BLOCK     CODE     NEAR LAB  LVL=1
      02000041H   SYMBOL    XDATA    BYTE      SFRPAGE_save
      ---         BLOCKEND  ---      ---       LVL=1
      0100340EH   LINE      CODE     ---       #25
      0100340EH   LINE      CODE     ---       #28
      01003414H   LINE      CODE     ---       #29
      01003417H   LINE      CODE     ---       #30
      0100341AH   LINE      CODE     ---       #31
      0100341DH   LINE      CODE     ---       #32
      01003420H   LINE      CODE     ---       #33
      01003423H   LINE      CODE     ---       #34
      01003426H   LINE      CODE     ---       #35
      01003429H   LINE      CODE     ---       #36
      0100342CH   LINE      CODE     ---       #37
      0100342FH   LINE      CODE     ---       #38
      01003432H   LINE      CODE     ---       #39
      01003435H   LINE      CODE     ---       #40
      01003438H   LINE      CODE     ---       #41
      0100343BH   LINE      CODE     ---       #42
      0100343EH   LINE      CODE     ---       #43
      01003441H   LINE      CODE     ---       #45
      01003447H   LINE      CODE     ---       #48
      ---         BLOCKEND  ---      ---       LVL=0

LX51 LINKER/LOCATER V4.66.30.0                                                        03/28/2016  20:19:13  PAGE 36


      01003D12H   BLOCK     CODE     ---       LVL=0
      01003D12H   LINE      CODE     ---       #53
      01003D12H   LINE      CODE     ---       #55
      01003D15H   LINE      CODE     ---       #57
      01003D18H   LINE      CODE     ---       #58
      01003D1BH   LINE      CODE     ---       #61
      ---         BLOCKEND  ---      ---       LVL=0

      01003D83H   BLOCK     CODE     ---       LVL=0
      01003D83H   LINE      CODE     ---       #66
      01003D83H   LINE      CODE     ---       #80
      01003D86H   LINE      CODE     ---       #81
      01003D89H   LINE      CODE     ---       #85
      ---         BLOCKEND  ---      ---       LVL=0

      01003B57H   BLOCK     CODE     ---       LVL=0
      01003B57H   LINE      CODE     ---       #90
      01003B57H   LINE      CODE     ---       #110
      01003B5AH   LINE      CODE     ---       #111
      01003B5DH   LINE      CODE     ---       #129
      01003B60H   LINE      CODE     ---       #154
      01003B63H   LINE      CODE     ---       #178
      01003B65H   LINE      CODE     ---       #203
      01003B67H   LINE      CODE     ---       #227
      01003B6AH   LINE      CODE     ---       #231
      ---         BLOCKEND  ---      ---       LVL=0

      01003BF3H   BLOCK     CODE     ---       LVL=0
      01003BF3H   LINE      CODE     ---       #236
      01003BF3H   LINE      CODE     ---       #246
      01003BF6H   LINE      CODE     ---       #257
      01003BF9H   LINE      CODE     ---       #270
      01003BFCH   LINE      CODE     ---       #282
      01003BFFH   LINE      CODE     ---       #295
      01003C01H   LINE      CODE     ---       #307
      01003C04H   LINE      CODE     ---       #310
      ---         BLOCKEND  ---      ---       LVL=0

      01003D8AH   BLOCK     CODE     ---       LVL=0
      01003D8AH   LINE      CODE     ---       #370
      01003D8AH   LINE      CODE     ---       #384
      01003D8DH   LINE      CODE     ---       #409
      01003D90H   LINE      CODE     ---       #417
      ---         BLOCKEND  ---      ---       LVL=0

      01003D91H   BLOCK     CODE     ---       LVL=0
      01003D91H   LINE      CODE     ---       #422
      01003D91H   LINE      CODE     ---       #429
      01003D94H   LINE      CODE     ---       #430
      01003D97H   LINE      CODE     ---       #433
      ---         BLOCKEND  ---      ---       LVL=0

      01003C46H   BLOCK     CODE     ---       LVL=0
      01003C46H   LINE      CODE     ---       #438
      01003C46H   LINE      CODE     ---       #441
      01003C49H   LINE      CODE     ---       #442
      01003C4BH   LINE      CODE     ---       #443
      01003C4DH   LINE      CODE     ---       #444
      01003C4DH   LINE      CODE     ---       #459
      01003C50H   LINE      CODE     ---       #460
      01003C53H   LINE      CODE     ---       #461
      01003C53H   LINE      CODE     ---       #465
LX51 LINKER/LOCATER V4.66.30.0                                                        03/28/2016  20:19:13  PAGE 37


      ---         BLOCKEND  ---      ---       LVL=0

      01003BA7H   BLOCK     CODE     ---       LVL=0
      01003BA7H   BLOCK     CODE     NEAR LAB  LVL=1
      00000007H   SYMBOL    DATA     BYTE      TCON_save
      ---         BLOCKEND  ---      ---       LVL=1
      01003BA7H   LINE      CODE     ---       #470
      01003BA7H   LINE      CODE     ---       #474
      01003BA9H   LINE      CODE     ---       #476
      01003BACH   LINE      CODE     ---       #490
      01003BAFH   LINE      CODE     ---       #498
      01003BB9H   LINE      CODE     ---       #502
      ---         BLOCKEND  ---      ---       LVL=0

      01003BBAH   BLOCK     CODE     ---       LVL=0
      01003BBAH   BLOCK     CODE     NEAR LAB  LVL=1
      00000007H   SYMBOL    DATA     BYTE      TMR2CN0_TR2_save
      ---         BLOCKEND  ---      ---       LVL=1
      01003BBAH   LINE      CODE     ---       #507
      01003BBAH   LINE      CODE     ---       #511
      01003BBEH   LINE      CODE     ---       #513
      01003BC1H   LINE      CODE     ---       #532
      01003BC4H   LINE      CODE     ---       #539
      01003BC7H   LINE      CODE     ---       #546
      01003BCAH   LINE      CODE     ---       #551
      01003BCCH   LINE      CODE     ---       #554
      ---         BLOCKEND  ---      ---       LVL=0

      0100002EH   BLOCK     CODE     ---       LVL=0
      0100002EH   BLOCK     CODE     NEAR LAB  LVL=1
      00000007H   SYMBOL    DATA     BYTE      TMR3CN0_TR3_save
      ---         BLOCKEND  ---      ---       LVL=1
      0100002EH   LINE      CODE     ---       #559
      0100002EH   LINE      CODE     ---       #563
      01000032H   LINE      CODE     ---       #565
      01000035H   LINE      CODE     ---       #590
      01000038H   LINE      CODE     ---       #595
      0100003AH   LINE      CODE     ---       #598
      ---         BLOCKEND  ---      ---       LVL=0

      01003D1CH   BLOCK     CODE     ---       LVL=0
      01003D1CH   LINE      CODE     ---       #603
      01003D1CH   LINE      CODE     ---       #619
      01003D1FH   LINE      CODE     ---       #642
      01003D22H   LINE      CODE     ---       #650
      01003D25H   LINE      CODE     ---       #653
      ---         BLOCKEND  ---      ---       LVL=0

      01003DBFH   BLOCK     CODE     ---       LVL=0
      01003DBFH   LINE      CODE     ---       #658
      01003DBFH   LINE      CODE     ---       #681
      01003DC2H   LINE      CODE     ---       #686
      ---         BLOCKEND  ---      ---       LVL=0

      01003DC3H   BLOCK     CODE     ---       LVL=0
      01003DC3H   LINE      CODE     ---       #691
      01003DC3H   LINE      CODE     ---       #696
      01003DC6H   LINE      CODE     ---       #699
      ---         BLOCKEND  ---      ---       LVL=0

      01003D98H   BLOCK     CODE     ---       LVL=0
      01003D98H   LINE      CODE     ---       #704
LX51 LINKER/LOCATER V4.66.30.0                                                        03/28/2016  20:19:13  PAGE 38


      01003D98H   LINE      CODE     ---       #724
      01003D9BH   LINE      CODE     ---       #762
      01003D9EH   LINE      CODE     ---       #773
      ---         BLOCKEND  ---      ---       LVL=0

      01003D4EH   BLOCK     CODE     ---       LVL=0
      01003D4EH   LINE      CODE     ---       #778
      01003D4EH   LINE      CODE     ---       #780
      ---         BLOCKEND  ---      ---       LVL=0

      ---         MODULE    ---      ---       INTERRUPTS
      02000337H   PUBLIC    XDATA    ---       SMB
      0000001AH   PUBLIC    DATA     DWORD     _MS_
      02000336H   PUBLIC    XDATA    BYTE      SMB_FLAGS
      02000335H   PUBLIC    XDATA    BYTE      count
      01003C27H   PUBLIC    CODE     ---       TIMER3_ISR
      01000A69H   PUBLIC    CODE     ---       SMBUS0_ISR
      010036A1H   PUBLIC    CODE     ---       TIMER2_ISR
      000000A2H   SFRSYM    DATA     BYTE      SPI0CKR
      00000080H   SFRSYM    DATA     BYTE      P0
      000000C8H.6 SFRSYM    DATA     BIT       SCON1_PERR
      000000D0H.2 SFRSYM    DATA     BIT       PSW_OV
      00000090H   SFRSYM    DATA     BYTE      P1
      000000F8H.1 SFRSYM    DATA     BIT       SPI0CN0_TXNF
      00000097H   SFRSYM    DATA     BYTE      WDTCN
      000000A0H   SFRSYM    DATA     BYTE      P2
      000000B0H   SFRSYM    DATA     BYTE      P3
      000000BCH   SFRSYM    DATA     BYTE      ADC0CF
      000000C0H.7 SFRSYM    DATA     BIT       SMB0CN0_MASTER
      000000F9H   SFRSYM    DATA     WORD      PCA0
      000000E6H   SFRSYM    DATA     BYTE      EIE1
      000000C0H.1 SFRSYM    DATA     BIT       SMB0CN0_ACK
      000000B3H   SFRSYM    DATA     BYTE      USB0XCN
      000000CEH   SFRSYM    DATA     BYTE      EIE2
      00000080H.7 SFRSYM    DATA     BIT       LED_R
      0000008FH   SFRSYM    DATA     BYTE      PSCTL
      000000E4H   SFRSYM    DATA     BYTE      IT01CF
      000000C0H.6 SFRSYM    DATA     BIT       SMB0CN0_TXMODE
      000000ADH   SFRSYM    DATA     BYTE      DERIVID
      000000A7H   SFRSYM    DATA     BYTE      SFRPAGE
      000000A4H   SFRSYM    DATA     BYTE      P0MDOUT
      00000080H.2 SFRSYM    DATA     BIT       U2F_BUTTON
      000000BFH   SFRSYM    DATA     BYTE      USB0CDSTA
      000000A5H   SFRSYM    DATA     BYTE      P1MDOUT
      000000E8H.5 SFRSYM    DATA     BIT       ADC0CN0_ADINT
      000000CBH   SFRSYM    DATA     BYTE      TMR2RLH
      000000A6H   SFRSYM    DATA     BYTE      P2MDOUT
      000000A8H   SFRSYM    DATA     BYTE      IE
      00000093H   SFRSYM    DATA     BYTE      TMR3RLH
      0000009CH   SFRSYM    DATA     BYTE      P3MDOUT
      000000A3H   SFRSYM    DATA     BYTE      TMR4RLH
      000000F3H   SFRSYM    DATA     BYTE      EIP1
      000000F4H   SFRSYM    DATA     BYTE      EIP2
      00000098H.2 SFRSYM    DATA     BIT       SCON0_RB8
      000000CAH   SFRSYM    DATA     BYTE      TMR2RLL
      000000FCH   SFRSYM    DATA     BYTE      PCA0CPH0
      00000092H   SFRSYM    DATA     BYTE      TMR3RLL
      000000EAH   SFRSYM    DATA     BYTE      PCA0CPH1
      00000098H.3 SFRSYM    DATA     BIT       SCON0_TB8
      000000F0H   SFRSYM    DATA     BIT       B_B0
      00000082H   SFRSYM    DATA     WORD      DP
      000000A2H   SFRSYM    DATA     BYTE      TMR4RLL
LX51 LINKER/LOCATER V4.66.30.0                                                        03/28/2016  20:19:13  PAGE 39


      000000ECH   SFRSYM    DATA     BYTE      PCA0CPH2
      000000F0H.1 SFRSYM    DATA     BIT       B_B1
      000000C3H   SFRSYM    DATA     WORD      ADC0GT
      000000BDH   SFRSYM    DATA     BYTE      I2C0SLAD
      000000D8H.3 SFRSYM    DATA     BIT       UART1FCN1_RFRQ
      000000F0H.2 SFRSYM    DATA     BIT       B_B2
      000000CFH   SFRSYM    DATA     BYTE      SFRPGCN
      000000FBH   SFRSYM    DATA     BYTE      PCA0CPL0
      000000F0H.3 SFRSYM    DATA     BIT       B_B3
      000000D9H   SFRSYM    DATA     BYTE      PCA0MD
      000000DAH   SFRSYM    DATA     BYTE      PCA0CPM0
      000000E9H   SFRSYM    DATA     BYTE      PCA0CPL1
      000000D8H.7 SFRSYM    DATA     BIT       UART1FCN1_TFRQ
      000000F0H.4 SFRSYM    DATA     BIT       B_B4
      000000DBH   SFRSYM    DATA     BYTE      PCA0CPM1
      000000EBH   SFRSYM    DATA     BYTE      PCA0CPL2
      000000F0H.5 SFRSYM    DATA     BIT       B_B5
      000000DCH   SFRSYM    DATA     BYTE      PCA0CPM2
      000000B8H   SFRSYM    DATA     BYTE      IP
      000000B9H   SFRSYM    DATA     BYTE      ADC0TK
      000000F0H.6 SFRSYM    DATA     BIT       B_B6
      000000C5H   SFRSYM    DATA     WORD      ADC0LT
      000000D8H.6 SFRSYM    DATA     BIT       UART1FCN1_TXNF
      00000098H.5 SFRSYM    DATA     BIT       SCON0_MCE
      000000F0H.7 SFRSYM    DATA     BIT       B_B7
      000000C3H   SFRSYM    DATA     BYTE      SMB0FCN0
      000000E1H   SFRSYM    DATA     BYTE      XBR0
      000000C4H   SFRSYM    DATA     BYTE      SMB0FCN1
      000000C1H   SFRSYM    DATA     BYTE      SMB0CF
      000000E2H   SFRSYM    DATA     BYTE      XBR1
      000000C1H   SFRSYM    DATA     BYTE      PFE0CN
      000000E7H   SFRSYM    DATA     BYTE      EMI0CN
      000000C0H.5 SFRSYM    DATA     BIT       SMB0CN0_STA
      000000E3H   SFRSYM    DATA     BYTE      XBR2
      000000BBH   SFRSYM    DATA     BYTE      ADC0MX
      000000E0H   SFRSYM    DATA     BIT       ACC_ACC0
      000000D1H   SFRSYM    DATA     BYTE      REF0CN
      0000008EH   SFRSYM    DATA     BYTE      CKCON0
      000000E0H.1 SFRSYM    DATA     BIT       ACC_ACC1
      000000C9H   SFRSYM    DATA     BYTE      REG0CN
      000000DDH   SFRSYM    DATA     BYTE      CRC0IN
      000000A6H   SFRSYM    DATA     BYTE      CKCON1
      000000C8H.2 SFRSYM    DATA     BIT       TMR2CN0_TR2
      000000E0H.2 SFRSYM    DATA     BIT       ACC_ACC2
      000000C6H   SFRSYM    DATA     BYTE      REG1CN
      000000E0H.3 SFRSYM    DATA     BIT       ACC_ACC3
      00000081H   SFRSYM    DATA     BYTE      SP
      0000009DH   SFRSYM    DATA     BYTE      CMP0MD
      000000E0H.4 SFRSYM    DATA     BIT       ACC_ACC4
      000000B1H   SFRSYM    DATA     BYTE      LFO0CN
      000000ABH   SFRSYM    DATA     BYTE      CMP1MD
      000000D8H   SFRSYM    DATA     BIT       PCA0CN0_CCF0
      000000E0H.5 SFRSYM    DATA     BIT       ACC_ACC5
      000000B5H   SFRSYM    DATA     BYTE      USB0CF
      00000098H.2 SFRSYM    DATA     BIT       TMR4CN0_TR4
      000000D8H.1 SFRSYM    DATA     BIT       PCA0CN0_CCF1
      000000E0H.6 SFRSYM    DATA     BIT       ACC_ACC6
      000000CCH   SFRSYM    DATA     WORD      TMR2
      0000009AH   SFRSYM    DATA     BYTE      SPI0FCN0
      000000D8H.2 SFRSYM    DATA     BIT       PCA0CN0_CCF2
      000000E0H.7 SFRSYM    DATA     BIT       ACC_ACC7
      00000094H   SFRSYM    DATA     WORD      TMR3
LX51 LINKER/LOCATER V4.66.30.0                                                        03/28/2016  20:19:13  PAGE 40


      0000009BH   SFRSYM    DATA     BYTE      SPI0FCN1
      000000A4H   SFRSYM    DATA     WORD      TMR4
      00000094H   SFRSYM    DATA     BYTE      SBCON1
      000000C0H.3 SFRSYM    DATA     BIT       SMB0CN0_ACKRQ
      000000FFH   SFRSYM    DATA     BYTE      VDM0CN
      000000F1H   SFRSYM    DATA     BYTE      P0MDIN
      00000098H.4 SFRSYM    DATA     BIT       SCON0_REN
      000000ACH   SFRSYM    DATA     BYTE      SMB0TC
      000000F2H   SFRSYM    DATA     BYTE      P1MDIN
      000000C8H.4 SFRSYM    DATA     BIT       SCON1_REN
      000000F3H   SFRSYM    DATA     BYTE      P2MDIN
      000000C0H.4 SFRSYM    DATA     BIT       SMB0CN0_STO
      000000B6H   SFRSYM    DATA     BYTE      USB0CDCF
      000000F4H   SFRSYM    DATA     BYTE      P3MDIN
      000000B9H   SFRSYM    DATA     BYTE      I2C0STAT
      000000BBH   SFRSYM    DATA     BYTE      I2C0DOUT
      00000096H   SFRSYM    DATA     BYTE      SBRLH1
      000000FEH   SFRSYM    DATA     BYTE      P0MASK
      000000D8H.5 SFRSYM    DATA     BIT       UART1FCN1_TXHOLD
      000000EEH   SFRSYM    DATA     BYTE      P1MASK
      000000FCH   SFRSYM    DATA     BYTE      P2MASK
      000000D0H.3 SFRSYM    DATA     BIT       PSW_RS0
      000000D8H.7 SFRSYM    DATA     BIT       PCA0CN0_CF
      0000009EH   SFRSYM    DATA     BYTE      PCA0CENT
      000000BAH   SFRSYM    DATA     BYTE      I2C0CN0
      000000D2H   SFRSYM    DATA     BYTE      CRC0ST
      000000F8H.4 SFRSYM    DATA     BIT       SPI0CN0_RXOVRN
      000000D0H.4 SFRSYM    DATA     BIT       PSW_RS1
      00000095H   SFRSYM    DATA     BYTE      SBRLL1
      000000C8H.2 SFRSYM    DATA     BIT       SCON1_RBX
      000000C8H   SFRSYM    DATA     BIT       TMR2CN0_T2XCLK0
      000000C8H.1 SFRSYM    DATA     BIT       TMR2CN0_T2XCLK1
      000000C8H.3 SFRSYM    DATA     BIT       SCON1_TBX
      000000E8H.7 SFRSYM    DATA     BIT       ADC0CN0_ADEN
      000000BEH   SFRSYM    DATA     BYTE      USB0CDCN
      00000089H   SFRSYM    DATA     BYTE      TMOD
      00000088H   SFRSYM    DATA     BYTE      TCON
      000000CFH   SFRSYM    DATA     BYTE      CRC0FLIP
      000000D0H   SFRSYM    DATA     BIT       PSW_PARITY
      000000A8H.4 SFRSYM    DATA     BIT       IE_ES0
      0000009FH   SFRSYM    DATA     BYTE      CMP0MX
      00000098H   SFRSYM    DATA     BIT       TMR4CN0_T4XCLK0
      000000A8H.1 SFRSYM    DATA     BIT       IE_ET0
      000000AAH   SFRSYM    DATA     BYTE      CMP1MX
      00000098H.1 SFRSYM    DATA     BIT       TMR4CN0_T4XCLK1
      000000A8H.3 SFRSYM    DATA     BIT       IE_ET1
      000000D4H   SFRSYM    DATA     BYTE      P0SKIP
      000000D8H   SFRSYM    DATA     BIT       UART1FCN1_RIE
      000000A8H.5 SFRSYM    DATA     BIT       IE_ET2
      000000D5H   SFRSYM    DATA     BYTE      P1SKIP
      000000CCH   SFRSYM    DATA     BYTE      P2SKIP
      000000E8H   SFRSYM    DATA     BYTE      ADC0CN0
      000000D8H.4 SFRSYM    DATA     BIT       UART1FCN1_TIE
      000000A8H   SFRSYM    DATA     BIT       IE_EX0
      000000B2H   SFRSYM    DATA     BYTE      ADC0CN1
      000000D8H.6 SFRSYM    DATA     BIT       PCA0CN0_CR
      000000A8H.2 SFRSYM    DATA     BIT       IE_EX1
      000000C8H.7 SFRSYM    DATA     BIT       SCON1_OVR
      00000098H.7 SFRSYM    DATA     BIT       SCON0_SMODE
      000000B5H   SFRSYM    DATA     BYTE      DEVICEID
      000000A9H   SFRSYM    DATA     BYTE      CLKSEL
      000000F8H   SFRSYM    DATA     BIT       SPI0CN0_SPIEN
LX51 LINKER/LOCATER V4.66.30.0                                                        03/28/2016  20:19:13  PAGE 41


      000000F0H   SFRSYM    DATA     BYTE      B
      000000BEH   SFRSYM    DATA     BYTE      ADC0H
      000000E8H.6 SFRSYM    DATA     BIT       ADC0CN0_ADBMEN
      000000CAH   SFRSYM    DATA     WORD      TMR2RL
      000000BDH   SFRSYM    DATA     BYTE      ADC0L
      00000092H   SFRSYM    DATA     WORD      TMR3RL
      000000A2H   SFRSYM    DATA     WORD      TMR4RL
      000000D8H   SFRSYM    DATA     BYTE      PCA0CN0
      000000E0H   SFRSYM    DATA     BYTE      ACC
      000000FBH   SFRSYM    DATA     WORD      PCA0CP0
      000000E9H   SFRSYM    DATA     WORD      PCA0CP1
      000000EBH   SFRSYM    DATA     WORD      PCA0CP2
      000000BCH   SFRSYM    DATA     BYTE      I2C0DIN
      000000CEH   SFRSYM    DATA     BYTE      CRC0CN0
      0000008CH   SFRSYM    DATA     BYTE      TH0
      00000086H   SFRSYM    DATA     BYTE      CRC0CN1
      000000B8H.4 SFRSYM    DATA     BIT       IP_PS0
      000000FAH   SFRSYM    DATA     BYTE      UART1FCT
      0000008DH   SFRSYM    DATA     BYTE      TH1
      000000FAH   SFRSYM    DATA     BYTE      PCA0H
      000000F5H   SFRSYM    DATA     BYTE      I2C0FCT
      000000B8H.1 SFRSYM    DATA     BIT       IP_PT0
      000000B8H.3 SFRSYM    DATA     BIT       IP_PT1
      000000C0H.2 SFRSYM    DATA     BIT       SMB0CN0_ARBLOST
      000000B8H.5 SFRSYM    DATA     BIT       IP_PT2
      0000008AH   SFRSYM    DATA     BYTE      TL0
      00000080H.3 SFRSYM    DATA     BIT       U2F_BUTTON_VAL
      000000D0H.5 SFRSYM    DATA     BIT       PSW_F0
      000000A8H.6 SFRSYM    DATA     BIT       IE_ESPI0
      0000008BH   SFRSYM    DATA     BYTE      TL1
      000000F9H   SFRSYM    DATA     BYTE      PCA0L
      000000C0H   SFRSYM    DATA     BIT       SMB0CN0_SI
      000000D0H.1 SFRSYM    DATA     BIT       PSW_F1
      00000080H   SFRSYM    DATA     BIT       P0_B0
      000000B8H   SFRSYM    DATA     BIT       IP_PX0
      00000090H   SFRSYM    DATA     BIT       P1_B0
      00000080H.1 SFRSYM    DATA     BIT       P0_B1
      000000B8H.2 SFRSYM    DATA     BIT       IP_PX1
      0000009EH   SFRSYM    DATA     BYTE      UART1LIN
      0000009BH   SFRSYM    DATA     BYTE      CMP0CN0
      00000088H.1 SFRSYM    DATA     BIT       TCON_IE0
      000000A0H   SFRSYM    DATA     BIT       P2_B0
      00000090H.1 SFRSYM    DATA     BIT       P1_B1
      00000080H.2 SFRSYM    DATA     BIT       P0_B2
      000000BFH   SFRSYM    DATA     BYTE      CMP1CN0
      00000099H   SFRSYM    DATA     BYTE      CMP0CN1
      00000088H.3 SFRSYM    DATA     BIT       TCON_IE1
      000000B0H   SFRSYM    DATA     BIT       P3_B0
      000000A0H.1 SFRSYM    DATA     BIT       P2_B1
      00000090H.2 SFRSYM    DATA     BIT       P1_B2
      00000080H.3 SFRSYM    DATA     BIT       P0_B3
      000000C0H   SFRSYM    DATA     BYTE      SMB0CN0
      000000ACH   SFRSYM    DATA     BYTE      CMP1CN1
      000000B0H.1 SFRSYM    DATA     BIT       P3_B1
      000000A0H.2 SFRSYM    DATA     BIT       P2_B2
      00000090H.3 SFRSYM    DATA     BIT       P1_B3
      00000080H.4 SFRSYM    DATA     BIT       P0_B4
      000000A0H.3 SFRSYM    DATA     BIT       P2_B3
      00000090H.4 SFRSYM    DATA     BIT       P1_B4
      00000080H.5 SFRSYM    DATA     BIT       P0_B5
      000000D8H.1 SFRSYM    DATA     BIT       UART1FCN1_RXTO0
      00000090H.5 SFRSYM    DATA     BIT       P1_B5
LX51 LINKER/LOCATER V4.66.30.0                                                        03/28/2016  20:19:13  PAGE 42


      00000080H.6 SFRSYM    DATA     BIT       P0_B6
      000000F5H   SFRSYM    DATA     BYTE      EIP1H
      000000D8H.2 SFRSYM    DATA     BIT       UART1FCN1_RXTO1
      00000090H.6 SFRSYM    DATA     BIT       P1_B6
      00000080H.7 SFRSYM    DATA     BIT       P0_B7
      000000C5H   SFRSYM    DATA     BYTE      SMB0RXLN
      000000F6H   SFRSYM    DATA     BYTE      EIP2H
      00000090H.7 SFRSYM    DATA     BIT       P1_B7
      00000083H   SFRSYM    DATA     BYTE      DPH
      000000C4H   SFRSYM    DATA     BYTE      ADC0GTH
      000000C8H.7 SFRSYM    DATA     BIT       TMR2CN0_TF2H
      000000C8H.3 SFRSYM    DATA     BIT       TMR2CN0_T2SPLIT
      000000D0H.6 SFRSYM    DATA     BIT       PSW_AC
      000000F8H   SFRSYM    DATA     BYTE      SPI0CN0
      000000C7H   SFRSYM    DATA     BYTE      HFO0CAL
      00000088H.5 SFRSYM    DATA     BIT       TCON_TF0
      00000098H   SFRSYM    DATA     BIT       SCON0_RI
      000000D6H   SFRSYM    DATA     BYTE      HFO1CAL
      00000082H   SFRSYM    DATA     BYTE      DPL
      00000088H.7 SFRSYM    DATA     BIT       TCON_TF1
      000000C8H   SFRSYM    DATA     BIT       SCON1_RI
      00000099H   SFRSYM    DATA     BYTE      SBUF0
      00000087H   SFRSYM    DATA     BYTE      PCON0
      000000F2H   SFRSYM    DATA     BYTE      IPH
      000000C3H   SFRSYM    DATA     BYTE      ADC0GTL
      00000098H.7 SFRSYM    DATA     BIT       TMR4CN0_TF4H
      00000098H.3 SFRSYM    DATA     BIT       TMR4CN0_T4SPLIT
      000000C8H.6 SFRSYM    DATA     BIT       TMR2CN0_TF2L
      00000098H.1 SFRSYM    DATA     BIT       SCON0_TI
      000000E8H   SFRSYM    DATA     BIT       ADC0CN0_ADCM0
      00000092H   SFRSYM    DATA     BYTE      SBUF1
      0000009AH   SFRSYM    DATA     BYTE      PCON1
      000000C6H   SFRSYM    DATA     BYTE      ADC0LTH
      00000088H   SFRSYM    DATA     BIT       TCON_IT0
      000000C8H.1 SFRSYM    DATA     BIT       SCON1_TI
      000000E8H.1 SFRSYM    DATA     BIT       ADC0CN0_ADCM1
      000000EFH   SFRSYM    DATA     BYTE      RSTSRC
      000000FDH   SFRSYM    DATA     BYTE      P0MAT
      000000DEH   SFRSYM    DATA     BYTE      CRC0DAT
      00000088H.2 SFRSYM    DATA     BIT       TCON_IT1
      000000E8H.2 SFRSYM    DATA     BIT       ADC0CN0_ADCM2
      000000D7H   SFRSYM    DATA     BYTE      SFRSTACK
      00000098H   SFRSYM    DATA     BYTE      SCON0
      000000F6H   SFRSYM    DATA     BYTE      PRTDRV
      000000EDH   SFRSYM    DATA     BYTE      P1MAT
      000000E8H.3 SFRSYM    DATA     BIT       ADC0CN0_ADWINT
      00000095H   SFRSYM    DATA     WORD      SBRL1
      000000B2H   SFRSYM    DATA     BYTE      USB0AEC
      00000093H   SFRSYM    DATA     BYTE      SMOD1
      000000C8H   SFRSYM    DATA     BYTE      SCON1
      000000FBH   SFRSYM    DATA     BYTE      P2MAT
      00000098H.6 SFRSYM    DATA     BIT       TMR4CN0_TF4L
      000000E8H.4 SFRSYM    DATA     BIT       ADC0CN0_ADBUSY
      000000D6H   SFRSYM    DATA     BYTE      SMB0ADM
      000000C5H   SFRSYM    DATA     BYTE      ADC0LTL
      000000F8H.5 SFRSYM    DATA     BIT       SPI0CN0_MODF
      000000B8H.6 SFRSYM    DATA     BIT       IP_PSPI0
      0000009CH   SFRSYM    DATA     BYTE      PCA0CLR
      000000C8H   SFRSYM    DATA     BYTE      TMR2CN0
      00000091H   SFRSYM    DATA     BYTE      TMR3CN0
      000000FDH   SFRSYM    DATA     BYTE      TMR2CN1
      00000098H   SFRSYM    DATA     BYTE      TMR4CN0
LX51 LINKER/LOCATER V4.66.30.0                                                        03/28/2016  20:19:13  PAGE 43


      000000FEH   SFRSYM    DATA     BYTE      TMR3CN1
      000000FFH   SFRSYM    DATA     BYTE      TMR4CN1
      000000D7H   SFRSYM    DATA     BYTE      SMB0ADR
      00000088H.4 SFRSYM    DATA     BIT       TCON_TR0
      000000C8H.4 SFRSYM    DATA     BIT       TMR2CN0_TF2CEN
      00000088H.6 SFRSYM    DATA     BIT       TCON_TR1
      000000C2H   SFRSYM    DATA     BYTE      SMB0DAT
      000000CDH   SFRSYM    DATA     BYTE      TMR2H
      000000A1H   SFRSYM    DATA     BYTE      SPI0CFG
      00000095H   SFRSYM    DATA     BYTE      TMR3H
      000000EFH   SFRSYM    DATA     BYTE      HFOCN
      000000D3H   SFRSYM    DATA     BYTE      CRC0CNT
      000000A5H   SFRSYM    DATA     BYTE      TMR4H
      00000098H.4 SFRSYM    DATA     BIT       TMR4CN0_TF4CEN
      000000EFH   SFRSYM    DATA     BYTE      SMB0FCT
      00000096H   SFRSYM    DATA     BYTE      PCA0POL
      000000CCH   SFRSYM    DATA     BYTE      TMR2L
      000000F8H.7 SFRSYM    DATA     BIT       SPI0CN0_SPIF
      000000AEH   SFRSYM    DATA     BYTE      USB0ADR
      00000094H   SFRSYM    DATA     BYTE      TMR3L
      000000DFH   SFRSYM    DATA     BYTE      ADC0PWR
      000000A8H.7 SFRSYM    DATA     BIT       IE_EA
      000000A4H   SFRSYM    DATA     BYTE      TMR4L
      000000AFH   SFRSYM    DATA     BYTE      USB0DAT
      000000C8H.5 SFRSYM    DATA     BIT       TMR2CN0_TF2LEN
      000000F8H.6 SFRSYM    DATA     BIT       SPI0CN0_WCOL
      00000090H   SFRSYM    DATA     BIT       LED_B
      000000F8H.2 SFRSYM    DATA     BIT       SPI0CN0_NSSMD0
      000000D0H.7 SFRSYM    DATA     BIT       PSW_CY
      0000009DH   SFRSYM    DATA     BYTE      UART1FCN0
      000000A3H   SFRSYM    DATA     BYTE      SPI0DAT
      000000ADH   SFRSYM    DATA     BYTE      I2C0FCN0
      000000F8H.3 SFRSYM    DATA     BIT       SPI0CN0_NSSMD1
      000000BDH   SFRSYM    DATA     WORD      ADC0
      000000D8H   SFRSYM    DATA     BYTE      UART1FCN1
      000000ABH   SFRSYM    DATA     BYTE      I2C0FCN1
      00000098H.5 SFRSYM    DATA     BIT       TMR4CN0_TF4LEN
      000000D0H   SFRSYM    DATA     BYTE      PSW
      000000F7H   SFRSYM    DATA     BYTE      PCA0PWM
      000000F7H   SFRSYM    DATA     BYTE      SPI0FCT
      000000B6H   SFRSYM    DATA     BYTE      REVID
      00000080H.6 SFRSYM    DATA     BIT       LED_G
      000000B7H   SFRSYM    DATA     BYTE      FLKEY
      000000B3H   SFRSYM    DATA     BYTE      ADC0AC
      010039CAH   SYMBOL    CODE     ---       __feed_crc
      01003B2DH   SYMBOL    CODE     ---       restart_bus
      0100392FH   SYMBOL    CODE     ---       update_from_packet_length

      01003BCDH   BLOCK     CODE     ---       LVL=0
      ---         BLOCKEND  ---      ---       LVL=0

      010036A1H   BLOCK     CODE     ---       LVL=0
      010036A1H   LINE      CODE     ---       #15
      010036AEH   LINE      CODE     ---       #17
      010036B0H   LINE      CODE     ---       #18
      010036C8H   LINE      CODE     ---       #19
      ---         BLOCKEND  ---      ---       LVL=0

      0100392FH   BLOCK     CODE     ---       LVL=0
      0100392FH   LINE      CODE     ---       #34
      0100392FH   LINE      CODE     ---       #35
      0100392FH   LINE      CODE     ---       #36
LX51 LINKER/LOCATER V4.66.30.0                                                        03/28/2016  20:19:13  PAGE 44


      01003943H   LINE      CODE     ---       #37
      01003943H   LINE      CODE     ---       #38
      01003945H   LINE      CODE     ---       #39
      01003946H   LINE      CODE     ---       #41
      01003946H   LINE      CODE     ---       #43
      0100394DH   LINE      CODE     ---       #44
      0100394DH   LINE      CODE     ---       #45
      ---         BLOCKEND  ---      ---       LVL=0

      010039CAH   BLOCK     CODE     ---       LVL=0
      00000005H   SYMBOL    DATA     BYTE      b
      010039CAH   LINE      CODE     ---       #47
      010039CCH   LINE      CODE     ---       #48
      010039CCH   LINE      CODE     ---       #49
      010039D3H   LINE      CODE     ---       #50
      010039D3H   LINE      CODE     ---       #51
      010039E6H   LINE      CODE     ---       #52
      010039E6H   LINE      CODE     ---       #53
      ---         BLOCKEND  ---      ---       LVL=0

      01003B2DH   BLOCK     CODE     ---       LVL=0
      01003B2DH   LINE      CODE     ---       #55
      01003B2DH   LINE      CODE     ---       #56
      01003B2DH   LINE      CODE     ---       #57
      01003B30H   LINE      CODE     ---       #58
      01003B33H   LINE      CODE     ---       #59
      01003B35H   LINE      CODE     ---       #60
      01003B37H   LINE      CODE     ---       #61
      01003B39H   LINE      CODE     ---       #62
      01003B3CH   LINE      CODE     ---       #63
      01003B41H   LINE      CODE     ---       #64
      ---         BLOCKEND  ---      ---       LVL=0

      01000A69H   BLOCK     CODE     ---       LVL=0
      01000A86H   BLOCK     CODE     NEAR LAB  LVL=1
      02000000H   SYMBOL    XDATA    BYTE      bus
      01000BECH   SYMBOL    CODE     ---       fail
      ---         BLOCKEND  ---      ---       LVL=1
      01000A69H   LINE      CODE     ---       #67
      01000A86H   LINE      CODE     ---       #69
      01000A8EH   LINE      CODE     ---       #70
      01000A94H   LINE      CODE     ---       #71
      01000A94H   LINE      CODE     ---       #72
      01000A94H   LINE      CODE     ---       #73
      01000A94H   LINE      CODE     ---       #75
      01000AAAH   LINE      CODE     ---       #76
      01000AAAH   LINE      CODE     ---       #77
      01000AAAH   LINE      CODE     ---       #78
      01000AB6H   LINE      CODE     ---       #79
      01000ABBH   LINE      CODE     ---       #80
      01000ABDH   LINE      CODE     ---       #81
      01000AC0H   LINE      CODE     ---       #83
      01000AC0H   LINE      CODE     ---       #84
      01000AC6H   LINE      CODE     ---       #85
      01000AC9H   LINE      CODE     ---       #86
      01000AC9H   LINE      CODE     ---       #89
      01000ACBH   LINE      CODE     ---       #90
      01000AD0H   LINE      CODE     ---       #91
      01000AD4H   LINE      CODE     ---       #92
      01000AD7H   LINE      CODE     ---       #93
      01000AE1H   LINE      CODE     ---       #94
      01000AE1H   LINE      CODE     ---       #96
LX51 LINKER/LOCATER V4.66.30.0                                                        03/28/2016  20:19:13  PAGE 45


      01000AE1H   LINE      CODE     ---       #97
      01000AEDH   LINE      CODE     ---       #98
      01000AEDH   LINE      CODE     ---       #101
      01000AFAH   LINE      CODE     ---       #102
      01000B03H   LINE      CODE     ---       #104
      01000B05H   LINE      CODE     ---       #105
      01000B18H   LINE      CODE     ---       #106
      01000B18H   LINE      CODE     ---       #108
      01000B22H   LINE      CODE     ---       #109
      01000B36H   LINE      CODE     ---       #110
      01000B39H   LINE      CODE     ---       #111
      01000B40H   LINE      CODE     ---       #112
      01000B40H   LINE      CODE     ---       #114
      01000B51H   LINE      CODE     ---       #115
      01000B51H   LINE      CODE     ---       #116
      01000B51H   LINE      CODE     ---       #117
      01000B54H   LINE      CODE     ---       #118
      01000B56H   LINE      CODE     ---       #119
      01000B59H   LINE      CODE     ---       #120
      01000B59H   LINE      CODE     ---       #121
      01000B5FH   LINE      CODE     ---       #122
      01000B66H   LINE      CODE     ---       #123
      01000B69H   LINE      CODE     ---       #124
      01000B69H   LINE      CODE     ---       #125
      01000B69H   LINE      CODE     ---       #127
      01000B69H   LINE      CODE     ---       #129
      01000B6BH   LINE      CODE     ---       #130
      01000B6EH   LINE      CODE     ---       #131
      01000B6EH   LINE      CODE     ---       #132
      01000B6EH   LINE      CODE     ---       #135
      01000B70H   LINE      CODE     ---       #137
      01000B70H   LINE      CODE     ---       #140
      01000B7BH   LINE      CODE     ---       #141
      01000B7BH   LINE      CODE     ---       #142
      01000B8EH   LINE      CODE     ---       #146
      01000B91H   LINE      CODE     ---       #147
      01000B91H   LINE      CODE     ---       #148
      01000B94H   LINE      CODE     ---       #149
      01000B94H   LINE      CODE     ---       #151
      01000BA9H   LINE      CODE     ---       #152
      01000BA9H   LINE      CODE     ---       #153
      01000BC8H   LINE      CODE     ---       #154
      01000BC8H   LINE      CODE     ---       #156
      01000BCEH   LINE      CODE     ---       #157
      01000BD0H   LINE      CODE     ---       #158
      01000BD2H   LINE      CODE     ---       #160
      01000BD2H   LINE      CODE     ---       #162
      01000BD9H   LINE      CODE     ---       #163
      01000BD9H   LINE      CODE     ---       #164
      01000BDCH   LINE      CODE     ---       #165
      01000BDCH   LINE      CODE     ---       #166
      01000BDFH   LINE      CODE     ---       #167
      01000BE1H   LINE      CODE     ---       #168
      01000BE3H   LINE      CODE     ---       #169
      01000BE8H   LINE      CODE     ---       #170
      01000BE8H   LINE      CODE     ---       #172
      01000BE8H   LINE      CODE     ---       #174
      01000BE8H   LINE      CODE     ---       #175
      01000BE8H   LINE      CODE     ---       #176
      01000BE8H   LINE      CODE     ---       #178
      01000BE8H   LINE      CODE     ---       #182
      01000BECH   LINE      CODE     ---       #185
LX51 LINKER/LOCATER V4.66.30.0                                                        03/28/2016  20:19:13  PAGE 46


      01000BECH   LINE      CODE     ---       #186
      01000BFFH   LINE      CODE     ---       #187
      01000C02H   LINE      CODE     ---       #188
      01000C04H   LINE      CODE     ---       #189
      ---         BLOCKEND  ---      ---       LVL=0

      01003C27H   BLOCK     CODE     ---       LVL=0
      01003C27H   LINE      CODE     ---       #204
      01003C2DH   LINE      CODE     ---       #206
      01003C30H   LINE      CODE     ---       #207
      ---         BLOCKEND  ---      ---       LVL=0

      ---         MODULE    ---      ---       ?C_STARTUP
      01000000H   PUBLIC    CODE     ---       ?C_STARTUP
      000000E0H   SYMBOL    DATA     ---       ACC
      000000F0H   SYMBOL    DATA     ---       B
      00000083H   SYMBOL    DATA     ---       DPH
      00000082H   SYMBOL    DATA     ---       DPL
      00000000H   SYMBOL    NUMBER   ---       IBPSTACK
      00000100H   SYMBOL    NUMBER   ---       IBPSTACKTOP
      00000080H   SYMBOL    NUMBER   ---       IDATALEN
      0100259CH   SYMBOL    CODE     ---       IDATALOOP
      00000000H   SYMBOL    NUMBER   ---       PBPSTACK
      00000100H   SYMBOL    NUMBER   ---       PBPSTACKTOP
      00000000H   SYMBOL    NUMBER   ---       PDATALEN
      00000000H   SYMBOL    NUMBER   ---       PDATASTART
      00000000H   SYMBOL    NUMBER   ---       PPAGE
      00000000H   SYMBOL    NUMBER   ---       PPAGEENABLE
      000000A0H   SYMBOL    DATA     ---       PPAGE_SFR
      00000081H   SYMBOL    DATA     ---       SP
      01002599H   SYMBOL    CODE     ---       STARTUP1
      00000000H   SYMBOL    NUMBER   ---       XBPSTACK
      00000000H   SYMBOL    NUMBER   ---       XBPSTACKTOP
      00000000H   SYMBOL    NUMBER   ---       XDATALEN
      00000000H   SYMBOL    NUMBER   ---       XDATASTART
      01000000H   LINE      CODE     ---       #126
      01002599H   LINE      CODE     ---       #138
      0100259BH   LINE      CODE     ---       #139
      0100259CH   LINE      CODE     ---       #140
      0100259DH   LINE      CODE     ---       #141
      0100259FH   LINE      CODE     ---       #190
      010025A2H   LINE      CODE     ---       #201

      ---         MODULE    ---      ---       BSP
      020000C3H   PUBLIC    XDATA    BYTE      ?_u2f_printb?BYTE
      010034BCH   PUBLIC    CODE     ---       _u2f_printb
      02000041H   PUBLIC    XDATA    BYTE      ?_u2f_printx?BYTE
      010035CFH   PUBLIC    CODE     ---       _u2f_printx
      02000041H   PUBLIC    XDATA    BYTE      ?_u2f_printl?BYTE
      0100359AH   PUBLIC    CODE     ---       _u2f_printl
      020000B6H   PUBLIC    XDATA    BYTE      ?_u2f_printd?BYTE
      0100003EH   PUBLIC    CODE     ---       _u2f_printd
      01003DADH   PUBLIC    CODE     ---       _u2f_putl
      01003D57H   PUBLIC    CODE     ---       _u2f_putx
      01003CA1H   PUBLIC    CODE     ---       _u2f_putd
      01003D26H   PUBLIC    CODE     ---       _u2f_putb
      01003398H   PUBLIC    CODE     ---       ___int2str16
      0100335DH   PUBLIC    CODE     ---       ___int2str10
      0100388CH   PUBLIC    CODE     ---       _u2f_prints
      01002F14H   PUBLIC    CODE     ---       _dump_hex
      01003A8AH   PUBLIC    CODE     ---       _putf
      01002A84H   PUBLIC    CODE     ---       _usb_write
LX51 LINKER/LOCATER V4.66.30.0                                                        03/28/2016  20:19:13  PAGE 47


      010032A6H   PUBLIC    CODE     ---       _u2f_delay
      000000A2H   SFRSYM    DATA     BYTE      SPI0CKR
      00000080H   SFRSYM    DATA     BYTE      P0
      000000C8H.6 SFRSYM    DATA     BIT       SCON1_PERR
      000000D0H.2 SFRSYM    DATA     BIT       PSW_OV
      00000090H   SFRSYM    DATA     BYTE      P1
      000000F8H.1 SFRSYM    DATA     BIT       SPI0CN0_TXNF
      00000097H   SFRSYM    DATA     BYTE      WDTCN
      000000A0H   SFRSYM    DATA     BYTE      P2
      000000B0H   SFRSYM    DATA     BYTE      P3
      000000BCH   SFRSYM    DATA     BYTE      ADC0CF
      000000C0H.7 SFRSYM    DATA     BIT       SMB0CN0_MASTER
      000000F9H   SFRSYM    DATA     WORD      PCA0
      000000E6H   SFRSYM    DATA     BYTE      EIE1
      000000C0H.1 SFRSYM    DATA     BIT       SMB0CN0_ACK
      000000B3H   SFRSYM    DATA     BYTE      USB0XCN
      000000CEH   SFRSYM    DATA     BYTE      EIE2
      00000080H.7 SFRSYM    DATA     BIT       LED_R
      0000008FH   SFRSYM    DATA     BYTE      PSCTL
      000000E4H   SFRSYM    DATA     BYTE      IT01CF
      000000C0H.6 SFRSYM    DATA     BIT       SMB0CN0_TXMODE
      000000ADH   SFRSYM    DATA     BYTE      DERIVID
      000000A7H   SFRSYM    DATA     BYTE      SFRPAGE
      000000A4H   SFRSYM    DATA     BYTE      P0MDOUT
      00000080H.2 SFRSYM    DATA     BIT       U2F_BUTTON
      000000BFH   SFRSYM    DATA     BYTE      USB0CDSTA
      000000A5H   SFRSYM    DATA     BYTE      P1MDOUT
      000000E8H.5 SFRSYM    DATA     BIT       ADC0CN0_ADINT
      000000CBH   SFRSYM    DATA     BYTE      TMR2RLH
      000000A6H   SFRSYM    DATA     BYTE      P2MDOUT
      000000A8H   SFRSYM    DATA     BYTE      IE
      00000093H   SFRSYM    DATA     BYTE      TMR3RLH
      0000009CH   SFRSYM    DATA     BYTE      P3MDOUT
      000000A3H   SFRSYM    DATA     BYTE      TMR4RLH
      000000F3H   SFRSYM    DATA     BYTE      EIP1
      000000F4H   SFRSYM    DATA     BYTE      EIP2
      00000098H.2 SFRSYM    DATA     BIT       SCON0_RB8
      000000CAH   SFRSYM    DATA     BYTE      TMR2RLL
      000000FCH   SFRSYM    DATA     BYTE      PCA0CPH0
      00000092H   SFRSYM    DATA     BYTE      TMR3RLL
      000000EAH   SFRSYM    DATA     BYTE      PCA0CPH1
      00000098H.3 SFRSYM    DATA     BIT       SCON0_TB8
      000000F0H   SFRSYM    DATA     BIT       B_B0
      00000082H   SFRSYM    DATA     WORD      DP
      000000A2H   SFRSYM    DATA     BYTE      TMR4RLL
      000000ECH   SFRSYM    DATA     BYTE      PCA0CPH2
      000000F0H.1 SFRSYM    DATA     BIT       B_B1
      000000C3H   SFRSYM    DATA     WORD      ADC0GT
      000000BDH   SFRSYM    DATA     BYTE      I2C0SLAD
      000000D8H.3 SFRSYM    DATA     BIT       UART1FCN1_RFRQ
      000000F0H.2 SFRSYM    DATA     BIT       B_B2
      000000CFH   SFRSYM    DATA     BYTE      SFRPGCN
      000000FBH   SFRSYM    DATA     BYTE      PCA0CPL0
      000000F0H.3 SFRSYM    DATA     BIT       B_B3
      000000D9H   SFRSYM    DATA     BYTE      PCA0MD
      000000DAH   SFRSYM    DATA     BYTE      PCA0CPM0
      000000E9H   SFRSYM    DATA     BYTE      PCA0CPL1
      000000D8H.7 SFRSYM    DATA     BIT       UART1FCN1_TFRQ
      000000F0H.4 SFRSYM    DATA     BIT       B_B4
      000000DBH   SFRSYM    DATA     BYTE      PCA0CPM1
      000000EBH   SFRSYM    DATA     BYTE      PCA0CPL2
      000000F0H.5 SFRSYM    DATA     BIT       B_B5
LX51 LINKER/LOCATER V4.66.30.0                                                        03/28/2016  20:19:13  PAGE 48


      000000DCH   SFRSYM    DATA     BYTE      PCA0CPM2
      000000B8H   SFRSYM    DATA     BYTE      IP
      000000B9H   SFRSYM    DATA     BYTE      ADC0TK
      000000F0H.6 SFRSYM    DATA     BIT       B_B6
      000000C5H   SFRSYM    DATA     WORD      ADC0LT
      000000D8H.6 SFRSYM    DATA     BIT       UART1FCN1_TXNF
      00000098H.5 SFRSYM    DATA     BIT       SCON0_MCE
      000000F0H.7 SFRSYM    DATA     BIT       B_B7
      000000C3H   SFRSYM    DATA     BYTE      SMB0FCN0
      000000E1H   SFRSYM    DATA     BYTE      XBR0
      000000C4H   SFRSYM    DATA     BYTE      SMB0FCN1
      000000C1H   SFRSYM    DATA     BYTE      SMB0CF
      000000E2H   SFRSYM    DATA     BYTE      XBR1
      000000C1H   SFRSYM    DATA     BYTE      PFE0CN
      000000E7H   SFRSYM    DATA     BYTE      EMI0CN
      000000C0H.5 SFRSYM    DATA     BIT       SMB0CN0_STA
      000000E3H   SFRSYM    DATA     BYTE      XBR2
      000000BBH   SFRSYM    DATA     BYTE      ADC0MX
      000000E0H   SFRSYM    DATA     BIT       ACC_ACC0
      000000D1H   SFRSYM    DATA     BYTE      REF0CN
      0000008EH   SFRSYM    DATA     BYTE      CKCON0
      000000E0H.1 SFRSYM    DATA     BIT       ACC_ACC1
      000000C9H   SFRSYM    DATA     BYTE      REG0CN
      000000DDH   SFRSYM    DATA     BYTE      CRC0IN
      000000A6H   SFRSYM    DATA     BYTE      CKCON1
      000000C8H.2 SFRSYM    DATA     BIT       TMR2CN0_TR2
      000000E0H.2 SFRSYM    DATA     BIT       ACC_ACC2
      000000C6H   SFRSYM    DATA     BYTE      REG1CN
      000000E0H.3 SFRSYM    DATA     BIT       ACC_ACC3
      00000081H   SFRSYM    DATA     BYTE      SP
      0000009DH   SFRSYM    DATA     BYTE      CMP0MD
      000000E0H.4 SFRSYM    DATA     BIT       ACC_ACC4
      000000B1H   SFRSYM    DATA     BYTE      LFO0CN
      000000ABH   SFRSYM    DATA     BYTE      CMP1MD
      000000D8H   SFRSYM    DATA     BIT       PCA0CN0_CCF0
      000000E0H.5 SFRSYM    DATA     BIT       ACC_ACC5
      000000B5H   SFRSYM    DATA     BYTE      USB0CF
      00000098H.2 SFRSYM    DATA     BIT       TMR4CN0_TR4
      000000D8H.1 SFRSYM    DATA     BIT       PCA0CN0_CCF1
      000000E0H.6 SFRSYM    DATA     BIT       ACC_ACC6
      000000CCH   SFRSYM    DATA     WORD      TMR2
      0000009AH   SFRSYM    DATA     BYTE      SPI0FCN0
      000000D8H.2 SFRSYM    DATA     BIT       PCA0CN0_CCF2
      000000E0H.7 SFRSYM    DATA     BIT       ACC_ACC7
      00000094H   SFRSYM    DATA     WORD      TMR3
      0000009BH   SFRSYM    DATA     BYTE      SPI0FCN1
      000000A4H   SFRSYM    DATA     WORD      TMR4
      00000094H   SFRSYM    DATA     BYTE      SBCON1
      000000C0H.3 SFRSYM    DATA     BIT       SMB0CN0_ACKRQ
      000000FFH   SFRSYM    DATA     BYTE      VDM0CN
      000000F1H   SFRSYM    DATA     BYTE      P0MDIN
      00000098H.4 SFRSYM    DATA     BIT       SCON0_REN
      000000ACH   SFRSYM    DATA     BYTE      SMB0TC
      000000F2H   SFRSYM    DATA     BYTE      P1MDIN
      000000C8H.4 SFRSYM    DATA     BIT       SCON1_REN
      000000F3H   SFRSYM    DATA     BYTE      P2MDIN
      000000C0H.4 SFRSYM    DATA     BIT       SMB0CN0_STO
      000000B6H   SFRSYM    DATA     BYTE      USB0CDCF
      000000F4H   SFRSYM    DATA     BYTE      P3MDIN
      000000B9H   SFRSYM    DATA     BYTE      I2C0STAT
      000000BBH   SFRSYM    DATA     BYTE      I2C0DOUT
      00000096H   SFRSYM    DATA     BYTE      SBRLH1
LX51 LINKER/LOCATER V4.66.30.0                                                        03/28/2016  20:19:13  PAGE 49


      000000FEH   SFRSYM    DATA     BYTE      P0MASK
      000000D8H.5 SFRSYM    DATA     BIT       UART1FCN1_TXHOLD
      000000EEH   SFRSYM    DATA     BYTE      P1MASK
      000000FCH   SFRSYM    DATA     BYTE      P2MASK
      000000D0H.3 SFRSYM    DATA     BIT       PSW_RS0
      000000D8H.7 SFRSYM    DATA     BIT       PCA0CN0_CF
      0000009EH   SFRSYM    DATA     BYTE      PCA0CENT
      000000BAH   SFRSYM    DATA     BYTE      I2C0CN0
      000000D2H   SFRSYM    DATA     BYTE      CRC0ST
      000000F8H.4 SFRSYM    DATA     BIT       SPI0CN0_RXOVRN
      000000D0H.4 SFRSYM    DATA     BIT       PSW_RS1
      00000095H   SFRSYM    DATA     BYTE      SBRLL1
      000000C8H.2 SFRSYM    DATA     BIT       SCON1_RBX
      000000C8H   SFRSYM    DATA     BIT       TMR2CN0_T2XCLK0
      000000C8H.1 SFRSYM    DATA     BIT       TMR2CN0_T2XCLK1
      000000C8H.3 SFRSYM    DATA     BIT       SCON1_TBX
      000000E8H.7 SFRSYM    DATA     BIT       ADC0CN0_ADEN
      000000BEH   SFRSYM    DATA     BYTE      USB0CDCN
      00000089H   SFRSYM    DATA     BYTE      TMOD
      00000088H   SFRSYM    DATA     BYTE      TCON
      000000CFH   SFRSYM    DATA     BYTE      CRC0FLIP
      000000D0H   SFRSYM    DATA     BIT       PSW_PARITY
      000000A8H.4 SFRSYM    DATA     BIT       IE_ES0
      0000009FH   SFRSYM    DATA     BYTE      CMP0MX
      00000098H   SFRSYM    DATA     BIT       TMR4CN0_T4XCLK0
      000000A8H.1 SFRSYM    DATA     BIT       IE_ET0
      000000AAH   SFRSYM    DATA     BYTE      CMP1MX
      00000098H.1 SFRSYM    DATA     BIT       TMR4CN0_T4XCLK1
      000000A8H.3 SFRSYM    DATA     BIT       IE_ET1
      000000D4H   SFRSYM    DATA     BYTE      P0SKIP
      000000D8H   SFRSYM    DATA     BIT       UART1FCN1_RIE
      000000A8H.5 SFRSYM    DATA     BIT       IE_ET2
      000000D5H   SFRSYM    DATA     BYTE      P1SKIP
      000000CCH   SFRSYM    DATA     BYTE      P2SKIP
      000000E8H   SFRSYM    DATA     BYTE      ADC0CN0
      000000D8H.4 SFRSYM    DATA     BIT       UART1FCN1_TIE
      000000A8H   SFRSYM    DATA     BIT       IE_EX0
      000000B2H   SFRSYM    DATA     BYTE      ADC0CN1
      000000D8H.6 SFRSYM    DATA     BIT       PCA0CN0_CR
      000000A8H.2 SFRSYM    DATA     BIT       IE_EX1
      000000C8H.7 SFRSYM    DATA     BIT       SCON1_OVR
      00000098H.7 SFRSYM    DATA     BIT       SCON0_SMODE
      000000B5H   SFRSYM    DATA     BYTE      DEVICEID
      000000A9H   SFRSYM    DATA     BYTE      CLKSEL
      000000F8H   SFRSYM    DATA     BIT       SPI0CN0_SPIEN
      000000F0H   SFRSYM    DATA     BYTE      B
      000000BEH   SFRSYM    DATA     BYTE      ADC0H
      000000E8H.6 SFRSYM    DATA     BIT       ADC0CN0_ADBMEN
      000000CAH   SFRSYM    DATA     WORD      TMR2RL
      000000BDH   SFRSYM    DATA     BYTE      ADC0L
      00000092H   SFRSYM    DATA     WORD      TMR3RL
      000000A2H   SFRSYM    DATA     WORD      TMR4RL
      000000D8H   SFRSYM    DATA     BYTE      PCA0CN0
      000000E0H   SFRSYM    DATA     BYTE      ACC
      000000FBH   SFRSYM    DATA     WORD      PCA0CP0
      000000E9H   SFRSYM    DATA     WORD      PCA0CP1
      000000EBH   SFRSYM    DATA     WORD      PCA0CP2
      000000BCH   SFRSYM    DATA     BYTE      I2C0DIN
      000000CEH   SFRSYM    DATA     BYTE      CRC0CN0
      0000008CH   SFRSYM    DATA     BYTE      TH0
      00000086H   SFRSYM    DATA     BYTE      CRC0CN1
      000000B8H.4 SFRSYM    DATA     BIT       IP_PS0
LX51 LINKER/LOCATER V4.66.30.0                                                        03/28/2016  20:19:13  PAGE 50


      000000FAH   SFRSYM    DATA     BYTE      UART1FCT
      0000008DH   SFRSYM    DATA     BYTE      TH1
      000000FAH   SFRSYM    DATA     BYTE      PCA0H
      000000F5H   SFRSYM    DATA     BYTE      I2C0FCT
      000000B8H.1 SFRSYM    DATA     BIT       IP_PT0
      000000B8H.3 SFRSYM    DATA     BIT       IP_PT1
      000000C0H.2 SFRSYM    DATA     BIT       SMB0CN0_ARBLOST
      000000B8H.5 SFRSYM    DATA     BIT       IP_PT2
      0000008AH   SFRSYM    DATA     BYTE      TL0
      00000080H.3 SFRSYM    DATA     BIT       U2F_BUTTON_VAL
      000000D0H.5 SFRSYM    DATA     BIT       PSW_F0
      000000A8H.6 SFRSYM    DATA     BIT       IE_ESPI0
      0000008BH   SFRSYM    DATA     BYTE      TL1
      000000F9H   SFRSYM    DATA     BYTE      PCA0L
      000000C0H   SFRSYM    DATA     BIT       SMB0CN0_SI
      000000D0H.1 SFRSYM    DATA     BIT       PSW_F1
      00000080H   SFRSYM    DATA     BIT       P0_B0
      000000B8H   SFRSYM    DATA     BIT       IP_PX0
      00000090H   SFRSYM    DATA     BIT       P1_B0
      00000080H.1 SFRSYM    DATA     BIT       P0_B1
      000000B8H.2 SFRSYM    DATA     BIT       IP_PX1
      0000009EH   SFRSYM    DATA     BYTE      UART1LIN
      0000009BH   SFRSYM    DATA     BYTE      CMP0CN0
      00000088H.1 SFRSYM    DATA     BIT       TCON_IE0
      000000A0H   SFRSYM    DATA     BIT       P2_B0
      00000090H.1 SFRSYM    DATA     BIT       P1_B1
      00000080H.2 SFRSYM    DATA     BIT       P0_B2
      000000BFH   SFRSYM    DATA     BYTE      CMP1CN0
      00000099H   SFRSYM    DATA     BYTE      CMP0CN1
      00000088H.3 SFRSYM    DATA     BIT       TCON_IE1
      000000B0H   SFRSYM    DATA     BIT       P3_B0
      000000A0H.1 SFRSYM    DATA     BIT       P2_B1
      00000090H.2 SFRSYM    DATA     BIT       P1_B2
      00000080H.3 SFRSYM    DATA     BIT       P0_B3
      000000C0H   SFRSYM    DATA     BYTE      SMB0CN0
      000000ACH   SFRSYM    DATA     BYTE      CMP1CN1
      000000B0H.1 SFRSYM    DATA     BIT       P3_B1
      000000A0H.2 SFRSYM    DATA     BIT       P2_B2
      00000090H.3 SFRSYM    DATA     BIT       P1_B3
      00000080H.4 SFRSYM    DATA     BIT       P0_B4
      000000A0H.3 SFRSYM    DATA     BIT       P2_B3
      00000090H.4 SFRSYM    DATA     BIT       P1_B4
      00000080H.5 SFRSYM    DATA     BIT       P0_B5
      000000D8H.1 SFRSYM    DATA     BIT       UART1FCN1_RXTO0
      00000090H.5 SFRSYM    DATA     BIT       P1_B5
      00000080H.6 SFRSYM    DATA     BIT       P0_B6
      000000F5H   SFRSYM    DATA     BYTE      EIP1H
      000000D8H.2 SFRSYM    DATA     BIT       UART1FCN1_RXTO1
      00000090H.6 SFRSYM    DATA     BIT       P1_B6
      00000080H.7 SFRSYM    DATA     BIT       P0_B7
      000000C5H   SFRSYM    DATA     BYTE      SMB0RXLN
      000000F6H   SFRSYM    DATA     BYTE      EIP2H
      00000090H.7 SFRSYM    DATA     BIT       P1_B7
      00000083H   SFRSYM    DATA     BYTE      DPH
      000000C4H   SFRSYM    DATA     BYTE      ADC0GTH
      000000C8H.7 SFRSYM    DATA     BIT       TMR2CN0_TF2H
      000000C8H.3 SFRSYM    DATA     BIT       TMR2CN0_T2SPLIT
      000000D0H.6 SFRSYM    DATA     BIT       PSW_AC
      000000F8H   SFRSYM    DATA     BYTE      SPI0CN0
      000000C7H   SFRSYM    DATA     BYTE      HFO0CAL
      00000088H.5 SFRSYM    DATA     BIT       TCON_TF0
      00000098H   SFRSYM    DATA     BIT       SCON0_RI
LX51 LINKER/LOCATER V4.66.30.0                                                        03/28/2016  20:19:13  PAGE 51


      000000D6H   SFRSYM    DATA     BYTE      HFO1CAL
      00000082H   SFRSYM    DATA     BYTE      DPL
      00000088H.7 SFRSYM    DATA     BIT       TCON_TF1
      000000C8H   SFRSYM    DATA     BIT       SCON1_RI
      00000099H   SFRSYM    DATA     BYTE      SBUF0
      00000087H   SFRSYM    DATA     BYTE      PCON0
      000000F2H   SFRSYM    DATA     BYTE      IPH
      000000C3H   SFRSYM    DATA     BYTE      ADC0GTL
      00000098H.7 SFRSYM    DATA     BIT       TMR4CN0_TF4H
      00000098H.3 SFRSYM    DATA     BIT       TMR4CN0_T4SPLIT
      000000C8H.6 SFRSYM    DATA     BIT       TMR2CN0_TF2L
      00000098H.1 SFRSYM    DATA     BIT       SCON0_TI
      000000E8H   SFRSYM    DATA     BIT       ADC0CN0_ADCM0
      00000092H   SFRSYM    DATA     BYTE      SBUF1
      0000009AH   SFRSYM    DATA     BYTE      PCON1
      000000C6H   SFRSYM    DATA     BYTE      ADC0LTH
      00000088H   SFRSYM    DATA     BIT       TCON_IT0
      000000C8H.1 SFRSYM    DATA     BIT       SCON1_TI
      000000E8H.1 SFRSYM    DATA     BIT       ADC0CN0_ADCM1
      000000EFH   SFRSYM    DATA     BYTE      RSTSRC
      000000FDH   SFRSYM    DATA     BYTE      P0MAT
      000000DEH   SFRSYM    DATA     BYTE      CRC0DAT
      00000088H.2 SFRSYM    DATA     BIT       TCON_IT1
      000000E8H.2 SFRSYM    DATA     BIT       ADC0CN0_ADCM2
      000000D7H   SFRSYM    DATA     BYTE      SFRSTACK
      00000098H   SFRSYM    DATA     BYTE      SCON0
      000000F6H   SFRSYM    DATA     BYTE      PRTDRV
      000000EDH   SFRSYM    DATA     BYTE      P1MAT
      000000E8H.3 SFRSYM    DATA     BIT       ADC0CN0_ADWINT
      00000095H   SFRSYM    DATA     WORD      SBRL1
      000000B2H   SFRSYM    DATA     BYTE      USB0AEC
      00000093H   SFRSYM    DATA     BYTE      SMOD1
      000000C8H   SFRSYM    DATA     BYTE      SCON1
      000000FBH   SFRSYM    DATA     BYTE      P2MAT
      00000098H.6 SFRSYM    DATA     BIT       TMR4CN0_TF4L
      000000E8H.4 SFRSYM    DATA     BIT       ADC0CN0_ADBUSY
      000000D6H   SFRSYM    DATA     BYTE      SMB0ADM
      000000C5H   SFRSYM    DATA     BYTE      ADC0LTL
      000000F8H.5 SFRSYM    DATA     BIT       SPI0CN0_MODF
      000000B8H.6 SFRSYM    DATA     BIT       IP_PSPI0
      0000009CH   SFRSYM    DATA     BYTE      PCA0CLR
      000000C8H   SFRSYM    DATA     BYTE      TMR2CN0
      00000091H   SFRSYM    DATA     BYTE      TMR3CN0
      000000FDH   SFRSYM    DATA     BYTE      TMR2CN1
      00000098H   SFRSYM    DATA     BYTE      TMR4CN0
      000000FEH   SFRSYM    DATA     BYTE      TMR3CN1
      000000FFH   SFRSYM    DATA     BYTE      TMR4CN1
      000000D7H   SFRSYM    DATA     BYTE      SMB0ADR
      00000088H.4 SFRSYM    DATA     BIT       TCON_TR0
      000000C8H.4 SFRSYM    DATA     BIT       TMR2CN0_TF2CEN
      00000088H.6 SFRSYM    DATA     BIT       TCON_TR1
      000000C2H   SFRSYM    DATA     BYTE      SMB0DAT
      000000CDH   SFRSYM    DATA     BYTE      TMR2H
      000000A1H   SFRSYM    DATA     BYTE      SPI0CFG
      00000095H   SFRSYM    DATA     BYTE      TMR3H
      000000EFH   SFRSYM    DATA     BYTE      HFOCN
      000000D3H   SFRSYM    DATA     BYTE      CRC0CNT
      000000A5H   SFRSYM    DATA     BYTE      TMR4H
      00000098H.4 SFRSYM    DATA     BIT       TMR4CN0_TF4CEN
      000000EFH   SFRSYM    DATA     BYTE      SMB0FCT
      00000096H   SFRSYM    DATA     BYTE      PCA0POL
      000000CCH   SFRSYM    DATA     BYTE      TMR2L
LX51 LINKER/LOCATER V4.66.30.0                                                        03/28/2016  20:19:13  PAGE 52


      000000F8H.7 SFRSYM    DATA     BIT       SPI0CN0_SPIF
      000000AEH   SFRSYM    DATA     BYTE      USB0ADR
      00000094H   SFRSYM    DATA     BYTE      TMR3L
      000000DFH   SFRSYM    DATA     BYTE      ADC0PWR
      000000A8H.7 SFRSYM    DATA     BIT       IE_EA
      000000A4H   SFRSYM    DATA     BYTE      TMR4L
      000000AFH   SFRSYM    DATA     BYTE      USB0DAT
      000000C8H.5 SFRSYM    DATA     BIT       TMR2CN0_TF2LEN
      000000F8H.6 SFRSYM    DATA     BIT       SPI0CN0_WCOL
      00000090H   SFRSYM    DATA     BIT       LED_B
      000000F8H.2 SFRSYM    DATA     BIT       SPI0CN0_NSSMD0
      000000D0H.7 SFRSYM    DATA     BIT       PSW_CY
      0000009DH   SFRSYM    DATA     BYTE      UART1FCN0
      000000A3H   SFRSYM    DATA     BYTE      SPI0DAT
      000000ADH   SFRSYM    DATA     BYTE      I2C0FCN0
      000000F8H.3 SFRSYM    DATA     BIT       SPI0CN0_NSSMD1
      000000BDH   SFRSYM    DATA     WORD      ADC0
      000000D8H   SFRSYM    DATA     BYTE      UART1FCN1
      000000ABH   SFRSYM    DATA     BYTE      I2C0FCN1
      00000098H.5 SFRSYM    DATA     BIT       TMR4CN0_TF4LEN
      000000D0H   SFRSYM    DATA     BYTE      PSW
      000000F7H   SFRSYM    DATA     BYTE      PCA0PWM
      000000F7H   SFRSYM    DATA     BYTE      SPI0FCT
      000000B6H   SFRSYM    DATA     BYTE      REVID
      00000080H.6 SFRSYM    DATA     BIT       LED_G
      000000B7H   SFRSYM    DATA     BYTE      FLKEY
      000000B3H   SFRSYM    DATA     BYTE      ADC0AC
      01003BE0H   SYMBOL    CODE     ---       _int2str_reduce_16
      0200034CH   SYMBOL    XDATA    ---       __int2str_buf
      01003096H   SYMBOL    CODE     ---       _int2str_map_10
      010031A5H   SYMBOL    CODE     ---       _int2str_map_16
      02000355H   SYMBOL    XDATA    ---       __digits
      010036D3H   SYMBOL    CODE     ---       _int2str_reduce_10

      01002999H   BLOCK     CODE     ---       LVL=0
      ---         BLOCKEND  ---      ---       LVL=0

      010032A6H   BLOCK     CODE     ---       LVL=0
      020000C3H   SYMBOL    XDATA    WORD      ms
      010032AEH   BLOCK     CODE     NEAR LAB  LVL=1
      020000C5H   SYMBOL    XDATA    DWORD     ms_now
      ---         BLOCKEND  ---      ---       LVL=1
      010032A6H   LINE      CODE     ---       #13
      010032AEH   LINE      CODE     ---       #14
      010032BAH   LINE      CODE     ---       #15
      010032E2H   LINE      CODE     ---       #16
      010032E2H   LINE      CODE     ---       #17
      ---         BLOCKEND  ---      ---       LVL=0

      01002A84H   BLOCK     CODE     ---       LVL=0
      020000AFH   SYMBOL    XDATA    ---       buf
      020000B2H   SYMBOL    XDATA    BYTE      len
      01002A8FH   BLOCK     CODE     NEAR LAB  LVL=1
      020000B3H   SYMBOL    XDATA    INT       ec
      020000B5H   SYMBOL    XDATA    BYTE      errors
      ---         BLOCKEND  ---      ---       LVL=1
      01002A84H   LINE      CODE     ---       #19
      01002A8FH   LINE      CODE     ---       #20
      01002A8FH   LINE      CODE     ---       #22
      01002A94H   LINE      CODE     ---       #23
      01002ABDH   LINE      CODE     ---       #24
      01002ABDH   LINE      CODE     ---       #25
LX51 LINKER/LOCATER V4.66.30.0                                                        03/28/2016  20:19:13  PAGE 53


      01002AC4H   LINE      CODE     ---       #26
      01002AD1H   LINE      CODE     ---       #27
      01002AD1H   LINE      CODE     ---       #28
      01002AF0H   LINE      CODE     ---       #29
      01002AF0H   LINE      CODE     ---       #30
      01002AF0H   LINE      CODE     ---       #31
      01002AF0H   LINE      CODE     ---       #32
      ---         BLOCKEND  ---      ---       LVL=0

      01003A8AH   BLOCK     CODE     ---       LVL=0
      00000007H   SYMBOL    DATA     CHAR      c
      01003A8AH   BLOCK     CODE     NEAR LAB  LVL=1
      00000007H   SYMBOL    DATA     BYTE      i
      ---         BLOCKEND  ---      ---       LVL=1
      01003A8AH   LINE      CODE     ---       #37
      01003A8AH   LINE      CODE     ---       #38
      01003A8AH   LINE      CODE     ---       #40
      01003A8CH   LINE      CODE     ---       #41
      01003A93H   LINE      CODE     ---       #42
      01003A9AH   LINE      CODE     ---       #43
      01003AA1H   LINE      CODE     ---       #44
      ---         BLOCKEND  ---      ---       LVL=0

      01002F14H   BLOCK     CODE     ---       LVL=0
      0200010DH   SYMBOL    XDATA    ---       hex
      02000110H   SYMBOL    XDATA    BYTE      len
      01002F1FH   BLOCK     CODE     NEAR LAB  LVL=1
      02000111H   SYMBOL    XDATA    BYTE      i
      ---         BLOCKEND  ---      ---       LVL=1
      01002F14H   LINE      CODE     ---       #47
      01002F1FH   LINE      CODE     ---       #48
      01002F1FH   LINE      CODE     ---       #50
      01002F2EH   LINE      CODE     ---       #51
      01002F2EH   LINE      CODE     ---       #52
      01002F3EH   LINE      CODE     ---       #53
      01002F3EH   LINE      CODE     ---       #54
      01002F43H   LINE      CODE     ---       #55
      01002F43H   LINE      CODE     ---       #56
      01002F56H   LINE      CODE     ---       #57
      01002F5EH   LINE      CODE     ---       #58
      ---         BLOCKEND  ---      ---       LVL=0

      0100388CH   BLOCK     CODE     ---       LVL=0
      02000112H   SYMBOL    XDATA    ---       d
      01003892H   BLOCK     CODE     NEAR LAB  LVL=1
      0000001EH   SYMBOL    DATA     WORD      i
      ---         BLOCKEND  ---      ---       LVL=1
      0100388CH   LINE      CODE     ---       #62
      01003892H   LINE      CODE     ---       #63
      01003892H   LINE      CODE     ---       #65
      0100389DH   LINE      CODE     ---       #66
      0100389DH   LINE      CODE     ---       #68
      010038AAH   LINE      CODE     ---       #70
      010038ACH   LINE      CODE     ---       #71
      ---         BLOCKEND  ---      ---       LVL=0

      010036D3H   BLOCK     CODE     ---       LVL=0
      020000ECH   SYMBOL    XDATA    ---       snum
      020000EFH   SYMBOL    XDATA    DWORD     copy
      010036D3H   LINE      CODE     ---       #73
      010036DFH   LINE      CODE     ---       #74
      010036DFH   LINE      CODE     ---       #76
LX51 LINKER/LOCATER V4.66.30.0                                                        03/28/2016  20:19:13  PAGE 54


      010036DFH   LINE      CODE     ---       #77
      010036E9H   LINE      CODE     ---       #78
      010036F8H   LINE      CODE     ---       #79
      01003700H   LINE      CODE     ---       #80
      ---         BLOCKEND  ---      ---       LVL=0

      01003BE0H   BLOCK     CODE     ---       LVL=0
      00000001H   SYMBOL    DATA     ---       snum
      00000004H   SYMBOL    DATA     DWORD     copy
      01003BE0H   LINE      CODE     ---       #82
      01003BE0H   LINE      CODE     ---       #83
      01003BE0H   LINE      CODE     ---       #85
      01003BE0H   LINE      CODE     ---       #86
      01003BE7H   LINE      CODE     ---       #87
      01003BECH   LINE      CODE     ---       #88
      01003BF2H   LINE      CODE     ---       #89
      ---         BLOCKEND  ---      ---       LVL=0

      01003096H   BLOCK     CODE     ---       LVL=0
      020000ECH   SYMBOL    XDATA    ---       snum
      020000EFH   SYMBOL    XDATA    DWORD     i
      01003096H   LINE      CODE     ---       #94
      010030A2H   LINE      CODE     ---       #95
      010030A2H   LINE      CODE     ---       #97
      010030A2H   LINE      CODE     ---       #98
      010030C5H   LINE      CODE     ---       #99
      010030D4H   LINE      CODE     ---       #100
      010030DCH   LINE      CODE     ---       #101
      ---         BLOCKEND  ---      ---       LVL=0

      010031A5H   BLOCK     CODE     ---       LVL=0
      02000119H   SYMBOL    XDATA    ---       snum
      0200011CH   SYMBOL    XDATA    DWORD     i
      010031A5H   LINE      CODE     ---       #103
      010031B1H   LINE      CODE     ---       #104
      010031B1H   LINE      CODE     ---       #106
      010031B1H   LINE      CODE     ---       #107
      010031CCH   LINE      CODE     ---       #108
      010031DDH   LINE      CODE     ---       #109
      010031E5H   LINE      CODE     ---       #110
      ---         BLOCKEND  ---      ---       LVL=0

      0100335DH   BLOCK     CODE     ---       LVL=0
      020000E5H   SYMBOL    XDATA    LONG      i
      01003360H   BLOCK     CODE     NEAR LAB  LVL=1
      020000E9H   SYMBOL    XDATA    ---       snum
      ---         BLOCKEND  ---      ---       LVL=1
      0100335DH   LINE      CODE     ---       #115
      01003360H   LINE      CODE     ---       #116
      01003360H   LINE      CODE     ---       #117
      01003369H   LINE      CODE     ---       #118
      0100337BH   LINE      CODE     ---       #119
      01003381H   LINE      CODE     ---       #120
      0100338BH   LINE      CODE     ---       #121
      01003391H   LINE      CODE     ---       #122
      01003397H   LINE      CODE     ---       #123
      ---         BLOCKEND  ---      ---       LVL=0

      01003398H   BLOCK     CODE     ---       LVL=0
      02000112H   SYMBOL    XDATA    LONG      i
      0100339BH   BLOCK     CODE     NEAR LAB  LVL=1
      02000116H   SYMBOL    XDATA    ---       snum
LX51 LINKER/LOCATER V4.66.30.0                                                        03/28/2016  20:19:13  PAGE 55


      ---         BLOCKEND  ---      ---       LVL=1
      01003398H   LINE      CODE     ---       #125
      0100339BH   LINE      CODE     ---       #126
      0100339BH   LINE      CODE     ---       #127
      010033A4H   LINE      CODE     ---       #128
      010033B6H   LINE      CODE     ---       #129
      010033BCH   LINE      CODE     ---       #130
      010033C6H   LINE      CODE     ---       #131
      010033CCH   LINE      CODE     ---       #132
      010033D2H   LINE      CODE     ---       #133
      ---         BLOCKEND  ---      ---       LVL=0

      01003D26H   BLOCK     CODE     ---       LVL=0
      00000007H   SYMBOL    DATA     BYTE      i
      01003D26H   LINE      CODE     ---       #136
      01003D26H   LINE      CODE     ---       #137
      01003D26H   LINE      CODE     ---       #138
      ---         BLOCKEND  ---      ---       LVL=0

      01003CA1H   BLOCK     CODE     ---       LVL=0
      00000006H   SYMBOL    DATA     INT       i
      01003CA1H   LINE      CODE     ---       #141
      01003CA1H   LINE      CODE     ---       #142
      01003CA1H   LINE      CODE     ---       #143
      ---         BLOCKEND  ---      ---       LVL=0

      01003D57H   BLOCK     CODE     ---       LVL=0
      00000006H   SYMBOL    DATA     WORD      i
      01003D57H   LINE      CODE     ---       #146
      01003D57H   LINE      CODE     ---       #147
      01003D57H   LINE      CODE     ---       #148
      ---         BLOCKEND  ---      ---       LVL=0

      01003DADH   BLOCK     CODE     ---       LVL=0
      00000004H   SYMBOL    DATA     LONG      i
      01003DADH   LINE      CODE     ---       #151
      01003DADH   LINE      CODE     ---       #152
      01003DADH   LINE      CODE     ---       #153
      ---         BLOCKEND  ---      ---       LVL=0
      00000004H   SYMBOL    DATA     LONG      i

      0100003EH   BLOCK     CODE     ---       LVL=0
      00000001H   SYMBOL    DATA     ---       tag
      020000B9H   SYMBOL    XDATA    BYTE      c
      01000043H   BLOCK     CODE     NEAR LAB  LVL=1
      020000BAH   SYMBOL    XDATA    ---       ellipsis_40
      020000E2H   SYMBOL    XDATA    ---       args
      ---         BLOCKEND  ---      ---       LVL=1
      0100003EH   LINE      CODE     ---       #160
      01000043H   LINE      CODE     ---       #161
      01000043H   LINE      CODE     ---       #163
      01000046H   LINE      CODE     ---       #164
      01000052H   LINE      CODE     ---       #165
      0100005CH   LINE      CODE     ---       #166
      0100005CH   LINE      CODE     ---       #167
      01000065H   LINE      CODE     ---       #168
      0100006BH   LINE      CODE     ---       #169
      0100006DH   LINE      CODE     ---       #170
      ---         BLOCKEND  ---      ---       LVL=0

      0100359AH   BLOCK     CODE     ---       LVL=0
      00000001H   SYMBOL    DATA     ---       tag
LX51 LINKER/LOCATER V4.66.30.0                                                        03/28/2016  20:19:13  PAGE 56


      02000044H   SYMBOL    XDATA    BYTE      c
      0100359FH   BLOCK     CODE     NEAR LAB  LVL=1
      02000045H   SYMBOL    XDATA    ---       ellipsis_40
      0200006DH   SYMBOL    XDATA    ---       args
      ---         BLOCKEND  ---      ---       LVL=1
      0100359AH   LINE      CODE     ---       #174
      0100359FH   LINE      CODE     ---       #175
      0100359FH   LINE      CODE     ---       #177
      010035A2H   LINE      CODE     ---       #178
      010035AEH   LINE      CODE     ---       #179
      010035B8H   LINE      CODE     ---       #180
      010035B8H   LINE      CODE     ---       #181
      010035C1H   LINE      CODE     ---       #182
      010035C7H   LINE      CODE     ---       #183
      010035C9H   LINE      CODE     ---       #184
      ---         BLOCKEND  ---      ---       LVL=0

      010035CFH   BLOCK     CODE     ---       LVL=0
      00000001H   SYMBOL    DATA     ---       tag
      02000044H   SYMBOL    XDATA    BYTE      c
      010035D4H   BLOCK     CODE     NEAR LAB  LVL=1
      02000045H   SYMBOL    XDATA    ---       ellipsis_40
      0200006DH   SYMBOL    XDATA    ---       args
      ---         BLOCKEND  ---      ---       LVL=1
      010035CFH   LINE      CODE     ---       #188
      010035D4H   LINE      CODE     ---       #189
      010035D4H   LINE      CODE     ---       #191
      010035D7H   LINE      CODE     ---       #192
      010035E3H   LINE      CODE     ---       #193
      010035EDH   LINE      CODE     ---       #194
      010035EDH   LINE      CODE     ---       #195
      010035F6H   LINE      CODE     ---       #196
      010035FCH   LINE      CODE     ---       #197
      010035FEH   LINE      CODE     ---       #198
      ---         BLOCKEND  ---      ---       LVL=0

      010034BCH   BLOCK     CODE     ---       LVL=0
      00000001H   SYMBOL    DATA     ---       tag
      020000C6H   SYMBOL    XDATA    BYTE      c
      010034C1H   BLOCK     CODE     NEAR LAB  LVL=1
      020000C7H   SYMBOL    XDATA    ---       ellipsis_40
      020000EFH   SYMBOL    XDATA    ---       args
      ---         BLOCKEND  ---      ---       LVL=1
      010034BCH   LINE      CODE     ---       #202
      010034C1H   LINE      CODE     ---       #203
      010034C1H   LINE      CODE     ---       #205
      010034C4H   LINE      CODE     ---       #206
      010034D0H   LINE      CODE     ---       #207
      010034DAH   LINE      CODE     ---       #208
      010034DAH   LINE      CODE     ---       #209
      010034E7H   LINE      CODE     ---       #210
      010034EDH   LINE      CODE     ---       #211
      010034EFH   LINE      CODE     ---       #212
      ---         BLOCKEND  ---      ---       LVL=0
      00000001H   SYMBOL    DATA     ---       tag

      ---         MODULE    ---      ---       CALLBACK
      020002CAH   PUBLIC    XDATA    ---       hidmsgbuf
      020002C9H   PUBLIC    XDATA    BYTE      tmpBuffer
      02000107H   PUBLIC    XDATA    BYTE      ?_USBD_XferCompleteCb?BYTE
      010037D6H   PUBLIC    CODE     ---       _USBD_XferCompleteCb
      01000DA5H   PUBLIC    CODE     ---       _USBD_SetupCmdCb
LX51 LINKER/LOCATER V4.66.30.0                                                        03/28/2016  20:19:13  PAGE 57


      01003DD6H   PUBLIC    CODE     ---       USBD_IsSelfPoweredCb
      01003D60H   PUBLIC    CODE     ---       _USBD_DeviceStateChangeCb
      01003DDAH   PUBLIC    CODE     ---       USBD_ResetCb
      000000A2H   SFRSYM    DATA     BYTE      SPI0CKR
      00000080H   SFRSYM    DATA     BYTE      P0
      000000C8H.6 SFRSYM    DATA     BIT       SCON1_PERR
      000000D0H.2 SFRSYM    DATA     BIT       PSW_OV
      00000090H   SFRSYM    DATA     BYTE      P1
      000000F8H.1 SFRSYM    DATA     BIT       SPI0CN0_TXNF
      00000097H   SFRSYM    DATA     BYTE      WDTCN
      000000A0H   SFRSYM    DATA     BYTE      P2
      000000B0H   SFRSYM    DATA     BYTE      P3
      000000BCH   SFRSYM    DATA     BYTE      ADC0CF
      000000C0H.7 SFRSYM    DATA     BIT       SMB0CN0_MASTER
      000000F9H   SFRSYM    DATA     WORD      PCA0
      000000E6H   SFRSYM    DATA     BYTE      EIE1
      000000C0H.1 SFRSYM    DATA     BIT       SMB0CN0_ACK
      000000B3H   SFRSYM    DATA     BYTE      USB0XCN
      000000CEH   SFRSYM    DATA     BYTE      EIE2
      00000080H.7 SFRSYM    DATA     BIT       LED_R
      0000008FH   SFRSYM    DATA     BYTE      PSCTL
      000000E4H   SFRSYM    DATA     BYTE      IT01CF
      000000C0H.6 SFRSYM    DATA     BIT       SMB0CN0_TXMODE
      000000ADH   SFRSYM    DATA     BYTE      DERIVID
      000000A7H   SFRSYM    DATA     BYTE      SFRPAGE
      000000A4H   SFRSYM    DATA     BYTE      P0MDOUT
      00000080H.2 SFRSYM    DATA     BIT       U2F_BUTTON
      000000BFH   SFRSYM    DATA     BYTE      USB0CDSTA
      000000A5H   SFRSYM    DATA     BYTE      P1MDOUT
      000000E8H.5 SFRSYM    DATA     BIT       ADC0CN0_ADINT
      000000CBH   SFRSYM    DATA     BYTE      TMR2RLH
      000000A6H   SFRSYM    DATA     BYTE      P2MDOUT
      000000A8H   SFRSYM    DATA     BYTE      IE
      00000093H   SFRSYM    DATA     BYTE      TMR3RLH
      0000009CH   SFRSYM    DATA     BYTE      P3MDOUT
      000000A3H   SFRSYM    DATA     BYTE      TMR4RLH
      000000F3H   SFRSYM    DATA     BYTE      EIP1
      000000F4H   SFRSYM    DATA     BYTE      EIP2
      00000098H.2 SFRSYM    DATA     BIT       SCON0_RB8
      000000CAH   SFRSYM    DATA     BYTE      TMR2RLL
      000000FCH   SFRSYM    DATA     BYTE      PCA0CPH0
      00000092H   SFRSYM    DATA     BYTE      TMR3RLL
      000000EAH   SFRSYM    DATA     BYTE      PCA0CPH1
      00000098H.3 SFRSYM    DATA     BIT       SCON0_TB8
      000000F0H   SFRSYM    DATA     BIT       B_B0
      00000082H   SFRSYM    DATA     WORD      DP
      000000A2H   SFRSYM    DATA     BYTE      TMR4RLL
      000000ECH   SFRSYM    DATA     BYTE      PCA0CPH2
      000000F0H.1 SFRSYM    DATA     BIT       B_B1
      000000C3H   SFRSYM    DATA     WORD      ADC0GT
      000000BDH   SFRSYM    DATA     BYTE      I2C0SLAD
      000000D8H.3 SFRSYM    DATA     BIT       UART1FCN1_RFRQ
      000000F0H.2 SFRSYM    DATA     BIT       B_B2
      000000CFH   SFRSYM    DATA     BYTE      SFRPGCN
      000000FBH   SFRSYM    DATA     BYTE      PCA0CPL0
      000000F0H.3 SFRSYM    DATA     BIT       B_B3
      000000D9H   SFRSYM    DATA     BYTE      PCA0MD
      000000DAH   SFRSYM    DATA     BYTE      PCA0CPM0
      000000E9H   SFRSYM    DATA     BYTE      PCA0CPL1
      000000D8H.7 SFRSYM    DATA     BIT       UART1FCN1_TFRQ
      000000F0H.4 SFRSYM    DATA     BIT       B_B4
      000000DBH   SFRSYM    DATA     BYTE      PCA0CPM1
LX51 LINKER/LOCATER V4.66.30.0                                                        03/28/2016  20:19:13  PAGE 58


      000000EBH   SFRSYM    DATA     BYTE      PCA0CPL2
      000000F0H.5 SFRSYM    DATA     BIT       B_B5
      000000DCH   SFRSYM    DATA     BYTE      PCA0CPM2
      000000B8H   SFRSYM    DATA     BYTE      IP
      000000B9H   SFRSYM    DATA     BYTE      ADC0TK
      000000F0H.6 SFRSYM    DATA     BIT       B_B6
      000000C5H   SFRSYM    DATA     WORD      ADC0LT
      000000D8H.6 SFRSYM    DATA     BIT       UART1FCN1_TXNF
      00000098H.5 SFRSYM    DATA     BIT       SCON0_MCE
      000000F0H.7 SFRSYM    DATA     BIT       B_B7
      000000C3H   SFRSYM    DATA     BYTE      SMB0FCN0
      000000E1H   SFRSYM    DATA     BYTE      XBR0
      000000C4H   SFRSYM    DATA     BYTE      SMB0FCN1
      000000C1H   SFRSYM    DATA     BYTE      SMB0CF
      000000E2H   SFRSYM    DATA     BYTE      XBR1
      000000C1H   SFRSYM    DATA     BYTE      PFE0CN
      000000E7H   SFRSYM    DATA     BYTE      EMI0CN
      000000C0H.5 SFRSYM    DATA     BIT       SMB0CN0_STA
      000000E3H   SFRSYM    DATA     BYTE      XBR2
      000000BBH   SFRSYM    DATA     BYTE      ADC0MX
      000000E0H   SFRSYM    DATA     BIT       ACC_ACC0
      000000D1H   SFRSYM    DATA     BYTE      REF0CN
      0000008EH   SFRSYM    DATA     BYTE      CKCON0
      000000E0H.1 SFRSYM    DATA     BIT       ACC_ACC1
      000000C9H   SFRSYM    DATA     BYTE      REG0CN
      000000DDH   SFRSYM    DATA     BYTE      CRC0IN
      000000A6H   SFRSYM    DATA     BYTE      CKCON1
      000000C8H.2 SFRSYM    DATA     BIT       TMR2CN0_TR2
      000000E0H.2 SFRSYM    DATA     BIT       ACC_ACC2
      000000C6H   SFRSYM    DATA     BYTE      REG1CN
      000000E0H.3 SFRSYM    DATA     BIT       ACC_ACC3
      00000081H   SFRSYM    DATA     BYTE      SP
      0000009DH   SFRSYM    DATA     BYTE      CMP0MD
      000000E0H.4 SFRSYM    DATA     BIT       ACC_ACC4
      000000B1H   SFRSYM    DATA     BYTE      LFO0CN
      000000ABH   SFRSYM    DATA     BYTE      CMP1MD
      000000D8H   SFRSYM    DATA     BIT       PCA0CN0_CCF0
      000000E0H.5 SFRSYM    DATA     BIT       ACC_ACC5
      000000B5H   SFRSYM    DATA     BYTE      USB0CF
      00000098H.2 SFRSYM    DATA     BIT       TMR4CN0_TR4
      000000D8H.1 SFRSYM    DATA     BIT       PCA0CN0_CCF1
      000000E0H.6 SFRSYM    DATA     BIT       ACC_ACC6
      000000CCH   SFRSYM    DATA     WORD      TMR2
      0000009AH   SFRSYM    DATA     BYTE      SPI0FCN0
      000000D8H.2 SFRSYM    DATA     BIT       PCA0CN0_CCF2
      000000E0H.7 SFRSYM    DATA     BIT       ACC_ACC7
      00000094H   SFRSYM    DATA     WORD      TMR3
      0000009BH   SFRSYM    DATA     BYTE      SPI0FCN1
      000000A4H   SFRSYM    DATA     WORD      TMR4
      00000094H   SFRSYM    DATA     BYTE      SBCON1
      000000C0H.3 SFRSYM    DATA     BIT       SMB0CN0_ACKRQ
      000000FFH   SFRSYM    DATA     BYTE      VDM0CN
      000000F1H   SFRSYM    DATA     BYTE      P0MDIN
      00000098H.4 SFRSYM    DATA     BIT       SCON0_REN
      000000ACH   SFRSYM    DATA     BYTE      SMB0TC
      000000F2H   SFRSYM    DATA     BYTE      P1MDIN
      000000C8H.4 SFRSYM    DATA     BIT       SCON1_REN
      000000F3H   SFRSYM    DATA     BYTE      P2MDIN
      000000C0H.4 SFRSYM    DATA     BIT       SMB0CN0_STO
      000000B6H   SFRSYM    DATA     BYTE      USB0CDCF
      000000F4H   SFRSYM    DATA     BYTE      P3MDIN
      000000B9H   SFRSYM    DATA     BYTE      I2C0STAT
LX51 LINKER/LOCATER V4.66.30.0                                                        03/28/2016  20:19:13  PAGE 59


      000000BBH   SFRSYM    DATA     BYTE      I2C0DOUT
      00000096H   SFRSYM    DATA     BYTE      SBRLH1
      000000FEH   SFRSYM    DATA     BYTE      P0MASK
      000000D8H.5 SFRSYM    DATA     BIT       UART1FCN1_TXHOLD
      000000EEH   SFRSYM    DATA     BYTE      P1MASK
      000000FCH   SFRSYM    DATA     BYTE      P2MASK
      000000D0H.3 SFRSYM    DATA     BIT       PSW_RS0
      000000D8H.7 SFRSYM    DATA     BIT       PCA0CN0_CF
      0000009EH   SFRSYM    DATA     BYTE      PCA0CENT
      000000BAH   SFRSYM    DATA     BYTE      I2C0CN0
      000000D2H   SFRSYM    DATA     BYTE      CRC0ST
      000000F8H.4 SFRSYM    DATA     BIT       SPI0CN0_RXOVRN
      000000D0H.4 SFRSYM    DATA     BIT       PSW_RS1
      00000095H   SFRSYM    DATA     BYTE      SBRLL1
      000000C8H.2 SFRSYM    DATA     BIT       SCON1_RBX
      000000C8H   SFRSYM    DATA     BIT       TMR2CN0_T2XCLK0
      000000C8H.1 SFRSYM    DATA     BIT       TMR2CN0_T2XCLK1
      000000C8H.3 SFRSYM    DATA     BIT       SCON1_TBX
      000000E8H.7 SFRSYM    DATA     BIT       ADC0CN0_ADEN
      000000BEH   SFRSYM    DATA     BYTE      USB0CDCN
      00000089H   SFRSYM    DATA     BYTE      TMOD
      00000088H   SFRSYM    DATA     BYTE      TCON
      000000CFH   SFRSYM    DATA     BYTE      CRC0FLIP
      000000D0H   SFRSYM    DATA     BIT       PSW_PARITY
      000000A8H.4 SFRSYM    DATA     BIT       IE_ES0
      0000009FH   SFRSYM    DATA     BYTE      CMP0MX
      00000098H   SFRSYM    DATA     BIT       TMR4CN0_T4XCLK0
      000000A8H.1 SFRSYM    DATA     BIT       IE_ET0
      000000AAH   SFRSYM    DATA     BYTE      CMP1MX
      00000098H.1 SFRSYM    DATA     BIT       TMR4CN0_T4XCLK1
      000000A8H.3 SFRSYM    DATA     BIT       IE_ET1
      000000D4H   SFRSYM    DATA     BYTE      P0SKIP
      000000D8H   SFRSYM    DATA     BIT       UART1FCN1_RIE
      000000A8H.5 SFRSYM    DATA     BIT       IE_ET2
      000000D5H   SFRSYM    DATA     BYTE      P1SKIP
      000000CCH   SFRSYM    DATA     BYTE      P2SKIP
      000000E8H   SFRSYM    DATA     BYTE      ADC0CN0
      000000D8H.4 SFRSYM    DATA     BIT       UART1FCN1_TIE
      000000A8H   SFRSYM    DATA     BIT       IE_EX0
      000000B2H   SFRSYM    DATA     BYTE      ADC0CN1
      000000D8H.6 SFRSYM    DATA     BIT       PCA0CN0_CR
      000000A8H.2 SFRSYM    DATA     BIT       IE_EX1
      000000C8H.7 SFRSYM    DATA     BIT       SCON1_OVR
      00000098H.7 SFRSYM    DATA     BIT       SCON0_SMODE
      000000B5H   SFRSYM    DATA     BYTE      DEVICEID
      000000A9H   SFRSYM    DATA     BYTE      CLKSEL
      000000F8H   SFRSYM    DATA     BIT       SPI0CN0_SPIEN
      000000F0H   SFRSYM    DATA     BYTE      B
      000000BEH   SFRSYM    DATA     BYTE      ADC0H
      000000E8H.6 SFRSYM    DATA     BIT       ADC0CN0_ADBMEN
      000000CAH   SFRSYM    DATA     WORD      TMR2RL
      000000BDH   SFRSYM    DATA     BYTE      ADC0L
      00000092H   SFRSYM    DATA     WORD      TMR3RL
      000000A2H   SFRSYM    DATA     WORD      TMR4RL
      000000D8H   SFRSYM    DATA     BYTE      PCA0CN0
      000000E0H   SFRSYM    DATA     BYTE      ACC
      000000FBH   SFRSYM    DATA     WORD      PCA0CP0
      000000E9H   SFRSYM    DATA     WORD      PCA0CP1
      000000EBH   SFRSYM    DATA     WORD      PCA0CP2
      000000BCH   SFRSYM    DATA     BYTE      I2C0DIN
      000000CEH   SFRSYM    DATA     BYTE      CRC0CN0
      0000008CH   SFRSYM    DATA     BYTE      TH0
LX51 LINKER/LOCATER V4.66.30.0                                                        03/28/2016  20:19:13  PAGE 60


      00000086H   SFRSYM    DATA     BYTE      CRC0CN1
      000000B8H.4 SFRSYM    DATA     BIT       IP_PS0
      000000FAH   SFRSYM    DATA     BYTE      UART1FCT
      0000008DH   SFRSYM    DATA     BYTE      TH1
      000000FAH   SFRSYM    DATA     BYTE      PCA0H
      000000F5H   SFRSYM    DATA     BYTE      I2C0FCT
      000000B8H.1 SFRSYM    DATA     BIT       IP_PT0
      000000B8H.3 SFRSYM    DATA     BIT       IP_PT1
      000000C0H.2 SFRSYM    DATA     BIT       SMB0CN0_ARBLOST
      000000B8H.5 SFRSYM    DATA     BIT       IP_PT2
      0000008AH   SFRSYM    DATA     BYTE      TL0
      00000080H.3 SFRSYM    DATA     BIT       U2F_BUTTON_VAL
      000000D0H.5 SFRSYM    DATA     BIT       PSW_F0
      000000A8H.6 SFRSYM    DATA     BIT       IE_ESPI0
      0000008BH   SFRSYM    DATA     BYTE      TL1
      000000F9H   SFRSYM    DATA     BYTE      PCA0L
      000000C0H   SFRSYM    DATA     BIT       SMB0CN0_SI
      000000D0H.1 SFRSYM    DATA     BIT       PSW_F1
      00000080H   SFRSYM    DATA     BIT       P0_B0
      000000B8H   SFRSYM    DATA     BIT       IP_PX0
      00000090H   SFRSYM    DATA     BIT       P1_B0
      00000080H.1 SFRSYM    DATA     BIT       P0_B1
      000000B8H.2 SFRSYM    DATA     BIT       IP_PX1
      0000009EH   SFRSYM    DATA     BYTE      UART1LIN
      0000009BH   SFRSYM    DATA     BYTE      CMP0CN0
      00000088H.1 SFRSYM    DATA     BIT       TCON_IE0
      000000A0H   SFRSYM    DATA     BIT       P2_B0
      00000090H.1 SFRSYM    DATA     BIT       P1_B1
      00000080H.2 SFRSYM    DATA     BIT       P0_B2
      000000BFH   SFRSYM    DATA     BYTE      CMP1CN0
      00000099H   SFRSYM    DATA     BYTE      CMP0CN1
      00000088H.3 SFRSYM    DATA     BIT       TCON_IE1
      000000B0H   SFRSYM    DATA     BIT       P3_B0
      000000A0H.1 SFRSYM    DATA     BIT       P2_B1
      00000090H.2 SFRSYM    DATA     BIT       P1_B2
      00000080H.3 SFRSYM    DATA     BIT       P0_B3
      000000C0H   SFRSYM    DATA     BYTE      SMB0CN0
      000000ACH   SFRSYM    DATA     BYTE      CMP1CN1
      000000B0H.1 SFRSYM    DATA     BIT       P3_B1
      000000A0H.2 SFRSYM    DATA     BIT       P2_B2
      00000090H.3 SFRSYM    DATA     BIT       P1_B3
      00000080H.4 SFRSYM    DATA     BIT       P0_B4
      000000A0H.3 SFRSYM    DATA     BIT       P2_B3
      00000090H.4 SFRSYM    DATA     BIT       P1_B4
      00000080H.5 SFRSYM    DATA     BIT       P0_B5
      000000D8H.1 SFRSYM    DATA     BIT       UART1FCN1_RXTO0
      00000090H.5 SFRSYM    DATA     BIT       P1_B5
      00000080H.6 SFRSYM    DATA     BIT       P0_B6
      000000F5H   SFRSYM    DATA     BYTE      EIP1H
      000000D8H.2 SFRSYM    DATA     BIT       UART1FCN1_RXTO1
      00000090H.6 SFRSYM    DATA     BIT       P1_B6
      00000080H.7 SFRSYM    DATA     BIT       P0_B7
      000000C5H   SFRSYM    DATA     BYTE      SMB0RXLN
      000000F6H   SFRSYM    DATA     BYTE      EIP2H
      00000090H.7 SFRSYM    DATA     BIT       P1_B7
      00000083H   SFRSYM    DATA     BYTE      DPH
      000000C4H   SFRSYM    DATA     BYTE      ADC0GTH
      000000C8H.7 SFRSYM    DATA     BIT       TMR2CN0_TF2H
      000000C8H.3 SFRSYM    DATA     BIT       TMR2CN0_T2SPLIT
      000000D0H.6 SFRSYM    DATA     BIT       PSW_AC
      000000F8H   SFRSYM    DATA     BYTE      SPI0CN0
      000000C7H   SFRSYM    DATA     BYTE      HFO0CAL
LX51 LINKER/LOCATER V4.66.30.0                                                        03/28/2016  20:19:13  PAGE 61


      00000088H.5 SFRSYM    DATA     BIT       TCON_TF0
      00000098H   SFRSYM    DATA     BIT       SCON0_RI
      000000D6H   SFRSYM    DATA     BYTE      HFO1CAL
      00000082H   SFRSYM    DATA     BYTE      DPL
      00000088H.7 SFRSYM    DATA     BIT       TCON_TF1
      000000C8H   SFRSYM    DATA     BIT       SCON1_RI
      00000099H   SFRSYM    DATA     BYTE      SBUF0
      00000087H   SFRSYM    DATA     BYTE      PCON0
      000000F2H   SFRSYM    DATA     BYTE      IPH
      000000C3H   SFRSYM    DATA     BYTE      ADC0GTL
      00000098H.7 SFRSYM    DATA     BIT       TMR4CN0_TF4H
      00000098H.3 SFRSYM    DATA     BIT       TMR4CN0_T4SPLIT
      000000C8H.6 SFRSYM    DATA     BIT       TMR2CN0_TF2L
      00000098H.1 SFRSYM    DATA     BIT       SCON0_TI
      000000E8H   SFRSYM    DATA     BIT       ADC0CN0_ADCM0
      00000092H   SFRSYM    DATA     BYTE      SBUF1
      0000009AH   SFRSYM    DATA     BYTE      PCON1
      000000C6H   SFRSYM    DATA     BYTE      ADC0LTH
      00000088H   SFRSYM    DATA     BIT       TCON_IT0
      000000C8H.1 SFRSYM    DATA     BIT       SCON1_TI
      000000E8H.1 SFRSYM    DATA     BIT       ADC0CN0_ADCM1
      000000EFH   SFRSYM    DATA     BYTE      RSTSRC
      000000FDH   SFRSYM    DATA     BYTE      P0MAT
      000000DEH   SFRSYM    DATA     BYTE      CRC0DAT
      00000088H.2 SFRSYM    DATA     BIT       TCON_IT1
      000000E8H.2 SFRSYM    DATA     BIT       ADC0CN0_ADCM2
      000000D7H   SFRSYM    DATA     BYTE      SFRSTACK
      00000098H   SFRSYM    DATA     BYTE      SCON0
      000000F6H   SFRSYM    DATA     BYTE      PRTDRV
      000000EDH   SFRSYM    DATA     BYTE      P1MAT
      000000E8H.3 SFRSYM    DATA     BIT       ADC0CN0_ADWINT
      00000095H   SFRSYM    DATA     WORD      SBRL1
      000000B2H   SFRSYM    DATA     BYTE      USB0AEC
      00000093H   SFRSYM    DATA     BYTE      SMOD1
      000000C8H   SFRSYM    DATA     BYTE      SCON1
      000000FBH   SFRSYM    DATA     BYTE      P2MAT
      00000098H.6 SFRSYM    DATA     BIT       TMR4CN0_TF4L
      000000E8H.4 SFRSYM    DATA     BIT       ADC0CN0_ADBUSY
      000000D6H   SFRSYM    DATA     BYTE      SMB0ADM
      000000C5H   SFRSYM    DATA     BYTE      ADC0LTL
      000000F8H.5 SFRSYM    DATA     BIT       SPI0CN0_MODF
      000000B8H.6 SFRSYM    DATA     BIT       IP_PSPI0
      0000009CH   SFRSYM    DATA     BYTE      PCA0CLR
      000000C8H   SFRSYM    DATA     BYTE      TMR2CN0
      00000091H   SFRSYM    DATA     BYTE      TMR3CN0
      000000FDH   SFRSYM    DATA     BYTE      TMR2CN1
      00000098H   SFRSYM    DATA     BYTE      TMR4CN0
      000000FEH   SFRSYM    DATA     BYTE      TMR3CN1
      000000FFH   SFRSYM    DATA     BYTE      TMR4CN1
      000000D7H   SFRSYM    DATA     BYTE      SMB0ADR
      00000088H.4 SFRSYM    DATA     BIT       TCON_TR0
      000000C8H.4 SFRSYM    DATA     BIT       TMR2CN0_TF2CEN
      00000088H.6 SFRSYM    DATA     BIT       TCON_TR1
      000000C2H   SFRSYM    DATA     BYTE      SMB0DAT
      000000CDH   SFRSYM    DATA     BYTE      TMR2H
      000000A1H   SFRSYM    DATA     BYTE      SPI0CFG
      00000095H   SFRSYM    DATA     BYTE      TMR3H
      000000EFH   SFRSYM    DATA     BYTE      HFOCN
      000000D3H   SFRSYM    DATA     BYTE      CRC0CNT
      000000A5H   SFRSYM    DATA     BYTE      TMR4H
      00000098H.4 SFRSYM    DATA     BIT       TMR4CN0_TF4CEN
      000000EFH   SFRSYM    DATA     BYTE      SMB0FCT
LX51 LINKER/LOCATER V4.66.30.0                                                        03/28/2016  20:19:13  PAGE 62


      00000096H   SFRSYM    DATA     BYTE      PCA0POL
      000000CCH   SFRSYM    DATA     BYTE      TMR2L
      000000F8H.7 SFRSYM    DATA     BIT       SPI0CN0_SPIF
      000000AEH   SFRSYM    DATA     BYTE      USB0ADR
      00000094H   SFRSYM    DATA     BYTE      TMR3L
      000000DFH   SFRSYM    DATA     BYTE      ADC0PWR
      000000A8H.7 SFRSYM    DATA     BIT       IE_EA
      000000A4H   SFRSYM    DATA     BYTE      TMR4L
      000000AFH   SFRSYM    DATA     BYTE      USB0DAT
      000000C8H.5 SFRSYM    DATA     BIT       TMR2CN0_TF2LEN
      000000F8H.6 SFRSYM    DATA     BIT       SPI0CN0_WCOL
      00000090H   SFRSYM    DATA     BIT       LED_B
      000000F8H.2 SFRSYM    DATA     BIT       SPI0CN0_NSSMD0
      000000D0H.7 SFRSYM    DATA     BIT       PSW_CY
      0000009DH   SFRSYM    DATA     BYTE      UART1FCN0
      000000A3H   SFRSYM    DATA     BYTE      SPI0DAT
      000000ADH   SFRSYM    DATA     BYTE      I2C0FCN0
      000000F8H.3 SFRSYM    DATA     BIT       SPI0CN0_NSSMD1
      000000BDH   SFRSYM    DATA     WORD      ADC0
      000000D8H   SFRSYM    DATA     BYTE      UART1FCN1
      000000ABH   SFRSYM    DATA     BYTE      I2C0FCN1
      00000098H.5 SFRSYM    DATA     BIT       TMR4CN0_TF4LEN
      000000D0H   SFRSYM    DATA     BYTE      PSW
      000000F7H   SFRSYM    DATA     BYTE      PCA0PWM
      000000F7H   SFRSYM    DATA     BYTE      SPI0FCT
      000000B6H   SFRSYM    DATA     BYTE      REVID
      00000080H.6 SFRSYM    DATA     BIT       LED_G
      000000B7H   SFRSYM    DATA     BYTE      FLKEY
      000000B3H   SFRSYM    DATA     BYTE      ADC0AC

      01002FB4H   BLOCK     CODE     ---       LVL=0
      ---         BLOCKEND  ---      ---       LVL=0

      01003DDAH   BLOCK     CODE     ---       LVL=0
      01003DDAH   LINE      CODE     ---       #40
      01003DDAH   LINE      CODE     ---       #42
      ---         BLOCKEND  ---      ---       LVL=0

      01003D60H   BLOCK     CODE     ---       LVL=0
      02000108H   SYMBOL    XDATA    BYTE      oldState
      02000109H   SYMBOL    XDATA    BYTE      newState
      01003D60H   LINE      CODE     ---       #45
      01003D68H   LINE      CODE     ---       #46
      01003D68H   LINE      CODE     ---       #48
      ---         BLOCKEND  ---      ---       LVL=0

      01003DD6H   BLOCK     CODE     ---       LVL=0
      01003DD6H   LINE      CODE     ---       #50
      01003DD6H   LINE      CODE     ---       #51
      01003DD7H   LINE      CODE     ---       #52
      ---         BLOCKEND  ---      ---       LVL=0

      01000DA5H   BLOCK     CODE     ---       LVL=0
      02000104H   SYMBOL    XDATA    ---       setup
      01000DADH   BLOCK     CODE     NEAR LAB  LVL=1
      02000106H   SYMBOL    XDATA    CHAR      retVal
      ---         BLOCKEND  ---      ---       LVL=1
      01000DA5H   LINE      CODE     ---       #55
      01000DADH   LINE      CODE     ---       #56
      01000DADH   LINE      CODE     ---       #58
      01000DB1H   LINE      CODE     ---       #61
      01000DD4H   LINE      CODE     ---       #63
LX51 LINKER/LOCATER V4.66.30.0                                                        03/28/2016  20:19:13  PAGE 63


      01000DD4H   LINE      CODE     ---       #67
      01000DDDH   LINE      CODE     ---       #68
      01000DDDH   LINE      CODE     ---       #69
      01000DE4H   LINE      CODE     ---       #70
      01000DF9H   LINE      CODE     ---       #71
      01000DF9H   LINE      CODE     ---       #72
      01000E13H   LINE      CODE     ---       #75
      01000E13H   LINE      CODE     ---       #76
      01000E15H   LINE      CODE     ---       #78
      01000E15H   LINE      CODE     ---       #79
      01000E15H   LINE      CODE     ---       #80
      01000E15H   LINE      CODE     ---       #81
      01000E1FH   LINE      CODE     ---       #82
      01000E34H   LINE      CODE     ---       #83
      01000E34H   LINE      CODE     ---       #84
      01000E55H   LINE      CODE     ---       #86
      01000E55H   LINE      CODE     ---       #87
      01000E58H   LINE      CODE     ---       #89
      01000E58H   LINE      CODE     ---       #90
      01000E58H   LINE      CODE     ---       #91
      01000E58H   LINE      CODE     ---       #92
      01000E58H   LINE      CODE     ---       #93
      01000E58H   LINE      CODE     ---       #94
      01000E58H   LINE      CODE     ---       #95
      01000E58H   LINE      CODE     ---       #96
      01000E88H   LINE      CODE     ---       #99
      01000E88H   LINE      CODE     ---       #101
      01000E98H   LINE      CODE     ---       #102
      01000E98H   LINE      CODE     ---       #103
      01000E98H   LINE      CODE     ---       #105
      01000E98H   LINE      CODE     ---       #107
      01000E98H   LINE      CODE     ---       #109
      01000E98H   LINE      CODE     ---       #111
      01000E98H   LINE      CODE     ---       #112
      01000EAEH   LINE      CODE     ---       #115
      01000EAEH   LINE      CODE     ---       #116
      01000EB3H   LINE      CODE     ---       #117
      01000EB3H   LINE      CODE     ---       #118
      01000EB5H   LINE      CODE     ---       #120
      01000EB5H   LINE      CODE     ---       #122
      01000EB5H   LINE      CODE     ---       #123
      01000ECEH   LINE      CODE     ---       #126
      01000ECEH   LINE      CODE     ---       #128
      01000ED6H   LINE      CODE     ---       #129
      01000EEBH   LINE      CODE     ---       #130
      01000EF0H   LINE      CODE     ---       #131
      01000EF0H   LINE      CODE     ---       #133
      01000EF0H   LINE      CODE     ---       #134
      01000EF0H   LINE      CODE     ---       #136
      01000EF0H   LINE      CODE     ---       #137
      01000EF0H   LINE      CODE     ---       #139
      01000EF0H   LINE      CODE     ---       #141
      01000EF0H   LINE      CODE     ---       #143
      01000EF5H   LINE      CODE     ---       #144
      ---         BLOCKEND  ---      ---       LVL=0

      010037D6H   BLOCK     CODE     ---       LVL=0
      00000007H   SYMBOL    DATA     BYTE      epAddr
      02000108H   SYMBOL    XDATA    CHAR      status
      02000109H   SYMBOL    XDATA    WORD      xferred
      0200010BH   SYMBOL    XDATA    WORD      remaining
      010037D6H   LINE      CODE     ---       #149
LX51 LINKER/LOCATER V4.66.30.0                                                        03/28/2016  20:19:13  PAGE 64


      010037E1H   LINE      CODE     ---       #150
      010037E1H   LINE      CODE     ---       #153
      010037E5H   LINE      CODE     ---       #154
      010037E5H   LINE      CODE     ---       #155
      010037F0H   LINE      CODE     ---       #157
      010037F9H   LINE      CODE     ---       #159
      010037F9H   LINE      CODE     ---       #162
      010037FCH   LINE      CODE     ---       #163
      ---         BLOCKEND  ---      ---       LVL=0

      ---         MODULE    ---      ---       DESCRIPTORS
      01003E8DH   PUBLIC    CONST    ---       initstruct
      01003E11H   PUBLIC    CONST    ---       configDesc
      01003DFFH   PUBLIC    CONST    ---       deviceDesc
      01003DDDH   PUBLIC    CONST    ---       ReportDescriptor0
      000000A2H   SFRSYM    DATA     BYTE      SPI0CKR
      00000080H   SFRSYM    DATA     BYTE      P0
      000000C8H.6 SFRSYM    DATA     BIT       SCON1_PERR
      000000D0H.2 SFRSYM    DATA     BIT       PSW_OV
      00000090H   SFRSYM    DATA     BYTE      P1
      000000F8H.1 SFRSYM    DATA     BIT       SPI0CN0_TXNF
      00000097H   SFRSYM    DATA     BYTE      WDTCN
      000000A0H   SFRSYM    DATA     BYTE      P2
      000000B0H   SFRSYM    DATA     BYTE      P3
      000000BCH   SFRSYM    DATA     BYTE      ADC0CF
      000000C0H.7 SFRSYM    DATA     BIT       SMB0CN0_MASTER
      000000F9H   SFRSYM    DATA     WORD      PCA0
      000000E6H   SFRSYM    DATA     BYTE      EIE1
      000000C0H.1 SFRSYM    DATA     BIT       SMB0CN0_ACK
      000000B3H   SFRSYM    DATA     BYTE      USB0XCN
      000000CEH   SFRSYM    DATA     BYTE      EIE2
      0000008FH   SFRSYM    DATA     BYTE      PSCTL
      000000E4H   SFRSYM    DATA     BYTE      IT01CF
      000000C0H.6 SFRSYM    DATA     BIT       SMB0CN0_TXMODE
      000000ADH   SFRSYM    DATA     BYTE      DERIVID
      000000A7H   SFRSYM    DATA     BYTE      SFRPAGE
      000000A4H   SFRSYM    DATA     BYTE      P0MDOUT
      000000BFH   SFRSYM    DATA     BYTE      USB0CDSTA
      000000A5H   SFRSYM    DATA     BYTE      P1MDOUT
      000000E8H.5 SFRSYM    DATA     BIT       ADC0CN0_ADINT
      000000CBH   SFRSYM    DATA     BYTE      TMR2RLH
      000000A6H   SFRSYM    DATA     BYTE      P2MDOUT
      000000A8H   SFRSYM    DATA     BYTE      IE
      00000093H   SFRSYM    DATA     BYTE      TMR3RLH
      0000009CH   SFRSYM    DATA     BYTE      P3MDOUT
      000000A3H   SFRSYM    DATA     BYTE      TMR4RLH
      000000F3H   SFRSYM    DATA     BYTE      EIP1
      000000F4H   SFRSYM    DATA     BYTE      EIP2
      00000098H.2 SFRSYM    DATA     BIT       SCON0_RB8
      000000CAH   SFRSYM    DATA     BYTE      TMR2RLL
      000000FCH   SFRSYM    DATA     BYTE      PCA0CPH0
      00000092H   SFRSYM    DATA     BYTE      TMR3RLL
      000000EAH   SFRSYM    DATA     BYTE      PCA0CPH1
      00000098H.3 SFRSYM    DATA     BIT       SCON0_TB8
      000000F0H   SFRSYM    DATA     BIT       B_B0
      00000082H   SFRSYM    DATA     WORD      DP
      000000A2H   SFRSYM    DATA     BYTE      TMR4RLL
      000000ECH   SFRSYM    DATA     BYTE      PCA0CPH2
      000000F0H.1 SFRSYM    DATA     BIT       B_B1
      000000C3H   SFRSYM    DATA     WORD      ADC0GT
      000000BDH   SFRSYM    DATA     BYTE      I2C0SLAD
      000000D8H.3 SFRSYM    DATA     BIT       UART1FCN1_RFRQ
LX51 LINKER/LOCATER V4.66.30.0                                                        03/28/2016  20:19:13  PAGE 65


      000000F0H.2 SFRSYM    DATA     BIT       B_B2
      000000CFH   SFRSYM    DATA     BYTE      SFRPGCN
      000000FBH   SFRSYM    DATA     BYTE      PCA0CPL0
      000000F0H.3 SFRSYM    DATA     BIT       B_B3
      000000D9H   SFRSYM    DATA     BYTE      PCA0MD
      000000DAH   SFRSYM    DATA     BYTE      PCA0CPM0
      000000E9H   SFRSYM    DATA     BYTE      PCA0CPL1
      000000D8H.7 SFRSYM    DATA     BIT       UART1FCN1_TFRQ
      000000F0H.4 SFRSYM    DATA     BIT       B_B4
      000000DBH   SFRSYM    DATA     BYTE      PCA0CPM1
      000000EBH   SFRSYM    DATA     BYTE      PCA0CPL2
      000000F0H.5 SFRSYM    DATA     BIT       B_B5
      000000DCH   SFRSYM    DATA     BYTE      PCA0CPM2
      000000B8H   SFRSYM    DATA     BYTE      IP
      000000B9H   SFRSYM    DATA     BYTE      ADC0TK
      000000F0H.6 SFRSYM    DATA     BIT       B_B6
      000000C5H   SFRSYM    DATA     WORD      ADC0LT
      000000D8H.6 SFRSYM    DATA     BIT       UART1FCN1_TXNF
      00000098H.5 SFRSYM    DATA     BIT       SCON0_MCE
      000000F0H.7 SFRSYM    DATA     BIT       B_B7
      000000C3H   SFRSYM    DATA     BYTE      SMB0FCN0
      000000E1H   SFRSYM    DATA     BYTE      XBR0
      000000C4H   SFRSYM    DATA     BYTE      SMB0FCN1
      000000C1H   SFRSYM    DATA     BYTE      SMB0CF
      000000E2H   SFRSYM    DATA     BYTE      XBR1
      000000C1H   SFRSYM    DATA     BYTE      PFE0CN
      000000E7H   SFRSYM    DATA     BYTE      EMI0CN
      000000C0H.5 SFRSYM    DATA     BIT       SMB0CN0_STA
      000000E3H   SFRSYM    DATA     BYTE      XBR2
      000000BBH   SFRSYM    DATA     BYTE      ADC0MX
      000000E0H   SFRSYM    DATA     BIT       ACC_ACC0
      000000D1H   SFRSYM    DATA     BYTE      REF0CN
      0000008EH   SFRSYM    DATA     BYTE      CKCON0
      000000E0H.1 SFRSYM    DATA     BIT       ACC_ACC1
      000000C9H   SFRSYM    DATA     BYTE      REG0CN
      000000DDH   SFRSYM    DATA     BYTE      CRC0IN
      000000A6H   SFRSYM    DATA     BYTE      CKCON1
      000000C8H.2 SFRSYM    DATA     BIT       TMR2CN0_TR2
      000000E0H.2 SFRSYM    DATA     BIT       ACC_ACC2
      000000C6H   SFRSYM    DATA     BYTE      REG1CN
      000000E0H.3 SFRSYM    DATA     BIT       ACC_ACC3
      00000081H   SFRSYM    DATA     BYTE      SP
      0000009DH   SFRSYM    DATA     BYTE      CMP0MD
      000000E0H.4 SFRSYM    DATA     BIT       ACC_ACC4
      000000B1H   SFRSYM    DATA     BYTE      LFO0CN
      000000ABH   SFRSYM    DATA     BYTE      CMP1MD
      000000D8H   SFRSYM    DATA     BIT       PCA0CN0_CCF0
      000000E0H.5 SFRSYM    DATA     BIT       ACC_ACC5
      000000B5H   SFRSYM    DATA     BYTE      USB0CF
      00000098H.2 SFRSYM    DATA     BIT       TMR4CN0_TR4
      000000D8H.1 SFRSYM    DATA     BIT       PCA0CN0_CCF1
      000000E0H.6 SFRSYM    DATA     BIT       ACC_ACC6
      000000CCH   SFRSYM    DATA     WORD      TMR2
      0000009AH   SFRSYM    DATA     BYTE      SPI0FCN0
      000000D8H.2 SFRSYM    DATA     BIT       PCA0CN0_CCF2
      000000E0H.7 SFRSYM    DATA     BIT       ACC_ACC7
      00000094H   SFRSYM    DATA     WORD      TMR3
      0000009BH   SFRSYM    DATA     BYTE      SPI0FCN1
      000000A4H   SFRSYM    DATA     WORD      TMR4
      00000094H   SFRSYM    DATA     BYTE      SBCON1
      000000C0H.3 SFRSYM    DATA     BIT       SMB0CN0_ACKRQ
      000000FFH   SFRSYM    DATA     BYTE      VDM0CN
LX51 LINKER/LOCATER V4.66.30.0                                                        03/28/2016  20:19:13  PAGE 66


      000000F1H   SFRSYM    DATA     BYTE      P0MDIN
      00000098H.4 SFRSYM    DATA     BIT       SCON0_REN
      000000ACH   SFRSYM    DATA     BYTE      SMB0TC
      000000F2H   SFRSYM    DATA     BYTE      P1MDIN
      000000C8H.4 SFRSYM    DATA     BIT       SCON1_REN
      000000F3H   SFRSYM    DATA     BYTE      P2MDIN
      000000C0H.4 SFRSYM    DATA     BIT       SMB0CN0_STO
      000000B6H   SFRSYM    DATA     BYTE      USB0CDCF
      000000F4H   SFRSYM    DATA     BYTE      P3MDIN
      000000B9H   SFRSYM    DATA     BYTE      I2C0STAT
      000000BBH   SFRSYM    DATA     BYTE      I2C0DOUT
      00000096H   SFRSYM    DATA     BYTE      SBRLH1
      000000FEH   SFRSYM    DATA     BYTE      P0MASK
      000000D8H.5 SFRSYM    DATA     BIT       UART1FCN1_TXHOLD
      000000EEH   SFRSYM    DATA     BYTE      P1MASK
      000000FCH   SFRSYM    DATA     BYTE      P2MASK
      000000D0H.3 SFRSYM    DATA     BIT       PSW_RS0
      000000D8H.7 SFRSYM    DATA     BIT       PCA0CN0_CF
      0000009EH   SFRSYM    DATA     BYTE      PCA0CENT
      000000BAH   SFRSYM    DATA     BYTE      I2C0CN0
      000000D2H   SFRSYM    DATA     BYTE      CRC0ST
      000000F8H.4 SFRSYM    DATA     BIT       SPI0CN0_RXOVRN
      000000D0H.4 SFRSYM    DATA     BIT       PSW_RS1
      00000095H   SFRSYM    DATA     BYTE      SBRLL1
      000000C8H.2 SFRSYM    DATA     BIT       SCON1_RBX
      000000C8H   SFRSYM    DATA     BIT       TMR2CN0_T2XCLK0
      000000C8H.1 SFRSYM    DATA     BIT       TMR2CN0_T2XCLK1
      000000C8H.3 SFRSYM    DATA     BIT       SCON1_TBX
      000000E8H.7 SFRSYM    DATA     BIT       ADC0CN0_ADEN
      000000BEH   SFRSYM    DATA     BYTE      USB0CDCN
      00000089H   SFRSYM    DATA     BYTE      TMOD
      00000088H   SFRSYM    DATA     BYTE      TCON
      000000CFH   SFRSYM    DATA     BYTE      CRC0FLIP
      000000D0H   SFRSYM    DATA     BIT       PSW_PARITY
      000000A8H.4 SFRSYM    DATA     BIT       IE_ES0
      0000009FH   SFRSYM    DATA     BYTE      CMP0MX
      00000098H   SFRSYM    DATA     BIT       TMR4CN0_T4XCLK0
      000000A8H.1 SFRSYM    DATA     BIT       IE_ET0
      000000AAH   SFRSYM    DATA     BYTE      CMP1MX
      00000098H.1 SFRSYM    DATA     BIT       TMR4CN0_T4XCLK1
      000000A8H.3 SFRSYM    DATA     BIT       IE_ET1
      000000D4H   SFRSYM    DATA     BYTE      P0SKIP
      000000D8H   SFRSYM    DATA     BIT       UART1FCN1_RIE
      000000A8H.5 SFRSYM    DATA     BIT       IE_ET2
      000000D5H   SFRSYM    DATA     BYTE      P1SKIP
      000000CCH   SFRSYM    DATA     BYTE      P2SKIP
      000000E8H   SFRSYM    DATA     BYTE      ADC0CN0
      000000D8H.4 SFRSYM    DATA     BIT       UART1FCN1_TIE
      000000A8H   SFRSYM    DATA     BIT       IE_EX0
      000000B2H   SFRSYM    DATA     BYTE      ADC0CN1
      000000D8H.6 SFRSYM    DATA     BIT       PCA0CN0_CR
      000000A8H.2 SFRSYM    DATA     BIT       IE_EX1
      000000C8H.7 SFRSYM    DATA     BIT       SCON1_OVR
      00000098H.7 SFRSYM    DATA     BIT       SCON0_SMODE
      000000B5H   SFRSYM    DATA     BYTE      DEVICEID
      000000A9H   SFRSYM    DATA     BYTE      CLKSEL
      000000F8H   SFRSYM    DATA     BIT       SPI0CN0_SPIEN
      000000F0H   SFRSYM    DATA     BYTE      B
      000000BEH   SFRSYM    DATA     BYTE      ADC0H
      000000E8H.6 SFRSYM    DATA     BIT       ADC0CN0_ADBMEN
      000000CAH   SFRSYM    DATA     WORD      TMR2RL
      000000BDH   SFRSYM    DATA     BYTE      ADC0L
LX51 LINKER/LOCATER V4.66.30.0                                                        03/28/2016  20:19:13  PAGE 67


      00000092H   SFRSYM    DATA     WORD      TMR3RL
      000000A2H   SFRSYM    DATA     WORD      TMR4RL
      000000D8H   SFRSYM    DATA     BYTE      PCA0CN0
      000000E0H   SFRSYM    DATA     BYTE      ACC
      000000FBH   SFRSYM    DATA     WORD      PCA0CP0
      000000E9H   SFRSYM    DATA     WORD      PCA0CP1
      000000EBH   SFRSYM    DATA     WORD      PCA0CP2
      000000BCH   SFRSYM    DATA     BYTE      I2C0DIN
      000000CEH   SFRSYM    DATA     BYTE      CRC0CN0
      0000008CH   SFRSYM    DATA     BYTE      TH0
      00000086H   SFRSYM    DATA     BYTE      CRC0CN1
      000000B8H.4 SFRSYM    DATA     BIT       IP_PS0
      000000FAH   SFRSYM    DATA     BYTE      UART1FCT
      0000008DH   SFRSYM    DATA     BYTE      TH1
      000000FAH   SFRSYM    DATA     BYTE      PCA0H
      000000F5H   SFRSYM    DATA     BYTE      I2C0FCT
      000000B8H.1 SFRSYM    DATA     BIT       IP_PT0
      000000B8H.3 SFRSYM    DATA     BIT       IP_PT1
      000000C0H.2 SFRSYM    DATA     BIT       SMB0CN0_ARBLOST
      000000B8H.5 SFRSYM    DATA     BIT       IP_PT2
      0000008AH   SFRSYM    DATA     BYTE      TL0
      000000D0H.5 SFRSYM    DATA     BIT       PSW_F0
      000000A8H.6 SFRSYM    DATA     BIT       IE_ESPI0
      0000008BH   SFRSYM    DATA     BYTE      TL1
      000000F9H   SFRSYM    DATA     BYTE      PCA0L
      000000C0H   SFRSYM    DATA     BIT       SMB0CN0_SI
      000000D0H.1 SFRSYM    DATA     BIT       PSW_F1
      00000080H   SFRSYM    DATA     BIT       P0_B0
      000000B8H   SFRSYM    DATA     BIT       IP_PX0
      00000090H   SFRSYM    DATA     BIT       P1_B0
      00000080H.1 SFRSYM    DATA     BIT       P0_B1
      000000B8H.2 SFRSYM    DATA     BIT       IP_PX1
      0000009EH   SFRSYM    DATA     BYTE      UART1LIN
      0000009BH   SFRSYM    DATA     BYTE      CMP0CN0
      00000088H.1 SFRSYM    DATA     BIT       TCON_IE0
      000000A0H   SFRSYM    DATA     BIT       P2_B0
      00000090H.1 SFRSYM    DATA     BIT       P1_B1
      00000080H.2 SFRSYM    DATA     BIT       P0_B2
      000000BFH   SFRSYM    DATA     BYTE      CMP1CN0
      00000099H   SFRSYM    DATA     BYTE      CMP0CN1
      00000088H.3 SFRSYM    DATA     BIT       TCON_IE1
      000000B0H   SFRSYM    DATA     BIT       P3_B0
      000000A0H.1 SFRSYM    DATA     BIT       P2_B1
      00000090H.2 SFRSYM    DATA     BIT       P1_B2
      00000080H.3 SFRSYM    DATA     BIT       P0_B3
      000000C0H   SFRSYM    DATA     BYTE      SMB0CN0
      000000ACH   SFRSYM    DATA     BYTE      CMP1CN1
      000000B0H.1 SFRSYM    DATA     BIT       P3_B1
      000000A0H.2 SFRSYM    DATA     BIT       P2_B2
      00000090H.3 SFRSYM    DATA     BIT       P1_B3
      00000080H.4 SFRSYM    DATA     BIT       P0_B4
      000000A0H.3 SFRSYM    DATA     BIT       P2_B3
      00000090H.4 SFRSYM    DATA     BIT       P1_B4
      00000080H.5 SFRSYM    DATA     BIT       P0_B5
      000000D8H.1 SFRSYM    DATA     BIT       UART1FCN1_RXTO0
      00000090H.5 SFRSYM    DATA     BIT       P1_B5
      00000080H.6 SFRSYM    DATA     BIT       P0_B6
      000000F5H   SFRSYM    DATA     BYTE      EIP1H
      000000D8H.2 SFRSYM    DATA     BIT       UART1FCN1_RXTO1
      00000090H.6 SFRSYM    DATA     BIT       P1_B6
      00000080H.7 SFRSYM    DATA     BIT       P0_B7
      000000C5H   SFRSYM    DATA     BYTE      SMB0RXLN
LX51 LINKER/LOCATER V4.66.30.0                                                        03/28/2016  20:19:13  PAGE 68


      000000F6H   SFRSYM    DATA     BYTE      EIP2H
      00000090H.7 SFRSYM    DATA     BIT       P1_B7
      00000083H   SFRSYM    DATA     BYTE      DPH
      000000C4H   SFRSYM    DATA     BYTE      ADC0GTH
      000000C8H.7 SFRSYM    DATA     BIT       TMR2CN0_TF2H
      000000C8H.3 SFRSYM    DATA     BIT       TMR2CN0_T2SPLIT
      000000D0H.6 SFRSYM    DATA     BIT       PSW_AC
      000000F8H   SFRSYM    DATA     BYTE      SPI0CN0
      000000C7H   SFRSYM    DATA     BYTE      HFO0CAL
      00000088H.5 SFRSYM    DATA     BIT       TCON_TF0
      00000098H   SFRSYM    DATA     BIT       SCON0_RI
      000000D6H   SFRSYM    DATA     BYTE      HFO1CAL
      00000082H   SFRSYM    DATA     BYTE      DPL
      00000088H.7 SFRSYM    DATA     BIT       TCON_TF1
      000000C8H   SFRSYM    DATA     BIT       SCON1_RI
      00000099H   SFRSYM    DATA     BYTE      SBUF0
      00000087H   SFRSYM    DATA     BYTE      PCON0
      000000F2H   SFRSYM    DATA     BYTE      IPH
      000000C3H   SFRSYM    DATA     BYTE      ADC0GTL
      00000098H.7 SFRSYM    DATA     BIT       TMR4CN0_TF4H
      00000098H.3 SFRSYM    DATA     BIT       TMR4CN0_T4SPLIT
      000000C8H.6 SFRSYM    DATA     BIT       TMR2CN0_TF2L
      00000098H.1 SFRSYM    DATA     BIT       SCON0_TI
      000000E8H   SFRSYM    DATA     BIT       ADC0CN0_ADCM0
      00000092H   SFRSYM    DATA     BYTE      SBUF1
      0000009AH   SFRSYM    DATA     BYTE      PCON1
      000000C6H   SFRSYM    DATA     BYTE      ADC0LTH
      00000088H   SFRSYM    DATA     BIT       TCON_IT0
      000000C8H.1 SFRSYM    DATA     BIT       SCON1_TI
      000000E8H.1 SFRSYM    DATA     BIT       ADC0CN0_ADCM1
      000000EFH   SFRSYM    DATA     BYTE      RSTSRC
      000000FDH   SFRSYM    DATA     BYTE      P0MAT
      000000DEH   SFRSYM    DATA     BYTE      CRC0DAT
      00000088H.2 SFRSYM    DATA     BIT       TCON_IT1
      000000E8H.2 SFRSYM    DATA     BIT       ADC0CN0_ADCM2
      000000D7H   SFRSYM    DATA     BYTE      SFRSTACK
      00000098H   SFRSYM    DATA     BYTE      SCON0
      000000F6H   SFRSYM    DATA     BYTE      PRTDRV
      000000EDH   SFRSYM    DATA     BYTE      P1MAT
      000000E8H.3 SFRSYM    DATA     BIT       ADC0CN0_ADWINT
      00000095H   SFRSYM    DATA     WORD      SBRL1
      000000B2H   SFRSYM    DATA     BYTE      USB0AEC
      00000093H   SFRSYM    DATA     BYTE      SMOD1
      000000C8H   SFRSYM    DATA     BYTE      SCON1
      000000FBH   SFRSYM    DATA     BYTE      P2MAT
      00000098H.6 SFRSYM    DATA     BIT       TMR4CN0_TF4L
      000000E8H.4 SFRSYM    DATA     BIT       ADC0CN0_ADBUSY
      000000D6H   SFRSYM    DATA     BYTE      SMB0ADM
      000000C5H   SFRSYM    DATA     BYTE      ADC0LTL
      000000F8H.5 SFRSYM    DATA     BIT       SPI0CN0_MODF
      000000B8H.6 SFRSYM    DATA     BIT       IP_PSPI0
      0000009CH   SFRSYM    DATA     BYTE      PCA0CLR
      000000C8H   SFRSYM    DATA     BYTE      TMR2CN0
      00000091H   SFRSYM    DATA     BYTE      TMR3CN0
      000000FDH   SFRSYM    DATA     BYTE      TMR2CN1
      00000098H   SFRSYM    DATA     BYTE      TMR4CN0
      000000FEH   SFRSYM    DATA     BYTE      TMR3CN1
      000000FFH   SFRSYM    DATA     BYTE      TMR4CN1
      000000D7H   SFRSYM    DATA     BYTE      SMB0ADR
      00000088H.4 SFRSYM    DATA     BIT       TCON_TR0
      000000C8H.4 SFRSYM    DATA     BIT       TMR2CN0_TF2CEN
      00000088H.6 SFRSYM    DATA     BIT       TCON_TR1
LX51 LINKER/LOCATER V4.66.30.0                                                        03/28/2016  20:19:13  PAGE 69


      000000C2H   SFRSYM    DATA     BYTE      SMB0DAT
      000000CDH   SFRSYM    DATA     BYTE      TMR2H
      000000A1H   SFRSYM    DATA     BYTE      SPI0CFG
      00000095H   SFRSYM    DATA     BYTE      TMR3H
      000000EFH   SFRSYM    DATA     BYTE      HFOCN
      000000D3H   SFRSYM    DATA     BYTE      CRC0CNT
      000000A5H   SFRSYM    DATA     BYTE      TMR4H
      00000098H.4 SFRSYM    DATA     BIT       TMR4CN0_TF4CEN
      000000EFH   SFRSYM    DATA     BYTE      SMB0FCT
      00000096H   SFRSYM    DATA     BYTE      PCA0POL
      000000CCH   SFRSYM    DATA     BYTE      TMR2L
      000000F8H.7 SFRSYM    DATA     BIT       SPI0CN0_SPIF
      000000AEH   SFRSYM    DATA     BYTE      USB0ADR
      00000094H   SFRSYM    DATA     BYTE      TMR3L
      000000DFH   SFRSYM    DATA     BYTE      ADC0PWR
      000000A8H.7 SFRSYM    DATA     BIT       IE_EA
      000000A4H   SFRSYM    DATA     BYTE      TMR4L
      000000AFH   SFRSYM    DATA     BYTE      USB0DAT
      000000C8H.5 SFRSYM    DATA     BIT       TMR2CN0_TF2LEN
      000000F8H.6 SFRSYM    DATA     BIT       SPI0CN0_WCOL
      000000F8H.2 SFRSYM    DATA     BIT       SPI0CN0_NSSMD0
      000000D0H.7 SFRSYM    DATA     BIT       PSW_CY
      0000009DH   SFRSYM    DATA     BYTE      UART1FCN0
      000000A3H   SFRSYM    DATA     BYTE      SPI0DAT
      000000ADH   SFRSYM    DATA     BYTE      I2C0FCN0
      000000F8H.3 SFRSYM    DATA     BIT       SPI0CN0_NSSMD1
      000000BDH   SFRSYM    DATA     WORD      ADC0
      000000D8H   SFRSYM    DATA     BYTE      UART1FCN1
      000000ABH   SFRSYM    DATA     BYTE      I2C0FCN1
      00000098H.5 SFRSYM    DATA     BIT       TMR4CN0_TF4LEN
      000000D0H   SFRSYM    DATA     BYTE      PSW
      000000F7H   SFRSYM    DATA     BYTE      PCA0PWM
      000000F7H   SFRSYM    DATA     BYTE      SPI0FCT
      000000B6H   SFRSYM    DATA     BYTE      REVID
      000000B7H   SFRSYM    DATA     BYTE      FLKEY
      000000B3H   SFRSYM    DATA     BYTE      ADC0AC
      01003E6EH   SYMBOL    CONST    ---       int0Desc
      01003E3AH   SYMBOL    CONST    ---       langDesc
      01003E4EH   SYMBOL    CONST    ---       prodDesc
      01003E3EH   SYMBOL    CONST    ---       mfrDesc
      01003E5AH   SYMBOL    CONST    ---       serDesc
      01003E7EH   SYMBOL    CONST    ---       myUsbStringTable_USEnglish

      ---         MODULE    ---      ---       IDLE
      01003DB3H   PUBLIC    CODE     ---       idleGetRate
      01003AA2H   PUBLIC    CODE     ---       _idleTimerSet
      0100386AH   PUBLIC    CODE     ---       idleTimerStart
      02000358H   SYMBOL    XDATA    ---       idle

      0100386AH   BLOCK     CODE     ---       LVL=0
      0100386AH   LINE      CODE     ---       #19
      0100386AH   LINE      CODE     ---       #20
      0100386AH   LINE      CODE     ---       #21
      01003874H   LINE      CODE     ---       #22
      01003874H   LINE      CODE     ---       #23
      01003881H   LINE      CODE     ---       #24
      01003882H   LINE      CODE     ---       #26
      01003882H   LINE      CODE     ---       #27
      0100388BH   LINE      CODE     ---       #28
      0100388BH   LINE      CODE     ---       #29
      ---         BLOCKEND  ---      ---       LVL=0

LX51 LINKER/LOCATER V4.66.30.0                                                        03/28/2016  20:19:13  PAGE 70


      01003AA2H   BLOCK     CODE     ---       LVL=0
      00000007H   SYMBOL    DATA     BYTE      rate
      01003AA2H   LINE      CODE     ---       #52
      01003AA2H   LINE      CODE     ---       #53
      01003AA2H   LINE      CODE     ---       #54
      01003AAAH   LINE      CODE     ---       #55
      01003AAAH   LINE      CODE     ---       #56
      01003AB0H   LINE      CODE     ---       #57
      01003AB2H   LINE      CODE     ---       #59
      01003AB2H   LINE      CODE     ---       #60
      01003AB7H   LINE      CODE     ---       #61
      01003AB7H   LINE      CODE     ---       #63
      ---         BLOCKEND  ---      ---       LVL=0

      01003DB3H   BLOCK     CODE     ---       LVL=0
      01003DB3H   LINE      CODE     ---       #74
      01003DB3H   LINE      CODE     ---       #75
      01003DB3H   LINE      CODE     ---       #76
      01003DB8H   LINE      CODE     ---       #77
      ---         BLOCKEND  ---      ---       LVL=0

      ---         MODULE    ---      ---       U2F
      01002010H   PUBLIC    CODE     ---       _u2f_request
      000000A2H   SFRSYM    DATA     BYTE      SPI0CKR
      00000080H   SFRSYM    DATA     BYTE      P0
      000000C8H.6 SFRSYM    DATA     BIT       SCON1_PERR
      000000D0H.2 SFRSYM    DATA     BIT       PSW_OV
      00000090H   SFRSYM    DATA     BYTE      P1
      000000F8H.1 SFRSYM    DATA     BIT       SPI0CN0_TXNF
      00000097H   SFRSYM    DATA     BYTE      WDTCN
      000000A0H   SFRSYM    DATA     BYTE      P2
      000000B0H   SFRSYM    DATA     BYTE      P3
      000000BCH   SFRSYM    DATA     BYTE      ADC0CF
      000000C0H.7 SFRSYM    DATA     BIT       SMB0CN0_MASTER
      000000F9H   SFRSYM    DATA     WORD      PCA0
      000000E6H   SFRSYM    DATA     BYTE      EIE1
      000000C0H.1 SFRSYM    DATA     BIT       SMB0CN0_ACK
      000000B3H   SFRSYM    DATA     BYTE      USB0XCN
      000000CEH   SFRSYM    DATA     BYTE      EIE2
      00000080H.7 SFRSYM    DATA     BIT       LED_R
      0000008FH   SFRSYM    DATA     BYTE      PSCTL
      000000E4H   SFRSYM    DATA     BYTE      IT01CF
      000000C0H.6 SFRSYM    DATA     BIT       SMB0CN0_TXMODE
      000000ADH   SFRSYM    DATA     BYTE      DERIVID
      000000A7H   SFRSYM    DATA     BYTE      SFRPAGE
      000000A4H   SFRSYM    DATA     BYTE      P0MDOUT
      00000080H.2 SFRSYM    DATA     BIT       U2F_BUTTON
      000000BFH   SFRSYM    DATA     BYTE      USB0CDSTA
      000000A5H   SFRSYM    DATA     BYTE      P1MDOUT
      000000E8H.5 SFRSYM    DATA     BIT       ADC0CN0_ADINT
      000000CBH   SFRSYM    DATA     BYTE      TMR2RLH
      000000A6H   SFRSYM    DATA     BYTE      P2MDOUT
      000000A8H   SFRSYM    DATA     BYTE      IE
      00000093H   SFRSYM    DATA     BYTE      TMR3RLH
      0000009CH   SFRSYM    DATA     BYTE      P3MDOUT
      000000A3H   SFRSYM    DATA     BYTE      TMR4RLH
      000000F3H   SFRSYM    DATA     BYTE      EIP1
      000000F4H   SFRSYM    DATA     BYTE      EIP2
      00000098H.2 SFRSYM    DATA     BIT       SCON0_RB8
      000000CAH   SFRSYM    DATA     BYTE      TMR2RLL
      000000FCH   SFRSYM    DATA     BYTE      PCA0CPH0
      00000092H   SFRSYM    DATA     BYTE      TMR3RLL
LX51 LINKER/LOCATER V4.66.30.0                                                        03/28/2016  20:19:13  PAGE 71


      000000EAH   SFRSYM    DATA     BYTE      PCA0CPH1
      00000098H.3 SFRSYM    DATA     BIT       SCON0_TB8
      000000F0H   SFRSYM    DATA     BIT       B_B0
      00000082H   SFRSYM    DATA     WORD      DP
      000000A2H   SFRSYM    DATA     BYTE      TMR4RLL
      000000ECH   SFRSYM    DATA     BYTE      PCA0CPH2
      000000F0H.1 SFRSYM    DATA     BIT       B_B1
      000000C3H   SFRSYM    DATA     WORD      ADC0GT
      000000BDH   SFRSYM    DATA     BYTE      I2C0SLAD
      000000D8H.3 SFRSYM    DATA     BIT       UART1FCN1_RFRQ
      000000F0H.2 SFRSYM    DATA     BIT       B_B2
      000000CFH   SFRSYM    DATA     BYTE      SFRPGCN
      000000FBH   SFRSYM    DATA     BYTE      PCA0CPL0
      000000F0H.3 SFRSYM    DATA     BIT       B_B3
      000000D9H   SFRSYM    DATA     BYTE      PCA0MD
      000000DAH   SFRSYM    DATA     BYTE      PCA0CPM0
      000000E9H   SFRSYM    DATA     BYTE      PCA0CPL1
      000000D8H.7 SFRSYM    DATA     BIT       UART1FCN1_TFRQ
      000000F0H.4 SFRSYM    DATA     BIT       B_B4
      000000DBH   SFRSYM    DATA     BYTE      PCA0CPM1
      000000EBH   SFRSYM    DATA     BYTE      PCA0CPL2
      000000F0H.5 SFRSYM    DATA     BIT       B_B5
      000000DCH   SFRSYM    DATA     BYTE      PCA0CPM2
      000000B8H   SFRSYM    DATA     BYTE      IP
      000000B9H   SFRSYM    DATA     BYTE      ADC0TK
      000000F0H.6 SFRSYM    DATA     BIT       B_B6
      000000C5H   SFRSYM    DATA     WORD      ADC0LT
      000000D8H.6 SFRSYM    DATA     BIT       UART1FCN1_TXNF
      00000098H.5 SFRSYM    DATA     BIT       SCON0_MCE
      000000F0H.7 SFRSYM    DATA     BIT       B_B7
      000000C3H   SFRSYM    DATA     BYTE      SMB0FCN0
      000000E1H   SFRSYM    DATA     BYTE      XBR0
      000000C4H   SFRSYM    DATA     BYTE      SMB0FCN1
      000000C1H   SFRSYM    DATA     BYTE      SMB0CF
      000000E2H   SFRSYM    DATA     BYTE      XBR1
      000000C1H   SFRSYM    DATA     BYTE      PFE0CN
      000000E7H   SFRSYM    DATA     BYTE      EMI0CN
      000000C0H.5 SFRSYM    DATA     BIT       SMB0CN0_STA
      000000E3H   SFRSYM    DATA     BYTE      XBR2
      000000BBH   SFRSYM    DATA     BYTE      ADC0MX
      000000E0H   SFRSYM    DATA     BIT       ACC_ACC0
      000000D1H   SFRSYM    DATA     BYTE      REF0CN
      0000008EH   SFRSYM    DATA     BYTE      CKCON0
      000000E0H.1 SFRSYM    DATA     BIT       ACC_ACC1
      000000C9H   SFRSYM    DATA     BYTE      REG0CN
      000000DDH   SFRSYM    DATA     BYTE      CRC0IN
      000000A6H   SFRSYM    DATA     BYTE      CKCON1
      000000C8H.2 SFRSYM    DATA     BIT       TMR2CN0_TR2
      000000E0H.2 SFRSYM    DATA     BIT       ACC_ACC2
      000000C6H   SFRSYM    DATA     BYTE      REG1CN
      000000E0H.3 SFRSYM    DATA     BIT       ACC_ACC3
      00000081H   SFRSYM    DATA     BYTE      SP
      0000009DH   SFRSYM    DATA     BYTE      CMP0MD
      000000E0H.4 SFRSYM    DATA     BIT       ACC_ACC4
      000000B1H   SFRSYM    DATA     BYTE      LFO0CN
      000000ABH   SFRSYM    DATA     BYTE      CMP1MD
      000000D8H   SFRSYM    DATA     BIT       PCA0CN0_CCF0
      000000E0H.5 SFRSYM    DATA     BIT       ACC_ACC5
      000000B5H   SFRSYM    DATA     BYTE      USB0CF
      00000098H.2 SFRSYM    DATA     BIT       TMR4CN0_TR4
      000000D8H.1 SFRSYM    DATA     BIT       PCA0CN0_CCF1
      000000E0H.6 SFRSYM    DATA     BIT       ACC_ACC6
LX51 LINKER/LOCATER V4.66.30.0                                                        03/28/2016  20:19:13  PAGE 72


      000000CCH   SFRSYM    DATA     WORD      TMR2
      0000009AH   SFRSYM    DATA     BYTE      SPI0FCN0
      000000D8H.2 SFRSYM    DATA     BIT       PCA0CN0_CCF2
      000000E0H.7 SFRSYM    DATA     BIT       ACC_ACC7
      00000094H   SFRSYM    DATA     WORD      TMR3
      0000009BH   SFRSYM    DATA     BYTE      SPI0FCN1
      000000A4H   SFRSYM    DATA     WORD      TMR4
      00000094H   SFRSYM    DATA     BYTE      SBCON1
      000000C0H.3 SFRSYM    DATA     BIT       SMB0CN0_ACKRQ
      000000FFH   SFRSYM    DATA     BYTE      VDM0CN
      000000F1H   SFRSYM    DATA     BYTE      P0MDIN
      00000098H.4 SFRSYM    DATA     BIT       SCON0_REN
      000000ACH   SFRSYM    DATA     BYTE      SMB0TC
      000000F2H   SFRSYM    DATA     BYTE      P1MDIN
      000000C8H.4 SFRSYM    DATA     BIT       SCON1_REN
      000000F3H   SFRSYM    DATA     BYTE      P2MDIN
      000000C0H.4 SFRSYM    DATA     BIT       SMB0CN0_STO
      000000B6H   SFRSYM    DATA     BYTE      USB0CDCF
      000000F4H   SFRSYM    DATA     BYTE      P3MDIN
      000000B9H   SFRSYM    DATA     BYTE      I2C0STAT
      000000BBH   SFRSYM    DATA     BYTE      I2C0DOUT
      00000096H   SFRSYM    DATA     BYTE      SBRLH1
      000000FEH   SFRSYM    DATA     BYTE      P0MASK
      000000D8H.5 SFRSYM    DATA     BIT       UART1FCN1_TXHOLD
      000000EEH   SFRSYM    DATA     BYTE      P1MASK
      000000FCH   SFRSYM    DATA     BYTE      P2MASK
      000000D0H.3 SFRSYM    DATA     BIT       PSW_RS0
      000000D8H.7 SFRSYM    DATA     BIT       PCA0CN0_CF
      0000009EH   SFRSYM    DATA     BYTE      PCA0CENT
      000000BAH   SFRSYM    DATA     BYTE      I2C0CN0
      000000D2H   SFRSYM    DATA     BYTE      CRC0ST
      000000F8H.4 SFRSYM    DATA     BIT       SPI0CN0_RXOVRN
      000000D0H.4 SFRSYM    DATA     BIT       PSW_RS1
      00000095H   SFRSYM    DATA     BYTE      SBRLL1
      000000C8H.2 SFRSYM    DATA     BIT       SCON1_RBX
      000000C8H   SFRSYM    DATA     BIT       TMR2CN0_T2XCLK0
      000000C8H.1 SFRSYM    DATA     BIT       TMR2CN0_T2XCLK1
      000000C8H.3 SFRSYM    DATA     BIT       SCON1_TBX
      000000E8H.7 SFRSYM    DATA     BIT       ADC0CN0_ADEN
      000000BEH   SFRSYM    DATA     BYTE      USB0CDCN
      00000089H   SFRSYM    DATA     BYTE      TMOD
      00000088H   SFRSYM    DATA     BYTE      TCON
      000000CFH   SFRSYM    DATA     BYTE      CRC0FLIP
      000000D0H   SFRSYM    DATA     BIT       PSW_PARITY
      000000A8H.4 SFRSYM    DATA     BIT       IE_ES0
      0000009FH   SFRSYM    DATA     BYTE      CMP0MX
      00000098H   SFRSYM    DATA     BIT       TMR4CN0_T4XCLK0
      000000A8H.1 SFRSYM    DATA     BIT       IE_ET0
      000000AAH   SFRSYM    DATA     BYTE      CMP1MX
      00000098H.1 SFRSYM    DATA     BIT       TMR4CN0_T4XCLK1
      000000A8H.3 SFRSYM    DATA     BIT       IE_ET1
      000000D4H   SFRSYM    DATA     BYTE      P0SKIP
      000000D8H   SFRSYM    DATA     BIT       UART1FCN1_RIE
      000000A8H.5 SFRSYM    DATA     BIT       IE_ET2
      000000D5H   SFRSYM    DATA     BYTE      P1SKIP
      000000CCH   SFRSYM    DATA     BYTE      P2SKIP
      000000E8H   SFRSYM    DATA     BYTE      ADC0CN0
      000000D8H.4 SFRSYM    DATA     BIT       UART1FCN1_TIE
      000000A8H   SFRSYM    DATA     BIT       IE_EX0
      000000B2H   SFRSYM    DATA     BYTE      ADC0CN1
      000000D8H.6 SFRSYM    DATA     BIT       PCA0CN0_CR
      000000A8H.2 SFRSYM    DATA     BIT       IE_EX1
LX51 LINKER/LOCATER V4.66.30.0                                                        03/28/2016  20:19:13  PAGE 73


      000000C8H.7 SFRSYM    DATA     BIT       SCON1_OVR
      00000098H.7 SFRSYM    DATA     BIT       SCON0_SMODE
      000000B5H   SFRSYM    DATA     BYTE      DEVICEID
      000000A9H   SFRSYM    DATA     BYTE      CLKSEL
      000000F8H   SFRSYM    DATA     BIT       SPI0CN0_SPIEN
      000000F0H   SFRSYM    DATA     BYTE      B
      000000BEH   SFRSYM    DATA     BYTE      ADC0H
      000000E8H.6 SFRSYM    DATA     BIT       ADC0CN0_ADBMEN
      000000CAH   SFRSYM    DATA     WORD      TMR2RL
      000000BDH   SFRSYM    DATA     BYTE      ADC0L
      00000092H   SFRSYM    DATA     WORD      TMR3RL
      000000A2H   SFRSYM    DATA     WORD      TMR4RL
      000000D8H   SFRSYM    DATA     BYTE      PCA0CN0
      000000E0H   SFRSYM    DATA     BYTE      ACC
      000000FBH   SFRSYM    DATA     WORD      PCA0CP0
      000000E9H   SFRSYM    DATA     WORD      PCA0CP1
      000000EBH   SFRSYM    DATA     WORD      PCA0CP2
      000000BCH   SFRSYM    DATA     BYTE      I2C0DIN
      000000CEH   SFRSYM    DATA     BYTE      CRC0CN0
      0000008CH   SFRSYM    DATA     BYTE      TH0
      00000086H   SFRSYM    DATA     BYTE      CRC0CN1
      000000B8H.4 SFRSYM    DATA     BIT       IP_PS0
      000000FAH   SFRSYM    DATA     BYTE      UART1FCT
      0000008DH   SFRSYM    DATA     BYTE      TH1
      000000FAH   SFRSYM    DATA     BYTE      PCA0H
      000000F5H   SFRSYM    DATA     BYTE      I2C0FCT
      000000B8H.1 SFRSYM    DATA     BIT       IP_PT0
      000000B8H.3 SFRSYM    DATA     BIT       IP_PT1
      000000C0H.2 SFRSYM    DATA     BIT       SMB0CN0_ARBLOST
      000000B8H.5 SFRSYM    DATA     BIT       IP_PT2
      0000008AH   SFRSYM    DATA     BYTE      TL0
      00000080H.3 SFRSYM    DATA     BIT       U2F_BUTTON_VAL
      000000D0H.5 SFRSYM    DATA     BIT       PSW_F0
      000000A8H.6 SFRSYM    DATA     BIT       IE_ESPI0
      0000008BH   SFRSYM    DATA     BYTE      TL1
      000000F9H   SFRSYM    DATA     BYTE      PCA0L
      000000C0H   SFRSYM    DATA     BIT       SMB0CN0_SI
      000000D0H.1 SFRSYM    DATA     BIT       PSW_F1
      00000080H   SFRSYM    DATA     BIT       P0_B0
      000000B8H   SFRSYM    DATA     BIT       IP_PX0
      00000090H   SFRSYM    DATA     BIT       P1_B0
      00000080H.1 SFRSYM    DATA     BIT       P0_B1
      000000B8H.2 SFRSYM    DATA     BIT       IP_PX1
      0000009EH   SFRSYM    DATA     BYTE      UART1LIN
      0000009BH   SFRSYM    DATA     BYTE      CMP0CN0
      00000088H.1 SFRSYM    DATA     BIT       TCON_IE0
      000000A0H   SFRSYM    DATA     BIT       P2_B0
      00000090H.1 SFRSYM    DATA     BIT       P1_B1
      00000080H.2 SFRSYM    DATA     BIT       P0_B2
      000000BFH   SFRSYM    DATA     BYTE      CMP1CN0
      00000099H   SFRSYM    DATA     BYTE      CMP0CN1
      00000088H.3 SFRSYM    DATA     BIT       TCON_IE1
      000000B0H   SFRSYM    DATA     BIT       P3_B0
      000000A0H.1 SFRSYM    DATA     BIT       P2_B1
      00000090H.2 SFRSYM    DATA     BIT       P1_B2
      00000080H.3 SFRSYM    DATA     BIT       P0_B3
      000000C0H   SFRSYM    DATA     BYTE      SMB0CN0
      000000ACH   SFRSYM    DATA     BYTE      CMP1CN1
      000000B0H.1 SFRSYM    DATA     BIT       P3_B1
      000000A0H.2 SFRSYM    DATA     BIT       P2_B2
      00000090H.3 SFRSYM    DATA     BIT       P1_B3
      00000080H.4 SFRSYM    DATA     BIT       P0_B4
LX51 LINKER/LOCATER V4.66.30.0                                                        03/28/2016  20:19:13  PAGE 74


      000000A0H.3 SFRSYM    DATA     BIT       P2_B3
      00000090H.4 SFRSYM    DATA     BIT       P1_B4
      00000080H.5 SFRSYM    DATA     BIT       P0_B5
      000000D8H.1 SFRSYM    DATA     BIT       UART1FCN1_RXTO0
      00000090H.5 SFRSYM    DATA     BIT       P1_B5
      00000080H.6 SFRSYM    DATA     BIT       P0_B6
      000000F5H   SFRSYM    DATA     BYTE      EIP1H
      000000D8H.2 SFRSYM    DATA     BIT       UART1FCN1_RXTO1
      00000090H.6 SFRSYM    DATA     BIT       P1_B6
      00000080H.7 SFRSYM    DATA     BIT       P0_B7
      000000C5H   SFRSYM    DATA     BYTE      SMB0RXLN
      000000F6H   SFRSYM    DATA     BYTE      EIP2H
      00000090H.7 SFRSYM    DATA     BIT       P1_B7
      00000083H   SFRSYM    DATA     BYTE      DPH
      000000C4H   SFRSYM    DATA     BYTE      ADC0GTH
      000000C8H.7 SFRSYM    DATA     BIT       TMR2CN0_TF2H
      000000C8H.3 SFRSYM    DATA     BIT       TMR2CN0_T2SPLIT
      000000D0H.6 SFRSYM    DATA     BIT       PSW_AC
      000000F8H   SFRSYM    DATA     BYTE      SPI0CN0
      000000C7H   SFRSYM    DATA     BYTE      HFO0CAL
      00000088H.5 SFRSYM    DATA     BIT       TCON_TF0
      00000098H   SFRSYM    DATA     BIT       SCON0_RI
      000000D6H   SFRSYM    DATA     BYTE      HFO1CAL
      00000082H   SFRSYM    DATA     BYTE      DPL
      00000088H.7 SFRSYM    DATA     BIT       TCON_TF1
      000000C8H   SFRSYM    DATA     BIT       SCON1_RI
      00000099H   SFRSYM    DATA     BYTE      SBUF0
      00000087H   SFRSYM    DATA     BYTE      PCON0
      000000F2H   SFRSYM    DATA     BYTE      IPH
      000000C3H   SFRSYM    DATA     BYTE      ADC0GTL
      00000098H.7 SFRSYM    DATA     BIT       TMR4CN0_TF4H
      00000098H.3 SFRSYM    DATA     BIT       TMR4CN0_T4SPLIT
      000000C8H.6 SFRSYM    DATA     BIT       TMR2CN0_TF2L
      00000098H.1 SFRSYM    DATA     BIT       SCON0_TI
      000000E8H   SFRSYM    DATA     BIT       ADC0CN0_ADCM0
      00000092H   SFRSYM    DATA     BYTE      SBUF1
      0000009AH   SFRSYM    DATA     BYTE      PCON1
      000000C6H   SFRSYM    DATA     BYTE      ADC0LTH
      00000088H   SFRSYM    DATA     BIT       TCON_IT0
      000000C8H.1 SFRSYM    DATA     BIT       SCON1_TI
      000000E8H.1 SFRSYM    DATA     BIT       ADC0CN0_ADCM1
      000000EFH   SFRSYM    DATA     BYTE      RSTSRC
      000000FDH   SFRSYM    DATA     BYTE      P0MAT
      000000DEH   SFRSYM    DATA     BYTE      CRC0DAT
      00000088H.2 SFRSYM    DATA     BIT       TCON_IT1
      000000E8H.2 SFRSYM    DATA     BIT       ADC0CN0_ADCM2
      000000D7H   SFRSYM    DATA     BYTE      SFRSTACK
      00000098H   SFRSYM    DATA     BYTE      SCON0
      000000F6H   SFRSYM    DATA     BYTE      PRTDRV
      000000EDH   SFRSYM    DATA     BYTE      P1MAT
      000000E8H.3 SFRSYM    DATA     BIT       ADC0CN0_ADWINT
      00000095H   SFRSYM    DATA     WORD      SBRL1
      000000B2H   SFRSYM    DATA     BYTE      USB0AEC
      00000093H   SFRSYM    DATA     BYTE      SMOD1
      000000C8H   SFRSYM    DATA     BYTE      SCON1
      000000FBH   SFRSYM    DATA     BYTE      P2MAT
      00000098H.6 SFRSYM    DATA     BIT       TMR4CN0_TF4L
      000000E8H.4 SFRSYM    DATA     BIT       ADC0CN0_ADBUSY
      000000D6H   SFRSYM    DATA     BYTE      SMB0ADM
      000000C5H   SFRSYM    DATA     BYTE      ADC0LTL
      000000F8H.5 SFRSYM    DATA     BIT       SPI0CN0_MODF
      000000B8H.6 SFRSYM    DATA     BIT       IP_PSPI0
LX51 LINKER/LOCATER V4.66.30.0                                                        03/28/2016  20:19:13  PAGE 75


      0000009CH   SFRSYM    DATA     BYTE      PCA0CLR
      000000C8H   SFRSYM    DATA     BYTE      TMR2CN0
      00000091H   SFRSYM    DATA     BYTE      TMR3CN0
      000000FDH   SFRSYM    DATA     BYTE      TMR2CN1
      00000098H   SFRSYM    DATA     BYTE      TMR4CN0
      000000FEH   SFRSYM    DATA     BYTE      TMR3CN1
      000000FFH   SFRSYM    DATA     BYTE      TMR4CN1
      000000D7H   SFRSYM    DATA     BYTE      SMB0ADR
      00000088H.4 SFRSYM    DATA     BIT       TCON_TR0
      000000C8H.4 SFRSYM    DATA     BIT       TMR2CN0_TF2CEN
      00000088H.6 SFRSYM    DATA     BIT       TCON_TR1
      000000C2H   SFRSYM    DATA     BYTE      SMB0DAT
      000000CDH   SFRSYM    DATA     BYTE      TMR2H
      000000A1H   SFRSYM    DATA     BYTE      SPI0CFG
      00000095H   SFRSYM    DATA     BYTE      TMR3H
      000000EFH   SFRSYM    DATA     BYTE      HFOCN
      000000D3H   SFRSYM    DATA     BYTE      CRC0CNT
      000000A5H   SFRSYM    DATA     BYTE      TMR4H
      00000098H.4 SFRSYM    DATA     BIT       TMR4CN0_TF4CEN
      000000EFH   SFRSYM    DATA     BYTE      SMB0FCT
      00000096H   SFRSYM    DATA     BYTE      PCA0POL
      000000CCH   SFRSYM    DATA     BYTE      TMR2L
      000000F8H.7 SFRSYM    DATA     BIT       SPI0CN0_SPIF
      000000AEH   SFRSYM    DATA     BYTE      USB0ADR
      00000094H   SFRSYM    DATA     BYTE      TMR3L
      000000DFH   SFRSYM    DATA     BYTE      ADC0PWR
      000000A8H.7 SFRSYM    DATA     BIT       IE_EA
      000000A4H   SFRSYM    DATA     BYTE      TMR4L
      000000AFH   SFRSYM    DATA     BYTE      USB0DAT
      000000C8H.5 SFRSYM    DATA     BIT       TMR2CN0_TF2LEN
      000000F8H.6 SFRSYM    DATA     BIT       SPI0CN0_WCOL
      00000090H   SFRSYM    DATA     BIT       LED_B
      000000F8H.2 SFRSYM    DATA     BIT       SPI0CN0_NSSMD0
      000000D0H.7 SFRSYM    DATA     BIT       PSW_CY
      0000009DH   SFRSYM    DATA     BYTE      UART1FCN0
      000000A3H   SFRSYM    DATA     BYTE      SPI0DAT
      000000ADH   SFRSYM    DATA     BYTE      I2C0FCN0
      000000F8H.3 SFRSYM    DATA     BIT       SPI0CN0_NSSMD1
      000000BDH   SFRSYM    DATA     WORD      ADC0
      000000D8H   SFRSYM    DATA     BYTE      UART1FCN1
      000000ABH   SFRSYM    DATA     BYTE      I2C0FCN1
      00000098H.5 SFRSYM    DATA     BIT       TMR4CN0_TF4LEN
      000000D0H   SFRSYM    DATA     BYTE      PSW
      000000F7H   SFRSYM    DATA     BYTE      PCA0PWM
      000000F7H   SFRSYM    DATA     BYTE      SPI0FCT
      000000B6H   SFRSYM    DATA     BYTE      REVID
      00000080H.6 SFRSYM    DATA     BIT       LED_G
      000000B7H   SFRSYM    DATA     BYTE      FLKEY
      000000B3H   SFRSYM    DATA     BYTE      ADC0AC
      01001EB2H   SYMBOL    CODE     ---       _dump_signature_der
      01002C22H   SYMBOL    CODE     ---       _?ix1000
      01002C24H   SYMBOL    CODE     ---       _?ix1001
      01001153H   SYMBOL    CODE     ---       _u2f_register
      0100394EH   SYMBOL    CODE     ---       _get_signature_length
      0100162CH   SYMBOL    CODE     ---       _u2f_authenticate
      01003A71H   SYMBOL    CODE     ---       u2f_version

      01000003H   BLOCK     CODE     ---       LVL=0
      ---         BLOCKEND  ---      ---       LVL=0

      01002010H   BLOCK     CODE     ---       LVL=0
      02000052H   SYMBOL    XDATA    ---       req
LX51 LINKER/LOCATER V4.66.30.0                                                        03/28/2016  20:19:13  PAGE 76


      01002016H   BLOCK     CODE     NEAR LAB  LVL=1
      02000055H   SYMBOL    XDATA    ---       rcode
      ---         BLOCKEND  ---      ---       LVL=1
      01002010H   LINE      CODE     ---       #20
      01002016H   LINE      CODE     ---       #21
      01002016H   LINE      CODE     ---       #22
      0100201CH   LINE      CODE     ---       #23
      0100201FH   LINE      CODE     ---       #24
      0100203EH   LINE      CODE     ---       #25
      0100203EH   LINE      CODE     ---       #26
      0100203EH   LINE      CODE     ---       #27
      01002042H   LINE      CODE     ---       #28
      01002048H   LINE      CODE     ---       #29
      0100204AH   LINE      CODE     ---       #30
      0100204AH   LINE      CODE     ---       #31
      0100204EH   LINE      CODE     ---       #32
      0100206DH   LINE      CODE     ---       #33
      0100206FH   LINE      CODE     ---       #34
      0100206FH   LINE      CODE     ---       #35
      01002078H   LINE      CODE     ---       #36
      01002087H   LINE      CODE     ---       #37
      01002089H   LINE      CODE     ---       #38
      01002089H   LINE      CODE     ---       #39
      0100208FH   LINE      CODE     ---       #40
      01002091H   LINE      CODE     ---       #41
      01002091H   LINE      CODE     ---       #42
      0100209AH   LINE      CODE     ---       #43
      0100209AH   LINE      CODE     ---       #44
      0100209AH   LINE      CODE     ---       #45
      0100209AH   LINE      CODE     ---       #46
      0100209AH   LINE      CODE     ---       #47
      010020A7H   LINE      CODE     ---       #48
      010020AAH   LINE      CODE     ---       #49
      ---         BLOCKEND  ---      ---       LVL=0

      0100394EH   BLOCK     CODE     ---       LVL=0
      00000001H   SYMBOL    DATA     ---       sig
      0100394EH   LINE      CODE     ---       #51
      0100394EH   LINE      CODE     ---       #52
      0100394EH   LINE      CODE     ---       #53
      0100396CH   LINE      CODE     ---       #54
      ---         BLOCKEND  ---      ---       LVL=0

      01001EB2H   BLOCK     CODE     ---       LVL=0
      020000A3H   SYMBOL    XDATA    ---       sig
      01001EB8H   BLOCK     CODE     NEAR LAB  LVL=1
      020000A6H   SYMBOL    XDATA    BYTE      pad_s
      020000A7H   SYMBOL    XDATA    BYTE      pad_r
      020000A8H   SYMBOL    XDATA    ---       i
      ---         BLOCKEND  ---      ---       LVL=1
      01001EB2H   LINE      CODE     ---       #56
      01001EB8H   LINE      CODE     ---       #57
      01001EB8H   LINE      CODE     ---       #58
      01001ECAH   LINE      CODE     ---       #59
      01001EDFH   LINE      CODE     ---       #60
      01001EEAH   LINE      CODE     ---       #61
      01001EFBH   LINE      CODE     ---       #67
      01001F08H   LINE      CODE     ---       #68
      01001F0DH   LINE      CODE     ---       #71
      01001F11H   LINE      CODE     ---       #72
      01001F19H   LINE      CODE     ---       #73
      01001F19H   LINE      CODE     ---       #76
LX51 LINKER/LOCATER V4.66.30.0                                                        03/28/2016  20:19:13  PAGE 77


      01001F23H   LINE      CODE     ---       #79
      01001F28H   LINE      CODE     ---       #80
      01001F32H   LINE      CODE     ---       #81
      01001F32H   LINE      CODE     ---       #84
      01001F3DH   LINE      CODE     ---       #85
      ---         BLOCKEND  ---      ---       LVL=0

      0100162CH   BLOCK     CODE     ---       LVL=0
      02000058H   SYMBOL    XDATA    ---       req
      0200005BH   SYMBOL    XDATA    BYTE      control
      01001637H   BLOCK     CODE     NEAR LAB  LVL=1
      0200005CH   SYMBOL    XDATA    BYTE      up
      0200005DH   SYMBOL    XDATA    DWORD     count
      ---         BLOCKEND  ---      ---       LVL=1
      0100162CH   LINE      CODE     ---       #88
      01001637H   LINE      CODE     ---       #89
      01001637H   LINE      CODE     ---       #91
      0100163DH   LINE      CODE     ---       #93
      01001660H   LINE      CODE     ---       #94
      01001660H   LINE      CODE     ---       #95
      01001667H   LINE      CODE     ---       #96
      01001669H   LINE      CODE     ---       #97
      01001669H   LINE      CODE     ---       #98
      01001670H   LINE      CODE     ---       #99
      01001670H   LINE      CODE     ---       #100
      01001677H   LINE      CODE     ---       #101
      0100167CH   LINE      CODE     ---       #102
      0100167CH   LINE      CODE     ---       #104
      01001685H   LINE      CODE     ---       #106
      01001688H   LINE      CODE     ---       #107
      01001691H   LINE      CODE     ---       #108
      0100169CH   LINE      CODE     ---       #109
      010016A7H   LINE      CODE     ---       #110
      010016AFH   LINE      CODE     ---       #112
      010016B2H   LINE      CODE     ---       #114
      010016CBH   LINE      CODE     ---       #115
      010016CBH   LINE      CODE     ---       #116
      010016D0H   LINE      CODE     ---       #117
      010016D0H   LINE      CODE     ---       #119
      010016E0H   LINE      CODE     ---       #121
      010016EDH   LINE      CODE     ---       #122
      010016FAH   LINE      CODE     ---       #123
      01001700H   LINE      CODE     ---       #125
      01001704H   LINE      CODE     ---       #126
      ---         BLOCKEND  ---      ---       LVL=0

      01001153H   BLOCK     CODE     ---       LVL=0
      02000058H   SYMBOL    XDATA    ---       req
      01001159H   BLOCK     CODE     NEAR LAB  LVL=1
      0200005BH   SYMBOL    XDATA    ---       i
      0200005DH   SYMBOL    XDATA    ---       key_handle
      02000061H   SYMBOL    XDATA    ---       pubkey
      020000A1H   SYMBOL    XDATA    WORD      attest_size
      ---         BLOCKEND  ---      ---       LVL=1
      01001153H   LINE      CODE     ---       #128
      01001159H   LINE      CODE     ---       #129
      01001159H   LINE      CODE     ---       #130
      01001164H   LINE      CODE     ---       #136
      0100116FH   LINE      CODE     ---       #138
      01001175H   LINE      CODE     ---       #139
      01001175H   LINE      CODE     ---       #140
      01001177H   LINE      CODE     ---       #141
LX51 LINKER/LOCATER V4.66.30.0                                                        03/28/2016  20:19:13  PAGE 78


      01001177H   LINE      CODE     ---       #143
      0100118AH   LINE      CODE     ---       #144
      0100118AH   LINE      CODE     ---       #145
      0100118FH   LINE      CODE     ---       #146
      0100118FH   LINE      CODE     ---       #148
      01001192H   LINE      CODE     ---       #149
      0100119AH   LINE      CODE     ---       #150
      010011A0H   LINE      CODE     ---       #152
      010011A8H   LINE      CODE     ---       #154
      010011B3H   LINE      CODE     ---       #155
      010011BEH   LINE      CODE     ---       #156
      010011C6H   LINE      CODE     ---       #157
      010011C9H   LINE      CODE     ---       #159
      010011DEH   LINE      CODE     ---       #160
      010011DEH   LINE      CODE     ---       #161
      010011E3H   LINE      CODE     ---       #162
      010011E3H   LINE      CODE     ---       #164
      010011FEH   LINE      CODE     ---       #165
      01001204H   LINE      CODE     ---       #166
      01001209H   LINE      CODE     ---       #167
      01001213H   LINE      CODE     ---       #168
      01001219H   LINE      CODE     ---       #169
      0100121EH   LINE      CODE     ---       #170
      0100122BH   LINE      CODE     ---       #172
      01001244H   LINE      CODE     ---       #174
      0100124AH   LINE      CODE     ---       #177
      0100124EH   LINE      CODE     ---       #178
      ---         BLOCKEND  ---      ---       LVL=0

      01003A71H   BLOCK     CODE     ---       LVL=0
      01003A71H   BLOCK     CODE     NEAR LAB  LVL=1
      01002C26H   SYMBOL    CODE     ---       version
      ---         BLOCKEND  ---      ---       LVL=1
      01003A71H   LINE      CODE     ---       #180
      01003A71H   LINE      CODE     ---       #181
      01003A71H   LINE      CODE     ---       #183
      01003A78H   LINE      CODE     ---       #184
      01003A85H   LINE      CODE     ---       #185
      01003A89H   LINE      CODE     ---       #186
      ---         BLOCKEND  ---      ---       LVL=0

      ---         MODULE    ---      ---       U2F_HID
      02000126H   PUBLIC    XDATA    ---       CIDS
      01001265H   PUBLIC    CODE     ---       _u2f_hid_request
      010017DDH   PUBLIC    CODE     ---       _u2f_hid_writeback
      01003C05H   PUBLIC    CODE     ---       u2f_hid_flush
      01003D69H   PUBLIC    CODE     ---       _u2f_hid_set_len
      010037AEH   PUBLIC    CODE     ---       u2f_hid_init
      000000A2H   SFRSYM    DATA     BYTE      SPI0CKR
      00000080H   SFRSYM    DATA     BYTE      P0
      000000C8H.6 SFRSYM    DATA     BIT       SCON1_PERR
      000000D0H.2 SFRSYM    DATA     BIT       PSW_OV
      00000090H   SFRSYM    DATA     BYTE      P1
      000000F8H.1 SFRSYM    DATA     BIT       SPI0CN0_TXNF
      00000097H   SFRSYM    DATA     BYTE      WDTCN
      000000A0H   SFRSYM    DATA     BYTE      P2
      000000B0H   SFRSYM    DATA     BYTE      P3
      000000BCH   SFRSYM    DATA     BYTE      ADC0CF
      000000C0H.7 SFRSYM    DATA     BIT       SMB0CN0_MASTER
      000000F9H   SFRSYM    DATA     WORD      PCA0
      000000E6H   SFRSYM    DATA     BYTE      EIE1
      000000C0H.1 SFRSYM    DATA     BIT       SMB0CN0_ACK
LX51 LINKER/LOCATER V4.66.30.0                                                        03/28/2016  20:19:13  PAGE 79


      000000B3H   SFRSYM    DATA     BYTE      USB0XCN
      000000CEH   SFRSYM    DATA     BYTE      EIE2
      00000080H.7 SFRSYM    DATA     BIT       LED_R
      0000008FH   SFRSYM    DATA     BYTE      PSCTL
      000000E4H   SFRSYM    DATA     BYTE      IT01CF
      000000C0H.6 SFRSYM    DATA     BIT       SMB0CN0_TXMODE
      000000ADH   SFRSYM    DATA     BYTE      DERIVID
      000000A7H   SFRSYM    DATA     BYTE      SFRPAGE
      000000A4H   SFRSYM    DATA     BYTE      P0MDOUT
      00000080H.2 SFRSYM    DATA     BIT       U2F_BUTTON
      000000BFH   SFRSYM    DATA     BYTE      USB0CDSTA
      000000A5H   SFRSYM    DATA     BYTE      P1MDOUT
      000000E8H.5 SFRSYM    DATA     BIT       ADC0CN0_ADINT
      000000CBH   SFRSYM    DATA     BYTE      TMR2RLH
      000000A6H   SFRSYM    DATA     BYTE      P2MDOUT
      000000A8H   SFRSYM    DATA     BYTE      IE
      00000093H   SFRSYM    DATA     BYTE      TMR3RLH
      0000009CH   SFRSYM    DATA     BYTE      P3MDOUT
      000000A3H   SFRSYM    DATA     BYTE      TMR4RLH
      000000F3H   SFRSYM    DATA     BYTE      EIP1
      000000F4H   SFRSYM    DATA     BYTE      EIP2
      00000098H.2 SFRSYM    DATA     BIT       SCON0_RB8
      000000CAH   SFRSYM    DATA     BYTE      TMR2RLL
      000000FCH   SFRSYM    DATA     BYTE      PCA0CPH0
      00000092H   SFRSYM    DATA     BYTE      TMR3RLL
      000000EAH   SFRSYM    DATA     BYTE      PCA0CPH1
      00000098H.3 SFRSYM    DATA     BIT       SCON0_TB8
      000000F0H   SFRSYM    DATA     BIT       B_B0
      00000082H   SFRSYM    DATA     WORD      DP
      000000A2H   SFRSYM    DATA     BYTE      TMR4RLL
      000000ECH   SFRSYM    DATA     BYTE      PCA0CPH2
      000000F0H.1 SFRSYM    DATA     BIT       B_B1
      000000C3H   SFRSYM    DATA     WORD      ADC0GT
      000000BDH   SFRSYM    DATA     BYTE      I2C0SLAD
      000000D8H.3 SFRSYM    DATA     BIT       UART1FCN1_RFRQ
      000000F0H.2 SFRSYM    DATA     BIT       B_B2
      000000CFH   SFRSYM    DATA     BYTE      SFRPGCN
      000000FBH   SFRSYM    DATA     BYTE      PCA0CPL0
      000000F0H.3 SFRSYM    DATA     BIT       B_B3
      000000D9H   SFRSYM    DATA     BYTE      PCA0MD
      000000DAH   SFRSYM    DATA     BYTE      PCA0CPM0
      000000E9H   SFRSYM    DATA     BYTE      PCA0CPL1
      000000D8H.7 SFRSYM    DATA     BIT       UART1FCN1_TFRQ
      000000F0H.4 SFRSYM    DATA     BIT       B_B4
      000000DBH   SFRSYM    DATA     BYTE      PCA0CPM1
      000000EBH   SFRSYM    DATA     BYTE      PCA0CPL2
      000000F0H.5 SFRSYM    DATA     BIT       B_B5
      000000DCH   SFRSYM    DATA     BYTE      PCA0CPM2
      000000B8H   SFRSYM    DATA     BYTE      IP
      000000B9H   SFRSYM    DATA     BYTE      ADC0TK
      000000F0H.6 SFRSYM    DATA     BIT       B_B6
      000000C5H   SFRSYM    DATA     WORD      ADC0LT
      000000D8H.6 SFRSYM    DATA     BIT       UART1FCN1_TXNF
      00000098H.5 SFRSYM    DATA     BIT       SCON0_MCE
      000000F0H.7 SFRSYM    DATA     BIT       B_B7
      000000C3H   SFRSYM    DATA     BYTE      SMB0FCN0
      000000E1H   SFRSYM    DATA     BYTE      XBR0
      000000C4H   SFRSYM    DATA     BYTE      SMB0FCN1
      000000C1H   SFRSYM    DATA     BYTE      SMB0CF
      000000E2H   SFRSYM    DATA     BYTE      XBR1
      000000C1H   SFRSYM    DATA     BYTE      PFE0CN
      000000E7H   SFRSYM    DATA     BYTE      EMI0CN
LX51 LINKER/LOCATER V4.66.30.0                                                        03/28/2016  20:19:13  PAGE 80


      000000C0H.5 SFRSYM    DATA     BIT       SMB0CN0_STA
      000000E3H   SFRSYM    DATA     BYTE      XBR2
      000000BBH   SFRSYM    DATA     BYTE      ADC0MX
      000000E0H   SFRSYM    DATA     BIT       ACC_ACC0
      000000D1H   SFRSYM    DATA     BYTE      REF0CN
      0000008EH   SFRSYM    DATA     BYTE      CKCON0
      000000E0H.1 SFRSYM    DATA     BIT       ACC_ACC1
      000000C9H   SFRSYM    DATA     BYTE      REG0CN
      000000DDH   SFRSYM    DATA     BYTE      CRC0IN
      000000A6H   SFRSYM    DATA     BYTE      CKCON1
      000000C8H.2 SFRSYM    DATA     BIT       TMR2CN0_TR2
      000000E0H.2 SFRSYM    DATA     BIT       ACC_ACC2
      000000C6H   SFRSYM    DATA     BYTE      REG1CN
      000000E0H.3 SFRSYM    DATA     BIT       ACC_ACC3
      00000081H   SFRSYM    DATA     BYTE      SP
      0000009DH   SFRSYM    DATA     BYTE      CMP0MD
      000000E0H.4 SFRSYM    DATA     BIT       ACC_ACC4
      000000B1H   SFRSYM    DATA     BYTE      LFO0CN
      000000ABH   SFRSYM    DATA     BYTE      CMP1MD
      000000D8H   SFRSYM    DATA     BIT       PCA0CN0_CCF0
      000000E0H.5 SFRSYM    DATA     BIT       ACC_ACC5
      000000B5H   SFRSYM    DATA     BYTE      USB0CF
      00000098H.2 SFRSYM    DATA     BIT       TMR4CN0_TR4
      000000D8H.1 SFRSYM    DATA     BIT       PCA0CN0_CCF1
      000000E0H.6 SFRSYM    DATA     BIT       ACC_ACC6
      000000CCH   SFRSYM    DATA     WORD      TMR2
      0000009AH   SFRSYM    DATA     BYTE      SPI0FCN0
      000000D8H.2 SFRSYM    DATA     BIT       PCA0CN0_CCF2
      000000E0H.7 SFRSYM    DATA     BIT       ACC_ACC7
      00000094H   SFRSYM    DATA     WORD      TMR3
      0000009BH   SFRSYM    DATA     BYTE      SPI0FCN1
      000000A4H   SFRSYM    DATA     WORD      TMR4
      00000094H   SFRSYM    DATA     BYTE      SBCON1
      000000C0H.3 SFRSYM    DATA     BIT       SMB0CN0_ACKRQ
      000000FFH   SFRSYM    DATA     BYTE      VDM0CN
      000000F1H   SFRSYM    DATA     BYTE      P0MDIN
      00000098H.4 SFRSYM    DATA     BIT       SCON0_REN
      000000ACH   SFRSYM    DATA     BYTE      SMB0TC
      000000F2H   SFRSYM    DATA     BYTE      P1MDIN
      000000C8H.4 SFRSYM    DATA     BIT       SCON1_REN
      000000F3H   SFRSYM    DATA     BYTE      P2MDIN
      000000C0H.4 SFRSYM    DATA     BIT       SMB0CN0_STO
      000000B6H   SFRSYM    DATA     BYTE      USB0CDCF
      000000F4H   SFRSYM    DATA     BYTE      P3MDIN
      000000B9H   SFRSYM    DATA     BYTE      I2C0STAT
      000000BBH   SFRSYM    DATA     BYTE      I2C0DOUT
      00000096H   SFRSYM    DATA     BYTE      SBRLH1
      000000FEH   SFRSYM    DATA     BYTE      P0MASK
      000000D8H.5 SFRSYM    DATA     BIT       UART1FCN1_TXHOLD
      000000EEH   SFRSYM    DATA     BYTE      P1MASK
      000000FCH   SFRSYM    DATA     BYTE      P2MASK
      000000D0H.3 SFRSYM    DATA     BIT       PSW_RS0
      000000D8H.7 SFRSYM    DATA     BIT       PCA0CN0_CF
      0000009EH   SFRSYM    DATA     BYTE      PCA0CENT
      000000BAH   SFRSYM    DATA     BYTE      I2C0CN0
      000000D2H   SFRSYM    DATA     BYTE      CRC0ST
      000000F8H.4 SFRSYM    DATA     BIT       SPI0CN0_RXOVRN
      000000D0H.4 SFRSYM    DATA     BIT       PSW_RS1
      00000095H   SFRSYM    DATA     BYTE      SBRLL1
      000000C8H.2 SFRSYM    DATA     BIT       SCON1_RBX
      000000C8H   SFRSYM    DATA     BIT       TMR2CN0_T2XCLK0
      000000C8H.1 SFRSYM    DATA     BIT       TMR2CN0_T2XCLK1
LX51 LINKER/LOCATER V4.66.30.0                                                        03/28/2016  20:19:13  PAGE 81


      000000C8H.3 SFRSYM    DATA     BIT       SCON1_TBX
      000000E8H.7 SFRSYM    DATA     BIT       ADC0CN0_ADEN
      000000BEH   SFRSYM    DATA     BYTE      USB0CDCN
      00000089H   SFRSYM    DATA     BYTE      TMOD
      00000088H   SFRSYM    DATA     BYTE      TCON
      000000CFH   SFRSYM    DATA     BYTE      CRC0FLIP
      000000D0H   SFRSYM    DATA     BIT       PSW_PARITY
      000000A8H.4 SFRSYM    DATA     BIT       IE_ES0
      0000009FH   SFRSYM    DATA     BYTE      CMP0MX
      00000098H   SFRSYM    DATA     BIT       TMR4CN0_T4XCLK0
      000000A8H.1 SFRSYM    DATA     BIT       IE_ET0
      000000AAH   SFRSYM    DATA     BYTE      CMP1MX
      00000098H.1 SFRSYM    DATA     BIT       TMR4CN0_T4XCLK1
      000000A8H.3 SFRSYM    DATA     BIT       IE_ET1
      000000D4H   SFRSYM    DATA     BYTE      P0SKIP
      000000D8H   SFRSYM    DATA     BIT       UART1FCN1_RIE
      000000A8H.5 SFRSYM    DATA     BIT       IE_ET2
      000000D5H   SFRSYM    DATA     BYTE      P1SKIP
      000000CCH   SFRSYM    DATA     BYTE      P2SKIP
      000000E8H   SFRSYM    DATA     BYTE      ADC0CN0
      000000D8H.4 SFRSYM    DATA     BIT       UART1FCN1_TIE
      000000A8H   SFRSYM    DATA     BIT       IE_EX0
      000000B2H   SFRSYM    DATA     BYTE      ADC0CN1
      000000D8H.6 SFRSYM    DATA     BIT       PCA0CN0_CR
      000000A8H.2 SFRSYM    DATA     BIT       IE_EX1
      000000C8H.7 SFRSYM    DATA     BIT       SCON1_OVR
      00000098H.7 SFRSYM    DATA     BIT       SCON0_SMODE
      000000B5H   SFRSYM    DATA     BYTE      DEVICEID
      000000A9H   SFRSYM    DATA     BYTE      CLKSEL
      000000F8H   SFRSYM    DATA     BIT       SPI0CN0_SPIEN
      000000F0H   SFRSYM    DATA     BYTE      B
      000000BEH   SFRSYM    DATA     BYTE      ADC0H
      000000E8H.6 SFRSYM    DATA     BIT       ADC0CN0_ADBMEN
      000000CAH   SFRSYM    DATA     WORD      TMR2RL
      000000BDH   SFRSYM    DATA     BYTE      ADC0L
      00000092H   SFRSYM    DATA     WORD      TMR3RL
      000000A2H   SFRSYM    DATA     WORD      TMR4RL
      000000D8H   SFRSYM    DATA     BYTE      PCA0CN0
      000000E0H   SFRSYM    DATA     BYTE      ACC
      000000FBH   SFRSYM    DATA     WORD      PCA0CP0
      000000E9H   SFRSYM    DATA     WORD      PCA0CP1
      000000EBH   SFRSYM    DATA     WORD      PCA0CP2
      000000BCH   SFRSYM    DATA     BYTE      I2C0DIN
      000000CEH   SFRSYM    DATA     BYTE      CRC0CN0
      0000008CH   SFRSYM    DATA     BYTE      TH0
      00000086H   SFRSYM    DATA     BYTE      CRC0CN1
      000000B8H.4 SFRSYM    DATA     BIT       IP_PS0
      000000FAH   SFRSYM    DATA     BYTE      UART1FCT
      0000008DH   SFRSYM    DATA     BYTE      TH1
      000000FAH   SFRSYM    DATA     BYTE      PCA0H
      000000F5H   SFRSYM    DATA     BYTE      I2C0FCT
      000000B8H.1 SFRSYM    DATA     BIT       IP_PT0
      000000B8H.3 SFRSYM    DATA     BIT       IP_PT1
      000000C0H.2 SFRSYM    DATA     BIT       SMB0CN0_ARBLOST
      000000B8H.5 SFRSYM    DATA     BIT       IP_PT2
      0000008AH   SFRSYM    DATA     BYTE      TL0
      00000080H.3 SFRSYM    DATA     BIT       U2F_BUTTON_VAL
      000000D0H.5 SFRSYM    DATA     BIT       PSW_F0
      000000A8H.6 SFRSYM    DATA     BIT       IE_ESPI0
      0000008BH   SFRSYM    DATA     BYTE      TL1
      000000F9H   SFRSYM    DATA     BYTE      PCA0L
      000000C0H   SFRSYM    DATA     BIT       SMB0CN0_SI
LX51 LINKER/LOCATER V4.66.30.0                                                        03/28/2016  20:19:13  PAGE 82


      000000D0H.1 SFRSYM    DATA     BIT       PSW_F1
      00000080H   SFRSYM    DATA     BIT       P0_B0
      000000B8H   SFRSYM    DATA     BIT       IP_PX0
      00000090H   SFRSYM    DATA     BIT       P1_B0
      00000080H.1 SFRSYM    DATA     BIT       P0_B1
      000000B8H.2 SFRSYM    DATA     BIT       IP_PX1
      0000009EH   SFRSYM    DATA     BYTE      UART1LIN
      0000009BH   SFRSYM    DATA     BYTE      CMP0CN0
      00000088H.1 SFRSYM    DATA     BIT       TCON_IE0
      000000A0H   SFRSYM    DATA     BIT       P2_B0
      00000090H.1 SFRSYM    DATA     BIT       P1_B1
      00000080H.2 SFRSYM    DATA     BIT       P0_B2
      000000BFH   SFRSYM    DATA     BYTE      CMP1CN0
      00000099H   SFRSYM    DATA     BYTE      CMP0CN1
      00000088H.3 SFRSYM    DATA     BIT       TCON_IE1
      000000B0H   SFRSYM    DATA     BIT       P3_B0
      000000A0H.1 SFRSYM    DATA     BIT       P2_B1
      00000090H.2 SFRSYM    DATA     BIT       P1_B2
      00000080H.3 SFRSYM    DATA     BIT       P0_B3
      000000C0H   SFRSYM    DATA     BYTE      SMB0CN0
      000000ACH   SFRSYM    DATA     BYTE      CMP1CN1
      000000B0H.1 SFRSYM    DATA     BIT       P3_B1
      000000A0H.2 SFRSYM    DATA     BIT       P2_B2
      00000090H.3 SFRSYM    DATA     BIT       P1_B3
      00000080H.4 SFRSYM    DATA     BIT       P0_B4
      000000A0H.3 SFRSYM    DATA     BIT       P2_B3
      00000090H.4 SFRSYM    DATA     BIT       P1_B4
      00000080H.5 SFRSYM    DATA     BIT       P0_B5
      000000D8H.1 SFRSYM    DATA     BIT       UART1FCN1_RXTO0
      00000090H.5 SFRSYM    DATA     BIT       P1_B5
      00000080H.6 SFRSYM    DATA     BIT       P0_B6
      000000F5H   SFRSYM    DATA     BYTE      EIP1H
      000000D8H.2 SFRSYM    DATA     BIT       UART1FCN1_RXTO1
      00000090H.6 SFRSYM    DATA     BIT       P1_B6
      00000080H.7 SFRSYM    DATA     BIT       P0_B7
      000000C5H   SFRSYM    DATA     BYTE      SMB0RXLN
      000000F6H   SFRSYM    DATA     BYTE      EIP2H
      00000090H.7 SFRSYM    DATA     BIT       P1_B7
      00000083H   SFRSYM    DATA     BYTE      DPH
      000000C4H   SFRSYM    DATA     BYTE      ADC0GTH
      000000C8H.7 SFRSYM    DATA     BIT       TMR2CN0_TF2H
      000000C8H.3 SFRSYM    DATA     BIT       TMR2CN0_T2SPLIT
      000000D0H.6 SFRSYM    DATA     BIT       PSW_AC
      000000F8H   SFRSYM    DATA     BYTE      SPI0CN0
      000000C7H   SFRSYM    DATA     BYTE      HFO0CAL
      00000088H.5 SFRSYM    DATA     BIT       TCON_TF0
      00000098H   SFRSYM    DATA     BIT       SCON0_RI
      000000D6H   SFRSYM    DATA     BYTE      HFO1CAL
      00000082H   SFRSYM    DATA     BYTE      DPL
      00000088H.7 SFRSYM    DATA     BIT       TCON_TF1
      000000C8H   SFRSYM    DATA     BIT       SCON1_RI
      00000099H   SFRSYM    DATA     BYTE      SBUF0
      00000087H   SFRSYM    DATA     BYTE      PCON0
      000000F2H   SFRSYM    DATA     BYTE      IPH
      000000C3H   SFRSYM    DATA     BYTE      ADC0GTL
      00000098H.7 SFRSYM    DATA     BIT       TMR4CN0_TF4H
      00000098H.3 SFRSYM    DATA     BIT       TMR4CN0_T4SPLIT
      000000C8H.6 SFRSYM    DATA     BIT       TMR2CN0_TF2L
      00000098H.1 SFRSYM    DATA     BIT       SCON0_TI
      000000E8H   SFRSYM    DATA     BIT       ADC0CN0_ADCM0
      00000092H   SFRSYM    DATA     BYTE      SBUF1
      0000009AH   SFRSYM    DATA     BYTE      PCON1
LX51 LINKER/LOCATER V4.66.30.0                                                        03/28/2016  20:19:13  PAGE 83


      000000C6H   SFRSYM    DATA     BYTE      ADC0LTH
      00000088H   SFRSYM    DATA     BIT       TCON_IT0
      000000C8H.1 SFRSYM    DATA     BIT       SCON1_TI
      000000E8H.1 SFRSYM    DATA     BIT       ADC0CN0_ADCM1
      000000EFH   SFRSYM    DATA     BYTE      RSTSRC
      000000FDH   SFRSYM    DATA     BYTE      P0MAT
      000000DEH   SFRSYM    DATA     BYTE      CRC0DAT
      00000088H.2 SFRSYM    DATA     BIT       TCON_IT1
      000000E8H.2 SFRSYM    DATA     BIT       ADC0CN0_ADCM2
      000000D7H   SFRSYM    DATA     BYTE      SFRSTACK
      00000098H   SFRSYM    DATA     BYTE      SCON0
      000000F6H   SFRSYM    DATA     BYTE      PRTDRV
      000000EDH   SFRSYM    DATA     BYTE      P1MAT
      000000E8H.3 SFRSYM    DATA     BIT       ADC0CN0_ADWINT
      00000095H   SFRSYM    DATA     WORD      SBRL1
      000000B2H   SFRSYM    DATA     BYTE      USB0AEC
      00000093H   SFRSYM    DATA     BYTE      SMOD1
      000000C8H   SFRSYM    DATA     BYTE      SCON1
      000000FBH   SFRSYM    DATA     BYTE      P2MAT
      00000098H.6 SFRSYM    DATA     BIT       TMR4CN0_TF4L
      000000E8H.4 SFRSYM    DATA     BIT       ADC0CN0_ADBUSY
      000000D6H   SFRSYM    DATA     BYTE      SMB0ADM
      000000C5H   SFRSYM    DATA     BYTE      ADC0LTL
      000000F8H.5 SFRSYM    DATA     BIT       SPI0CN0_MODF
      000000B8H.6 SFRSYM    DATA     BIT       IP_PSPI0
      0000009CH   SFRSYM    DATA     BYTE      PCA0CLR
      000000C8H   SFRSYM    DATA     BYTE      TMR2CN0
      00000091H   SFRSYM    DATA     BYTE      TMR3CN0
      000000FDH   SFRSYM    DATA     BYTE      TMR2CN1
      00000098H   SFRSYM    DATA     BYTE      TMR4CN0
      000000FEH   SFRSYM    DATA     BYTE      TMR3CN1
      000000FFH   SFRSYM    DATA     BYTE      TMR4CN1
      000000D7H   SFRSYM    DATA     BYTE      SMB0ADR
      00000088H.4 SFRSYM    DATA     BIT       TCON_TR0
      000000C8H.4 SFRSYM    DATA     BIT       TMR2CN0_TF2CEN
      00000088H.6 SFRSYM    DATA     BIT       TCON_TR1
      000000C2H   SFRSYM    DATA     BYTE      SMB0DAT
      000000CDH   SFRSYM    DATA     BYTE      TMR2H
      000000A1H   SFRSYM    DATA     BYTE      SPI0CFG
      00000095H   SFRSYM    DATA     BYTE      TMR3H
      000000EFH   SFRSYM    DATA     BYTE      HFOCN
      000000D3H   SFRSYM    DATA     BYTE      CRC0CNT
      000000A5H   SFRSYM    DATA     BYTE      TMR4H
      00000098H.4 SFRSYM    DATA     BIT       TMR4CN0_TF4CEN
      000000EFH   SFRSYM    DATA     BYTE      SMB0FCT
      00000096H   SFRSYM    DATA     BYTE      PCA0POL
      000000CCH   SFRSYM    DATA     BYTE      TMR2L
      000000F8H.7 SFRSYM    DATA     BIT       SPI0CN0_SPIF
      000000AEH   SFRSYM    DATA     BYTE      USB0ADR
      00000094H   SFRSYM    DATA     BYTE      TMR3L
      000000DFH   SFRSYM    DATA     BYTE      ADC0PWR
      000000A8H.7 SFRSYM    DATA     BIT       IE_EA
      000000A4H   SFRSYM    DATA     BYTE      TMR4L
      000000AFH   SFRSYM    DATA     BYTE      USB0DAT
      000000C8H.5 SFRSYM    DATA     BIT       TMR2CN0_TF2LEN
      000000F8H.6 SFRSYM    DATA     BIT       SPI0CN0_WCOL
      00000090H   SFRSYM    DATA     BIT       LED_B
      000000F8H.2 SFRSYM    DATA     BIT       SPI0CN0_NSSMD0
      000000D0H.7 SFRSYM    DATA     BIT       PSW_CY
      0000009DH   SFRSYM    DATA     BYTE      UART1FCN0
      000000A3H   SFRSYM    DATA     BYTE      SPI0DAT
      000000ADH   SFRSYM    DATA     BYTE      I2C0FCN0
LX51 LINKER/LOCATER V4.66.30.0                                                        03/28/2016  20:19:13  PAGE 84


      000000F8H.3 SFRSYM    DATA     BIT       SPI0CN0_NSSMD1
      000000BDH   SFRSYM    DATA     WORD      ADC0
      000000D8H   SFRSYM    DATA     BYTE      UART1FCN1
      000000ABH   SFRSYM    DATA     BYTE      I2C0FCN1
      00000098H.5 SFRSYM    DATA     BIT       TMR4CN0_TF4LEN
      000000D0H   SFRSYM    DATA     BYTE      PSW
      000000F7H   SFRSYM    DATA     BYTE      PCA0PWM
      000000F7H   SFRSYM    DATA     BYTE      SPI0FCT
      000000B6H   SFRSYM    DATA     BYTE      REVID
      00000080H.6 SFRSYM    DATA     BIT       LED_G
      000000B7H   SFRSYM    DATA     BYTE      FLKEY
      000000B3H   SFRSYM    DATA     BYTE      ADC0AC
      01001B0DH   SYMBOL    CODE     ---       get_new_cid
      02000124H   SYMBOL    XDATA    BYTE      _hid_offset
      01003D72H   SYMBOL    CODE     ---       _refresh_cid
      01003ABAH   SYMBOL    CODE     ---       u2f_hid_reset_packet
      02000125H   SYMBOL    XDATA    BYTE      CID_NUM
      01000884H   SYMBOL    CODE     ---       _hid_u2f_parse
      010033D3H   SYMBOL    CODE     ---       _stamp_error
      0200014EH   SYMBOL    XDATA    ---       hid_layer
      020001F4H   SYMBOL    XDATA    BYTE      _hid_in_session
      020001F5H   SYMBOL    XDATA    BYTE      _hid_seq
      020001F6H   SYMBOL    XDATA    ---       _hid_pkt
      01003448H   SYMBOL    CODE     ---       _del_cid
      0100396DH   SYMBOL    CODE     ---       _start_buffering
      010030DDH   SYMBOL    CODE     ---       _get_cid
      01002E10H   SYMBOL    CODE     ---       _buffer_request
      01003604H   SYMBOL    CODE     ---       _is_cid_free

      01001C8FH   BLOCK     CODE     ---       LVL=0
      ---         BLOCKEND  ---      ---       LVL=0

      010037AEH   BLOCK     CODE     ---       LVL=0
      010037AEH   LINE      CODE     ---       #67
      010037AEH   LINE      CODE     ---       #68
      010037AEH   LINE      CODE     ---       #69
      010037BDH   LINE      CODE     ---       #70
      010037C4H   LINE      CODE     ---       #71
      010037C9H   LINE      CODE     ---       #72
      010037CDH   LINE      CODE     ---       #73
      010037D1H   LINE      CODE     ---       #74
      010037D5H   LINE      CODE     ---       #75
      ---         BLOCKEND  ---      ---       LVL=0

      01003D69H   BLOCK     CODE     ---       LVL=0
      00000006H   SYMBOL    DATA     WORD      len
      01003D69H   LINE      CODE     ---       #77
      01003D69H   LINE      CODE     ---       #78
      01003D69H   LINE      CODE     ---       #79
      01003D71H   LINE      CODE     ---       #80
      ---         BLOCKEND  ---      ---       LVL=0

      01003ABAH   BLOCK     CODE     ---       LVL=0
      01003ABAH   LINE      CODE     ---       #83
      01003ABAH   LINE      CODE     ---       #84
      01003ABAH   LINE      CODE     ---       #85
      01003ABFH   LINE      CODE     ---       #86
      01003AC3H   LINE      CODE     ---       #87
      01003AC7H   LINE      CODE     ---       #88
      01003ACCH   LINE      CODE     ---       #89
      ---         BLOCKEND  ---      ---       LVL=0

LX51 LINKER/LOCATER V4.66.30.0                                                        03/28/2016  20:19:13  PAGE 85


      01003C05H   BLOCK     CODE     ---       LVL=0
      01003C05H   LINE      CODE     ---       #93
      01003C05H   LINE      CODE     ---       #94
      01003C05H   LINE      CODE     ---       #95
      01003C0BH   LINE      CODE     ---       #96
      01003C0BH   LINE      CODE     ---       #97
      01003C13H   LINE      CODE     ---       #98
      01003C13H   LINE      CODE     ---       #99
      ---         BLOCKEND  ---      ---       LVL=0

      010017DDH   BLOCK     CODE     ---       LVL=0
      020000AAH   SYMBOL    XDATA    ---       payload
      020000ADH   SYMBOL    XDATA    WORD      len
      010017EBH   BLOCK     CODE     NEAR LAB  LVL=1
      00000001H   SYMBOL    DATA     ---       r
      ---         BLOCKEND  ---      ---       LVL=1
      010017DDH   LINE      CODE     ---       #103
      010017EBH   LINE      CODE     ---       #104
      010017EBH   LINE      CODE     ---       #105
      010017EEH   LINE      CODE     ---       #106
      010017F4H   LINE      CODE     ---       #107
      010017FAH   LINE      CODE     ---       #108
      010017FAH   LINE      CODE     ---       #109
      01001803H   LINE      CODE     ---       #110
      0100180AH   LINE      CODE     ---       #111
      0100180AH   LINE      CODE     ---       #112
      01001814H   LINE      CODE     ---       #113
      01001824H   LINE      CODE     ---       #114
      0100182AH   LINE      CODE     ---       #115
      0100182CH   LINE      CODE     ---       #117
      0100182CH   LINE      CODE     ---       #118
      01001835H   LINE      CODE     ---       #119
      0100183BH   LINE      CODE     ---       #120
      01001841H   LINE      CODE     ---       #121
      01001841H   LINE      CODE     ---       #122
      01001846H   LINE      CODE     ---       #124
      01001846H   LINE      CODE     ---       #125
      01001846H   LINE      CODE     ---       #126
      01001846H   LINE      CODE     ---       #127
      01001854H   LINE      CODE     ---       #128
      01001854H   LINE      CODE     ---       #129
      01001875H   LINE      CODE     ---       #130
      0100187FH   LINE      CODE     ---       #131
      01001886H   LINE      CODE     ---       #132
      01001886H   LINE      CODE     ---       #133
      01001888H   LINE      CODE     ---       #134
      0100188EH   LINE      CODE     ---       #136
      01001896H   LINE      CODE     ---       #137
      0100189CH   LINE      CODE     ---       #139
      010018A7H   LINE      CODE     ---       #140
      010018A7H   LINE      CODE     ---       #141
      010018B0H   LINE      CODE     ---       #143
      010018B0H   LINE      CODE     ---       #144
      010018B0H   LINE      CODE     ---       #145
      010018B0H   LINE      CODE     ---       #146
      010018B0H   LINE      CODE     ---       #148
      ---         BLOCKEND  ---      ---       LVL=0

      01003604H   BLOCK     CODE     ---       LVL=0
      02000054H   SYMBOL    XDATA    ---       c
      01003604H   LINE      CODE     ---       #150
      0100360AH   LINE      CODE     ---       #151
LX51 LINKER/LOCATER V4.66.30.0                                                        03/28/2016  20:19:13  PAGE 86


      0100360AH   LINE      CODE     ---       #152
      01003638H   LINE      CODE     ---       #153
      ---         BLOCKEND  ---      ---       LVL=0

      01003D72H   BLOCK     CODE     ---       LVL=0
      00000001H   SYMBOL    DATA     ---       c
      01003D72H   LINE      CODE     ---       #155
      01003D72H   LINE      CODE     ---       #156
      01003D72H   LINE      CODE     ---       #157
      ---         BLOCKEND  ---      ---       LVL=0

      01001B0DH   BLOCK     CODE     ---       LVL=0
      01001B0DH   BLOCK     CODE     NEAR LAB  LVL=1
      02000120H   SYMBOL    XDATA    DWORD     base
      02000052H   SYMBOL    XDATA    INT       i
      01001B51H   SYMBOL    CODE     ---       newcid
      ---         BLOCKEND  ---      ---       LVL=1
      01001B0DH   LINE      CODE     ---       #161
      01001B0DH   LINE      CODE     ---       #162
      01001B0DH   LINE      CODE     ---       #165
      01001B23H   LINE      CODE     ---       #166
      01001B23H   LINE      CODE     ---       #167
      01001B36H   LINE      CODE     ---       #168
      01001B36H   LINE      CODE     ---       #169
      01001B36H   LINE      CODE     ---       #170
      01001B36H   LINE      CODE     ---       #171
      01001B42H   LINE      CODE     ---       #172
      01001B48H   LINE      CODE     ---       #173
      01001B48H   LINE      CODE     ---       #176
      01001B48H   LINE      CODE     ---       #177
      01001B85H   LINE      CODE     ---       #178
      01001BB0H   LINE      CODE     ---       #180
      01001BC0H   LINE      CODE     ---       #182
      01001BCDH   LINE      CODE     ---       #183
      ---         BLOCKEND  ---      ---       LVL=0

      010030DDH   BLOCK     CODE     ---       LVL=0
      0200004AH   SYMBOL    XDATA    DWORD     cid
      010030E3H   BLOCK     CODE     NEAR LAB  LVL=1
      0200004EH   SYMBOL    XDATA    BYTE      i
      ---         BLOCKEND  ---      ---       LVL=1
      010030DDH   LINE      CODE     ---       #185
      010030E3H   LINE      CODE     ---       #186
      010030E3H   LINE      CODE     ---       #188
      010030F2H   LINE      CODE     ---       #189
      010030F2H   LINE      CODE     ---       #190
      01003100H   LINE      CODE     ---       #191
      01003100H   LINE      CODE     ---       #192
      01003113H   LINE      CODE     ---       #193
      01003113H   LINE      CODE     ---       #194
      0100311BH   LINE      CODE     ---       #195
      01003121H   LINE      CODE     ---       #196
      ---         BLOCKEND  ---      ---       LVL=0

      01003448H   BLOCK     CODE     ---       LVL=0
      02000057H   SYMBOL    XDATA    DWORD     cid
      0100344EH   BLOCK     CODE     NEAR LAB  LVL=1
      0200005BH   SYMBOL    XDATA    BYTE      i
      ---         BLOCKEND  ---      ---       LVL=1
      01003448H   LINE      CODE     ---       #197
      0100344EH   LINE      CODE     ---       #198
      0100344EH   LINE      CODE     ---       #200
LX51 LINKER/LOCATER V4.66.30.0                                                        03/28/2016  20:19:13  PAGE 87


      0100345DH   LINE      CODE     ---       #201
      0100345DH   LINE      CODE     ---       #202
      0100346BH   LINE      CODE     ---       #203
      0100346BH   LINE      CODE     ---       #204
      01003479H   LINE      CODE     ---       #205
      01003479H   LINE      CODE     ---       #206
      01003481H   LINE      CODE     ---       #207
      ---         BLOCKEND  ---      ---       LVL=0
      00000004H   SYMBOL    DATA     DWORD     cid

      010033D3H   BLOCK     CODE     ---       LVL=0
      02000052H   SYMBOL    XDATA    DWORD     cid
      02000056H   SYMBOL    XDATA    BYTE      err
      010033D9H   BLOCK     CODE     NEAR LAB  LVL=1
      00000001H   SYMBOL    DATA     ---       res
      ---         BLOCKEND  ---      ---       LVL=1
      010033D3H   LINE      CODE     ---       #214
      010033D9H   LINE      CODE     ---       #215
      010033D9H   LINE      CODE     ---       #216
      010033DCH   LINE      CODE     ---       #217
      010033E5H   LINE      CODE     ---       #218
      010033EDH   LINE      CODE     ---       #219
      010033F7H   LINE      CODE     ---       #220
      010033F8H   LINE      CODE     ---       #221
      01003400H   LINE      CODE     ---       #223
      01003405H   LINE      CODE     ---       #224
      ---         BLOCKEND  ---      ---       LVL=0

      0100396DH   BLOCK     CODE     ---       LVL=0
      00000001H   SYMBOL    DATA     ---       req
      0100396DH   LINE      CODE     ---       #228
      0100396DH   LINE      CODE     ---       #229
      0100396DH   LINE      CODE     ---       #230
      01003973H   LINE      CODE     ---       #231
      0100397CH   LINE      CODE     ---       #232
      ---         BLOCKEND  ---      ---       LVL=0

      01002E10H   BLOCK     CODE     ---       LVL=0
      02000052H   SYMBOL    XDATA    ---       req
      01002E10H   LINE      CODE     ---       #235
      01002E16H   LINE      CODE     ---       #236
      01002E16H   LINE      CODE     ---       #237
      01002E2DH   LINE      CODE     ---       #238
      01002E2DH   LINE      CODE     ---       #239
      01002E36H   LINE      CODE     ---       #240
      01002E3BH   LINE      CODE     ---       #241
      01002E3BH   LINE      CODE     ---       #242
      01002E5EH   LINE      CODE     ---       #243
      01002E68H   LINE      CODE     ---       #244
      ---         BLOCKEND  ---      ---       LVL=0

      01000884H   BLOCK     CODE     ---       LVL=0
      0200004AH   SYMBOL    XDATA    ---       req
      0100088AH   BLOCK     CODE     NEAR LAB  LVL=1
      0200004DH   SYMBOL    XDATA    WORD      len
      0200004FH   SYMBOL    XDATA    ---       init_res
      01000A4FH   SYMBOL    CODE     ---       fail
      ---         BLOCKEND  ---      ---       LVL=1
      01000884H   LINE      CODE     ---       #246
      0100088AH   LINE      CODE     ---       #247
      0100088AH   LINE      CODE     ---       #249
      01000891H   LINE      CODE     ---       #250
LX51 LINKER/LOCATER V4.66.30.0                                                        03/28/2016  20:19:13  PAGE 88


      0100089AH   LINE      CODE     ---       #252
      010008C0H   LINE      CODE     ---       #253
      010008C0H   LINE      CODE     ---       #254
      010008C0H   LINE      CODE     ---       #256
      010008C9H   LINE      CODE     ---       #257
      010008C9H   LINE      CODE     ---       #259
      010008CCH   LINE      CODE     ---       #260
      010008D2H   LINE      CODE     ---       #261
      010008D5H   LINE      CODE     ---       #262
      010008D5H   LINE      CODE     ---       #263
      010008DCH   LINE      CODE     ---       #266
      010008E5H   LINE      CODE     ---       #267
      010008E5H   LINE      CODE     ---       #268
      010008EBH   LINE      CODE     ---       #269
      010008EDH   LINE      CODE     ---       #270
      010008EDH   LINE      CODE     ---       #272
      010008F9H   LINE      CODE     ---       #273
      01000904H   LINE      CODE     ---       #274
      01000906H   LINE      CODE     ---       #275
      0100090DH   LINE      CODE     ---       #276
      01000914H   LINE      CODE     ---       #277
      0100091BH   LINE      CODE     ---       #280
      01000925H   LINE      CODE     ---       #281
      01000932H   LINE      CODE     ---       #282
      01000935H   LINE      CODE     ---       #283
      01000941H   LINE      CODE     ---       #285
      01000941H   LINE      CODE     ---       #286
      01000941H   LINE      CODE     ---       #288
      0100094DH   LINE      CODE     ---       #289
      0100094DH   LINE      CODE     ---       #291
      01000950H   LINE      CODE     ---       #292
      01000959H   LINE      CODE     ---       #293
      0100095CH   LINE      CODE     ---       #294
      0100095CH   LINE      CODE     ---       #301
      01000966H   LINE      CODE     ---       #302
      01000966H   LINE      CODE     ---       #303
      0100096FH   LINE      CODE     ---       #304
      01000984H   LINE      CODE     ---       #305
      01000984H   LINE      CODE     ---       #306
      01000984H   LINE      CODE     ---       #307
      01000984H   LINE      CODE     ---       #308
      01000986H   LINE      CODE     ---       #310
      01000986H   LINE      CODE     ---       #311
      0100098FH   LINE      CODE     ---       #312
      01000998H   LINE      CODE     ---       #313
      01000998H   LINE      CODE     ---       #316
      01000998H   LINE      CODE     ---       #317
      01000998H   LINE      CODE     ---       #321
      0100099EH   LINE      CODE     ---       #322
      0100099EH   LINE      CODE     ---       #323
      010009A7H   LINE      CODE     ---       #324
      010009C1H   LINE      CODE     ---       #325
      010009C3H   LINE      CODE     ---       #327
      010009C3H   LINE      CODE     ---       #328
      010009F1H   LINE      CODE     ---       #329
      010009F1H   LINE      CODE     ---       #331
      01000A06H   LINE      CODE     ---       #332
      01000A06H   LINE      CODE     ---       #334
      01000A06H   LINE      CODE     ---       #336
      01000A0DH   LINE      CODE     ---       #337
      01000A0DH   LINE      CODE     ---       #339
      01000A16H   LINE      CODE     ---       #340
LX51 LINKER/LOCATER V4.66.30.0                                                        03/28/2016  20:19:13  PAGE 89


      01000A1FH   LINE      CODE     ---       #341
      01000A1FH   LINE      CODE     ---       #342
      01000A25H   LINE      CODE     ---       #343
      01000A31H   LINE      CODE     ---       #344
      01000A34H   LINE      CODE     ---       #345
      01000A37H   LINE      CODE     ---       #346
      01000A38H   LINE      CODE     ---       #347
      01000A38H   LINE      CODE     ---       #350
      01000A38H   LINE      CODE     ---       #351
      01000A38H   LINE      CODE     ---       #352
      01000A46H   LINE      CODE     ---       #353
      01000A4FH   LINE      CODE     ---       #354
      01000A4FH   LINE      CODE     ---       #355
      01000A4FH   LINE      CODE     ---       #359
      01000A4FH   LINE      CODE     ---       #360
      01000A58H   LINE      CODE     ---       #362
      ---         BLOCKEND  ---      ---       LVL=0

      01001265H   BLOCK     CODE     ---       LVL=0
      02000041H   SYMBOL    XDATA    ---       req
      0100126BH   BLOCK     CODE     NEAR LAB  LVL=1
      02000044H   SYMBOL    XDATA    ---       payload
      02000047H   SYMBOL    XDATA    ---       cid
      ---         BLOCKEND  ---      ---       LVL=1
      01001265H   LINE      CODE     ---       #365
      0100126BH   LINE      CODE     ---       #366
      0100126BH   LINE      CODE     ---       #367
      01001274H   LINE      CODE     ---       #368
      01001280H   LINE      CODE     ---       #371
      0100128BH   LINE      CODE     ---       #372
      0100128BH   LINE      CODE     ---       #373
      01001294H   LINE      CODE     ---       #374
      01001296H   LINE      CODE     ---       #375
      010012A5H   LINE      CODE     ---       #376
      010012A5H   LINE      CODE     ---       #378
      010012A5H   LINE      CODE     ---       #384
      010012A5H   LINE      CODE     ---       #386
      010012B4H   LINE      CODE     ---       #388
      010012BCH   LINE      CODE     ---       #389
      010012BCH   LINE      CODE     ---       #390
      010012BCH   LINE      CODE     ---       #391
      010012C8H   LINE      CODE     ---       #392
      010012C8H   LINE      CODE     ---       #393
      010012D4H   LINE      CODE     ---       #394
      010012D4H   LINE      CODE     ---       #396
      010012DEH   LINE      CODE     ---       #398
      010012DEH   LINE      CODE     ---       #399
      010012E1H   LINE      CODE     ---       #400
      010012EAH   LINE      CODE     ---       #401
      010012F4H   LINE      CODE     ---       #402
      010012F8H   LINE      CODE     ---       #405
      010012FAH   LINE      CODE     ---       #407
      010012FAH   LINE      CODE     ---       #408
      01001306H   LINE      CODE     ---       #409
      0100130FH   LINE      CODE     ---       #411
      0100130FH   LINE      CODE     ---       #413
      0100130FH   LINE      CODE     ---       #414
      0100130FH   LINE      CODE     ---       #416
      01001317H   LINE      CODE     ---       #417
      01001317H   LINE      CODE     ---       #418
      01001317H   LINE      CODE     ---       #419
      01001317H   LINE      CODE     ---       #422
LX51 LINKER/LOCATER V4.66.30.0                                                        03/28/2016  20:19:13  PAGE 90


      01001317H   LINE      CODE     ---       #423
      01001320H   LINE      CODE     ---       #426
      01001322H   LINE      CODE     ---       #427
      01001339H   LINE      CODE     ---       #428
      01001339H   LINE      CODE     ---       #431
      0100133FH   LINE      CODE     ---       #432
      01001342H   LINE      CODE     ---       #433
      0100134BH   LINE      CODE     ---       #434
      01001354H   LINE      CODE     ---       #436
      01001354H   LINE      CODE     ---       #438
      01001354H   LINE      CODE     ---       #441
      01001360H   LINE      CODE     ---       #444
      01001360H   LINE      CODE     ---       #445
      01001360H   LINE      CODE     ---       #447
      01001360H   LINE      CODE     ---       #449
      01001369H   LINE      CODE     ---       #453
      ---         BLOCKEND  ---      ---       LVL=0

      ---         MODULE    ---      ---       USB_0
      01003D9FH   PUBLIC    CODE     ---       USB_GetIntsEnabled
      00000020H.4 PUBLIC    BIT      BIT       ?_USB_ActivateEp?BIT
      01002625H   PUBLIC    CODE     ---       _USB_ActivateEp
      0100366DH   PUBLIC    CODE     ---       _USB_AbortOutEp
      01003DB9H   PUBLIC    CODE     ---       USB_EpOutGetCount
      01003CB9H   PUBLIC    CODE     ---       USB_EpnGetOutPacketReady
      01003C88H   PUBLIC    CODE     ---       USB_EpnOutGetSentStall
      01003639H   PUBLIC    CODE     ---       _USB_AbortInEp
      01003C7BH   PUBLIC    CODE     ---       USB_EpnInGetSentStall
      01003CFCH   PUBLIC    CODE     ---       USB_Ep0GetCount
      01003C6EH   PUBLIC    CODE     ---       USB_Ep0InPacketReady
      01003CADH   PUBLIC    CODE     ---       USB_Ep0OutPacketReady
      01003C61H   PUBLIC    CODE     ---       USB_Ep0SentStall
      01003C54H   PUBLIC    CODE     ---       USB_GetSetupEnd
      01003CF1H   PUBLIC    CODE     ---       USB_GetIndex
      01003CE6H   PUBLIC    CODE     ---       USB_GetOutInts
      01003CDBH   PUBLIC    CODE     ---       USB_GetInInts
      01003CD0H   PUBLIC    CODE     ---       USB_GetCommonInts
      01003CC5H   PUBLIC    CODE     ---       _USB_SetIndex
      000000A2H   SFRSYM    DATA     BYTE      SPI0CKR
      00000080H   SFRSYM    DATA     BYTE      P0
      000000C8H.6 SFRSYM    DATA     BIT       SCON1_PERR
      000000D0H.2 SFRSYM    DATA     BIT       PSW_OV
      00000090H   SFRSYM    DATA     BYTE      P1
      000000F8H.1 SFRSYM    DATA     BIT       SPI0CN0_TXNF
      00000097H   SFRSYM    DATA     BYTE      WDTCN
      000000A0H   SFRSYM    DATA     BYTE      P2
      000000B0H   SFRSYM    DATA     BYTE      P3
      000000BCH   SFRSYM    DATA     BYTE      ADC0CF
      000000C0H.7 SFRSYM    DATA     BIT       SMB0CN0_MASTER
      000000F9H   SFRSYM    DATA     WORD      PCA0
      000000E6H   SFRSYM    DATA     BYTE      EIE1
      000000C0H.1 SFRSYM    DATA     BIT       SMB0CN0_ACK
      000000B3H   SFRSYM    DATA     BYTE      USB0XCN
      000000CEH   SFRSYM    DATA     BYTE      EIE2
      0000008FH   SFRSYM    DATA     BYTE      PSCTL
      000000E4H   SFRSYM    DATA     BYTE      IT01CF
      000000C0H.6 SFRSYM    DATA     BIT       SMB0CN0_TXMODE
      000000ADH   SFRSYM    DATA     BYTE      DERIVID
      000000A7H   SFRSYM    DATA     BYTE      SFRPAGE
      000000A4H   SFRSYM    DATA     BYTE      P0MDOUT
      000000BFH   SFRSYM    DATA     BYTE      USB0CDSTA
      000000A5H   SFRSYM    DATA     BYTE      P1MDOUT
LX51 LINKER/LOCATER V4.66.30.0                                                        03/28/2016  20:19:13  PAGE 91


      000000E8H.5 SFRSYM    DATA     BIT       ADC0CN0_ADINT
      000000CBH   SFRSYM    DATA     BYTE      TMR2RLH
      000000A6H   SFRSYM    DATA     BYTE      P2MDOUT
      000000A8H   SFRSYM    DATA     BYTE      IE
      00000093H   SFRSYM    DATA     BYTE      TMR3RLH
      0000009CH   SFRSYM    DATA     BYTE      P3MDOUT
      000000A3H   SFRSYM    DATA     BYTE      TMR4RLH
      000000F3H   SFRSYM    DATA     BYTE      EIP1
      000000F4H   SFRSYM    DATA     BYTE      EIP2
      00000098H.2 SFRSYM    DATA     BIT       SCON0_RB8
      000000CAH   SFRSYM    DATA     BYTE      TMR2RLL
      000000FCH   SFRSYM    DATA     BYTE      PCA0CPH0
      00000092H   SFRSYM    DATA     BYTE      TMR3RLL
      000000EAH   SFRSYM    DATA     BYTE      PCA0CPH1
      00000098H.3 SFRSYM    DATA     BIT       SCON0_TB8
      000000F0H   SFRSYM    DATA     BIT       B_B0
      00000082H   SFRSYM    DATA     WORD      DP
      000000A2H   SFRSYM    DATA     BYTE      TMR4RLL
      000000ECH   SFRSYM    DATA     BYTE      PCA0CPH2
      000000F0H.1 SFRSYM    DATA     BIT       B_B1
      000000C3H   SFRSYM    DATA     WORD      ADC0GT
      000000BDH   SFRSYM    DATA     BYTE      I2C0SLAD
      000000D8H.3 SFRSYM    DATA     BIT       UART1FCN1_RFRQ
      000000F0H.2 SFRSYM    DATA     BIT       B_B2
      000000CFH   SFRSYM    DATA     BYTE      SFRPGCN
      000000FBH   SFRSYM    DATA     BYTE      PCA0CPL0
      000000F0H.3 SFRSYM    DATA     BIT       B_B3
      000000D9H   SFRSYM    DATA     BYTE      PCA0MD
      000000DAH   SFRSYM    DATA     BYTE      PCA0CPM0
      000000E9H   SFRSYM    DATA     BYTE      PCA0CPL1
      000000D8H.7 SFRSYM    DATA     BIT       UART1FCN1_TFRQ
      000000F0H.4 SFRSYM    DATA     BIT       B_B4
      000000DBH   SFRSYM    DATA     BYTE      PCA0CPM1
      000000EBH   SFRSYM    DATA     BYTE      PCA0CPL2
      000000F0H.5 SFRSYM    DATA     BIT       B_B5
      000000DCH   SFRSYM    DATA     BYTE      PCA0CPM2
      000000B8H   SFRSYM    DATA     BYTE      IP
      000000B9H   SFRSYM    DATA     BYTE      ADC0TK
      000000F0H.6 SFRSYM    DATA     BIT       B_B6
      000000C5H   SFRSYM    DATA     WORD      ADC0LT
      000000D8H.6 SFRSYM    DATA     BIT       UART1FCN1_TXNF
      00000098H.5 SFRSYM    DATA     BIT       SCON0_MCE
      000000F0H.7 SFRSYM    DATA     BIT       B_B7
      000000C3H   SFRSYM    DATA     BYTE      SMB0FCN0
      000000E1H   SFRSYM    DATA     BYTE      XBR0
      000000C4H   SFRSYM    DATA     BYTE      SMB0FCN1
      000000C1H   SFRSYM    DATA     BYTE      SMB0CF
      000000E2H   SFRSYM    DATA     BYTE      XBR1
      000000C1H   SFRSYM    DATA     BYTE      PFE0CN
      000000E7H   SFRSYM    DATA     BYTE      EMI0CN
      000000C0H.5 SFRSYM    DATA     BIT       SMB0CN0_STA
      000000E3H   SFRSYM    DATA     BYTE      XBR2
      000000BBH   SFRSYM    DATA     BYTE      ADC0MX
      000000E0H   SFRSYM    DATA     BIT       ACC_ACC0
      000000D1H   SFRSYM    DATA     BYTE      REF0CN
      0000008EH   SFRSYM    DATA     BYTE      CKCON0
      000000E0H.1 SFRSYM    DATA     BIT       ACC_ACC1
      000000C9H   SFRSYM    DATA     BYTE      REG0CN
      000000DDH   SFRSYM    DATA     BYTE      CRC0IN
      000000A6H   SFRSYM    DATA     BYTE      CKCON1
      000000C8H.2 SFRSYM    DATA     BIT       TMR2CN0_TR2
      000000E0H.2 SFRSYM    DATA     BIT       ACC_ACC2
LX51 LINKER/LOCATER V4.66.30.0                                                        03/28/2016  20:19:13  PAGE 92


      000000C6H   SFRSYM    DATA     BYTE      REG1CN
      000000E0H.3 SFRSYM    DATA     BIT       ACC_ACC3
      00000081H   SFRSYM    DATA     BYTE      SP
      0000009DH   SFRSYM    DATA     BYTE      CMP0MD
      000000E0H.4 SFRSYM    DATA     BIT       ACC_ACC4
      000000B1H   SFRSYM    DATA     BYTE      LFO0CN
      000000ABH   SFRSYM    DATA     BYTE      CMP1MD
      000000D8H   SFRSYM    DATA     BIT       PCA0CN0_CCF0
      000000E0H.5 SFRSYM    DATA     BIT       ACC_ACC5
      000000B5H   SFRSYM    DATA     BYTE      USB0CF
      00000098H.2 SFRSYM    DATA     BIT       TMR4CN0_TR4
      000000D8H.1 SFRSYM    DATA     BIT       PCA0CN0_CCF1
      000000E0H.6 SFRSYM    DATA     BIT       ACC_ACC6
      000000CCH   SFRSYM    DATA     WORD      TMR2
      0000009AH   SFRSYM    DATA     BYTE      SPI0FCN0
      000000D8H.2 SFRSYM    DATA     BIT       PCA0CN0_CCF2
      000000E0H.7 SFRSYM    DATA     BIT       ACC_ACC7
      00000094H   SFRSYM    DATA     WORD      TMR3
      0000009BH   SFRSYM    DATA     BYTE      SPI0FCN1
      000000A4H   SFRSYM    DATA     WORD      TMR4
      00000094H   SFRSYM    DATA     BYTE      SBCON1
      000000C0H.3 SFRSYM    DATA     BIT       SMB0CN0_ACKRQ
      000000FFH   SFRSYM    DATA     BYTE      VDM0CN
      000000F1H   SFRSYM    DATA     BYTE      P0MDIN
      00000098H.4 SFRSYM    DATA     BIT       SCON0_REN
      000000ACH   SFRSYM    DATA     BYTE      SMB0TC
      000000F2H   SFRSYM    DATA     BYTE      P1MDIN
      000000C8H.4 SFRSYM    DATA     BIT       SCON1_REN
      000000F3H   SFRSYM    DATA     BYTE      P2MDIN
      000000C0H.4 SFRSYM    DATA     BIT       SMB0CN0_STO
      000000B6H   SFRSYM    DATA     BYTE      USB0CDCF
      000000F4H   SFRSYM    DATA     BYTE      P3MDIN
      000000B9H   SFRSYM    DATA     BYTE      I2C0STAT
      000000BBH   SFRSYM    DATA     BYTE      I2C0DOUT
      00000096H   SFRSYM    DATA     BYTE      SBRLH1
      000000FEH   SFRSYM    DATA     BYTE      P0MASK
      000000D8H.5 SFRSYM    DATA     BIT       UART1FCN1_TXHOLD
      000000EEH   SFRSYM    DATA     BYTE      P1MASK
      000000FCH   SFRSYM    DATA     BYTE      P2MASK
      000000D0H.3 SFRSYM    DATA     BIT       PSW_RS0
      000000D8H.7 SFRSYM    DATA     BIT       PCA0CN0_CF
      0000009EH   SFRSYM    DATA     BYTE      PCA0CENT
      000000BAH   SFRSYM    DATA     BYTE      I2C0CN0
      000000D2H   SFRSYM    DATA     BYTE      CRC0ST
      000000F8H.4 SFRSYM    DATA     BIT       SPI0CN0_RXOVRN
      000000D0H.4 SFRSYM    DATA     BIT       PSW_RS1
      00000095H   SFRSYM    DATA     BYTE      SBRLL1
      000000C8H.2 SFRSYM    DATA     BIT       SCON1_RBX
      000000C8H   SFRSYM    DATA     BIT       TMR2CN0_T2XCLK0
      000000C8H.1 SFRSYM    DATA     BIT       TMR2CN0_T2XCLK1
      000000C8H.3 SFRSYM    DATA     BIT       SCON1_TBX
      000000E8H.7 SFRSYM    DATA     BIT       ADC0CN0_ADEN
      000000BEH   SFRSYM    DATA     BYTE      USB0CDCN
      00000089H   SFRSYM    DATA     BYTE      TMOD
      00000088H   SFRSYM    DATA     BYTE      TCON
      000000CFH   SFRSYM    DATA     BYTE      CRC0FLIP
      000000D0H   SFRSYM    DATA     BIT       PSW_PARITY
      000000A8H.4 SFRSYM    DATA     BIT       IE_ES0
      0000009FH   SFRSYM    DATA     BYTE      CMP0MX
      00000098H   SFRSYM    DATA     BIT       TMR4CN0_T4XCLK0
      000000A8H.1 SFRSYM    DATA     BIT       IE_ET0
      000000AAH   SFRSYM    DATA     BYTE      CMP1MX
LX51 LINKER/LOCATER V4.66.30.0                                                        03/28/2016  20:19:13  PAGE 93


      00000098H.1 SFRSYM    DATA     BIT       TMR4CN0_T4XCLK1
      000000A8H.3 SFRSYM    DATA     BIT       IE_ET1
      000000D4H   SFRSYM    DATA     BYTE      P0SKIP
      000000D8H   SFRSYM    DATA     BIT       UART1FCN1_RIE
      000000A8H.5 SFRSYM    DATA     BIT       IE_ET2
      000000D5H   SFRSYM    DATA     BYTE      P1SKIP
      000000CCH   SFRSYM    DATA     BYTE      P2SKIP
      000000E8H   SFRSYM    DATA     BYTE      ADC0CN0
      000000D8H.4 SFRSYM    DATA     BIT       UART1FCN1_TIE
      000000A8H   SFRSYM    DATA     BIT       IE_EX0
      000000B2H   SFRSYM    DATA     BYTE      ADC0CN1
      000000D8H.6 SFRSYM    DATA     BIT       PCA0CN0_CR
      000000A8H.2 SFRSYM    DATA     BIT       IE_EX1
      000000C8H.7 SFRSYM    DATA     BIT       SCON1_OVR
      00000098H.7 SFRSYM    DATA     BIT       SCON0_SMODE
      000000B5H   SFRSYM    DATA     BYTE      DEVICEID
      000000A9H   SFRSYM    DATA     BYTE      CLKSEL
      000000F8H   SFRSYM    DATA     BIT       SPI0CN0_SPIEN
      000000F0H   SFRSYM    DATA     BYTE      B
      000000BEH   SFRSYM    DATA     BYTE      ADC0H
      000000E8H.6 SFRSYM    DATA     BIT       ADC0CN0_ADBMEN
      000000CAH   SFRSYM    DATA     WORD      TMR2RL
      000000BDH   SFRSYM    DATA     BYTE      ADC0L
      00000092H   SFRSYM    DATA     WORD      TMR3RL
      000000A2H   SFRSYM    DATA     WORD      TMR4RL
      000000D8H   SFRSYM    DATA     BYTE      PCA0CN0
      000000E0H   SFRSYM    DATA     BYTE      ACC
      000000FBH   SFRSYM    DATA     WORD      PCA0CP0
      000000E9H   SFRSYM    DATA     WORD      PCA0CP1
      000000EBH   SFRSYM    DATA     WORD      PCA0CP2
      000000BCH   SFRSYM    DATA     BYTE      I2C0DIN
      000000CEH   SFRSYM    DATA     BYTE      CRC0CN0
      0000008CH   SFRSYM    DATA     BYTE      TH0
      00000086H   SFRSYM    DATA     BYTE      CRC0CN1
      000000B8H.4 SFRSYM    DATA     BIT       IP_PS0
      000000FAH   SFRSYM    DATA     BYTE      UART1FCT
      0000008DH   SFRSYM    DATA     BYTE      TH1
      000000FAH   SFRSYM    DATA     BYTE      PCA0H
      000000F5H   SFRSYM    DATA     BYTE      I2C0FCT
      000000B8H.1 SFRSYM    DATA     BIT       IP_PT0
      000000B8H.3 SFRSYM    DATA     BIT       IP_PT1
      000000C0H.2 SFRSYM    DATA     BIT       SMB0CN0_ARBLOST
      000000B8H.5 SFRSYM    DATA     BIT       IP_PT2
      0000008AH   SFRSYM    DATA     BYTE      TL0
      000000D0H.5 SFRSYM    DATA     BIT       PSW_F0
      000000A8H.6 SFRSYM    DATA     BIT       IE_ESPI0
      0000008BH   SFRSYM    DATA     BYTE      TL1
      000000F9H   SFRSYM    DATA     BYTE      PCA0L
      000000C0H   SFRSYM    DATA     BIT       SMB0CN0_SI
      000000D0H.1 SFRSYM    DATA     BIT       PSW_F1
      00000080H   SFRSYM    DATA     BIT       P0_B0
      000000B8H   SFRSYM    DATA     BIT       IP_PX0
      00000090H   SFRSYM    DATA     BIT       P1_B0
      00000080H.1 SFRSYM    DATA     BIT       P0_B1
      000000B8H.2 SFRSYM    DATA     BIT       IP_PX1
      0000009EH   SFRSYM    DATA     BYTE      UART1LIN
      0000009BH   SFRSYM    DATA     BYTE      CMP0CN0
      00000088H.1 SFRSYM    DATA     BIT       TCON_IE0
      000000A0H   SFRSYM    DATA     BIT       P2_B0
      00000090H.1 SFRSYM    DATA     BIT       P1_B1
      00000080H.2 SFRSYM    DATA     BIT       P0_B2
      000000BFH   SFRSYM    DATA     BYTE      CMP1CN0
LX51 LINKER/LOCATER V4.66.30.0                                                        03/28/2016  20:19:13  PAGE 94


      00000099H   SFRSYM    DATA     BYTE      CMP0CN1
      00000088H.3 SFRSYM    DATA     BIT       TCON_IE1
      000000B0H   SFRSYM    DATA     BIT       P3_B0
      000000A0H.1 SFRSYM    DATA     BIT       P2_B1
      00000090H.2 SFRSYM    DATA     BIT       P1_B2
      00000080H.3 SFRSYM    DATA     BIT       P0_B3
      000000C0H   SFRSYM    DATA     BYTE      SMB0CN0
      000000ACH   SFRSYM    DATA     BYTE      CMP1CN1
      000000B0H.1 SFRSYM    DATA     BIT       P3_B1
      000000A0H.2 SFRSYM    DATA     BIT       P2_B2
      00000090H.3 SFRSYM    DATA     BIT       P1_B3
      00000080H.4 SFRSYM    DATA     BIT       P0_B4
      000000A0H.3 SFRSYM    DATA     BIT       P2_B3
      00000090H.4 SFRSYM    DATA     BIT       P1_B4
      00000080H.5 SFRSYM    DATA     BIT       P0_B5
      000000D8H.1 SFRSYM    DATA     BIT       UART1FCN1_RXTO0
      00000090H.5 SFRSYM    DATA     BIT       P1_B5
      00000080H.6 SFRSYM    DATA     BIT       P0_B6
      000000F5H   SFRSYM    DATA     BYTE      EIP1H
      000000D8H.2 SFRSYM    DATA     BIT       UART1FCN1_RXTO1
      00000090H.6 SFRSYM    DATA     BIT       P1_B6
      00000080H.7 SFRSYM    DATA     BIT       P0_B7
      000000C5H   SFRSYM    DATA     BYTE      SMB0RXLN
      000000F6H   SFRSYM    DATA     BYTE      EIP2H
      00000090H.7 SFRSYM    DATA     BIT       P1_B7
      00000083H   SFRSYM    DATA     BYTE      DPH
      000000C4H   SFRSYM    DATA     BYTE      ADC0GTH
      000000C8H.7 SFRSYM    DATA     BIT       TMR2CN0_TF2H
      000000C8H.3 SFRSYM    DATA     BIT       TMR2CN0_T2SPLIT
      000000D0H.6 SFRSYM    DATA     BIT       PSW_AC
      000000F8H   SFRSYM    DATA     BYTE      SPI0CN0
      000000C7H   SFRSYM    DATA     BYTE      HFO0CAL
      00000088H.5 SFRSYM    DATA     BIT       TCON_TF0
      00000098H   SFRSYM    DATA     BIT       SCON0_RI
      000000D6H   SFRSYM    DATA     BYTE      HFO1CAL
      00000082H   SFRSYM    DATA     BYTE      DPL
      00000088H.7 SFRSYM    DATA     BIT       TCON_TF1
      000000C8H   SFRSYM    DATA     BIT       SCON1_RI
      00000099H   SFRSYM    DATA     BYTE      SBUF0
      00000087H   SFRSYM    DATA     BYTE      PCON0
      000000F2H   SFRSYM    DATA     BYTE      IPH
      000000C3H   SFRSYM    DATA     BYTE      ADC0GTL
      00000098H.7 SFRSYM    DATA     BIT       TMR4CN0_TF4H
      00000098H.3 SFRSYM    DATA     BIT       TMR4CN0_T4SPLIT
      000000C8H.6 SFRSYM    DATA     BIT       TMR2CN0_TF2L
      00000098H.1 SFRSYM    DATA     BIT       SCON0_TI
      000000E8H   SFRSYM    DATA     BIT       ADC0CN0_ADCM0
      00000092H   SFRSYM    DATA     BYTE      SBUF1
      0000009AH   SFRSYM    DATA     BYTE      PCON1
      000000C6H   SFRSYM    DATA     BYTE      ADC0LTH
      00000088H   SFRSYM    DATA     BIT       TCON_IT0
      000000C8H.1 SFRSYM    DATA     BIT       SCON1_TI
      000000E8H.1 SFRSYM    DATA     BIT       ADC0CN0_ADCM1
      000000EFH   SFRSYM    DATA     BYTE      RSTSRC
      000000FDH   SFRSYM    DATA     BYTE      P0MAT
      000000DEH   SFRSYM    DATA     BYTE      CRC0DAT
      00000088H.2 SFRSYM    DATA     BIT       TCON_IT1
      000000E8H.2 SFRSYM    DATA     BIT       ADC0CN0_ADCM2
      000000D7H   SFRSYM    DATA     BYTE      SFRSTACK
      00000098H   SFRSYM    DATA     BYTE      SCON0
      000000F6H   SFRSYM    DATA     BYTE      PRTDRV
      000000EDH   SFRSYM    DATA     BYTE      P1MAT
LX51 LINKER/LOCATER V4.66.30.0                                                        03/28/2016  20:19:13  PAGE 95


      000000E8H.3 SFRSYM    DATA     BIT       ADC0CN0_ADWINT
      00000095H   SFRSYM    DATA     WORD      SBRL1
      000000B2H   SFRSYM    DATA     BYTE      USB0AEC
      00000093H   SFRSYM    DATA     BYTE      SMOD1
      000000C8H   SFRSYM    DATA     BYTE      SCON1
      000000FBH   SFRSYM    DATA     BYTE      P2MAT
      00000098H.6 SFRSYM    DATA     BIT       TMR4CN0_TF4L
      000000E8H.4 SFRSYM    DATA     BIT       ADC0CN0_ADBUSY
      000000D6H   SFRSYM    DATA     BYTE      SMB0ADM
      000000C5H   SFRSYM    DATA     BYTE      ADC0LTL
      000000F8H.5 SFRSYM    DATA     BIT       SPI0CN0_MODF
      000000B8H.6 SFRSYM    DATA     BIT       IP_PSPI0
      0000009CH   SFRSYM    DATA     BYTE      PCA0CLR
      000000C8H   SFRSYM    DATA     BYTE      TMR2CN0
      00000091H   SFRSYM    DATA     BYTE      TMR3CN0
      000000FDH   SFRSYM    DATA     BYTE      TMR2CN1
      00000098H   SFRSYM    DATA     BYTE      TMR4CN0
      000000FEH   SFRSYM    DATA     BYTE      TMR3CN1
      000000FFH   SFRSYM    DATA     BYTE      TMR4CN1
      000000D7H   SFRSYM    DATA     BYTE      SMB0ADR
      00000088H.4 SFRSYM    DATA     BIT       TCON_TR0
      000000C8H.4 SFRSYM    DATA     BIT       TMR2CN0_TF2CEN
      00000088H.6 SFRSYM    DATA     BIT       TCON_TR1
      000000C2H   SFRSYM    DATA     BYTE      SMB0DAT
      000000CDH   SFRSYM    DATA     BYTE      TMR2H
      000000A1H   SFRSYM    DATA     BYTE      SPI0CFG
      00000095H   SFRSYM    DATA     BYTE      TMR3H
      000000EFH   SFRSYM    DATA     BYTE      HFOCN
      000000D3H   SFRSYM    DATA     BYTE      CRC0CNT
      000000A5H   SFRSYM    DATA     BYTE      TMR4H
      00000098H.4 SFRSYM    DATA     BIT       TMR4CN0_TF4CEN
      000000EFH   SFRSYM    DATA     BYTE      SMB0FCT
      00000096H   SFRSYM    DATA     BYTE      PCA0POL
      000000CCH   SFRSYM    DATA     BYTE      TMR2L
      000000F8H.7 SFRSYM    DATA     BIT       SPI0CN0_SPIF
      000000AEH   SFRSYM    DATA     BYTE      USB0ADR
      00000094H   SFRSYM    DATA     BYTE      TMR3L
      000000DFH   SFRSYM    DATA     BYTE      ADC0PWR
      000000A8H.7 SFRSYM    DATA     BIT       IE_EA
      000000A4H   SFRSYM    DATA     BYTE      TMR4L
      000000AFH   SFRSYM    DATA     BYTE      USB0DAT
      000000C8H.5 SFRSYM    DATA     BIT       TMR2CN0_TF2LEN
      000000F8H.6 SFRSYM    DATA     BIT       SPI0CN0_WCOL
      000000F8H.2 SFRSYM    DATA     BIT       SPI0CN0_NSSMD0
      000000D0H.7 SFRSYM    DATA     BIT       PSW_CY
      0000009DH   SFRSYM    DATA     BYTE      UART1FCN0
      000000A3H   SFRSYM    DATA     BYTE      SPI0DAT
      000000ADH   SFRSYM    DATA     BYTE      I2C0FCN0
      000000F8H.3 SFRSYM    DATA     BIT       SPI0CN0_NSSMD1
      000000BDH   SFRSYM    DATA     WORD      ADC0
      000000D8H   SFRSYM    DATA     BYTE      UART1FCN1
      000000ABH   SFRSYM    DATA     BYTE      I2C0FCN1
      00000098H.5 SFRSYM    DATA     BIT       TMR4CN0_TF4LEN
      000000D0H   SFRSYM    DATA     BYTE      PSW
      000000F7H   SFRSYM    DATA     BYTE      PCA0PWM
      000000F7H   SFRSYM    DATA     BYTE      SPI0FCT
      000000B6H   SFRSYM    DATA     BYTE      REVID
      000000B7H   SFRSYM    DATA     BYTE      FLKEY
      000000B3H   SFRSYM    DATA     BYTE      ADC0AC
      01003824H   SYMBOL    CODE     ---       _USB_GetShortRegister

      01003824H   BLOCK     CODE     ---       LVL=0
LX51 LINKER/LOCATER V4.66.30.0                                                        03/28/2016  20:19:13  PAGE 96


      00000005H   SYMBOL    DATA     BYTE      regAddr
      01003826H   BLOCK     CODE     NEAR LAB  LVL=1
      00000006H   SYMBOL    DATA     WORD      retVal
      ---         BLOCKEND  ---      ---       LVL=1
      01003824H   LINE      CODE     ---       #25
      01003826H   LINE      CODE     ---       #26
      01003826H   LINE      CODE     ---       #29
      01003830H   LINE      CODE     ---       #30
      01003836H   LINE      CODE     ---       #31
      01003841H   LINE      CODE     ---       #32
      01003846H   LINE      CODE     ---       #34
      01003846H   LINE      CODE     ---       #35
      ---         BLOCKEND  ---      ---       LVL=0

      01003CC5H   BLOCK     CODE     ---       LVL=0
      00000007H   SYMBOL    DATA     BYTE      epsel
      01003CC5H   LINE      CODE     ---       #40
      01003CC5H   LINE      CODE     ---       #41
      01003CC5H   LINE      CODE     ---       #42
      01003CCFH   LINE      CODE     ---       #43
      ---         BLOCKEND  ---      ---       LVL=0

      01003CD0H   BLOCK     CODE     ---       LVL=0
      01003CD0H   LINE      CODE     ---       #45
      01003CD0H   LINE      CODE     ---       #46
      01003CD0H   LINE      CODE     ---       #47
      01003CD8H   LINE      CODE     ---       #48
      01003CDAH   LINE      CODE     ---       #49
      ---         BLOCKEND  ---      ---       LVL=0

      01003CDBH   BLOCK     CODE     ---       LVL=0
      01003CDBH   LINE      CODE     ---       #51
      01003CDBH   LINE      CODE     ---       #52
      01003CDBH   LINE      CODE     ---       #53
      01003CE3H   LINE      CODE     ---       #54
      01003CE5H   LINE      CODE     ---       #55
      ---         BLOCKEND  ---      ---       LVL=0

      01003CE6H   BLOCK     CODE     ---       LVL=0
      01003CE6H   LINE      CODE     ---       #57
      01003CE6H   LINE      CODE     ---       #58
      01003CE6H   LINE      CODE     ---       #59
      01003CEEH   LINE      CODE     ---       #60
      01003CF0H   LINE      CODE     ---       #61
      ---         BLOCKEND  ---      ---       LVL=0

      01003CF1H   BLOCK     CODE     ---       LVL=0
      01003CF1H   LINE      CODE     ---       #63
      01003CF1H   LINE      CODE     ---       #64
      01003CF1H   LINE      CODE     ---       #65
      01003CF9H   LINE      CODE     ---       #66
      01003CFBH   LINE      CODE     ---       #67
      ---         BLOCKEND  ---      ---       LVL=0

      01003C54H   BLOCK     CODE     ---       LVL=0
      01003C54H   LINE      CODE     ---       #75
      01003C54H   LINE      CODE     ---       #76
      01003C54H   LINE      CODE     ---       #77
      01003C5CH   LINE      CODE     ---       #78
      01003C60H   LINE      CODE     ---       #79
      ---         BLOCKEND  ---      ---       LVL=0

LX51 LINKER/LOCATER V4.66.30.0                                                        03/28/2016  20:19:13  PAGE 97


      01003C61H   BLOCK     CODE     ---       LVL=0
      01003C61H   LINE      CODE     ---       #81
      01003C61H   LINE      CODE     ---       #82
      01003C61H   LINE      CODE     ---       #83
      01003C69H   LINE      CODE     ---       #84
      01003C6DH   LINE      CODE     ---       #85
      ---         BLOCKEND  ---      ---       LVL=0

      01003CADH   BLOCK     CODE     ---       LVL=0
      01003CADH   LINE      CODE     ---       #87
      01003CADH   LINE      CODE     ---       #88
      01003CADH   LINE      CODE     ---       #89
      01003CB5H   LINE      CODE     ---       #90
      01003CB8H   LINE      CODE     ---       #91
      ---         BLOCKEND  ---      ---       LVL=0

      01003C6EH   BLOCK     CODE     ---       LVL=0
      01003C6EH   LINE      CODE     ---       #93
      01003C6EH   LINE      CODE     ---       #94
      01003C6EH   LINE      CODE     ---       #95
      01003C76H   LINE      CODE     ---       #96
      01003C7AH   LINE      CODE     ---       #97
      ---         BLOCKEND  ---      ---       LVL=0

      01003CFCH   BLOCK     CODE     ---       LVL=0
      01003CFCH   LINE      CODE     ---       #99
      01003CFCH   LINE      CODE     ---       #100
      01003CFCH   LINE      CODE     ---       #101
      01003D04H   LINE      CODE     ---       #102
      01003D06H   LINE      CODE     ---       #103
      ---         BLOCKEND  ---      ---       LVL=0

      01003C7BH   BLOCK     CODE     ---       LVL=0
      01003C7BH   LINE      CODE     ---       #105
      01003C7BH   LINE      CODE     ---       #106
      01003C7BH   LINE      CODE     ---       #107
      01003C83H   LINE      CODE     ---       #108
      01003C87H   LINE      CODE     ---       #109
      ---         BLOCKEND  ---      ---       LVL=0

      01003639H   BLOCK     CODE     ---       LVL=0
      00000007H   SYMBOL    DATA     BYTE      fifoNum
      01003639H   LINE      CODE     ---       #111
      01003639H   LINE      CODE     ---       #112
      01003639H   LINE      CODE     ---       #113
      0100363CH   LINE      CODE     ---       #114
      01003654H   LINE      CODE     ---       #115
      0100366CH   LINE      CODE     ---       #116
      ---         BLOCKEND  ---      ---       LVL=0

      01003C88H   BLOCK     CODE     ---       LVL=0
      01003C88H   LINE      CODE     ---       #118
      01003C88H   LINE      CODE     ---       #119
      01003C88H   LINE      CODE     ---       #120
      01003C90H   LINE      CODE     ---       #121
      01003C94H   LINE      CODE     ---       #122
      ---         BLOCKEND  ---      ---       LVL=0

      01003CB9H   BLOCK     CODE     ---       LVL=0
      01003CB9H   LINE      CODE     ---       #124
      01003CB9H   LINE      CODE     ---       #125
      01003CB9H   LINE      CODE     ---       #126
LX51 LINKER/LOCATER V4.66.30.0                                                        03/28/2016  20:19:13  PAGE 98


      01003CC1H   LINE      CODE     ---       #127
      01003CC4H   LINE      CODE     ---       #128
      ---         BLOCKEND  ---      ---       LVL=0

      01003DB9H   BLOCK     CODE     ---       LVL=0
      01003DB9H   LINE      CODE     ---       #130
      01003DB9H   LINE      CODE     ---       #131
      01003DB9H   LINE      CODE     ---       #132
      01003DBEH   LINE      CODE     ---       #133
      ---         BLOCKEND  ---      ---       LVL=0

      0100366DH   BLOCK     CODE     ---       LVL=0
      00000007H   SYMBOL    DATA     BYTE      fifoNum
      0100366DH   LINE      CODE     ---       #135
      0100366DH   LINE      CODE     ---       #136
      0100366DH   LINE      CODE     ---       #137
      01003670H   LINE      CODE     ---       #138
      01003688H   LINE      CODE     ---       #139
      010036A0H   LINE      CODE     ---       #140
      ---         BLOCKEND  ---      ---       LVL=0

      01002625H   BLOCK     CODE     ---       LVL=0
      00000006H   SYMBOL    DATA     BYTE      ep
      00000004H   SYMBOL    DATA     WORD      packetSize
      00000020H.4 SYMBOL    BIT      BIT       inDir
      00000020H.5 SYMBOL    BIT      BIT       splitMode
      00000020H.6 SYMBOL    BIT      BIT       isoMode
      01002627H   BLOCK     CODE     NEAR LAB  LVL=1
      00000003H   SYMBOL    DATA     BYTE      CSRH_mask
      00000006H   SYMBOL    DATA     WORD      fifoSize
      ---         BLOCKEND  ---      ---       LVL=1
      01002625H   LINE      CODE     ---       #142
      01002627H   LINE      CODE     ---       #147
      01002627H   LINE      CODE     ---       #148
      01002629H   LINE      CODE     ---       #151
      0100262CH   LINE      CODE     ---       #155
      01002655H   LINE      CODE     ---       #157
      0100265CH   LINE      CODE     ---       #158
      0100265CH   LINE      CODE     ---       #159
      01002660H   LINE      CODE     ---       #160
      01002660H   LINE      CODE     ---       #162
      01002663H   LINE      CODE     ---       #163
      01002663H   LINE      CODE     ---       #164
      01002667H   LINE      CODE     ---       #165
      01002667H   LINE      CODE     ---       #167
      0100266AH   LINE      CODE     ---       #168
      0100266AH   LINE      CODE     ---       #169
      0100266EH   LINE      CODE     ---       #171
      01002671H   LINE      CODE     ---       #172
      01002671H   LINE      CODE     ---       #173
      01002674H   LINE      CODE     ---       #174
      01002674H   LINE      CODE     ---       #175
      0100267FH   LINE      CODE     ---       #176
      0100268BH   LINE      CODE     ---       #179
      0100268BH   LINE      CODE     ---       #180
      01002696H   LINE      CODE     ---       #181
      010026A2H   LINE      CODE     ---       #183
      010026A5H   LINE      CODE     ---       #184
      010026A5H   LINE      CODE     ---       #185
      010026B0H   LINE      CODE     ---       #186
      010026B0H   LINE      CODE     ---       #187
      010026B0H   LINE      CODE     ---       #188
LX51 LINKER/LOCATER V4.66.30.0                                                        03/28/2016  20:19:13  PAGE 99


      ---         BLOCKEND  ---      ---       LVL=0

      01003D9FH   BLOCK     CODE     ---       LVL=0
      01003D9FH   LINE      CODE     ---       #195
      01003D9FH   LINE      CODE     ---       #196
      01003D9FH   LINE      CODE     ---       #197
      01003DA2H   LINE      CODE     ---       #198
      01003DA5H   LINE      CODE     ---       #199
      ---         BLOCKEND  ---      ---       LVL=0
      00000007H   SYMBOL    DATA     BYTE      clkSelSave

      ---         MODULE    ---      ---       EFM8_USBD
      0200030AH   PUBLIC    XDATA    ---       myUsbDevice
      01003227H   PUBLIC    CODE     ---       _USBD_SetUsbState
      00000020H.3 PUBLIC    BIT      BIT       ?_USBD_Write?BIT
      02000107H   PUBLIC    XDATA    BYTE      ?_USBD_Write?BYTE
      010018B1H   PUBLIC    CODE     ---       _USBD_Write
      00000020H.0 PUBLIC    BIT      BIT       ?_USBD_Read?BIT
      02000041H   PUBLIC    XDATA    BYTE      ?_USBD_Read?BYTE
      01001F61H   PUBLIC    CODE     ---       _USBD_Read
      010022B9H   PUBLIC    CODE     ---       _USBD_Init
      0100375CH   PUBLIC    CODE     ---       _USBD_EpIsBusy
      01003AD2H   PUBLIC    CODE     ---       USBD_Connect
      01002734H   PUBLIC    CODE     ---       _USBD_AbortTransfer
      01003564H   PUBLIC    CODE     ---       USBD_AbortAllTransfers
      000000A2H   SFRSYM    DATA     BYTE      SPI0CKR
      00000080H   SFRSYM    DATA     BYTE      P0
      000000C8H.6 SFRSYM    DATA     BIT       SCON1_PERR
      000000D0H.2 SFRSYM    DATA     BIT       PSW_OV
      00000090H   SFRSYM    DATA     BYTE      P1
      000000F8H.1 SFRSYM    DATA     BIT       SPI0CN0_TXNF
      00000097H   SFRSYM    DATA     BYTE      WDTCN
      000000A0H   SFRSYM    DATA     BYTE      P2
      000000B0H   SFRSYM    DATA     BYTE      P3
      000000BCH   SFRSYM    DATA     BYTE      ADC0CF
      000000C0H.7 SFRSYM    DATA     BIT       SMB0CN0_MASTER
      000000F9H   SFRSYM    DATA     WORD      PCA0
      000000E6H   SFRSYM    DATA     BYTE      EIE1
      000000C0H.1 SFRSYM    DATA     BIT       SMB0CN0_ACK
      000000B3H   SFRSYM    DATA     BYTE      USB0XCN
      000000CEH   SFRSYM    DATA     BYTE      EIE2
      0000008FH   SFRSYM    DATA     BYTE      PSCTL
      000000E4H   SFRSYM    DATA     BYTE      IT01CF
      000000C0H.6 SFRSYM    DATA     BIT       SMB0CN0_TXMODE
      000000ADH   SFRSYM    DATA     BYTE      DERIVID
      000000A7H   SFRSYM    DATA     BYTE      SFRPAGE
      000000A4H   SFRSYM    DATA     BYTE      P0MDOUT
      000000BFH   SFRSYM    DATA     BYTE      USB0CDSTA
      000000A5H   SFRSYM    DATA     BYTE      P1MDOUT
      000000E8H.5 SFRSYM    DATA     BIT       ADC0CN0_ADINT
      000000CBH   SFRSYM    DATA     BYTE      TMR2RLH
      000000A6H   SFRSYM    DATA     BYTE      P2MDOUT
      000000A8H   SFRSYM    DATA     BYTE      IE
      00000093H   SFRSYM    DATA     BYTE      TMR3RLH
      0000009CH   SFRSYM    DATA     BYTE      P3MDOUT
      000000A3H   SFRSYM    DATA     BYTE      TMR4RLH
      000000F3H   SFRSYM    DATA     BYTE      EIP1
      000000F4H   SFRSYM    DATA     BYTE      EIP2
      00000098H.2 SFRSYM    DATA     BIT       SCON0_RB8
      000000CAH   SFRSYM    DATA     BYTE      TMR2RLL
      000000FCH   SFRSYM    DATA     BYTE      PCA0CPH0
      00000092H   SFRSYM    DATA     BYTE      TMR3RLL
LX51 LINKER/LOCATER V4.66.30.0                                                        03/28/2016  20:19:13  PAGE 100


      000000EAH   SFRSYM    DATA     BYTE      PCA0CPH1
      00000098H.3 SFRSYM    DATA     BIT       SCON0_TB8
      000000F0H   SFRSYM    DATA     BIT       B_B0
      00000082H   SFRSYM    DATA     WORD      DP
      000000A2H   SFRSYM    DATA     BYTE      TMR4RLL
      000000ECH   SFRSYM    DATA     BYTE      PCA0CPH2
      000000F0H.1 SFRSYM    DATA     BIT       B_B1
      000000C3H   SFRSYM    DATA     WORD      ADC0GT
      000000BDH   SFRSYM    DATA     BYTE      I2C0SLAD
      000000D8H.3 SFRSYM    DATA     BIT       UART1FCN1_RFRQ
      000000F0H.2 SFRSYM    DATA     BIT       B_B2
      000000CFH   SFRSYM    DATA     BYTE      SFRPGCN
      000000FBH   SFRSYM    DATA     BYTE      PCA0CPL0
      000000F0H.3 SFRSYM    DATA     BIT       B_B3
      000000D9H   SFRSYM    DATA     BYTE      PCA0MD
      000000DAH   SFRSYM    DATA     BYTE      PCA0CPM0
      000000E9H   SFRSYM    DATA     BYTE      PCA0CPL1
      000000D8H.7 SFRSYM    DATA     BIT       UART1FCN1_TFRQ
      000000F0H.4 SFRSYM    DATA     BIT       B_B4
      000000DBH   SFRSYM    DATA     BYTE      PCA0CPM1
      000000EBH   SFRSYM    DATA     BYTE      PCA0CPL2
      000000F0H.5 SFRSYM    DATA     BIT       B_B5
      000000DCH   SFRSYM    DATA     BYTE      PCA0CPM2
      000000B8H   SFRSYM    DATA     BYTE      IP
      000000B9H   SFRSYM    DATA     BYTE      ADC0TK
      000000F0H.6 SFRSYM    DATA     BIT       B_B6
      000000C5H   SFRSYM    DATA     WORD      ADC0LT
      000000D8H.6 SFRSYM    DATA     BIT       UART1FCN1_TXNF
      00000098H.5 SFRSYM    DATA     BIT       SCON0_MCE
      000000F0H.7 SFRSYM    DATA     BIT       B_B7
      000000C3H   SFRSYM    DATA     BYTE      SMB0FCN0
      000000E1H   SFRSYM    DATA     BYTE      XBR0
      000000C4H   SFRSYM    DATA     BYTE      SMB0FCN1
      000000C1H   SFRSYM    DATA     BYTE      SMB0CF
      000000E2H   SFRSYM    DATA     BYTE      XBR1
      000000C1H   SFRSYM    DATA     BYTE      PFE0CN
      000000E7H   SFRSYM    DATA     BYTE      EMI0CN
      000000C0H.5 SFRSYM    DATA     BIT       SMB0CN0_STA
      000000E3H   SFRSYM    DATA     BYTE      XBR2
      000000BBH   SFRSYM    DATA     BYTE      ADC0MX
      000000E0H   SFRSYM    DATA     BIT       ACC_ACC0
      000000D1H   SFRSYM    DATA     BYTE      REF0CN
      0000008EH   SFRSYM    DATA     BYTE      CKCON0
      000000E0H.1 SFRSYM    DATA     BIT       ACC_ACC1
      000000C9H   SFRSYM    DATA     BYTE      REG0CN
      000000DDH   SFRSYM    DATA     BYTE      CRC0IN
      000000A6H   SFRSYM    DATA     BYTE      CKCON1
      000000C8H.2 SFRSYM    DATA     BIT       TMR2CN0_TR2
      000000E0H.2 SFRSYM    DATA     BIT       ACC_ACC2
      000000C6H   SFRSYM    DATA     BYTE      REG1CN
      000000E0H.3 SFRSYM    DATA     BIT       ACC_ACC3
      00000081H   SFRSYM    DATA     BYTE      SP
      0000009DH   SFRSYM    DATA     BYTE      CMP0MD
      000000E0H.4 SFRSYM    DATA     BIT       ACC_ACC4
      000000B1H   SFRSYM    DATA     BYTE      LFO0CN
      000000ABH   SFRSYM    DATA     BYTE      CMP1MD
      000000D8H   SFRSYM    DATA     BIT       PCA0CN0_CCF0
      000000E0H.5 SFRSYM    DATA     BIT       ACC_ACC5
      000000B5H   SFRSYM    DATA     BYTE      USB0CF
      00000098H.2 SFRSYM    DATA     BIT       TMR4CN0_TR4
      000000D8H.1 SFRSYM    DATA     BIT       PCA0CN0_CCF1
      000000E0H.6 SFRSYM    DATA     BIT       ACC_ACC6
LX51 LINKER/LOCATER V4.66.30.0                                                        03/28/2016  20:19:13  PAGE 101


      000000CCH   SFRSYM    DATA     WORD      TMR2
      0000009AH   SFRSYM    DATA     BYTE      SPI0FCN0
      000000D8H.2 SFRSYM    DATA     BIT       PCA0CN0_CCF2
      000000E0H.7 SFRSYM    DATA     BIT       ACC_ACC7
      00000094H   SFRSYM    DATA     WORD      TMR3
      0000009BH   SFRSYM    DATA     BYTE      SPI0FCN1
      000000A4H   SFRSYM    DATA     WORD      TMR4
      00000094H   SFRSYM    DATA     BYTE      SBCON1
      000000C0H.3 SFRSYM    DATA     BIT       SMB0CN0_ACKRQ
      000000FFH   SFRSYM    DATA     BYTE      VDM0CN
      000000F1H   SFRSYM    DATA     BYTE      P0MDIN
      00000098H.4 SFRSYM    DATA     BIT       SCON0_REN
      000000ACH   SFRSYM    DATA     BYTE      SMB0TC
      000000F2H   SFRSYM    DATA     BYTE      P1MDIN
      000000C8H.4 SFRSYM    DATA     BIT       SCON1_REN
      000000F3H   SFRSYM    DATA     BYTE      P2MDIN
      000000C0H.4 SFRSYM    DATA     BIT       SMB0CN0_STO
      000000B6H   SFRSYM    DATA     BYTE      USB0CDCF
      000000F4H   SFRSYM    DATA     BYTE      P3MDIN
      000000B9H   SFRSYM    DATA     BYTE      I2C0STAT
      000000BBH   SFRSYM    DATA     BYTE      I2C0DOUT
      00000096H   SFRSYM    DATA     BYTE      SBRLH1
      000000FEH   SFRSYM    DATA     BYTE      P0MASK
      000000D8H.5 SFRSYM    DATA     BIT       UART1FCN1_TXHOLD
      000000EEH   SFRSYM    DATA     BYTE      P1MASK
      000000FCH   SFRSYM    DATA     BYTE      P2MASK
      000000D0H.3 SFRSYM    DATA     BIT       PSW_RS0
      000000D8H.7 SFRSYM    DATA     BIT       PCA0CN0_CF
      0000009EH   SFRSYM    DATA     BYTE      PCA0CENT
      000000BAH   SFRSYM    DATA     BYTE      I2C0CN0
      000000D2H   SFRSYM    DATA     BYTE      CRC0ST
      000000F8H.4 SFRSYM    DATA     BIT       SPI0CN0_RXOVRN
      000000D0H.4 SFRSYM    DATA     BIT       PSW_RS1
      00000095H   SFRSYM    DATA     BYTE      SBRLL1
      000000C8H.2 SFRSYM    DATA     BIT       SCON1_RBX
      000000C8H   SFRSYM    DATA     BIT       TMR2CN0_T2XCLK0
      000000C8H.1 SFRSYM    DATA     BIT       TMR2CN0_T2XCLK1
      000000C8H.3 SFRSYM    DATA     BIT       SCON1_TBX
      000000E8H.7 SFRSYM    DATA     BIT       ADC0CN0_ADEN
      000000BEH   SFRSYM    DATA     BYTE      USB0CDCN
      00000089H   SFRSYM    DATA     BYTE      TMOD
      00000088H   SFRSYM    DATA     BYTE      TCON
      000000CFH   SFRSYM    DATA     BYTE      CRC0FLIP
      000000D0H   SFRSYM    DATA     BIT       PSW_PARITY
      000000A8H.4 SFRSYM    DATA     BIT       IE_ES0
      0000009FH   SFRSYM    DATA     BYTE      CMP0MX
      00000098H   SFRSYM    DATA     BIT       TMR4CN0_T4XCLK0
      000000A8H.1 SFRSYM    DATA     BIT       IE_ET0
      000000AAH   SFRSYM    DATA     BYTE      CMP1MX
      00000098H.1 SFRSYM    DATA     BIT       TMR4CN0_T4XCLK1
      000000A8H.3 SFRSYM    DATA     BIT       IE_ET1
      000000D4H   SFRSYM    DATA     BYTE      P0SKIP
      000000D8H   SFRSYM    DATA     BIT       UART1FCN1_RIE
      000000A8H.5 SFRSYM    DATA     BIT       IE_ET2
      000000D5H   SFRSYM    DATA     BYTE      P1SKIP
      000000CCH   SFRSYM    DATA     BYTE      P2SKIP
      000000E8H   SFRSYM    DATA     BYTE      ADC0CN0
      000000D8H.4 SFRSYM    DATA     BIT       UART1FCN1_TIE
      000000A8H   SFRSYM    DATA     BIT       IE_EX0
      000000B2H   SFRSYM    DATA     BYTE      ADC0CN1
      000000D8H.6 SFRSYM    DATA     BIT       PCA0CN0_CR
      000000A8H.2 SFRSYM    DATA     BIT       IE_EX1
LX51 LINKER/LOCATER V4.66.30.0                                                        03/28/2016  20:19:13  PAGE 102


      000000C8H.7 SFRSYM    DATA     BIT       SCON1_OVR
      00000098H.7 SFRSYM    DATA     BIT       SCON0_SMODE
      000000B5H   SFRSYM    DATA     BYTE      DEVICEID
      000000A9H   SFRSYM    DATA     BYTE      CLKSEL
      000000F8H   SFRSYM    DATA     BIT       SPI0CN0_SPIEN
      000000F0H   SFRSYM    DATA     BYTE      B
      000000BEH   SFRSYM    DATA     BYTE      ADC0H
      000000E8H.6 SFRSYM    DATA     BIT       ADC0CN0_ADBMEN
      000000CAH   SFRSYM    DATA     WORD      TMR2RL
      000000BDH   SFRSYM    DATA     BYTE      ADC0L
      00000092H   SFRSYM    DATA     WORD      TMR3RL
      000000A2H   SFRSYM    DATA     WORD      TMR4RL
      000000D8H   SFRSYM    DATA     BYTE      PCA0CN0
      000000E0H   SFRSYM    DATA     BYTE      ACC
      000000FBH   SFRSYM    DATA     WORD      PCA0CP0
      000000E9H   SFRSYM    DATA     WORD      PCA0CP1
      000000EBH   SFRSYM    DATA     WORD      PCA0CP2
      000000BCH   SFRSYM    DATA     BYTE      I2C0DIN
      000000CEH   SFRSYM    DATA     BYTE      CRC0CN0
      0000008CH   SFRSYM    DATA     BYTE      TH0
      00000086H   SFRSYM    DATA     BYTE      CRC0CN1
      000000B8H.4 SFRSYM    DATA     BIT       IP_PS0
      000000FAH   SFRSYM    DATA     BYTE      UART1FCT
      0000008DH   SFRSYM    DATA     BYTE      TH1
      000000FAH   SFRSYM    DATA     BYTE      PCA0H
      000000F5H   SFRSYM    DATA     BYTE      I2C0FCT
      000000B8H.1 SFRSYM    DATA     BIT       IP_PT0
      000000B8H.3 SFRSYM    DATA     BIT       IP_PT1
      000000C0H.2 SFRSYM    DATA     BIT       SMB0CN0_ARBLOST
      000000B8H.5 SFRSYM    DATA     BIT       IP_PT2
      0000008AH   SFRSYM    DATA     BYTE      TL0
      000000D0H.5 SFRSYM    DATA     BIT       PSW_F0
      000000A8H.6 SFRSYM    DATA     BIT       IE_ESPI0
      0000008BH   SFRSYM    DATA     BYTE      TL1
      000000F9H   SFRSYM    DATA     BYTE      PCA0L
      000000C0H   SFRSYM    DATA     BIT       SMB0CN0_SI
      000000D0H.1 SFRSYM    DATA     BIT       PSW_F1
      00000080H   SFRSYM    DATA     BIT       P0_B0
      000000B8H   SFRSYM    DATA     BIT       IP_PX0
      00000090H   SFRSYM    DATA     BIT       P1_B0
      00000080H.1 SFRSYM    DATA     BIT       P0_B1
      000000B8H.2 SFRSYM    DATA     BIT       IP_PX1
      0000009EH   SFRSYM    DATA     BYTE      UART1LIN
      0000009BH   SFRSYM    DATA     BYTE      CMP0CN0
      00000088H.1 SFRSYM    DATA     BIT       TCON_IE0
      000000A0H   SFRSYM    DATA     BIT       P2_B0
      00000090H.1 SFRSYM    DATA     BIT       P1_B1
      00000080H.2 SFRSYM    DATA     BIT       P0_B2
      000000BFH   SFRSYM    DATA     BYTE      CMP1CN0
      00000099H   SFRSYM    DATA     BYTE      CMP0CN1
      00000088H.3 SFRSYM    DATA     BIT       TCON_IE1
      000000B0H   SFRSYM    DATA     BIT       P3_B0
      000000A0H.1 SFRSYM    DATA     BIT       P2_B1
      00000090H.2 SFRSYM    DATA     BIT       P1_B2
      00000080H.3 SFRSYM    DATA     BIT       P0_B3
      000000C0H   SFRSYM    DATA     BYTE      SMB0CN0
      000000ACH   SFRSYM    DATA     BYTE      CMP1CN1
      000000B0H.1 SFRSYM    DATA     BIT       P3_B1
      000000A0H.2 SFRSYM    DATA     BIT       P2_B2
      00000090H.3 SFRSYM    DATA     BIT       P1_B3
      00000080H.4 SFRSYM    DATA     BIT       P0_B4
      000000A0H.3 SFRSYM    DATA     BIT       P2_B3
LX51 LINKER/LOCATER V4.66.30.0                                                        03/28/2016  20:19:13  PAGE 103


      00000090H.4 SFRSYM    DATA     BIT       P1_B4
      00000080H.5 SFRSYM    DATA     BIT       P0_B5
      000000D8H.1 SFRSYM    DATA     BIT       UART1FCN1_RXTO0
      00000090H.5 SFRSYM    DATA     BIT       P1_B5
      00000080H.6 SFRSYM    DATA     BIT       P0_B6
      000000F5H   SFRSYM    DATA     BYTE      EIP1H
      000000D8H.2 SFRSYM    DATA     BIT       UART1FCN1_RXTO1
      00000090H.6 SFRSYM    DATA     BIT       P1_B6
      00000080H.7 SFRSYM    DATA     BIT       P0_B7
      000000C5H   SFRSYM    DATA     BYTE      SMB0RXLN
      000000F6H   SFRSYM    DATA     BYTE      EIP2H
      00000090H.7 SFRSYM    DATA     BIT       P1_B7
      00000083H   SFRSYM    DATA     BYTE      DPH
      000000C4H   SFRSYM    DATA     BYTE      ADC0GTH
      000000C8H.7 SFRSYM    DATA     BIT       TMR2CN0_TF2H
      000000C8H.3 SFRSYM    DATA     BIT       TMR2CN0_T2SPLIT
      000000D0H.6 SFRSYM    DATA     BIT       PSW_AC
      000000F8H   SFRSYM    DATA     BYTE      SPI0CN0
      000000C7H   SFRSYM    DATA     BYTE      HFO0CAL
      00000088H.5 SFRSYM    DATA     BIT       TCON_TF0
      00000098H   SFRSYM    DATA     BIT       SCON0_RI
      000000D6H   SFRSYM    DATA     BYTE      HFO1CAL
      00000082H   SFRSYM    DATA     BYTE      DPL
      00000088H.7 SFRSYM    DATA     BIT       TCON_TF1
      000000C8H   SFRSYM    DATA     BIT       SCON1_RI
      00000099H   SFRSYM    DATA     BYTE      SBUF0
      00000087H   SFRSYM    DATA     BYTE      PCON0
      000000F2H   SFRSYM    DATA     BYTE      IPH
      000000C3H   SFRSYM    DATA     BYTE      ADC0GTL
      00000098H.7 SFRSYM    DATA     BIT       TMR4CN0_TF4H
      00000098H.3 SFRSYM    DATA     BIT       TMR4CN0_T4SPLIT
      000000C8H.6 SFRSYM    DATA     BIT       TMR2CN0_TF2L
      00000098H.1 SFRSYM    DATA     BIT       SCON0_TI
      000000E8H   SFRSYM    DATA     BIT       ADC0CN0_ADCM0
      00000092H   SFRSYM    DATA     BYTE      SBUF1
      0000009AH   SFRSYM    DATA     BYTE      PCON1
      000000C6H   SFRSYM    DATA     BYTE      ADC0LTH
      00000088H   SFRSYM    DATA     BIT       TCON_IT0
      000000C8H.1 SFRSYM    DATA     BIT       SCON1_TI
      000000E8H.1 SFRSYM    DATA     BIT       ADC0CN0_ADCM1
      000000EFH   SFRSYM    DATA     BYTE      RSTSRC
      000000FDH   SFRSYM    DATA     BYTE      P0MAT
      000000DEH   SFRSYM    DATA     BYTE      CRC0DAT
      00000088H.2 SFRSYM    DATA     BIT       TCON_IT1
      000000E8H.2 SFRSYM    DATA     BIT       ADC0CN0_ADCM2
      000000D7H   SFRSYM    DATA     BYTE      SFRSTACK
      00000098H   SFRSYM    DATA     BYTE      SCON0
      000000F6H   SFRSYM    DATA     BYTE      PRTDRV
      000000EDH   SFRSYM    DATA     BYTE      P1MAT
      000000E8H.3 SFRSYM    DATA     BIT       ADC0CN0_ADWINT
      00000095H   SFRSYM    DATA     WORD      SBRL1
      000000B2H   SFRSYM    DATA     BYTE      USB0AEC
      00000093H   SFRSYM    DATA     BYTE      SMOD1
      000000C8H   SFRSYM    DATA     BYTE      SCON1
      000000FBH   SFRSYM    DATA     BYTE      P2MAT
      00000098H.6 SFRSYM    DATA     BIT       TMR4CN0_TF4L
      000000E8H.4 SFRSYM    DATA     BIT       ADC0CN0_ADBUSY
      000000D6H   SFRSYM    DATA     BYTE      SMB0ADM
      000000C5H   SFRSYM    DATA     BYTE      ADC0LTL
      000000F8H.5 SFRSYM    DATA     BIT       SPI0CN0_MODF
      000000B8H.6 SFRSYM    DATA     BIT       IP_PSPI0
      0000009CH   SFRSYM    DATA     BYTE      PCA0CLR
LX51 LINKER/LOCATER V4.66.30.0                                                        03/28/2016  20:19:13  PAGE 104


      000000C8H   SFRSYM    DATA     BYTE      TMR2CN0
      00000091H   SFRSYM    DATA     BYTE      TMR3CN0
      000000FDH   SFRSYM    DATA     BYTE      TMR2CN1
      00000098H   SFRSYM    DATA     BYTE      TMR4CN0
      000000FEH   SFRSYM    DATA     BYTE      TMR3CN1
      000000FFH   SFRSYM    DATA     BYTE      TMR4CN1
      000000D7H   SFRSYM    DATA     BYTE      SMB0ADR
      00000088H.4 SFRSYM    DATA     BIT       TCON_TR0
      000000C8H.4 SFRSYM    DATA     BIT       TMR2CN0_TF2CEN
      00000088H.6 SFRSYM    DATA     BIT       TCON_TR1
      000000C2H   SFRSYM    DATA     BYTE      SMB0DAT
      000000CDH   SFRSYM    DATA     BYTE      TMR2H
      000000A1H   SFRSYM    DATA     BYTE      SPI0CFG
      00000095H   SFRSYM    DATA     BYTE      TMR3H
      000000EFH   SFRSYM    DATA     BYTE      HFOCN
      000000D3H   SFRSYM    DATA     BYTE      CRC0CNT
      000000A5H   SFRSYM    DATA     BYTE      TMR4H
      00000098H.4 SFRSYM    DATA     BIT       TMR4CN0_TF4CEN
      000000EFH   SFRSYM    DATA     BYTE      SMB0FCT
      00000096H   SFRSYM    DATA     BYTE      PCA0POL
      000000CCH   SFRSYM    DATA     BYTE      TMR2L
      000000F8H.7 SFRSYM    DATA     BIT       SPI0CN0_SPIF
      000000AEH   SFRSYM    DATA     BYTE      USB0ADR
      00000094H   SFRSYM    DATA     BYTE      TMR3L
      000000DFH   SFRSYM    DATA     BYTE      ADC0PWR
      000000A8H.7 SFRSYM    DATA     BIT       IE_EA
      000000A4H   SFRSYM    DATA     BYTE      TMR4L
      000000AFH   SFRSYM    DATA     BYTE      USB0DAT
      000000C8H.5 SFRSYM    DATA     BIT       TMR2CN0_TF2LEN
      000000F8H.6 SFRSYM    DATA     BIT       SPI0CN0_WCOL
      000000F8H.2 SFRSYM    DATA     BIT       SPI0CN0_NSSMD0
      000000D0H.7 SFRSYM    DATA     BIT       PSW_CY
      0000009DH   SFRSYM    DATA     BYTE      UART1FCN0
      000000A3H   SFRSYM    DATA     BYTE      SPI0DAT
      000000ADH   SFRSYM    DATA     BYTE      I2C0FCN0
      000000F8H.3 SFRSYM    DATA     BIT       SPI0CN0_NSSMD1
      000000BDH   SFRSYM    DATA     WORD      ADC0
      000000D8H   SFRSYM    DATA     BYTE      UART1FCN1
      000000ABH   SFRSYM    DATA     BYTE      I2C0FCN1
      00000098H.5 SFRSYM    DATA     BIT       TMR4CN0_TF4LEN
      000000D0H   SFRSYM    DATA     BYTE      PSW
      000000F7H   SFRSYM    DATA     BYTE      PCA0PWM
      000000F7H   SFRSYM    DATA     BYTE      SPI0FCT
      000000B6H   SFRSYM    DATA     BYTE      REVID
      000000B7H   SFRSYM    DATA     BYTE      FLKEY
      000000B3H   SFRSYM    DATA     BYTE      ADC0AC

      01002AF1H   BLOCK     CODE     ---       LVL=0
      ---         BLOCKEND  ---      ---       LVL=0

      01003564H   BLOCK     CODE     ---       LVL=0
      01003564H   BLOCK     CODE     NEAR LAB  LVL=1
      02000108H   SYMBOL    XDATA    BYTE      i
      00000020H.3 SYMBOL    BIT      BIT       usbIntsEnabled
      02000109H   SYMBOL    XDATA    BYTE      SfrPageSave
      ---         BLOCKEND  ---      ---       LVL=1
      01003564H   LINE      CODE     ---       #48
      01003564H   LINE      CODE     ---       #49
      01003564H   LINE      CODE     ---       #53
      0100356AH   LINE      CODE     ---       #54
      01003572H   LINE      CODE     ---       #57
      01003582H   LINE      CODE     ---       #58
LX51 LINKER/LOCATER V4.66.30.0                                                        03/28/2016  20:19:13  PAGE 105


      01003582H   LINE      CODE     ---       #59
      01003585H   LINE      CODE     ---       #60
      0100358DH   LINE      CODE     ---       #62
      01003593H   LINE      CODE     ---       #63
      01003599H   LINE      CODE     ---       #64
      ---         BLOCKEND  ---      ---       LVL=0

      01002734H   BLOCK     CODE     ---       LVL=0
      0200010AH   SYMBOL    XDATA    BYTE      epAddr
      01002739H   BLOCK     CODE     NEAR LAB  LVL=1
      0200010BH   SYMBOL    XDATA    ---       ep
      0200010DH   SYMBOL    XDATA    BYTE      retVal
      00000020H.4 SYMBOL    BIT      BIT       usbIntsEnabled
      0200010EH   SYMBOL    XDATA    BYTE      SfrPageSave
      ---         BLOCKEND  ---      ---       LVL=1
      01002734H   LINE      CODE     ---       #66
      01002739H   LINE      CODE     ---       #67
      01002739H   LINE      CODE     ---       #69
      0100273EH   LINE      CODE     ---       #72
      01002742H   LINE      CODE     ---       #75
      0100274EH   LINE      CODE     ---       #76
      0100274EH   LINE      CODE     ---       #77
      01002758H   LINE      CODE     ---       #78
      0100275EH   LINE      CODE     ---       #79
      01002760H   LINE      CODE     ---       #81
      01002760H   LINE      CODE     ---       #82
      01002768H   LINE      CODE     ---       #83
      01002772H   LINE      CODE     ---       #87
      01002779H   LINE      CODE     ---       #88
      01002779H   LINE      CODE     ---       #89
      01002784H   LINE      CODE     ---       #90
      01002784H   LINE      CODE     ---       #92
      01002784H   LINE      CODE     ---       #93
      01002789H   LINE      CODE     ---       #94
      0100278BH   LINE      CODE     ---       #107
      0100278BH   LINE      CODE     ---       #108
      01002790H   LINE      CODE     ---       #109
      01002790H   LINE      CODE     ---       #121
      01002790H   LINE      CODE     ---       #124
      01002799H   LINE      CODE     ---       #125
      010027A1H   LINE      CODE     ---       #126
      010027A1H   LINE      CODE     ---       #127
      010027A1H   LINE      CODE     ---       #129
      010027A7H   LINE      CODE     ---       #130
      010027ADH   LINE      CODE     ---       #132
      010027B2H   LINE      CODE     ---       #133
      ---         BLOCKEND  ---      ---       LVL=0

      01003AD2H   BLOCK     CODE     ---       LVL=0
      01003AD2H   BLOCK     CODE     NEAR LAB  LVL=1
      00000007H   SYMBOL    DATA     BYTE      SfrPageSave
      ---         BLOCKEND  ---      ---       LVL=1
      01003AD2H   LINE      CODE     ---       #135
      01003AD2H   LINE      CODE     ---       #136
      01003AD2H   LINE      CODE     ---       #137
      01003AD4H   LINE      CODE     ---       #138
      01003ADAH   LINE      CODE     ---       #139
      01003AE0H   LINE      CODE     ---       #140
      01003AE6H   LINE      CODE     ---       #141
      01003AE8H   LINE      CODE     ---       #142
      ---         BLOCKEND  ---      ---       LVL=0
      00000007H   SYMBOL    DATA     BYTE      SfrPageSave
LX51 LINKER/LOCATER V4.66.30.0                                                        03/28/2016  20:19:13  PAGE 106



      0100375CH   BLOCK     CODE     ---       LVL=0
      02000041H   SYMBOL    XDATA    BYTE      epAddr
      01003761H   BLOCK     CODE     NEAR LAB  LVL=1
      00000082H   SYMBOL    DATA     ---       ep
      ---         BLOCKEND  ---      ---       LVL=1
      0100375CH   LINE      CODE     ---       #151
      01003761H   LINE      CODE     ---       #152
      01003761H   LINE      CODE     ---       #156
      01003766H   LINE      CODE     ---       #157
      01003766H   LINE      CODE     ---       #158
      01003770H   LINE      CODE     ---       #159
      01003772H   LINE      CODE     ---       #160
      01003772H   LINE      CODE     ---       #162
      0100377AH   LINE      CODE     ---       #164
      01003781H   LINE      CODE     ---       #165
      01003781H   LINE      CODE     ---       #166
      01003783H   LINE      CODE     ---       #167
      01003783H   LINE      CODE     ---       #169
      01003784H   LINE      CODE     ---       #170
      ---         BLOCKEND  ---      ---       LVL=0

      010022B9H   BLOCK     CODE     ---       LVL=0
      02000042H   SYMBOL    XDATA    ---       p
      010022BFH   BLOCK     CODE     NEAR LAB  LVL=1
      00000007H   SYMBOL    DATA     BYTE      i
      02000045H   SYMBOL    XDATA    BYTE      SfrPageSave
      ---         BLOCKEND  ---      ---       LVL=1
      010022B9H   LINE      CODE     ---       #177
      010022BFH   LINE      CODE     ---       #178
      010022BFH   LINE      CODE     ---       #181
      010022C5H   LINE      CODE     ---       #182
      010022C8H   LINE      CODE     ---       #187
      010022CBH   LINE      CODE     ---       #191
      010022CDH   LINE      CODE     ---       #192
      010022CDH   LINE      CODE     ---       #193
      010022D9H   LINE      CODE     ---       #194
      010022DEH   LINE      CODE     ---       #197
      010022E7H   LINE      CODE     ---       #198
      010022F3H   LINE      CODE     ---       #199
      010022FFH   LINE      CODE     ---       #200
      0100230CH   LINE      CODE     ---       #204
      0100230FH   LINE      CODE     ---       #205
      01002315H   LINE      CODE     ---       #213
      0100231BH   LINE      CODE     ---       #218
      01002326H   LINE      CODE     ---       #219
      01002331H   LINE      CODE     ---       #220
      01002334H   LINE      CODE     ---       #225
      0100233AH   LINE      CODE     ---       #239
      0100233DH   LINE      CODE     ---       #242
      01002343H   LINE      CODE     ---       #243
      0100234EH   LINE      CODE     ---       #245
      01002350H   LINE      CODE     ---       #246
      ---         BLOCKEND  ---      ---       LVL=0

      01001F61H   BLOCK     CODE     ---       LVL=0
      02000041H   SYMBOL    XDATA    BYTE      epAddr
      02000042H   SYMBOL    XDATA    ---       dat
      02000045H   SYMBOL    XDATA    WORD      byteCount
      00000020H.0 SYMBOL    BIT      BIT       callback
      01001F6AH   BLOCK     CODE     NEAR LAB  LVL=1
      00000020H.1 SYMBOL    BIT      BIT       usbIntsEnabled
LX51 LINKER/LOCATER V4.66.30.0                                                        03/28/2016  20:19:13  PAGE 107


      02000047H   SYMBOL    XDATA    ---       ep
      02000049H   SYMBOL    XDATA    BYTE      SfrPageSave
      ---         BLOCKEND  ---      ---       LVL=1
      01001F61H   LINE      CODE     ---       #248
      01001F6AH   LINE      CODE     ---       #252
      01001F6AH   LINE      CODE     ---       #256
      01001F70H   LINE      CODE     ---       #259
      01001F7CH   LINE      CODE     ---       #260
      01001F7CH   LINE      CODE     ---       #261
      01001F7CH   LINE      CODE     ---       #263
      01001F7CH   LINE      CODE     ---       #271
      01001F7CH   LINE      CODE     ---       #273
      01001F7CH   LINE      CODE     ---       #281
      01001F7CH   LINE      CODE     ---       #282
      01001F86H   LINE      CODE     ---       #283
      01001F89H   LINE      CODE     ---       #284
      01001F89H   LINE      CODE     ---       #287
      01001F98H   LINE      CODE     ---       #288
      01001F98H   LINE      CODE     ---       #289
      01001F9BH   LINE      CODE     ---       #290
      01001F9BH   LINE      CODE     ---       #292
      01001F9EH   LINE      CODE     ---       #296
      01001FA6H   LINE      CODE     ---       #297
      01001FA6H   LINE      CODE     ---       #298
      01001FACH   LINE      CODE     ---       #299
      01001FACH   LINE      CODE     ---       #300
      01001FAEH   LINE      CODE     ---       #301
      01001FAEH   LINE      CODE     ---       #303
      01001FAEH   LINE      CODE     ---       #304
      01001FAFH   LINE      CODE     ---       #305
      01001FAFH   LINE      CODE     ---       #306
      01001FAFH   LINE      CODE     ---       #308
      01001FB7H   LINE      CODE     ---       #310
      01001FC3H   LINE      CODE     ---       #311
      01001FD6H   LINE      CODE     ---       #312
      01001FDFH   LINE      CODE     ---       #313
      01001FF1H   LINE      CODE     ---       #314
      01002001H   LINE      CODE     ---       #324
      01002007H   LINE      CODE     ---       #325
      0100200DH   LINE      CODE     ---       #327
      0100200FH   LINE      CODE     ---       #328
      ---         BLOCKEND  ---      ---       LVL=0
      00000007H   SYMBOL    DATA     BYTE      i

      010018B1H   BLOCK     CODE     ---       LVL=0
      02000107H   SYMBOL    XDATA    BYTE      epAddr
      02000108H   SYMBOL    XDATA    ---       dat
      0200010BH   SYMBOL    XDATA    WORD      byteCount
      00000020H.3 SYMBOL    BIT      BIT       callback
      010018BAH   BLOCK     CODE     NEAR LAB  LVL=1
      00000020H.4 SYMBOL    BIT      BIT       usbIntsEnabled
      0200010DH   SYMBOL    XDATA    ---       ep
      0200010FH   SYMBOL    XDATA    BYTE      SfrPageSave
      ---         BLOCKEND  ---      ---       LVL=1
      010018B1H   LINE      CODE     ---       #601
      010018BAH   LINE      CODE     ---       #605
      010018BAH   LINE      CODE     ---       #609
      010018C0H   LINE      CODE     ---       #612
      010018CBH   LINE      CODE     ---       #613
      010018CBH   LINE      CODE     ---       #614
      010018CBH   LINE      CODE     ---       #616
      010018CBH   LINE      CODE     ---       #624
LX51 LINKER/LOCATER V4.66.30.0                                                        03/28/2016  20:19:13  PAGE 108


      010018CBH   LINE      CODE     ---       #626
      010018CBH   LINE      CODE     ---       #634
      010018CBH   LINE      CODE     ---       #635
      010018D5H   LINE      CODE     ---       #636
      010018D8H   LINE      CODE     ---       #637
      010018D8H   LINE      CODE     ---       #641
      010018E7H   LINE      CODE     ---       #642
      010018E7H   LINE      CODE     ---       #643
      010018EAH   LINE      CODE     ---       #644
      010018EAH   LINE      CODE     ---       #646
      010018EDH   LINE      CODE     ---       #650
      010018F5H   LINE      CODE     ---       #651
      010018F5H   LINE      CODE     ---       #652
      010018FBH   LINE      CODE     ---       #653
      010018FBH   LINE      CODE     ---       #654
      010018FDH   LINE      CODE     ---       #655
      010018FDH   LINE      CODE     ---       #657
      010018FDH   LINE      CODE     ---       #658
      010018FEH   LINE      CODE     ---       #659
      010018FEH   LINE      CODE     ---       #660
      010018FEH   LINE      CODE     ---       #662
      01001906H   LINE      CODE     ---       #664
      01001912H   LINE      CODE     ---       #665
      01001926H   LINE      CODE     ---       #666
      0100192FH   LINE      CODE     ---       #667
      01001941H   LINE      CODE     ---       #669
      0100194BH   LINE      CODE     ---       #670
      0100194BH   LINE      CODE     ---       #673
      0100194BH   LINE      CODE     ---       #674
      01001952H   LINE      CODE     ---       #675
      01001954H   LINE      CODE     ---       #680
      01001954H   LINE      CODE     ---       #681
      01001974H   LINE      CODE     ---       #685
      01001974H   LINE      CODE     ---       #708
      01001974H   LINE      CODE     ---       #710
      0100197AH   LINE      CODE     ---       #711
      01001980H   LINE      CODE     ---       #713
      01001982H   LINE      CODE     ---       #714
      ---         BLOCKEND  ---      ---       LVL=0

      01003227H   BLOCK     CODE     ---       LVL=0
      02000106H   SYMBOL    XDATA    BYTE      newState
      0100322CH   BLOCK     CODE     NEAR LAB  LVL=1
      02000107H   SYMBOL    XDATA    BYTE      currentState
      ---         BLOCKEND  ---      ---       LVL=1
      01003227H   LINE      CODE     ---       #719
      0100322CH   LINE      CODE     ---       #720
      0100322CH   LINE      CODE     ---       #726
      01003234H   LINE      CODE     ---       #730
      01003241H   LINE      CODE     ---       #732
      01003241H   LINE      CODE     ---       #733
      01003244H   LINE      CODE     ---       #741
      01003244H   LINE      CODE     ---       #742
      0100324CH   LINE      CODE     ---       #743
      0100324CH   LINE      CODE     ---       #744
      01003252H   LINE      CODE     ---       #745
      01003252H   LINE      CODE     ---       #747
      0100325BH   LINE      CODE     ---       #750
      01003263H   LINE      CODE     ---       #751
      01003263H   LINE      CODE     ---       #752
      01003266H   LINE      CODE     ---       #753
      01003266H   LINE      CODE     ---       #755
LX51 LINKER/LOCATER V4.66.30.0                                                        03/28/2016  20:19:13  PAGE 109


      ---         BLOCKEND  ---      ---       LVL=0

      ---         MODULE    ---      ---       EFM8_USBDCH9
      01003E97H   PUBLIC    CONST    ---       txZero
      010028A9H   PUBLIC    CODE     ---       USBDCH9_SetupCmd
      000000A2H   SFRSYM    DATA     BYTE      SPI0CKR
      00000080H   SFRSYM    DATA     BYTE      P0
      000000C8H.6 SFRSYM    DATA     BIT       SCON1_PERR
      000000D0H.2 SFRSYM    DATA     BIT       PSW_OV
      00000090H   SFRSYM    DATA     BYTE      P1
      000000F8H.1 SFRSYM    DATA     BIT       SPI0CN0_TXNF
      00000097H   SFRSYM    DATA     BYTE      WDTCN
      000000A0H   SFRSYM    DATA     BYTE      P2
      000000B0H   SFRSYM    DATA     BYTE      P3
      000000BCH   SFRSYM    DATA     BYTE      ADC0CF
      000000C0H.7 SFRSYM    DATA     BIT       SMB0CN0_MASTER
      000000F9H   SFRSYM    DATA     WORD      PCA0
      000000E6H   SFRSYM    DATA     BYTE      EIE1
      000000C0H.1 SFRSYM    DATA     BIT       SMB0CN0_ACK
      000000B3H   SFRSYM    DATA     BYTE      USB0XCN
      000000CEH   SFRSYM    DATA     BYTE      EIE2
      0000008FH   SFRSYM    DATA     BYTE      PSCTL
      000000E4H   SFRSYM    DATA     BYTE      IT01CF
      000000C0H.6 SFRSYM    DATA     BIT       SMB0CN0_TXMODE
      000000ADH   SFRSYM    DATA     BYTE      DERIVID
      000000A7H   SFRSYM    DATA     BYTE      SFRPAGE
      000000A4H   SFRSYM    DATA     BYTE      P0MDOUT
      000000BFH   SFRSYM    DATA     BYTE      USB0CDSTA
      000000A5H   SFRSYM    DATA     BYTE      P1MDOUT
      000000E8H.5 SFRSYM    DATA     BIT       ADC0CN0_ADINT
      000000CBH   SFRSYM    DATA     BYTE      TMR2RLH
      000000A6H   SFRSYM    DATA     BYTE      P2MDOUT
      000000A8H   SFRSYM    DATA     BYTE      IE
      00000093H   SFRSYM    DATA     BYTE      TMR3RLH
      0000009CH   SFRSYM    DATA     BYTE      P3MDOUT
      000000A3H   SFRSYM    DATA     BYTE      TMR4RLH
      000000F3H   SFRSYM    DATA     BYTE      EIP1
      000000F4H   SFRSYM    DATA     BYTE      EIP2
      00000098H.2 SFRSYM    DATA     BIT       SCON0_RB8
      000000CAH   SFRSYM    DATA     BYTE      TMR2RLL
      000000FCH   SFRSYM    DATA     BYTE      PCA0CPH0
      00000092H   SFRSYM    DATA     BYTE      TMR3RLL
      000000EAH   SFRSYM    DATA     BYTE      PCA0CPH1
      00000098H.3 SFRSYM    DATA     BIT       SCON0_TB8
      000000F0H   SFRSYM    DATA     BIT       B_B0
      00000082H   SFRSYM    DATA     WORD      DP
      000000A2H   SFRSYM    DATA     BYTE      TMR4RLL
      000000ECH   SFRSYM    DATA     BYTE      PCA0CPH2
      000000F0H.1 SFRSYM    DATA     BIT       B_B1
      000000C3H   SFRSYM    DATA     WORD      ADC0GT
      000000BDH   SFRSYM    DATA     BYTE      I2C0SLAD
      000000D8H.3 SFRSYM    DATA     BIT       UART1FCN1_RFRQ
      000000F0H.2 SFRSYM    DATA     BIT       B_B2
      000000CFH   SFRSYM    DATA     BYTE      SFRPGCN
      000000FBH   SFRSYM    DATA     BYTE      PCA0CPL0
      000000F0H.3 SFRSYM    DATA     BIT       B_B3
      000000D9H   SFRSYM    DATA     BYTE      PCA0MD
      000000DAH   SFRSYM    DATA     BYTE      PCA0CPM0
      000000E9H   SFRSYM    DATA     BYTE      PCA0CPL1
      000000D8H.7 SFRSYM    DATA     BIT       UART1FCN1_TFRQ
      000000F0H.4 SFRSYM    DATA     BIT       B_B4
      000000DBH   SFRSYM    DATA     BYTE      PCA0CPM1
LX51 LINKER/LOCATER V4.66.30.0                                                        03/28/2016  20:19:13  PAGE 110


      000000EBH   SFRSYM    DATA     BYTE      PCA0CPL2
      000000F0H.5 SFRSYM    DATA     BIT       B_B5
      000000DCH   SFRSYM    DATA     BYTE      PCA0CPM2
      000000B8H   SFRSYM    DATA     BYTE      IP
      000000B9H   SFRSYM    DATA     BYTE      ADC0TK
      000000F0H.6 SFRSYM    DATA     BIT       B_B6
      000000C5H   SFRSYM    DATA     WORD      ADC0LT
      000000D8H.6 SFRSYM    DATA     BIT       UART1FCN1_TXNF
      00000098H.5 SFRSYM    DATA     BIT       SCON0_MCE
      000000F0H.7 SFRSYM    DATA     BIT       B_B7
      000000C3H   SFRSYM    DATA     BYTE      SMB0FCN0
      000000E1H   SFRSYM    DATA     BYTE      XBR0
      000000C4H   SFRSYM    DATA     BYTE      SMB0FCN1
      000000C1H   SFRSYM    DATA     BYTE      SMB0CF
      000000E2H   SFRSYM    DATA     BYTE      XBR1
      000000C1H   SFRSYM    DATA     BYTE      PFE0CN
      000000E7H   SFRSYM    DATA     BYTE      EMI0CN
      000000C0H.5 SFRSYM    DATA     BIT       SMB0CN0_STA
      000000E3H   SFRSYM    DATA     BYTE      XBR2
      000000BBH   SFRSYM    DATA     BYTE      ADC0MX
      000000E0H   SFRSYM    DATA     BIT       ACC_ACC0
      000000D1H   SFRSYM    DATA     BYTE      REF0CN
      0000008EH   SFRSYM    DATA     BYTE      CKCON0
      000000E0H.1 SFRSYM    DATA     BIT       ACC_ACC1
      000000C9H   SFRSYM    DATA     BYTE      REG0CN
      000000DDH   SFRSYM    DATA     BYTE      CRC0IN
      000000A6H   SFRSYM    DATA     BYTE      CKCON1
      000000C8H.2 SFRSYM    DATA     BIT       TMR2CN0_TR2
      000000E0H.2 SFRSYM    DATA     BIT       ACC_ACC2
      000000C6H   SFRSYM    DATA     BYTE      REG1CN
      000000E0H.3 SFRSYM    DATA     BIT       ACC_ACC3
      00000081H   SFRSYM    DATA     BYTE      SP
      0000009DH   SFRSYM    DATA     BYTE      CMP0MD
      000000E0H.4 SFRSYM    DATA     BIT       ACC_ACC4
      000000B1H   SFRSYM    DATA     BYTE      LFO0CN
      000000ABH   SFRSYM    DATA     BYTE      CMP1MD
      000000D8H   SFRSYM    DATA     BIT       PCA0CN0_CCF0
      000000E0H.5 SFRSYM    DATA     BIT       ACC_ACC5
      000000B5H   SFRSYM    DATA     BYTE      USB0CF
      00000098H.2 SFRSYM    DATA     BIT       TMR4CN0_TR4
      000000D8H.1 SFRSYM    DATA     BIT       PCA0CN0_CCF1
      000000E0H.6 SFRSYM    DATA     BIT       ACC_ACC6
      000000CCH   SFRSYM    DATA     WORD      TMR2
      0000009AH   SFRSYM    DATA     BYTE      SPI0FCN0
      000000D8H.2 SFRSYM    DATA     BIT       PCA0CN0_CCF2
      000000E0H.7 SFRSYM    DATA     BIT       ACC_ACC7
      00000094H   SFRSYM    DATA     WORD      TMR3
      0000009BH   SFRSYM    DATA     BYTE      SPI0FCN1
      000000A4H   SFRSYM    DATA     WORD      TMR4
      00000094H   SFRSYM    DATA     BYTE      SBCON1
      000000C0H.3 SFRSYM    DATA     BIT       SMB0CN0_ACKRQ
      000000FFH   SFRSYM    DATA     BYTE      VDM0CN
      000000F1H   SFRSYM    DATA     BYTE      P0MDIN
      00000098H.4 SFRSYM    DATA     BIT       SCON0_REN
      000000ACH   SFRSYM    DATA     BYTE      SMB0TC
      000000F2H   SFRSYM    DATA     BYTE      P1MDIN
      000000C8H.4 SFRSYM    DATA     BIT       SCON1_REN
      000000F3H   SFRSYM    DATA     BYTE      P2MDIN
      000000C0H.4 SFRSYM    DATA     BIT       SMB0CN0_STO
      000000B6H   SFRSYM    DATA     BYTE      USB0CDCF
      000000F4H   SFRSYM    DATA     BYTE      P3MDIN
      000000B9H   SFRSYM    DATA     BYTE      I2C0STAT
LX51 LINKER/LOCATER V4.66.30.0                                                        03/28/2016  20:19:13  PAGE 111


      000000BBH   SFRSYM    DATA     BYTE      I2C0DOUT
      00000096H   SFRSYM    DATA     BYTE      SBRLH1
      000000FEH   SFRSYM    DATA     BYTE      P0MASK
      000000D8H.5 SFRSYM    DATA     BIT       UART1FCN1_TXHOLD
      000000EEH   SFRSYM    DATA     BYTE      P1MASK
      000000FCH   SFRSYM    DATA     BYTE      P2MASK
      000000D0H.3 SFRSYM    DATA     BIT       PSW_RS0
      000000D8H.7 SFRSYM    DATA     BIT       PCA0CN0_CF
      0000009EH   SFRSYM    DATA     BYTE      PCA0CENT
      000000BAH   SFRSYM    DATA     BYTE      I2C0CN0
      000000D2H   SFRSYM    DATA     BYTE      CRC0ST
      000000F8H.4 SFRSYM    DATA     BIT       SPI0CN0_RXOVRN
      000000D0H.4 SFRSYM    DATA     BIT       PSW_RS1
      00000095H   SFRSYM    DATA     BYTE      SBRLL1
      000000C8H.2 SFRSYM    DATA     BIT       SCON1_RBX
      000000C8H   SFRSYM    DATA     BIT       TMR2CN0_T2XCLK0
      000000C8H.1 SFRSYM    DATA     BIT       TMR2CN0_T2XCLK1
      000000C8H.3 SFRSYM    DATA     BIT       SCON1_TBX
      000000E8H.7 SFRSYM    DATA     BIT       ADC0CN0_ADEN
      000000BEH   SFRSYM    DATA     BYTE      USB0CDCN
      00000089H   SFRSYM    DATA     BYTE      TMOD
      00000088H   SFRSYM    DATA     BYTE      TCON
      000000CFH   SFRSYM    DATA     BYTE      CRC0FLIP
      000000D0H   SFRSYM    DATA     BIT       PSW_PARITY
      000000A8H.4 SFRSYM    DATA     BIT       IE_ES0
      0000009FH   SFRSYM    DATA     BYTE      CMP0MX
      00000098H   SFRSYM    DATA     BIT       TMR4CN0_T4XCLK0
      000000A8H.1 SFRSYM    DATA     BIT       IE_ET0
      000000AAH   SFRSYM    DATA     BYTE      CMP1MX
      00000098H.1 SFRSYM    DATA     BIT       TMR4CN0_T4XCLK1
      000000A8H.3 SFRSYM    DATA     BIT       IE_ET1
      000000D4H   SFRSYM    DATA     BYTE      P0SKIP
      000000D8H   SFRSYM    DATA     BIT       UART1FCN1_RIE
      000000A8H.5 SFRSYM    DATA     BIT       IE_ET2
      000000D5H   SFRSYM    DATA     BYTE      P1SKIP
      000000CCH   SFRSYM    DATA     BYTE      P2SKIP
      000000E8H   SFRSYM    DATA     BYTE      ADC0CN0
      000000D8H.4 SFRSYM    DATA     BIT       UART1FCN1_TIE
      000000A8H   SFRSYM    DATA     BIT       IE_EX0
      000000B2H   SFRSYM    DATA     BYTE      ADC0CN1
      000000D8H.6 SFRSYM    DATA     BIT       PCA0CN0_CR
      000000A8H.2 SFRSYM    DATA     BIT       IE_EX1
      000000C8H.7 SFRSYM    DATA     BIT       SCON1_OVR
      00000098H.7 SFRSYM    DATA     BIT       SCON0_SMODE
      000000B5H   SFRSYM    DATA     BYTE      DEVICEID
      000000A9H   SFRSYM    DATA     BYTE      CLKSEL
      000000F8H   SFRSYM    DATA     BIT       SPI0CN0_SPIEN
      000000F0H   SFRSYM    DATA     BYTE      B
      000000BEH   SFRSYM    DATA     BYTE      ADC0H
      000000E8H.6 SFRSYM    DATA     BIT       ADC0CN0_ADBMEN
      000000CAH   SFRSYM    DATA     WORD      TMR2RL
      000000BDH   SFRSYM    DATA     BYTE      ADC0L
      00000092H   SFRSYM    DATA     WORD      TMR3RL
      000000A2H   SFRSYM    DATA     WORD      TMR4RL
      000000D8H   SFRSYM    DATA     BYTE      PCA0CN0
      000000E0H   SFRSYM    DATA     BYTE      ACC
      000000FBH   SFRSYM    DATA     WORD      PCA0CP0
      000000E9H   SFRSYM    DATA     WORD      PCA0CP1
      000000EBH   SFRSYM    DATA     WORD      PCA0CP2
      000000BCH   SFRSYM    DATA     BYTE      I2C0DIN
      000000CEH   SFRSYM    DATA     BYTE      CRC0CN0
      0000008CH   SFRSYM    DATA     BYTE      TH0
LX51 LINKER/LOCATER V4.66.30.0                                                        03/28/2016  20:19:13  PAGE 112


      00000086H   SFRSYM    DATA     BYTE      CRC0CN1
      000000B8H.4 SFRSYM    DATA     BIT       IP_PS0
      000000FAH   SFRSYM    DATA     BYTE      UART1FCT
      0000008DH   SFRSYM    DATA     BYTE      TH1
      000000FAH   SFRSYM    DATA     BYTE      PCA0H
      000000F5H   SFRSYM    DATA     BYTE      I2C0FCT
      000000B8H.1 SFRSYM    DATA     BIT       IP_PT0
      000000B8H.3 SFRSYM    DATA     BIT       IP_PT1
      000000C0H.2 SFRSYM    DATA     BIT       SMB0CN0_ARBLOST
      000000B8H.5 SFRSYM    DATA     BIT       IP_PT2
      0000008AH   SFRSYM    DATA     BYTE      TL0
      000000D0H.5 SFRSYM    DATA     BIT       PSW_F0
      000000A8H.6 SFRSYM    DATA     BIT       IE_ESPI0
      0000008BH   SFRSYM    DATA     BYTE      TL1
      000000F9H   SFRSYM    DATA     BYTE      PCA0L
      000000C0H   SFRSYM    DATA     BIT       SMB0CN0_SI
      000000D0H.1 SFRSYM    DATA     BIT       PSW_F1
      00000080H   SFRSYM    DATA     BIT       P0_B0
      000000B8H   SFRSYM    DATA     BIT       IP_PX0
      00000090H   SFRSYM    DATA     BIT       P1_B0
      00000080H.1 SFRSYM    DATA     BIT       P0_B1
      000000B8H.2 SFRSYM    DATA     BIT       IP_PX1
      0000009EH   SFRSYM    DATA     BYTE      UART1LIN
      0000009BH   SFRSYM    DATA     BYTE      CMP0CN0
      00000088H.1 SFRSYM    DATA     BIT       TCON_IE0
      000000A0H   SFRSYM    DATA     BIT       P2_B0
      00000090H.1 SFRSYM    DATA     BIT       P1_B1
      00000080H.2 SFRSYM    DATA     BIT       P0_B2
      000000BFH   SFRSYM    DATA     BYTE      CMP1CN0
      00000099H   SFRSYM    DATA     BYTE      CMP0CN1
      00000088H.3 SFRSYM    DATA     BIT       TCON_IE1
      000000B0H   SFRSYM    DATA     BIT       P3_B0
      000000A0H.1 SFRSYM    DATA     BIT       P2_B1
      00000090H.2 SFRSYM    DATA     BIT       P1_B2
      00000080H.3 SFRSYM    DATA     BIT       P0_B3
      000000C0H   SFRSYM    DATA     BYTE      SMB0CN0
      000000ACH   SFRSYM    DATA     BYTE      CMP1CN1
      000000B0H.1 SFRSYM    DATA     BIT       P3_B1
      000000A0H.2 SFRSYM    DATA     BIT       P2_B2
      00000090H.3 SFRSYM    DATA     BIT       P1_B3
      00000080H.4 SFRSYM    DATA     BIT       P0_B4
      000000A0H.3 SFRSYM    DATA     BIT       P2_B3
      00000090H.4 SFRSYM    DATA     BIT       P1_B4
      00000080H.5 SFRSYM    DATA     BIT       P0_B5
      000000D8H.1 SFRSYM    DATA     BIT       UART1FCN1_RXTO0
      00000090H.5 SFRSYM    DATA     BIT       P1_B5
      00000080H.6 SFRSYM    DATA     BIT       P0_B6
      000000F5H   SFRSYM    DATA     BYTE      EIP1H
      000000D8H.2 SFRSYM    DATA     BIT       UART1FCN1_RXTO1
      00000090H.6 SFRSYM    DATA     BIT       P1_B6
      00000080H.7 SFRSYM    DATA     BIT       P0_B7
      000000C5H   SFRSYM    DATA     BYTE      SMB0RXLN
      000000F6H   SFRSYM    DATA     BYTE      EIP2H
      00000090H.7 SFRSYM    DATA     BIT       P1_B7
      00000083H   SFRSYM    DATA     BYTE      DPH
      000000C4H   SFRSYM    DATA     BYTE      ADC0GTH
      000000C8H.7 SFRSYM    DATA     BIT       TMR2CN0_TF2H
      000000C8H.3 SFRSYM    DATA     BIT       TMR2CN0_T2SPLIT
      000000D0H.6 SFRSYM    DATA     BIT       PSW_AC
      000000F8H   SFRSYM    DATA     BYTE      SPI0CN0
      000000C7H   SFRSYM    DATA     BYTE      HFO0CAL
      00000088H.5 SFRSYM    DATA     BIT       TCON_TF0
LX51 LINKER/LOCATER V4.66.30.0                                                        03/28/2016  20:19:13  PAGE 113


      00000098H   SFRSYM    DATA     BIT       SCON0_RI
      000000D6H   SFRSYM    DATA     BYTE      HFO1CAL
      00000082H   SFRSYM    DATA     BYTE      DPL
      00000088H.7 SFRSYM    DATA     BIT       TCON_TF1
      000000C8H   SFRSYM    DATA     BIT       SCON1_RI
      00000099H   SFRSYM    DATA     BYTE      SBUF0
      00000087H   SFRSYM    DATA     BYTE      PCON0
      000000F2H   SFRSYM    DATA     BYTE      IPH
      000000C3H   SFRSYM    DATA     BYTE      ADC0GTL
      00000098H.7 SFRSYM    DATA     BIT       TMR4CN0_TF4H
      00000098H.3 SFRSYM    DATA     BIT       TMR4CN0_T4SPLIT
      000000C8H.6 SFRSYM    DATA     BIT       TMR2CN0_TF2L
      00000098H.1 SFRSYM    DATA     BIT       SCON0_TI
      000000E8H   SFRSYM    DATA     BIT       ADC0CN0_ADCM0
      00000092H   SFRSYM    DATA     BYTE      SBUF1
      0000009AH   SFRSYM    DATA     BYTE      PCON1
      000000C6H   SFRSYM    DATA     BYTE      ADC0LTH
      00000088H   SFRSYM    DATA     BIT       TCON_IT0
      000000C8H.1 SFRSYM    DATA     BIT       SCON1_TI
      000000E8H.1 SFRSYM    DATA     BIT       ADC0CN0_ADCM1
      000000EFH   SFRSYM    DATA     BYTE      RSTSRC
      000000FDH   SFRSYM    DATA     BYTE      P0MAT
      000000DEH   SFRSYM    DATA     BYTE      CRC0DAT
      00000088H.2 SFRSYM    DATA     BIT       TCON_IT1
      000000E8H.2 SFRSYM    DATA     BIT       ADC0CN0_ADCM2
      000000D7H   SFRSYM    DATA     BYTE      SFRSTACK
      00000098H   SFRSYM    DATA     BYTE      SCON0
      000000F6H   SFRSYM    DATA     BYTE      PRTDRV
      000000EDH   SFRSYM    DATA     BYTE      P1MAT
      000000E8H.3 SFRSYM    DATA     BIT       ADC0CN0_ADWINT
      00000095H   SFRSYM    DATA     WORD      SBRL1
      000000B2H   SFRSYM    DATA     BYTE      USB0AEC
      00000093H   SFRSYM    DATA     BYTE      SMOD1
      000000C8H   SFRSYM    DATA     BYTE      SCON1
      000000FBH   SFRSYM    DATA     BYTE      P2MAT
      00000098H.6 SFRSYM    DATA     BIT       TMR4CN0_TF4L
      000000E8H.4 SFRSYM    DATA     BIT       ADC0CN0_ADBUSY
      000000D6H   SFRSYM    DATA     BYTE      SMB0ADM
      000000C5H   SFRSYM    DATA     BYTE      ADC0LTL
      000000F8H.5 SFRSYM    DATA     BIT       SPI0CN0_MODF
      000000B8H.6 SFRSYM    DATA     BIT       IP_PSPI0
      0000009CH   SFRSYM    DATA     BYTE      PCA0CLR
      000000C8H   SFRSYM    DATA     BYTE      TMR2CN0
      00000091H   SFRSYM    DATA     BYTE      TMR3CN0
      000000FDH   SFRSYM    DATA     BYTE      TMR2CN1
      00000098H   SFRSYM    DATA     BYTE      TMR4CN0
      000000FEH   SFRSYM    DATA     BYTE      TMR3CN1
      000000FFH   SFRSYM    DATA     BYTE      TMR4CN1
      000000D7H   SFRSYM    DATA     BYTE      SMB0ADR
      00000088H.4 SFRSYM    DATA     BIT       TCON_TR0
      000000C8H.4 SFRSYM    DATA     BIT       TMR2CN0_TF2CEN
      00000088H.6 SFRSYM    DATA     BIT       TCON_TR1
      000000C2H   SFRSYM    DATA     BYTE      SMB0DAT
      000000CDH   SFRSYM    DATA     BYTE      TMR2H
      000000A1H   SFRSYM    DATA     BYTE      SPI0CFG
      00000095H   SFRSYM    DATA     BYTE      TMR3H
      000000EFH   SFRSYM    DATA     BYTE      HFOCN
      000000D3H   SFRSYM    DATA     BYTE      CRC0CNT
      000000A5H   SFRSYM    DATA     BYTE      TMR4H
      00000098H.4 SFRSYM    DATA     BIT       TMR4CN0_TF4CEN
      000000EFH   SFRSYM    DATA     BYTE      SMB0FCT
      00000096H   SFRSYM    DATA     BYTE      PCA0POL
LX51 LINKER/LOCATER V4.66.30.0                                                        03/28/2016  20:19:13  PAGE 114


      000000CCH   SFRSYM    DATA     BYTE      TMR2L
      000000F8H.7 SFRSYM    DATA     BIT       SPI0CN0_SPIF
      000000AEH   SFRSYM    DATA     BYTE      USB0ADR
      00000094H   SFRSYM    DATA     BYTE      TMR3L
      000000DFH   SFRSYM    DATA     BYTE      ADC0PWR
      000000A8H.7 SFRSYM    DATA     BIT       IE_EA
      000000A4H   SFRSYM    DATA     BYTE      TMR4L
      000000AFH   SFRSYM    DATA     BYTE      USB0DAT
      000000C8H.5 SFRSYM    DATA     BIT       TMR2CN0_TF2LEN
      000000F8H.6 SFRSYM    DATA     BIT       SPI0CN0_WCOL
      000000F8H.2 SFRSYM    DATA     BIT       SPI0CN0_NSSMD0
      000000D0H.7 SFRSYM    DATA     BIT       PSW_CY
      0000009DH   SFRSYM    DATA     BYTE      UART1FCN0
      000000A3H   SFRSYM    DATA     BYTE      SPI0DAT
      000000ADH   SFRSYM    DATA     BYTE      I2C0FCN0
      000000F8H.3 SFRSYM    DATA     BIT       SPI0CN0_NSSMD1
      000000BDH   SFRSYM    DATA     WORD      ADC0
      000000D8H   SFRSYM    DATA     BYTE      UART1FCN1
      000000ABH   SFRSYM    DATA     BYTE      I2C0FCN1
      00000098H.5 SFRSYM    DATA     BIT       TMR4CN0_TF4LEN
      000000D0H   SFRSYM    DATA     BYTE      PSW
      000000F7H   SFRSYM    DATA     BYTE      PCA0PWM
      000000F7H   SFRSYM    DATA     BYTE      SPI0FCT
      000000B6H   SFRSYM    DATA     BYTE      REVID
      000000B7H   SFRSYM    DATA     BYTE      FLKEY
      000000B3H   SFRSYM    DATA     BYTE      ADC0AC
      01002476H   SYMBOL    CODE     ---       SetFeature
      01002EC0H   SYMBOL    CODE     ---       GetConfiguration
      010039E7H   SYMBOL    CODE     ---       USBD_ActivateAllEps
      01001E00H   SYMBOL    CODE     ---       SetConfiguration
      01001983H   SYMBOL    CODE     ---       GetStatus
      0100398CH   SYMBOL    CODE     ---       _EP0_Write
      01003122H   SYMBOL    CODE     ---       GetInterface
      0100216AH   SYMBOL    CODE     ---       ClearFeature
      0100352DH   SYMBOL    CODE     ---       SetInterface
      0100103CH   SYMBOL    CODE     ---       GetDescriptor
      0200035BH   SYMBOL    XDATA    WORD      pStatus
      01002921H   SYMBOL    CODE     ---       SetAddress

      01002C2DH   BLOCK     CODE     ---       LVL=0
      ---         BLOCKEND  ---      ---       LVL=0

      010028A9H   BLOCK     CODE     ---       LVL=0
      010028A9H   BLOCK     CODE     NEAR LAB  LVL=1
      02000104H   SYMBOL    XDATA    CHAR      status
      ---         BLOCKEND  ---      ---       LVL=1
      010028A9H   LINE      CODE     ---       #48
      010028A9H   LINE      CODE     ---       #49
      010028A9H   LINE      CODE     ---       #50
      010028AEH   LINE      CODE     ---       #52
      010028D4H   LINE      CODE     ---       #53
      010028D4H   LINE      CODE     ---       #54
      010028D4H   LINE      CODE     ---       #55
      010028D7H   LINE      CODE     ---       #56
      010028D9H   LINE      CODE     ---       #58
      010028D9H   LINE      CODE     ---       #59
      010028DCH   LINE      CODE     ---       #60
      010028DEH   LINE      CODE     ---       #62
      010028DEH   LINE      CODE     ---       #63
      010028E1H   LINE      CODE     ---       #64
      010028E3H   LINE      CODE     ---       #66
      010028E3H   LINE      CODE     ---       #67
LX51 LINKER/LOCATER V4.66.30.0                                                        03/28/2016  20:19:13  PAGE 115


      010028E6H   LINE      CODE     ---       #68
      010028E8H   LINE      CODE     ---       #70
      010028E8H   LINE      CODE     ---       #71
      010028EBH   LINE      CODE     ---       #72
      010028EDH   LINE      CODE     ---       #74
      010028EDH   LINE      CODE     ---       #75
      010028F0H   LINE      CODE     ---       #76
      010028F2H   LINE      CODE     ---       #78
      010028F2H   LINE      CODE     ---       #79
      010028F5H   LINE      CODE     ---       #80
      010028F7H   LINE      CODE     ---       #82
      010028F7H   LINE      CODE     ---       #83
      010028FAH   LINE      CODE     ---       #84
      010028FCH   LINE      CODE     ---       #86
      010028FCH   LINE      CODE     ---       #87
      01002904H   LINE      CODE     ---       #88
      01002906H   LINE      CODE     ---       #90
      01002906H   LINE      CODE     ---       #91
      0100290CH   LINE      CODE     ---       #92
      0100290CH   LINE      CODE     ---       #93
      0100290CH   LINE      CODE     ---       #96
      01002911H   LINE      CODE     ---       #99
      01002918H   LINE      CODE     ---       #100
      01002918H   LINE      CODE     ---       #101
      0100291BH   LINE      CODE     ---       #102
      0100291BH   LINE      CODE     ---       #104
      01002920H   LINE      CODE     ---       #105
      ---         BLOCKEND  ---      ---       LVL=0

      0100216AH   BLOCK     CODE     ---       LVL=0
      0100216AH   BLOCK     CODE     NEAR LAB  LVL=1
      02000105H   SYMBOL    XDATA    CHAR      retVal
      ---         BLOCKEND  ---      ---       LVL=1
      0100216AH   LINE      CODE     ---       #114
      0100216AH   LINE      CODE     ---       #115
      0100216AH   LINE      CODE     ---       #116
      0100216DH   LINE      CODE     ---       #118
      01002179H   LINE      CODE     ---       #119
      01002179H   LINE      CODE     ---       #120
      01002183H   LINE      CODE     ---       #121
      01002183H   LINE      CODE     ---       #134
      01002183H   LINE      CODE     ---       #135
      01002190H   LINE      CODE     ---       #136
      01002190H   LINE      CODE     ---       #139
      0100219EH   LINE      CODE     ---       #141
      0100219EH   LINE      CODE     ---       #142
      010021A3H   LINE      CODE     ---       #143
      010021A5H   LINE      CODE     ---       #144
      010021B3H   LINE      CODE     ---       #146
      010021B3H   LINE      CODE     ---       #147
      010021B6H   LINE      CODE     ---       #148
      010021BCH   LINE      CODE     ---       #151
      010021C3H   LINE      CODE     ---       #152
      010021C3H   LINE      CODE     ---       #153
      010021CEH   LINE      CODE     ---       #154
      010021CEH   LINE      CODE     ---       #157
      010021D5H   LINE      CODE     ---       #158
      010021D5H   LINE      CODE     ---       #159
      010021EDH   LINE      CODE     ---       #160
      010021EDH   LINE      CODE     ---       #163
      010021F9H   LINE      CODE     ---       #164
      010021F9H   LINE      CODE     ---       #166
LX51 LINKER/LOCATER V4.66.30.0                                                        03/28/2016  20:19:13  PAGE 116


      010021F9H   LINE      CODE     ---       #167
      01002201H   LINE      CODE     ---       #168
      01002201H   LINE      CODE     ---       #169
      01002201H   LINE      CODE     ---       #170
      01002201H   LINE      CODE     ---       #171
      01002203H   LINE      CODE     ---       #190
      01002203H   LINE      CODE     ---       #191
      0100220BH   LINE      CODE     ---       #192
      0100220BH   LINE      CODE     ---       #193
      0100220EH   LINE      CODE     ---       #194
      0100220EH   LINE      CODE     ---       #195
      0100220EH   LINE      CODE     ---       #213
      0100220EH   LINE      CODE     ---       #214
      0100220EH   LINE      CODE     ---       #215
      0100220EH   LINE      CODE     ---       #216
      0100220EH   LINE      CODE     ---       #217
      0100220EH   LINE      CODE     ---       #218
      01002213H   LINE      CODE     ---       #219
      ---         BLOCKEND  ---      ---       LVL=0

      01002EC0H   BLOCK     CODE     ---       LVL=0
      01002EC0H   BLOCK     CODE     NEAR LAB  LVL=1
      00000007H   SYMBOL    DATA     CHAR      retVal
      ---         BLOCKEND  ---      ---       LVL=1
      01002EC0H   LINE      CODE     ---       #229
      01002EC0H   LINE      CODE     ---       #230
      01002EC0H   LINE      CODE     ---       #231
      01002EC2H   LINE      CODE     ---       #233
      01002EEEH   LINE      CODE     ---       #238
      01002EEEH   LINE      CODE     ---       #239
      01002EF5H   LINE      CODE     ---       #240
      01002EF5H   LINE      CODE     ---       #241
      01002EFBH   LINE      CODE     ---       #242
      01002EFBH   LINE      CODE     ---       #243
      01002EFDH   LINE      CODE     ---       #244
      01002F04H   LINE      CODE     ---       #245
      01002F04H   LINE      CODE     ---       #246
      01002F11H   LINE      CODE     ---       #247
      01002F13H   LINE      CODE     ---       #248
      01002F13H   LINE      CODE     ---       #249
      01002F13H   LINE      CODE     ---       #250
      01002F13H   LINE      CODE     ---       #251
      ---         BLOCKEND  ---      ---       LVL=0

      0100103CH   BLOCK     CODE     ---       LVL=0
      0100103CH   BLOCK     CODE     NEAR LAB  LVL=1
      02000105H   SYMBOL    XDATA    BYTE      index
      00000004H   SYMBOL    DATA     WORD      length
      02000106H   SYMBOL    XDATA    ---       dat
      02000109H   SYMBOL    XDATA    CHAR      retVal
      ---         BLOCKEND  ---      ---       LVL=1
      0100103CH   LINE      CODE     ---       #261
      0100103CH   LINE      CODE     ---       #262
      0100103CH   LINE      CODE     ---       #269
      0100103FH   LINE      CODE     ---       #271
      01001045H   LINE      CODE     ---       #273
      01001050H   LINE      CODE     ---       #275
      01001050H   LINE      CODE     ---       #276
      0100105BH   LINE      CODE     ---       #278
      01001072H   LINE      CODE     ---       #279
      01001072H   LINE      CODE     ---       #280
      01001072H   LINE      CODE     ---       #281
LX51 LINKER/LOCATER V4.66.30.0                                                        03/28/2016  20:19:13  PAGE 117


      0100107BH   LINE      CODE     ---       #282
      0100107BH   LINE      CODE     ---       #283
      0100107BH   LINE      CODE     ---       #284
      0100107BH   LINE      CODE     ---       #285
      01001081H   LINE      CODE     ---       #286
      0100108DH   LINE      CODE     ---       #287
      01001090H   LINE      CODE     ---       #289
      01001090H   LINE      CODE     ---       #290
      01001099H   LINE      CODE     ---       #291
      01001099H   LINE      CODE     ---       #292
      01001099H   LINE      CODE     ---       #293
      01001099H   LINE      CODE     ---       #294
      0100109FH   LINE      CODE     ---       #295
      010010B3H   LINE      CODE     ---       #296
      010010B5H   LINE      CODE     ---       #298
      010010B5H   LINE      CODE     ---       #301
      010010CFH   LINE      CODE     ---       #305
      010010D2H   LINE      CODE     ---       #306
      010010D2H   LINE      CODE     ---       #307
      010010D5H   LINE      CODE     ---       #308
      010010DCH   LINE      CODE     ---       #309
      010010DEH   LINE      CODE     ---       #312
      010010EFH   LINE      CODE     ---       #313
      010010EFH   LINE      CODE     ---       #315
      010010FCH   LINE      CODE     ---       #316
      010010FCH   LINE      CODE     ---       #317
      01001109H   LINE      CODE     ---       #318
      01001118H   LINE      CODE     ---       #319
      01001122H   LINE      CODE     ---       #320
      01001129H   LINE      CODE     ---       #321
      01001129H   LINE      CODE     ---       #322
      01001129H   LINE      CODE     ---       #364
      01001129H   LINE      CODE     ---       #368
      0100112DH   LINE      CODE     ---       #369
      0100112DH   LINE      CODE     ---       #370
      0100113BH   LINE      CODE     ---       #371
      0100113BH   LINE      CODE     ---       #372
      0100113FH   LINE      CODE     ---       #373
      0100113FH   LINE      CODE     ---       #375
      01001148H   LINE      CODE     ---       #377
      0100114DH   LINE      CODE     ---       #378
      0100114DH   LINE      CODE     ---       #379
      0100114DH   LINE      CODE     ---       #381
      01001152H   LINE      CODE     ---       #382
      ---         BLOCKEND  ---      ---       LVL=0

      01003122H   BLOCK     CODE     ---       LVL=0
      01003122H   BLOCK     CODE     NEAR LAB  LVL=1
      00000006H   SYMBOL    DATA     WORD      interface
      00000005H   SYMBOL    DATA     CHAR      retVal
      ---         BLOCKEND  ---      ---       LVL=1
      01003122H   LINE      CODE     ---       #391
      01003122H   LINE      CODE     ---       #392
      01003122H   LINE      CODE     ---       #393
      01003126H   LINE      CODE     ---       #394
      01003128H   LINE      CODE     ---       #399
      0100314BH   LINE      CODE     ---       #401
      0100314BH   LINE      CODE     ---       #402
      01003152H   LINE      CODE     ---       #403
      01003152H   LINE      CODE     ---       #409
      0100315FH   LINE      CODE     ---       #411
      01003161H   LINE      CODE     ---       #412
LX51 LINKER/LOCATER V4.66.30.0                                                        03/28/2016  20:19:13  PAGE 118


      01003161H   LINE      CODE     ---       #413
      01003161H   LINE      CODE     ---       #414
      01003163H   LINE      CODE     ---       #415
      ---         BLOCKEND  ---      ---       LVL=0

      01001983H   BLOCK     CODE     ---       LVL=0
      01001983H   BLOCK     CODE     NEAR LAB  LVL=1
      02000105H   SYMBOL    XDATA    CHAR      retVal
      ---         BLOCKEND  ---      ---       LVL=1
      01001983H   LINE      CODE     ---       #424
      01001983H   LINE      CODE     ---       #425
      01001983H   LINE      CODE     ---       #426
      01001986H   LINE      CODE     ---       #428
      010019B4H   LINE      CODE     ---       #432
      010019B4H   LINE      CODE     ---       #433
      010019BBH   LINE      CODE     ---       #435
      010019C8H   LINE      CODE     ---       #436
      010019C8H   LINE      CODE     ---       #437
      010019C8H   LINE      CODE     ---       #438
      010019D2H   LINE      CODE     ---       #439
      010019D2H   LINE      CODE     ---       #450
      010019D7H   LINE      CODE     ---       #451
      010019D7H   LINE      CODE     ---       #452
      010019E1H   LINE      CODE     ---       #453
      010019E1H   LINE      CODE     ---       #458
      010019E1H   LINE      CODE     ---       #459
      010019E1H   LINE      CODE     ---       #460
      010019E3H   LINE      CODE     ---       #462
      010019E3H   LINE      CODE     ---       #463
      010019F2H   LINE      CODE     ---       #464
      010019F2H   LINE      CODE     ---       #465
      010019F2H   LINE      CODE     ---       #466
      010019F2H   LINE      CODE     ---       #467
      010019F4H   LINE      CODE     ---       #470
      010019F4H   LINE      CODE     ---       #473
      01001A04H   LINE      CODE     ---       #475
      01001A04H   LINE      CODE     ---       #476
      01001A04H   LINE      CODE     ---       #477
      01001A06H   LINE      CODE     ---       #478
      01001A0DH   LINE      CODE     ---       #479
      01001A0DH   LINE      CODE     ---       #480
      01001A16H   LINE      CODE     ---       #481
      01001A16H   LINE      CODE     ---       #483
      01001A16H   LINE      CODE     ---       #484
      01001A1DH   LINE      CODE     ---       #485
      01001A1DH   LINE      CODE     ---       #486
      01001A20H   LINE      CODE     ---       #487
      01001A20H   LINE      CODE     ---       #488
      01001A20H   LINE      CODE     ---       #489
      01001A22H   LINE      CODE     ---       #510
      01001A22H   LINE      CODE     ---       #511
      01001A29H   LINE      CODE     ---       #512
      01001A29H   LINE      CODE     ---       #513
      01001A2CH   LINE      CODE     ---       #514
      01001A2CH   LINE      CODE     ---       #515
      01001A31H   LINE      CODE     ---       #516
      01001A31H   LINE      CODE     ---       #536
      01001A31H   LINE      CODE     ---       #537
      01001A31H   LINE      CODE     ---       #538
      01001A31H   LINE      CODE     ---       #539
      01001A31H   LINE      CODE     ---       #542
      01001A37H   LINE      CODE     ---       #543
LX51 LINKER/LOCATER V4.66.30.0                                                        03/28/2016  20:19:13  PAGE 119


      01001A37H   LINE      CODE     ---       #544
      01001A43H   LINE      CODE     ---       #545
      01001A43H   LINE      CODE     ---       #546
      01001A43H   LINE      CODE     ---       #548
      01001A48H   LINE      CODE     ---       #549
      ---         BLOCKEND  ---      ---       LVL=0

      01002921H   BLOCK     CODE     ---       LVL=0
      01002921H   BLOCK     CODE     NEAR LAB  LVL=1
      02000105H   SYMBOL    XDATA    CHAR      retVal
      ---         BLOCKEND  ---      ---       LVL=1
      01002921H   LINE      CODE     ---       #557
      01002921H   LINE      CODE     ---       #558
      01002921H   LINE      CODE     ---       #559
      01002927H   LINE      CODE     ---       #561
      01002950H   LINE      CODE     ---       #565
      01002950H   LINE      CODE     ---       #568
      01002957H   LINE      CODE     ---       #569
      01002957H   LINE      CODE     ---       #570
      0100295BH   LINE      CODE     ---       #571
      0100295BH   LINE      CODE     ---       #572
      01002960H   LINE      CODE     ---       #573
      01002960H   LINE      CODE     ---       #574
      01002960H   LINE      CODE     ---       #575
      01002962H   LINE      CODE     ---       #578
      01002969H   LINE      CODE     ---       #579
      01002969H   LINE      CODE     ---       #580
      01002973H   LINE      CODE     ---       #581
      01002973H   LINE      CODE     ---       #582
      01002978H   LINE      CODE     ---       #583
      01002978H   LINE      CODE     ---       #584
      0100297DH   LINE      CODE     ---       #585
      0100297DH   LINE      CODE     ---       #588
      01002983H   LINE      CODE     ---       #589
      01002983H   LINE      CODE     ---       #590
      01002993H   LINE      CODE     ---       #591
      01002993H   LINE      CODE     ---       #592
      01002993H   LINE      CODE     ---       #594
      01002998H   LINE      CODE     ---       #595
      ---         BLOCKEND  ---      ---       LVL=0

      01001E00H   BLOCK     CODE     ---       LVL=0
      01001E00H   BLOCK     CODE     NEAR LAB  LVL=1
      02000105H   SYMBOL    XDATA    CHAR      retVal
      ---         BLOCKEND  ---      ---       LVL=1
      01001E00H   LINE      CODE     ---       #603
      01001E00H   LINE      CODE     ---       #604
      01001E00H   LINE      CODE     ---       #605
      01001E06H   LINE      CODE     ---       #607
      01001E33H   LINE      CODE     ---       #611
      01001E33H   LINE      CODE     ---       #614
      01001E3BH   LINE      CODE     ---       #615
      01001E3BH   LINE      CODE     ---       #616
      01001E4EH   LINE      CODE     ---       #618
      01001E4EH   LINE      CODE     ---       #619
      01001E51H   LINE      CODE     ---       #620
      01001E61H   LINE      CODE     ---       #621
      01001E61H   LINE      CODE     ---       #622
      01001E66H   LINE      CODE     ---       #623
      01001E6BH   LINE      CODE     ---       #624
      01001E6BH   LINE      CODE     ---       #625
      01001E6BH   LINE      CODE     ---       #626
LX51 LINKER/LOCATER V4.66.30.0                                                        03/28/2016  20:19:13  PAGE 120


      01001E6BH   LINE      CODE     ---       #627
      01001E6DH   LINE      CODE     ---       #630
      01001E72H   LINE      CODE     ---       #631
      01001E72H   LINE      CODE     ---       #632
      01001E8BH   LINE      CODE     ---       #634
      01001E8BH   LINE      CODE     ---       #635
      01001E8EH   LINE      CODE     ---       #636
      01001E98H   LINE      CODE     ---       #637
      01001E98H   LINE      CODE     ---       #638
      01001E9DH   LINE      CODE     ---       #639
      01001EA0H   LINE      CODE     ---       #640
      01001EA2H   LINE      CODE     ---       #642
      01001EA2H   LINE      CODE     ---       #644
      01001EA7H   LINE      CODE     ---       #645
      01001EA7H   LINE      CODE     ---       #646
      01001EACH   LINE      CODE     ---       #647
      01001EACH   LINE      CODE     ---       #648
      01001EACH   LINE      CODE     ---       #649
      01001EACH   LINE      CODE     ---       #651
      01001EB1H   LINE      CODE     ---       #652
      ---         BLOCKEND  ---      ---       LVL=0

      01002476H   BLOCK     CODE     ---       LVL=0
      01002476H   BLOCK     CODE     NEAR LAB  LVL=1
      02000105H   SYMBOL    XDATA    CHAR      retVal
      ---         BLOCKEND  ---      ---       LVL=1
      01002476H   LINE      CODE     ---       #660
      01002476H   LINE      CODE     ---       #661
      01002476H   LINE      CODE     ---       #662
      01002479H   LINE      CODE     ---       #664
      01002485H   LINE      CODE     ---       #665
      01002485H   LINE      CODE     ---       #666
      0100248CH   LINE      CODE     ---       #667
      0100248CH   LINE      CODE     ---       #679
      0100248CH   LINE      CODE     ---       #682
      0100249AH   LINE      CODE     ---       #684
      0100249AH   LINE      CODE     ---       #685
      0100249FH   LINE      CODE     ---       #686
      010024A1H   LINE      CODE     ---       #687
      010024B9H   LINE      CODE     ---       #690
      010024B9H   LINE      CODE     ---       #691
      010024BCH   LINE      CODE     ---       #692
      010024C2H   LINE      CODE     ---       #696
      010024C9H   LINE      CODE     ---       #697
      010024C9H   LINE      CODE     ---       #698
      010024D4H   LINE      CODE     ---       #699
      010024D4H   LINE      CODE     ---       #702
      010024DBH   LINE      CODE     ---       #703
      010024DBH   LINE      CODE     ---       #704
      010024EBH   LINE      CODE     ---       #705
      010024EBH   LINE      CODE     ---       #709
      010024F7H   LINE      CODE     ---       #710
      010024F7H   LINE      CODE     ---       #712
      010024F7H   LINE      CODE     ---       #713
      010024FAH   LINE      CODE     ---       #714
      010024FCH   LINE      CODE     ---       #727
      010024FCH   LINE      CODE     ---       #728
      01002502H   LINE      CODE     ---       #729
      01002502H   LINE      CODE     ---       #741
      01002502H   LINE      CODE     ---       #742
      01002502H   LINE      CODE     ---       #743
      01002502H   LINE      CODE     ---       #744
LX51 LINKER/LOCATER V4.66.30.0                                                        03/28/2016  20:19:13  PAGE 121


      01002502H   LINE      CODE     ---       #746
      01002507H   LINE      CODE     ---       #747
      ---         BLOCKEND  ---      ---       LVL=0

      0100352DH   BLOCK     CODE     ---       LVL=0
      0100352DH   BLOCK     CODE     NEAR LAB  LVL=1
      00000007H   SYMBOL    DATA     CHAR      retVal
      00000006H   SYMBOL    DATA     BYTE      interface
      00000005H   SYMBOL    DATA     BYTE      altSetting
      ---         BLOCKEND  ---      ---       LVL=1
      0100352DH   LINE      CODE     ---       #755
      0100352DH   LINE      CODE     ---       #756
      0100352DH   LINE      CODE     ---       #757
      0100352FH   LINE      CODE     ---       #758
      01003535H   LINE      CODE     ---       #759
      0100353BH   LINE      CODE     ---       #761
      0100355CH   LINE      CODE     ---       #768
      0100355CH   LINE      CODE     ---       #778
      01003561H   LINE      CODE     ---       #780
      01003563H   LINE      CODE     ---       #782
      01003563H   LINE      CODE     ---       #784
      01003563H   LINE      CODE     ---       #785
      ---         BLOCKEND  ---      ---       LVL=0

      010039E7H   BLOCK     CODE     ---       LVL=0
      00000020H.3 SYMBOL    BIT      BIT       forceIdle
      010039E7H   LINE      CODE     ---       #796
      010039E7H   LINE      CODE     ---       #797
      010039E7H   LINE      CODE     ---       #798
      010039EAH   LINE      CODE     ---       #799
      010039EAH   LINE      CODE     ---       #801
      010039F0H   LINE      CODE     ---       #810
      010039F4H   LINE      CODE     ---       #818
      010039F4H   LINE      CODE     ---       #821
      010039FCH   LINE      CODE     ---       #842
      ---         BLOCKEND  ---      ---       LVL=0

      0100398CH   BLOCK     CODE     ---       LVL=0
      00000001H   SYMBOL    DATA     ---       dat
      00000004H   SYMBOL    DATA     WORD      numBytes
      0100398CH   LINE      CODE     ---       #871
      0100398CH   LINE      CODE     ---       #872
      0100398CH   LINE      CODE     ---       #873
      01003993H   LINE      CODE     ---       #874
      01003993H   LINE      CODE     ---       #875
      01003999H   LINE      CODE     ---       #876
      010039A3H   LINE      CODE     ---       #877
      010039A7H   LINE      CODE     ---       #878
      010039AAH   LINE      CODE     ---       #879
      010039AAH   LINE      CODE     ---       #880
      ---         BLOCKEND  ---      ---       LVL=0

      ---         MODULE    ---      ---       EFM8_USBDEP
      00000020H.5 PUBLIC    BIT      BIT       ?_USB_WriteFIFO?BIT
      01002A0FH   PUBLIC    CODE     ---       _USB_WriteFIFO
      01002CF4H   PUBLIC    CODE     ---       _USB_ReadFIFO
      01001464H   PUBLIC    CODE     ---       handleUsbOut1Int
      01002214H   PUBLIC    CODE     ---       handleUsbIn1Int
      000000A2H   SFRSYM    DATA     BYTE      SPI0CKR
      00000080H   SFRSYM    DATA     BYTE      P0
      000000C8H.6 SFRSYM    DATA     BIT       SCON1_PERR
      000000D0H.2 SFRSYM    DATA     BIT       PSW_OV
LX51 LINKER/LOCATER V4.66.30.0                                                        03/28/2016  20:19:13  PAGE 122


      00000090H   SFRSYM    DATA     BYTE      P1
      000000F8H.1 SFRSYM    DATA     BIT       SPI0CN0_TXNF
      00000097H   SFRSYM    DATA     BYTE      WDTCN
      000000A0H   SFRSYM    DATA     BYTE      P2
      000000B0H   SFRSYM    DATA     BYTE      P3
      000000BCH   SFRSYM    DATA     BYTE      ADC0CF
      000000C0H.7 SFRSYM    DATA     BIT       SMB0CN0_MASTER
      000000F9H   SFRSYM    DATA     WORD      PCA0
      000000E6H   SFRSYM    DATA     BYTE      EIE1
      000000C0H.1 SFRSYM    DATA     BIT       SMB0CN0_ACK
      000000B3H   SFRSYM    DATA     BYTE      USB0XCN
      000000CEH   SFRSYM    DATA     BYTE      EIE2
      0000008FH   SFRSYM    DATA     BYTE      PSCTL
      000000E4H   SFRSYM    DATA     BYTE      IT01CF
      000000C0H.6 SFRSYM    DATA     BIT       SMB0CN0_TXMODE
      000000ADH   SFRSYM    DATA     BYTE      DERIVID
      000000A7H   SFRSYM    DATA     BYTE      SFRPAGE
      000000A4H   SFRSYM    DATA     BYTE      P0MDOUT
      000000BFH   SFRSYM    DATA     BYTE      USB0CDSTA
      000000A5H   SFRSYM    DATA     BYTE      P1MDOUT
      000000E8H.5 SFRSYM    DATA     BIT       ADC0CN0_ADINT
      000000CBH   SFRSYM    DATA     BYTE      TMR2RLH
      000000A6H   SFRSYM    DATA     BYTE      P2MDOUT
      000000A8H   SFRSYM    DATA     BYTE      IE
      00000093H   SFRSYM    DATA     BYTE      TMR3RLH
      0000009CH   SFRSYM    DATA     BYTE      P3MDOUT
      000000A3H   SFRSYM    DATA     BYTE      TMR4RLH
      000000F3H   SFRSYM    DATA     BYTE      EIP1
      000000F4H   SFRSYM    DATA     BYTE      EIP2
      00000098H.2 SFRSYM    DATA     BIT       SCON0_RB8
      000000CAH   SFRSYM    DATA     BYTE      TMR2RLL
      000000FCH   SFRSYM    DATA     BYTE      PCA0CPH0
      00000092H   SFRSYM    DATA     BYTE      TMR3RLL
      000000EAH   SFRSYM    DATA     BYTE      PCA0CPH1
      00000098H.3 SFRSYM    DATA     BIT       SCON0_TB8
      000000F0H   SFRSYM    DATA     BIT       B_B0
      00000082H   SFRSYM    DATA     WORD      DP
      000000A2H   SFRSYM    DATA     BYTE      TMR4RLL
      000000ECH   SFRSYM    DATA     BYTE      PCA0CPH2
      000000F0H.1 SFRSYM    DATA     BIT       B_B1
      000000C3H   SFRSYM    DATA     WORD      ADC0GT
      000000BDH   SFRSYM    DATA     BYTE      I2C0SLAD
      000000D8H.3 SFRSYM    DATA     BIT       UART1FCN1_RFRQ
      000000F0H.2 SFRSYM    DATA     BIT       B_B2
      000000CFH   SFRSYM    DATA     BYTE      SFRPGCN
      000000FBH   SFRSYM    DATA     BYTE      PCA0CPL0
      000000F0H.3 SFRSYM    DATA     BIT       B_B3
      000000D9H   SFRSYM    DATA     BYTE      PCA0MD
      000000DAH   SFRSYM    DATA     BYTE      PCA0CPM0
      000000E9H   SFRSYM    DATA     BYTE      PCA0CPL1
      000000D8H.7 SFRSYM    DATA     BIT       UART1FCN1_TFRQ
      000000F0H.4 SFRSYM    DATA     BIT       B_B4
      000000DBH   SFRSYM    DATA     BYTE      PCA0CPM1
      000000EBH   SFRSYM    DATA     BYTE      PCA0CPL2
      000000F0H.5 SFRSYM    DATA     BIT       B_B5
      000000DCH   SFRSYM    DATA     BYTE      PCA0CPM2
      000000B8H   SFRSYM    DATA     BYTE      IP
      000000B9H   SFRSYM    DATA     BYTE      ADC0TK
      000000F0H.6 SFRSYM    DATA     BIT       B_B6
      000000C5H   SFRSYM    DATA     WORD      ADC0LT
      000000D8H.6 SFRSYM    DATA     BIT       UART1FCN1_TXNF
      00000098H.5 SFRSYM    DATA     BIT       SCON0_MCE
LX51 LINKER/LOCATER V4.66.30.0                                                        03/28/2016  20:19:13  PAGE 123


      000000F0H.7 SFRSYM    DATA     BIT       B_B7
      000000C3H   SFRSYM    DATA     BYTE      SMB0FCN0
      000000E1H   SFRSYM    DATA     BYTE      XBR0
      000000C4H   SFRSYM    DATA     BYTE      SMB0FCN1
      000000C1H   SFRSYM    DATA     BYTE      SMB0CF
      000000E2H   SFRSYM    DATA     BYTE      XBR1
      000000C1H   SFRSYM    DATA     BYTE      PFE0CN
      000000E7H   SFRSYM    DATA     BYTE      EMI0CN
      000000C0H.5 SFRSYM    DATA     BIT       SMB0CN0_STA
      000000E3H   SFRSYM    DATA     BYTE      XBR2
      000000BBH   SFRSYM    DATA     BYTE      ADC0MX
      000000E0H   SFRSYM    DATA     BIT       ACC_ACC0
      000000D1H   SFRSYM    DATA     BYTE      REF0CN
      0000008EH   SFRSYM    DATA     BYTE      CKCON0
      000000E0H.1 SFRSYM    DATA     BIT       ACC_ACC1
      000000C9H   SFRSYM    DATA     BYTE      REG0CN
      000000DDH   SFRSYM    DATA     BYTE      CRC0IN
      000000A6H   SFRSYM    DATA     BYTE      CKCON1
      000000C8H.2 SFRSYM    DATA     BIT       TMR2CN0_TR2
      000000E0H.2 SFRSYM    DATA     BIT       ACC_ACC2
      000000C6H   SFRSYM    DATA     BYTE      REG1CN
      000000E0H.3 SFRSYM    DATA     BIT       ACC_ACC3
      00000081H   SFRSYM    DATA     BYTE      SP
      0000009DH   SFRSYM    DATA     BYTE      CMP0MD
      000000E0H.4 SFRSYM    DATA     BIT       ACC_ACC4
      000000B1H   SFRSYM    DATA     BYTE      LFO0CN
      000000ABH   SFRSYM    DATA     BYTE      CMP1MD
      000000D8H   SFRSYM    DATA     BIT       PCA0CN0_CCF0
      000000E0H.5 SFRSYM    DATA     BIT       ACC_ACC5
      000000B5H   SFRSYM    DATA     BYTE      USB0CF
      00000098H.2 SFRSYM    DATA     BIT       TMR4CN0_TR4
      000000D8H.1 SFRSYM    DATA     BIT       PCA0CN0_CCF1
      000000E0H.6 SFRSYM    DATA     BIT       ACC_ACC6
      000000CCH   SFRSYM    DATA     WORD      TMR2
      0000009AH   SFRSYM    DATA     BYTE      SPI0FCN0
      000000D8H.2 SFRSYM    DATA     BIT       PCA0CN0_CCF2
      000000E0H.7 SFRSYM    DATA     BIT       ACC_ACC7
      00000094H   SFRSYM    DATA     WORD      TMR3
      0000009BH   SFRSYM    DATA     BYTE      SPI0FCN1
      000000A4H   SFRSYM    DATA     WORD      TMR4
      00000094H   SFRSYM    DATA     BYTE      SBCON1
      000000C0H.3 SFRSYM    DATA     BIT       SMB0CN0_ACKRQ
      000000FFH   SFRSYM    DATA     BYTE      VDM0CN
      000000F1H   SFRSYM    DATA     BYTE      P0MDIN
      00000098H.4 SFRSYM    DATA     BIT       SCON0_REN
      000000ACH   SFRSYM    DATA     BYTE      SMB0TC
      000000F2H   SFRSYM    DATA     BYTE      P1MDIN
      000000C8H.4 SFRSYM    DATA     BIT       SCON1_REN
      000000F3H   SFRSYM    DATA     BYTE      P2MDIN
      000000C0H.4 SFRSYM    DATA     BIT       SMB0CN0_STO
      000000B6H   SFRSYM    DATA     BYTE      USB0CDCF
      000000F4H   SFRSYM    DATA     BYTE      P3MDIN
      000000B9H   SFRSYM    DATA     BYTE      I2C0STAT
      000000BBH   SFRSYM    DATA     BYTE      I2C0DOUT
      00000096H   SFRSYM    DATA     BYTE      SBRLH1
      000000FEH   SFRSYM    DATA     BYTE      P0MASK
      000000D8H.5 SFRSYM    DATA     BIT       UART1FCN1_TXHOLD
      000000EEH   SFRSYM    DATA     BYTE      P1MASK
      000000FCH   SFRSYM    DATA     BYTE      P2MASK
      000000D0H.3 SFRSYM    DATA     BIT       PSW_RS0
      000000D8H.7 SFRSYM    DATA     BIT       PCA0CN0_CF
      0000009EH   SFRSYM    DATA     BYTE      PCA0CENT
LX51 LINKER/LOCATER V4.66.30.0                                                        03/28/2016  20:19:13  PAGE 124


      000000BAH   SFRSYM    DATA     BYTE      I2C0CN0
      000000D2H   SFRSYM    DATA     BYTE      CRC0ST
      000000F8H.4 SFRSYM    DATA     BIT       SPI0CN0_RXOVRN
      000000D0H.4 SFRSYM    DATA     BIT       PSW_RS1
      00000095H   SFRSYM    DATA     BYTE      SBRLL1
      000000C8H.2 SFRSYM    DATA     BIT       SCON1_RBX
      000000C8H   SFRSYM    DATA     BIT       TMR2CN0_T2XCLK0
      000000C8H.1 SFRSYM    DATA     BIT       TMR2CN0_T2XCLK1
      000000C8H.3 SFRSYM    DATA     BIT       SCON1_TBX
      000000E8H.7 SFRSYM    DATA     BIT       ADC0CN0_ADEN
      000000BEH   SFRSYM    DATA     BYTE      USB0CDCN
      00000089H   SFRSYM    DATA     BYTE      TMOD
      00000088H   SFRSYM    DATA     BYTE      TCON
      000000CFH   SFRSYM    DATA     BYTE      CRC0FLIP
      000000D0H   SFRSYM    DATA     BIT       PSW_PARITY
      000000A8H.4 SFRSYM    DATA     BIT       IE_ES0
      0000009FH   SFRSYM    DATA     BYTE      CMP0MX
      00000098H   SFRSYM    DATA     BIT       TMR4CN0_T4XCLK0
      000000A8H.1 SFRSYM    DATA     BIT       IE_ET0
      000000AAH   SFRSYM    DATA     BYTE      CMP1MX
      00000098H.1 SFRSYM    DATA     BIT       TMR4CN0_T4XCLK1
      000000A8H.3 SFRSYM    DATA     BIT       IE_ET1
      000000D4H   SFRSYM    DATA     BYTE      P0SKIP
      000000D8H   SFRSYM    DATA     BIT       UART1FCN1_RIE
      000000A8H.5 SFRSYM    DATA     BIT       IE_ET2
      000000D5H   SFRSYM    DATA     BYTE      P1SKIP
      000000CCH   SFRSYM    DATA     BYTE      P2SKIP
      000000E8H   SFRSYM    DATA     BYTE      ADC0CN0
      000000D8H.4 SFRSYM    DATA     BIT       UART1FCN1_TIE
      000000A8H   SFRSYM    DATA     BIT       IE_EX0
      000000B2H   SFRSYM    DATA     BYTE      ADC0CN1
      000000D8H.6 SFRSYM    DATA     BIT       PCA0CN0_CR
      000000A8H.2 SFRSYM    DATA     BIT       IE_EX1
      000000C8H.7 SFRSYM    DATA     BIT       SCON1_OVR
      00000098H.7 SFRSYM    DATA     BIT       SCON0_SMODE
      000000B5H   SFRSYM    DATA     BYTE      DEVICEID
      000000A9H   SFRSYM    DATA     BYTE      CLKSEL
      000000F8H   SFRSYM    DATA     BIT       SPI0CN0_SPIEN
      000000F0H   SFRSYM    DATA     BYTE      B
      000000BEH   SFRSYM    DATA     BYTE      ADC0H
      000000E8H.6 SFRSYM    DATA     BIT       ADC0CN0_ADBMEN
      000000CAH   SFRSYM    DATA     WORD      TMR2RL
      000000BDH   SFRSYM    DATA     BYTE      ADC0L
      00000092H   SFRSYM    DATA     WORD      TMR3RL
      000000A2H   SFRSYM    DATA     WORD      TMR4RL
      000000D8H   SFRSYM    DATA     BYTE      PCA0CN0
      000000E0H   SFRSYM    DATA     BYTE      ACC
      000000FBH   SFRSYM    DATA     WORD      PCA0CP0
      000000E9H   SFRSYM    DATA     WORD      PCA0CP1
      000000EBH   SFRSYM    DATA     WORD      PCA0CP2
      000000BCH   SFRSYM    DATA     BYTE      I2C0DIN
      000000CEH   SFRSYM    DATA     BYTE      CRC0CN0
      0000008CH   SFRSYM    DATA     BYTE      TH0
      00000086H   SFRSYM    DATA     BYTE      CRC0CN1
      000000B8H.4 SFRSYM    DATA     BIT       IP_PS0
      000000FAH   SFRSYM    DATA     BYTE      UART1FCT
      0000008DH   SFRSYM    DATA     BYTE      TH1
      000000FAH   SFRSYM    DATA     BYTE      PCA0H
      000000F5H   SFRSYM    DATA     BYTE      I2C0FCT
      000000B8H.1 SFRSYM    DATA     BIT       IP_PT0
      000000B8H.3 SFRSYM    DATA     BIT       IP_PT1
      000000C0H.2 SFRSYM    DATA     BIT       SMB0CN0_ARBLOST
LX51 LINKER/LOCATER V4.66.30.0                                                        03/28/2016  20:19:13  PAGE 125


      000000B8H.5 SFRSYM    DATA     BIT       IP_PT2
      0000008AH   SFRSYM    DATA     BYTE      TL0
      000000D0H.5 SFRSYM    DATA     BIT       PSW_F0
      000000A8H.6 SFRSYM    DATA     BIT       IE_ESPI0
      0000008BH   SFRSYM    DATA     BYTE      TL1
      000000F9H   SFRSYM    DATA     BYTE      PCA0L
      000000C0H   SFRSYM    DATA     BIT       SMB0CN0_SI
      000000D0H.1 SFRSYM    DATA     BIT       PSW_F1
      00000080H   SFRSYM    DATA     BIT       P0_B0
      000000B8H   SFRSYM    DATA     BIT       IP_PX0
      00000090H   SFRSYM    DATA     BIT       P1_B0
      00000080H.1 SFRSYM    DATA     BIT       P0_B1
      000000B8H.2 SFRSYM    DATA     BIT       IP_PX1
      0000009EH   SFRSYM    DATA     BYTE      UART1LIN
      0000009BH   SFRSYM    DATA     BYTE      CMP0CN0
      00000088H.1 SFRSYM    DATA     BIT       TCON_IE0
      000000A0H   SFRSYM    DATA     BIT       P2_B0
      00000090H.1 SFRSYM    DATA     BIT       P1_B1
      00000080H.2 SFRSYM    DATA     BIT       P0_B2
      000000BFH   SFRSYM    DATA     BYTE      CMP1CN0
      00000099H   SFRSYM    DATA     BYTE      CMP0CN1
      00000088H.3 SFRSYM    DATA     BIT       TCON_IE1
      000000B0H   SFRSYM    DATA     BIT       P3_B0
      000000A0H.1 SFRSYM    DATA     BIT       P2_B1
      00000090H.2 SFRSYM    DATA     BIT       P1_B2
      00000080H.3 SFRSYM    DATA     BIT       P0_B3
      000000C0H   SFRSYM    DATA     BYTE      SMB0CN0
      000000ACH   SFRSYM    DATA     BYTE      CMP1CN1
      000000B0H.1 SFRSYM    DATA     BIT       P3_B1
      000000A0H.2 SFRSYM    DATA     BIT       P2_B2
      00000090H.3 SFRSYM    DATA     BIT       P1_B3
      00000080H.4 SFRSYM    DATA     BIT       P0_B4
      000000A0H.3 SFRSYM    DATA     BIT       P2_B3
      00000090H.4 SFRSYM    DATA     BIT       P1_B4
      00000080H.5 SFRSYM    DATA     BIT       P0_B5
      000000D8H.1 SFRSYM    DATA     BIT       UART1FCN1_RXTO0
      00000090H.5 SFRSYM    DATA     BIT       P1_B5
      00000080H.6 SFRSYM    DATA     BIT       P0_B6
      000000F5H   SFRSYM    DATA     BYTE      EIP1H
      000000D8H.2 SFRSYM    DATA     BIT       UART1FCN1_RXTO1
      00000090H.6 SFRSYM    DATA     BIT       P1_B6
      00000080H.7 SFRSYM    DATA     BIT       P0_B7
      000000C5H   SFRSYM    DATA     BYTE      SMB0RXLN
      000000F6H   SFRSYM    DATA     BYTE      EIP2H
      00000090H.7 SFRSYM    DATA     BIT       P1_B7
      00000083H   SFRSYM    DATA     BYTE      DPH
      000000C4H   SFRSYM    DATA     BYTE      ADC0GTH
      000000C8H.7 SFRSYM    DATA     BIT       TMR2CN0_TF2H
      000000C8H.3 SFRSYM    DATA     BIT       TMR2CN0_T2SPLIT
      000000D0H.6 SFRSYM    DATA     BIT       PSW_AC
      000000F8H   SFRSYM    DATA     BYTE      SPI0CN0
      000000C7H   SFRSYM    DATA     BYTE      HFO0CAL
      00000088H.5 SFRSYM    DATA     BIT       TCON_TF0
      00000098H   SFRSYM    DATA     BIT       SCON0_RI
      000000D6H   SFRSYM    DATA     BYTE      HFO1CAL
      00000082H   SFRSYM    DATA     BYTE      DPL
      00000088H.7 SFRSYM    DATA     BIT       TCON_TF1
      000000C8H   SFRSYM    DATA     BIT       SCON1_RI
      00000099H   SFRSYM    DATA     BYTE      SBUF0
      00000087H   SFRSYM    DATA     BYTE      PCON0
      000000F2H   SFRSYM    DATA     BYTE      IPH
      000000C3H   SFRSYM    DATA     BYTE      ADC0GTL
LX51 LINKER/LOCATER V4.66.30.0                                                        03/28/2016  20:19:13  PAGE 126


      00000098H.7 SFRSYM    DATA     BIT       TMR4CN0_TF4H
      00000098H.3 SFRSYM    DATA     BIT       TMR4CN0_T4SPLIT
      000000C8H.6 SFRSYM    DATA     BIT       TMR2CN0_TF2L
      00000098H.1 SFRSYM    DATA     BIT       SCON0_TI
      000000E8H   SFRSYM    DATA     BIT       ADC0CN0_ADCM0
      00000092H   SFRSYM    DATA     BYTE      SBUF1
      0000009AH   SFRSYM    DATA     BYTE      PCON1
      000000C6H   SFRSYM    DATA     BYTE      ADC0LTH
      00000088H   SFRSYM    DATA     BIT       TCON_IT0
      000000C8H.1 SFRSYM    DATA     BIT       SCON1_TI
      000000E8H.1 SFRSYM    DATA     BIT       ADC0CN0_ADCM1
      000000EFH   SFRSYM    DATA     BYTE      RSTSRC
      000000FDH   SFRSYM    DATA     BYTE      P0MAT
      000000DEH   SFRSYM    DATA     BYTE      CRC0DAT
      00000088H.2 SFRSYM    DATA     BIT       TCON_IT1
      000000E8H.2 SFRSYM    DATA     BIT       ADC0CN0_ADCM2
      000000D7H   SFRSYM    DATA     BYTE      SFRSTACK
      00000098H   SFRSYM    DATA     BYTE      SCON0
      000000F6H   SFRSYM    DATA     BYTE      PRTDRV
      000000EDH   SFRSYM    DATA     BYTE      P1MAT
      000000E8H.3 SFRSYM    DATA     BIT       ADC0CN0_ADWINT
      00000095H   SFRSYM    DATA     WORD      SBRL1
      000000B2H   SFRSYM    DATA     BYTE      USB0AEC
      00000093H   SFRSYM    DATA     BYTE      SMOD1
      000000C8H   SFRSYM    DATA     BYTE      SCON1
      000000FBH   SFRSYM    DATA     BYTE      P2MAT
      00000098H.6 SFRSYM    DATA     BIT       TMR4CN0_TF4L
      000000E8H.4 SFRSYM    DATA     BIT       ADC0CN0_ADBUSY
      000000D6H   SFRSYM    DATA     BYTE      SMB0ADM
      000000C5H   SFRSYM    DATA     BYTE      ADC0LTL
      000000F8H.5 SFRSYM    DATA     BIT       SPI0CN0_MODF
      000000B8H.6 SFRSYM    DATA     BIT       IP_PSPI0
      0000009CH   SFRSYM    DATA     BYTE      PCA0CLR
      000000C8H   SFRSYM    DATA     BYTE      TMR2CN0
      00000091H   SFRSYM    DATA     BYTE      TMR3CN0
      000000FDH   SFRSYM    DATA     BYTE      TMR2CN1
      00000098H   SFRSYM    DATA     BYTE      TMR4CN0
      000000FEH   SFRSYM    DATA     BYTE      TMR3CN1
      000000FFH   SFRSYM    DATA     BYTE      TMR4CN1
      000000D7H   SFRSYM    DATA     BYTE      SMB0ADR
      00000088H.4 SFRSYM    DATA     BIT       TCON_TR0
      000000C8H.4 SFRSYM    DATA     BIT       TMR2CN0_TF2CEN
      00000088H.6 SFRSYM    DATA     BIT       TCON_TR1
      000000C2H   SFRSYM    DATA     BYTE      SMB0DAT
      000000CDH   SFRSYM    DATA     BYTE      TMR2H
      000000A1H   SFRSYM    DATA     BYTE      SPI0CFG
      00000095H   SFRSYM    DATA     BYTE      TMR3H
      000000EFH   SFRSYM    DATA     BYTE      HFOCN
      000000D3H   SFRSYM    DATA     BYTE      CRC0CNT
      000000A5H   SFRSYM    DATA     BYTE      TMR4H
      00000098H.4 SFRSYM    DATA     BIT       TMR4CN0_TF4CEN
      000000EFH   SFRSYM    DATA     BYTE      SMB0FCT
      00000096H   SFRSYM    DATA     BYTE      PCA0POL
      000000CCH   SFRSYM    DATA     BYTE      TMR2L
      000000F8H.7 SFRSYM    DATA     BIT       SPI0CN0_SPIF
      000000AEH   SFRSYM    DATA     BYTE      USB0ADR
      00000094H   SFRSYM    DATA     BYTE      TMR3L
      000000DFH   SFRSYM    DATA     BYTE      ADC0PWR
      000000A8H.7 SFRSYM    DATA     BIT       IE_EA
      000000A4H   SFRSYM    DATA     BYTE      TMR4L
      000000AFH   SFRSYM    DATA     BYTE      USB0DAT
      000000C8H.5 SFRSYM    DATA     BIT       TMR2CN0_TF2LEN
LX51 LINKER/LOCATER V4.66.30.0                                                        03/28/2016  20:19:13  PAGE 127


      000000F8H.6 SFRSYM    DATA     BIT       SPI0CN0_WCOL
      000000F8H.2 SFRSYM    DATA     BIT       SPI0CN0_NSSMD0
      000000D0H.7 SFRSYM    DATA     BIT       PSW_CY
      0000009DH   SFRSYM    DATA     BYTE      UART1FCN0
      000000A3H   SFRSYM    DATA     BYTE      SPI0DAT
      000000ADH   SFRSYM    DATA     BYTE      I2C0FCN0
      000000F8H.3 SFRSYM    DATA     BIT       SPI0CN0_NSSMD1
      000000BDH   SFRSYM    DATA     WORD      ADC0
      000000D8H   SFRSYM    DATA     BYTE      UART1FCN1
      000000ABH   SFRSYM    DATA     BYTE      I2C0FCN1
      00000098H.5 SFRSYM    DATA     BIT       TMR4CN0_TF4LEN
      000000D0H   SFRSYM    DATA     BYTE      PSW
      000000F7H   SFRSYM    DATA     BYTE      PCA0PWM
      000000F7H   SFRSYM    DATA     BYTE      SPI0FCT
      000000B6H   SFRSYM    DATA     BYTE      REVID
      000000B7H   SFRSYM    DATA     BYTE      FLKEY
      000000B3H   SFRSYM    DATA     BYTE      ADC0AC
      01003A04H   SYMBOL    CODE     ---       _USB_ReadFIFO_Idata
      010039ABH   SYMBOL    CODE     ---       _USB_ReadFIFO_Pdata
      010038ADH   SYMBOL    CODE     ---       _USB_ReadFIFO_Xdata
      01003B6BH   SYMBOL    CODE     ---       _USB_WriteFIFO_Idata
      01003B7FH   SYMBOL    CODE     ---       _USB_WriteFIFO_Pdata
      01003B17H   SYMBOL    CODE     ---       _USB_WriteFIFO_Xdata
      01003AE9H   SYMBOL    CODE     ---       _USB_WriteFIFO_Code

      01003847H   BLOCK     CODE     ---       LVL=0
      ---         BLOCKEND  ---      ---       LVL=0

      01002214H   BLOCK     CODE     ---       LVL=0
      01002214H   BLOCK     CODE     NEAR LAB  LVL=1
      02000104H   SYMBOL    XDATA    BYTE      xferred
      00000020H.3 SYMBOL    BIT      BIT       callback
      ---         BLOCKEND  ---      ---       LVL=1
      01002214H   LINE      CODE     ---       #121
      01002214H   LINE      CODE     ---       #122
      01002214H   LINE      CODE     ---       #126
      01002219H   LINE      CODE     ---       #128
      0100221EH   LINE      CODE     ---       #129
      0100221EH   LINE      CODE     ---       #130
      0100222EH   LINE      CODE     ---       #132
      01002239H   LINE      CODE     ---       #133
      01002239H   LINE      CODE     ---       #134
      0100224CH   LINE      CODE     ---       #136
      0100225BH   LINE      CODE     ---       #137
      01002264H   LINE      CODE     ---       #139
      0100226BH   LINE      CODE     ---       #142
      01002275H   LINE      CODE     ---       #143
      01002275H   LINE      CODE     ---       #144
      01002295H   LINE      CODE     ---       #150
      01002297H   LINE      CODE     ---       #152
      01002297H   LINE      CODE     ---       #153
      0100229EH   LINE      CODE     ---       #154
      010022A4H   LINE      CODE     ---       #155
      010022A4H   LINE      CODE     ---       #157
      010022A7H   LINE      CODE     ---       #158
      010022A7H   LINE      CODE     ---       #159
      010022B8H   LINE      CODE     ---       #160
      010022B8H   LINE      CODE     ---       #162
      010022B8H   LINE      CODE     ---       #163
      ---         BLOCKEND  ---      ---       LVL=0

      01001464H   BLOCK     CODE     ---       LVL=0
LX51 LINKER/LOCATER V4.66.30.0                                                        03/28/2016  20:19:13  PAGE 128


      01001464H   BLOCK     CODE     NEAR LAB  LVL=1
      02000104H   SYMBOL    XDATA    BYTE      count
      02000105H   SYMBOL    XDATA    CHAR      status
      00000020H.3 SYMBOL    BIT      BIT       xferComplete
      ---         BLOCKEND  ---      ---       LVL=1
      01001464H   LINE      CODE     ---       #317
      01001464H   LINE      CODE     ---       #318
      01001464H   LINE      CODE     ---       #322
      01001466H   LINE      CODE     ---       #324
      0100146BH   LINE      CODE     ---       #326
      01001470H   LINE      CODE     ---       #327
      01001470H   LINE      CODE     ---       #328
      01001485H   LINE      CODE     ---       #330
      0100148DH   LINE      CODE     ---       #331
      0100148DH   LINE      CODE     ---       #332
      01001495H   LINE      CODE     ---       #335
      0100149DH   LINE      CODE     ---       #336
      0100149DH   LINE      CODE     ---       #337
      010014A2H   LINE      CODE     ---       #338
      010014A8H   LINE      CODE     ---       #339
      010014ABH   LINE      CODE     ---       #341
      010014BFH   LINE      CODE     ---       #342
      010014BFH   LINE      CODE     ---       #343
      010014C5H   LINE      CODE     ---       #344
      010014CAH   LINE      CODE     ---       #345
      010014D0H   LINE      CODE     ---       #346
      010014D2H   LINE      CODE     ---       #348
      010014D2H   LINE      CODE     ---       #349
      010014DDH   LINE      CODE     ---       #351
      010014E4H   LINE      CODE     ---       #352
      010014F9H   LINE      CODE     ---       #353
      01001502H   LINE      CODE     ---       #355
      01001511H   LINE      CODE     ---       #356
      01001511H   LINE      CODE     ---       #357
      01001517H   LINE      CODE     ---       #358
      01001519H   LINE      CODE     ---       #359
      01001519H   LINE      CODE     ---       #360
      0100151EH   LINE      CODE     ---       #361
      0100152EH   LINE      CODE     ---       #362
      0100152EH   LINE      CODE     ---       #363
      01001535H   LINE      CODE     ---       #364
      01001535H   LINE      CODE     ---       #365
      01001538H   LINE      CODE     ---       #366
      01001538H   LINE      CODE     ---       #367
      0100153BH   LINE      CODE     ---       #368
      0100153BH   LINE      CODE     ---       #369
      0100154FH   LINE      CODE     ---       #370
      0100154FH   LINE      CODE     ---       #371
      0100154FH   LINE      CODE     ---       #372
      ---         BLOCKEND  ---      ---       LVL=0

      01002CF4H   BLOCK     CODE     ---       LVL=0
      02000106H   SYMBOL    XDATA    BYTE      fifoNum
      02000107H   SYMBOL    XDATA    BYTE      numBytes
      02000108H   SYMBOL    XDATA    ---       dat
      01002CF4H   LINE      CODE     ---       #556
      01002D04H   LINE      CODE     ---       #557
      01002D04H   LINE      CODE     ---       #558
      01002D09H   LINE      CODE     ---       #559
      01002D09H   LINE      CODE     ---       #560
      01002D17H   LINE      CODE     ---       #567
      01002D26H   LINE      CODE     ---       #568
LX51 LINKER/LOCATER V4.66.30.0                                                        03/28/2016  20:19:13  PAGE 129


      01002D26H   LINE      CODE     ---       #569
      01002D26H   LINE      CODE     ---       #570
      01002D33H   LINE      CODE     ---       #571
      01002D33H   LINE      CODE     ---       #582
      01002D33H   LINE      CODE     ---       #583
      01002D45H   LINE      CODE     ---       #584
      01002D45H   LINE      CODE     ---       #590
      01002D45H   LINE      CODE     ---       #591
      01002D55H   LINE      CODE     ---       #592
      01002D55H   LINE      CODE     ---       #595
      01002D55H   LINE      CODE     ---       #596
      01002D55H   LINE      CODE     ---       #597
      01002D55H   LINE      CODE     ---       #604
      01002D55H   LINE      CODE     ---       #605
      ---         BLOCKEND  ---      ---       LVL=0

      01002A0FH   BLOCK     CODE     ---       LVL=0
      02000110H   SYMBOL    XDATA    BYTE      fifoNum
      02000111H   SYMBOL    XDATA    BYTE      numBytes
      02000112H   SYMBOL    XDATA    ---       dat
      00000020H.5 SYMBOL    BIT      BIT       txPacket
      01002A0FH   LINE      CODE     ---       #621
      01002A1BH   LINE      CODE     ---       #622
      01002A1BH   LINE      CODE     ---       #623
      01002A28H   LINE      CODE     ---       #630
      01002A39H   LINE      CODE     ---       #631
      01002A39H   LINE      CODE     ---       #632
      01002A39H   LINE      CODE     ---       #633
      01002A41H   LINE      CODE     ---       #634
      01002A43H   LINE      CODE     ---       #645
      01002A43H   LINE      CODE     ---       #646
      01002A4DH   LINE      CODE     ---       #647
      01002A4FH   LINE      CODE     ---       #653
      01002A4FH   LINE      CODE     ---       #654
      01002A57H   LINE      CODE     ---       #655
      01002A59H   LINE      CODE     ---       #658
      01002A59H   LINE      CODE     ---       #659
      01002A63H   LINE      CODE     ---       #660
      01002A63H   LINE      CODE     ---       #662
      01002A63H   LINE      CODE     ---       #663
      01002A63H   LINE      CODE     ---       #664
      01002A63H   LINE      CODE     ---       #672
      01002A70H   LINE      CODE     ---       #673
      01002A70H   LINE      CODE     ---       #674
      01002A73H   LINE      CODE     ---       #675
      01002A83H   LINE      CODE     ---       #676
      01002A83H   LINE      CODE     ---       #677
      ---         BLOCKEND  ---      ---       LVL=0

      01003A04H   BLOCK     CODE     ---       LVL=0
      00000007H   SYMBOL    DATA     BYTE      numBytes
      00000000H   SYMBOL    DATA     ---       dat
      00000003H   SYMBOL    DATA     BYTE      fifoNum
      01003A04H   LINE      CODE     ---       #696
      01003A06H   LINE      CODE     ---       #697
      01003A06H   LINE      CODE     ---       #698
      01003A0AH   LINE      CODE     ---       #699
      01003A0AH   LINE      CODE     ---       #700
      01003A11H   LINE      CODE     ---       #701
      01003A12H   LINE      CODE     ---       #702
      01003A14H   LINE      CODE     ---       #703
      01003A20H   LINE      CODE     ---       #704
LX51 LINKER/LOCATER V4.66.30.0                                                        03/28/2016  20:19:13  PAGE 130


      ---         BLOCKEND  ---      ---       LVL=0

      01003B6BH   BLOCK     CODE     ---       LVL=0
      00000007H   SYMBOL    DATA     BYTE      numBytes
      00000000H   SYMBOL    DATA     ---       dat
      01003B6BH   LINE      CODE     ---       #715
      01003B6DH   LINE      CODE     ---       #716
      01003B6DH   LINE      CODE     ---       #717
      01003B73H   LINE      CODE     ---       #718
      01003B73H   LINE      CODE     ---       #719
      01003B7BH   LINE      CODE     ---       #720
      01003B7CH   LINE      CODE     ---       #721
      01003B7EH   LINE      CODE     ---       #722
      ---         BLOCKEND  ---      ---       LVL=0

      010038ADH   BLOCK     CODE     ---       LVL=0
      00000007H   SYMBOL    DATA     BYTE      numBytes
      00000082H   SYMBOL    DATA     ---       dat
      00000003H   SYMBOL    DATA     BYTE      fifoNum
      010038ADH   LINE      CODE     ---       #733
      010038B1H   LINE      CODE     ---       #734
      010038B1H   LINE      CODE     ---       #735
      010038B5H   LINE      CODE     ---       #736
      010038B5H   LINE      CODE     ---       #737
      010038BDH   LINE      CODE     ---       #738
      010038BEH   LINE      CODE     ---       #739
      010038C0H   LINE      CODE     ---       #740
      010038CDH   LINE      CODE     ---       #741
      ---         BLOCKEND  ---      ---       LVL=0

      01003B17H   BLOCK     CODE     ---       LVL=0
      00000007H   SYMBOL    DATA     BYTE      numBytes
      00000082H   SYMBOL    DATA     ---       dat
      01003B17H   LINE      CODE     ---       #752
      01003B1BH   LINE      CODE     ---       #753
      01003B1BH   LINE      CODE     ---       #754
      01003B21H   LINE      CODE     ---       #755
      01003B21H   LINE      CODE     ---       #756
      01003B29H   LINE      CODE     ---       #757
      01003B2AH   LINE      CODE     ---       #758
      01003B2CH   LINE      CODE     ---       #759
      ---         BLOCKEND  ---      ---       LVL=0

      010039ABH   BLOCK     CODE     ---       LVL=0
      00000007H   SYMBOL    DATA     BYTE      numBytes
      00000000H   SYMBOL    DATA     ---       dat
      00000003H   SYMBOL    DATA     BYTE      fifoNum
      010039ABH   LINE      CODE     ---       #771
      010039ADH   LINE      CODE     ---       #772
      010039ADH   LINE      CODE     ---       #773
      010039B1H   LINE      CODE     ---       #774
      010039B1H   LINE      CODE     ---       #775
      010039B9H   LINE      CODE     ---       #776
      010039BAH   LINE      CODE     ---       #777
      010039BCH   LINE      CODE     ---       #778
      010039C9H   LINE      CODE     ---       #779
      ---         BLOCKEND  ---      ---       LVL=0

      01003B7FH   BLOCK     CODE     ---       LVL=0
      00000007H   SYMBOL    DATA     BYTE      numBytes
      00000000H   SYMBOL    DATA     ---       dat
      01003B7FH   LINE      CODE     ---       #790
LX51 LINKER/LOCATER V4.66.30.0                                                        03/28/2016  20:19:13  PAGE 131


      01003B81H   LINE      CODE     ---       #791
      01003B81H   LINE      CODE     ---       #792
      01003B87H   LINE      CODE     ---       #793
      01003B87H   LINE      CODE     ---       #794
      01003B8FH   LINE      CODE     ---       #795
      01003B90H   LINE      CODE     ---       #796
      01003B92H   LINE      CODE     ---       #797
      ---         BLOCKEND  ---      ---       LVL=0

      01003AE9H   BLOCK     CODE     ---       LVL=0
      00000007H   SYMBOL    DATA     BYTE      numBytes
      00000082H   SYMBOL    DATA     ---       dat
      01003AE9H   LINE      CODE     ---       #849
      01003AEDH   LINE      CODE     ---       #850
      01003AEDH   LINE      CODE     ---       #851
      01003AF3H   LINE      CODE     ---       #852
      01003AF3H   LINE      CODE     ---       #853
      01003AFCH   LINE      CODE     ---       #854
      01003AFDH   LINE      CODE     ---       #855
      01003AFFH   LINE      CODE     ---       #856
      ---         BLOCKEND  ---      ---       LVL=0

      ---         MODULE    ---      ---       EFM8_USBDINT
      01003DDBH   PUBLIC    CODE     ---       forceModuleLoad_usbint
      01003B00H   PUBLIC    CODE     ---       SendEp0Stall
      01002351H   PUBLIC    CODE     ---       handleUsbEp0Rx
      01001705H   PUBLIC    CODE     ---       usbIrqHandler
      000000A2H   SFRSYM    DATA     BYTE      SPI0CKR
      00000080H   SFRSYM    DATA     BYTE      P0
      000000C8H.6 SFRSYM    DATA     BIT       SCON1_PERR
      000000D0H.2 SFRSYM    DATA     BIT       PSW_OV
      00000090H   SFRSYM    DATA     BYTE      P1
      000000F8H.1 SFRSYM    DATA     BIT       SPI0CN0_TXNF
      00000097H   SFRSYM    DATA     BYTE      WDTCN
      000000A0H   SFRSYM    DATA     BYTE      P2
      000000B0H   SFRSYM    DATA     BYTE      P3
      000000BCH   SFRSYM    DATA     BYTE      ADC0CF
      000000C0H.7 SFRSYM    DATA     BIT       SMB0CN0_MASTER
      000000F9H   SFRSYM    DATA     WORD      PCA0
      000000E6H   SFRSYM    DATA     BYTE      EIE1
      000000C0H.1 SFRSYM    DATA     BIT       SMB0CN0_ACK
      000000B3H   SFRSYM    DATA     BYTE      USB0XCN
      000000CEH   SFRSYM    DATA     BYTE      EIE2
      0000008FH   SFRSYM    DATA     BYTE      PSCTL
      000000E4H   SFRSYM    DATA     BYTE      IT01CF
      000000C0H.6 SFRSYM    DATA     BIT       SMB0CN0_TXMODE
      000000ADH   SFRSYM    DATA     BYTE      DERIVID
      000000A7H   SFRSYM    DATA     BYTE      SFRPAGE
      000000A4H   SFRSYM    DATA     BYTE      P0MDOUT
      000000BFH   SFRSYM    DATA     BYTE      USB0CDSTA
      000000A5H   SFRSYM    DATA     BYTE      P1MDOUT
      000000E8H.5 SFRSYM    DATA     BIT       ADC0CN0_ADINT
      000000CBH   SFRSYM    DATA     BYTE      TMR2RLH
      000000A6H   SFRSYM    DATA     BYTE      P2MDOUT
      000000A8H   SFRSYM    DATA     BYTE      IE
      00000093H   SFRSYM    DATA     BYTE      TMR3RLH
      0000009CH   SFRSYM    DATA     BYTE      P3MDOUT
      000000A3H   SFRSYM    DATA     BYTE      TMR4RLH
      000000F3H   SFRSYM    DATA     BYTE      EIP1
      000000F4H   SFRSYM    DATA     BYTE      EIP2
      00000098H.2 SFRSYM    DATA     BIT       SCON0_RB8
      000000CAH   SFRSYM    DATA     BYTE      TMR2RLL
LX51 LINKER/LOCATER V4.66.30.0                                                        03/28/2016  20:19:13  PAGE 132


      000000FCH   SFRSYM    DATA     BYTE      PCA0CPH0
      00000092H   SFRSYM    DATA     BYTE      TMR3RLL
      000000EAH   SFRSYM    DATA     BYTE      PCA0CPH1
      00000098H.3 SFRSYM    DATA     BIT       SCON0_TB8
      000000F0H   SFRSYM    DATA     BIT       B_B0
      00000082H   SFRSYM    DATA     WORD      DP
      000000A2H   SFRSYM    DATA     BYTE      TMR4RLL
      000000ECH   SFRSYM    DATA     BYTE      PCA0CPH2
      000000F0H.1 SFRSYM    DATA     BIT       B_B1
      000000C3H   SFRSYM    DATA     WORD      ADC0GT
      000000BDH   SFRSYM    DATA     BYTE      I2C0SLAD
      000000D8H.3 SFRSYM    DATA     BIT       UART1FCN1_RFRQ
      000000F0H.2 SFRSYM    DATA     BIT       B_B2
      000000CFH   SFRSYM    DATA     BYTE      SFRPGCN
      000000FBH   SFRSYM    DATA     BYTE      PCA0CPL0
      000000F0H.3 SFRSYM    DATA     BIT       B_B3
      000000D9H   SFRSYM    DATA     BYTE      PCA0MD
      000000DAH   SFRSYM    DATA     BYTE      PCA0CPM0
      000000E9H   SFRSYM    DATA     BYTE      PCA0CPL1
      000000D8H.7 SFRSYM    DATA     BIT       UART1FCN1_TFRQ
      000000F0H.4 SFRSYM    DATA     BIT       B_B4
      000000DBH   SFRSYM    DATA     BYTE      PCA0CPM1
      000000EBH   SFRSYM    DATA     BYTE      PCA0CPL2
      000000F0H.5 SFRSYM    DATA     BIT       B_B5
      000000DCH   SFRSYM    DATA     BYTE      PCA0CPM2
      000000B8H   SFRSYM    DATA     BYTE      IP
      000000B9H   SFRSYM    DATA     BYTE      ADC0TK
      000000F0H.6 SFRSYM    DATA     BIT       B_B6
      000000C5H   SFRSYM    DATA     WORD      ADC0LT
      000000D8H.6 SFRSYM    DATA     BIT       UART1FCN1_TXNF
      00000098H.5 SFRSYM    DATA     BIT       SCON0_MCE
      000000F0H.7 SFRSYM    DATA     BIT       B_B7
      000000C3H   SFRSYM    DATA     BYTE      SMB0FCN0
      000000E1H   SFRSYM    DATA     BYTE      XBR0
      000000C4H   SFRSYM    DATA     BYTE      SMB0FCN1
      000000C1H   SFRSYM    DATA     BYTE      SMB0CF
      000000E2H   SFRSYM    DATA     BYTE      XBR1
      000000C1H   SFRSYM    DATA     BYTE      PFE0CN
      000000E7H   SFRSYM    DATA     BYTE      EMI0CN
      000000C0H.5 SFRSYM    DATA     BIT       SMB0CN0_STA
      000000E3H   SFRSYM    DATA     BYTE      XBR2
      000000BBH   SFRSYM    DATA     BYTE      ADC0MX
      000000E0H   SFRSYM    DATA     BIT       ACC_ACC0
      000000D1H   SFRSYM    DATA     BYTE      REF0CN
      0000008EH   SFRSYM    DATA     BYTE      CKCON0
      000000E0H.1 SFRSYM    DATA     BIT       ACC_ACC1
      000000C9H   SFRSYM    DATA     BYTE      REG0CN
      000000DDH   SFRSYM    DATA     BYTE      CRC0IN
      000000A6H   SFRSYM    DATA     BYTE      CKCON1
      000000C8H.2 SFRSYM    DATA     BIT       TMR2CN0_TR2
      000000E0H.2 SFRSYM    DATA     BIT       ACC_ACC2
      000000C6H   SFRSYM    DATA     BYTE      REG1CN
      000000E0H.3 SFRSYM    DATA     BIT       ACC_ACC3
      00000081H   SFRSYM    DATA     BYTE      SP
      0000009DH   SFRSYM    DATA     BYTE      CMP0MD
      000000E0H.4 SFRSYM    DATA     BIT       ACC_ACC4
      000000B1H   SFRSYM    DATA     BYTE      LFO0CN
      000000ABH   SFRSYM    DATA     BYTE      CMP1MD
      000000D8H   SFRSYM    DATA     BIT       PCA0CN0_CCF0
      000000E0H.5 SFRSYM    DATA     BIT       ACC_ACC5
      000000B5H   SFRSYM    DATA     BYTE      USB0CF
      00000098H.2 SFRSYM    DATA     BIT       TMR4CN0_TR4
LX51 LINKER/LOCATER V4.66.30.0                                                        03/28/2016  20:19:13  PAGE 133


      000000D8H.1 SFRSYM    DATA     BIT       PCA0CN0_CCF1
      000000E0H.6 SFRSYM    DATA     BIT       ACC_ACC6
      000000CCH   SFRSYM    DATA     WORD      TMR2
      0000009AH   SFRSYM    DATA     BYTE      SPI0FCN0
      000000D8H.2 SFRSYM    DATA     BIT       PCA0CN0_CCF2
      000000E0H.7 SFRSYM    DATA     BIT       ACC_ACC7
      00000094H   SFRSYM    DATA     WORD      TMR3
      0000009BH   SFRSYM    DATA     BYTE      SPI0FCN1
      000000A4H   SFRSYM    DATA     WORD      TMR4
      00000094H   SFRSYM    DATA     BYTE      SBCON1
      000000C0H.3 SFRSYM    DATA     BIT       SMB0CN0_ACKRQ
      000000FFH   SFRSYM    DATA     BYTE      VDM0CN
      000000F1H   SFRSYM    DATA     BYTE      P0MDIN
      00000098H.4 SFRSYM    DATA     BIT       SCON0_REN
      000000ACH   SFRSYM    DATA     BYTE      SMB0TC
      000000F2H   SFRSYM    DATA     BYTE      P1MDIN
      000000C8H.4 SFRSYM    DATA     BIT       SCON1_REN
      000000F3H   SFRSYM    DATA     BYTE      P2MDIN
      000000C0H.4 SFRSYM    DATA     BIT       SMB0CN0_STO
      000000B6H   SFRSYM    DATA     BYTE      USB0CDCF
      000000F4H   SFRSYM    DATA     BYTE      P3MDIN
      000000B9H   SFRSYM    DATA     BYTE      I2C0STAT
      000000BBH   SFRSYM    DATA     BYTE      I2C0DOUT
      00000096H   SFRSYM    DATA     BYTE      SBRLH1
      000000FEH   SFRSYM    DATA     BYTE      P0MASK
      000000D8H.5 SFRSYM    DATA     BIT       UART1FCN1_TXHOLD
      000000EEH   SFRSYM    DATA     BYTE      P1MASK
      000000FCH   SFRSYM    DATA     BYTE      P2MASK
      000000D0H.3 SFRSYM    DATA     BIT       PSW_RS0
      000000D8H.7 SFRSYM    DATA     BIT       PCA0CN0_CF
      0000009EH   SFRSYM    DATA     BYTE      PCA0CENT
      000000BAH   SFRSYM    DATA     BYTE      I2C0CN0
      000000D2H   SFRSYM    DATA     BYTE      CRC0ST
      000000F8H.4 SFRSYM    DATA     BIT       SPI0CN0_RXOVRN
      000000D0H.4 SFRSYM    DATA     BIT       PSW_RS1
      00000095H   SFRSYM    DATA     BYTE      SBRLL1
      000000C8H.2 SFRSYM    DATA     BIT       SCON1_RBX
      000000C8H   SFRSYM    DATA     BIT       TMR2CN0_T2XCLK0
      000000C8H.1 SFRSYM    DATA     BIT       TMR2CN0_T2XCLK1
      000000C8H.3 SFRSYM    DATA     BIT       SCON1_TBX
      000000E8H.7 SFRSYM    DATA     BIT       ADC0CN0_ADEN
      000000BEH   SFRSYM    DATA     BYTE      USB0CDCN
      00000089H   SFRSYM    DATA     BYTE      TMOD
      00000088H   SFRSYM    DATA     BYTE      TCON
      000000CFH   SFRSYM    DATA     BYTE      CRC0FLIP
      000000D0H   SFRSYM    DATA     BIT       PSW_PARITY
      000000A8H.4 SFRSYM    DATA     BIT       IE_ES0
      0000009FH   SFRSYM    DATA     BYTE      CMP0MX
      00000098H   SFRSYM    DATA     BIT       TMR4CN0_T4XCLK0
      000000A8H.1 SFRSYM    DATA     BIT       IE_ET0
      000000AAH   SFRSYM    DATA     BYTE      CMP1MX
      00000098H.1 SFRSYM    DATA     BIT       TMR4CN0_T4XCLK1
      000000A8H.3 SFRSYM    DATA     BIT       IE_ET1
      000000D4H   SFRSYM    DATA     BYTE      P0SKIP
      000000D8H   SFRSYM    DATA     BIT       UART1FCN1_RIE
      000000A8H.5 SFRSYM    DATA     BIT       IE_ET2
      000000D5H   SFRSYM    DATA     BYTE      P1SKIP
      000000CCH   SFRSYM    DATA     BYTE      P2SKIP
      000000E8H   SFRSYM    DATA     BYTE      ADC0CN0
      000000D8H.4 SFRSYM    DATA     BIT       UART1FCN1_TIE
      000000A8H   SFRSYM    DATA     BIT       IE_EX0
      000000B2H   SFRSYM    DATA     BYTE      ADC0CN1
LX51 LINKER/LOCATER V4.66.30.0                                                        03/28/2016  20:19:13  PAGE 134


      000000D8H.6 SFRSYM    DATA     BIT       PCA0CN0_CR
      000000A8H.2 SFRSYM    DATA     BIT       IE_EX1
      000000C8H.7 SFRSYM    DATA     BIT       SCON1_OVR
      00000098H.7 SFRSYM    DATA     BIT       SCON0_SMODE
      000000B5H   SFRSYM    DATA     BYTE      DEVICEID
      000000A9H   SFRSYM    DATA     BYTE      CLKSEL
      000000F8H   SFRSYM    DATA     BIT       SPI0CN0_SPIEN
      000000F0H   SFRSYM    DATA     BYTE      B
      000000BEH   SFRSYM    DATA     BYTE      ADC0H
      000000E8H.6 SFRSYM    DATA     BIT       ADC0CN0_ADBMEN
      000000CAH   SFRSYM    DATA     WORD      TMR2RL
      000000BDH   SFRSYM    DATA     BYTE      ADC0L
      00000092H   SFRSYM    DATA     WORD      TMR3RL
      000000A2H   SFRSYM    DATA     WORD      TMR4RL
      000000D8H   SFRSYM    DATA     BYTE      PCA0CN0
      000000E0H   SFRSYM    DATA     BYTE      ACC
      000000FBH   SFRSYM    DATA     WORD      PCA0CP0
      000000E9H   SFRSYM    DATA     WORD      PCA0CP1
      000000EBH   SFRSYM    DATA     WORD      PCA0CP2
      000000BCH   SFRSYM    DATA     BYTE      I2C0DIN
      000000CEH   SFRSYM    DATA     BYTE      CRC0CN0
      0000008CH   SFRSYM    DATA     BYTE      TH0
      00000086H   SFRSYM    DATA     BYTE      CRC0CN1
      000000B8H.4 SFRSYM    DATA     BIT       IP_PS0
      000000FAH   SFRSYM    DATA     BYTE      UART1FCT
      0000008DH   SFRSYM    DATA     BYTE      TH1
      000000FAH   SFRSYM    DATA     BYTE      PCA0H
      000000F5H   SFRSYM    DATA     BYTE      I2C0FCT
      000000B8H.1 SFRSYM    DATA     BIT       IP_PT0
      000000B8H.3 SFRSYM    DATA     BIT       IP_PT1
      000000C0H.2 SFRSYM    DATA     BIT       SMB0CN0_ARBLOST
      000000B8H.5 SFRSYM    DATA     BIT       IP_PT2
      0000008AH   SFRSYM    DATA     BYTE      TL0
      000000D0H.5 SFRSYM    DATA     BIT       PSW_F0
      000000A8H.6 SFRSYM    DATA     BIT       IE_ESPI0
      0000008BH   SFRSYM    DATA     BYTE      TL1
      000000F9H   SFRSYM    DATA     BYTE      PCA0L
      000000C0H   SFRSYM    DATA     BIT       SMB0CN0_SI
      000000D0H.1 SFRSYM    DATA     BIT       PSW_F1
      00000080H   SFRSYM    DATA     BIT       P0_B0
      000000B8H   SFRSYM    DATA     BIT       IP_PX0
      00000090H   SFRSYM    DATA     BIT       P1_B0
      00000080H.1 SFRSYM    DATA     BIT       P0_B1
      000000B8H.2 SFRSYM    DATA     BIT       IP_PX1
      0000009EH   SFRSYM    DATA     BYTE      UART1LIN
      0000009BH   SFRSYM    DATA     BYTE      CMP0CN0
      00000088H.1 SFRSYM    DATA     BIT       TCON_IE0
      000000A0H   SFRSYM    DATA     BIT       P2_B0
      00000090H.1 SFRSYM    DATA     BIT       P1_B1
      00000080H.2 SFRSYM    DATA     BIT       P0_B2
      000000BFH   SFRSYM    DATA     BYTE      CMP1CN0
      00000099H   SFRSYM    DATA     BYTE      CMP0CN1
      00000088H.3 SFRSYM    DATA     BIT       TCON_IE1
      000000B0H   SFRSYM    DATA     BIT       P3_B0
      000000A0H.1 SFRSYM    DATA     BIT       P2_B1
      00000090H.2 SFRSYM    DATA     BIT       P1_B2
      00000080H.3 SFRSYM    DATA     BIT       P0_B3
      000000C0H   SFRSYM    DATA     BYTE      SMB0CN0
      000000ACH   SFRSYM    DATA     BYTE      CMP1CN1
      000000B0H.1 SFRSYM    DATA     BIT       P3_B1
      000000A0H.2 SFRSYM    DATA     BIT       P2_B2
      00000090H.3 SFRSYM    DATA     BIT       P1_B3
LX51 LINKER/LOCATER V4.66.30.0                                                        03/28/2016  20:19:13  PAGE 135


      00000080H.4 SFRSYM    DATA     BIT       P0_B4
      000000A0H.3 SFRSYM    DATA     BIT       P2_B3
      00000090H.4 SFRSYM    DATA     BIT       P1_B4
      00000080H.5 SFRSYM    DATA     BIT       P0_B5
      000000D8H.1 SFRSYM    DATA     BIT       UART1FCN1_RXTO0
      00000090H.5 SFRSYM    DATA     BIT       P1_B5
      00000080H.6 SFRSYM    DATA     BIT       P0_B6
      000000F5H   SFRSYM    DATA     BYTE      EIP1H
      000000D8H.2 SFRSYM    DATA     BIT       UART1FCN1_RXTO1
      00000090H.6 SFRSYM    DATA     BIT       P1_B6
      00000080H.7 SFRSYM    DATA     BIT       P0_B7
      000000C5H   SFRSYM    DATA     BYTE      SMB0RXLN
      000000F6H   SFRSYM    DATA     BYTE      EIP2H
      00000090H.7 SFRSYM    DATA     BIT       P1_B7
      00000083H   SFRSYM    DATA     BYTE      DPH
      000000C4H   SFRSYM    DATA     BYTE      ADC0GTH
      000000C8H.7 SFRSYM    DATA     BIT       TMR2CN0_TF2H
      000000C8H.3 SFRSYM    DATA     BIT       TMR2CN0_T2SPLIT
      000000D0H.6 SFRSYM    DATA     BIT       PSW_AC
      000000F8H   SFRSYM    DATA     BYTE      SPI0CN0
      000000C7H   SFRSYM    DATA     BYTE      HFO0CAL
      00000088H.5 SFRSYM    DATA     BIT       TCON_TF0
      00000098H   SFRSYM    DATA     BIT       SCON0_RI
      000000D6H   SFRSYM    DATA     BYTE      HFO1CAL
      00000082H   SFRSYM    DATA     BYTE      DPL
      00000088H.7 SFRSYM    DATA     BIT       TCON_TF1
      000000C8H   SFRSYM    DATA     BIT       SCON1_RI
      00000099H   SFRSYM    DATA     BYTE      SBUF0
      00000087H   SFRSYM    DATA     BYTE      PCON0
      000000F2H   SFRSYM    DATA     BYTE      IPH
      000000C3H   SFRSYM    DATA     BYTE      ADC0GTL
      00000098H.7 SFRSYM    DATA     BIT       TMR4CN0_TF4H
      00000098H.3 SFRSYM    DATA     BIT       TMR4CN0_T4SPLIT
      000000C8H.6 SFRSYM    DATA     BIT       TMR2CN0_TF2L
      00000098H.1 SFRSYM    DATA     BIT       SCON0_TI
      000000E8H   SFRSYM    DATA     BIT       ADC0CN0_ADCM0
      00000092H   SFRSYM    DATA     BYTE      SBUF1
      0000009AH   SFRSYM    DATA     BYTE      PCON1
      000000C6H   SFRSYM    DATA     BYTE      ADC0LTH
      00000088H   SFRSYM    DATA     BIT       TCON_IT0
      000000C8H.1 SFRSYM    DATA     BIT       SCON1_TI
      000000E8H.1 SFRSYM    DATA     BIT       ADC0CN0_ADCM1
      000000EFH   SFRSYM    DATA     BYTE      RSTSRC
      000000FDH   SFRSYM    DATA     BYTE      P0MAT
      000000DEH   SFRSYM    DATA     BYTE      CRC0DAT
      00000088H.2 SFRSYM    DATA     BIT       TCON_IT1
      000000E8H.2 SFRSYM    DATA     BIT       ADC0CN0_ADCM2
      000000D7H   SFRSYM    DATA     BYTE      SFRSTACK
      00000098H   SFRSYM    DATA     BYTE      SCON0
      000000F6H   SFRSYM    DATA     BYTE      PRTDRV
      000000EDH   SFRSYM    DATA     BYTE      P1MAT
      000000E8H.3 SFRSYM    DATA     BIT       ADC0CN0_ADWINT
      00000095H   SFRSYM    DATA     WORD      SBRL1
      000000B2H   SFRSYM    DATA     BYTE      USB0AEC
      00000093H   SFRSYM    DATA     BYTE      SMOD1
      000000C8H   SFRSYM    DATA     BYTE      SCON1
      000000FBH   SFRSYM    DATA     BYTE      P2MAT
      00000098H.6 SFRSYM    DATA     BIT       TMR4CN0_TF4L
      000000E8H.4 SFRSYM    DATA     BIT       ADC0CN0_ADBUSY
      000000D6H   SFRSYM    DATA     BYTE      SMB0ADM
      000000C5H   SFRSYM    DATA     BYTE      ADC0LTL
      000000F8H.5 SFRSYM    DATA     BIT       SPI0CN0_MODF
LX51 LINKER/LOCATER V4.66.30.0                                                        03/28/2016  20:19:13  PAGE 136


      000000B8H.6 SFRSYM    DATA     BIT       IP_PSPI0
      0000009CH   SFRSYM    DATA     BYTE      PCA0CLR
      000000C8H   SFRSYM    DATA     BYTE      TMR2CN0
      00000091H   SFRSYM    DATA     BYTE      TMR3CN0
      000000FDH   SFRSYM    DATA     BYTE      TMR2CN1
      00000098H   SFRSYM    DATA     BYTE      TMR4CN0
      000000FEH   SFRSYM    DATA     BYTE      TMR3CN1
      000000FFH   SFRSYM    DATA     BYTE      TMR4CN1
      000000D7H   SFRSYM    DATA     BYTE      SMB0ADR
      00000088H.4 SFRSYM    DATA     BIT       TCON_TR0
      000000C8H.4 SFRSYM    DATA     BIT       TMR2CN0_TF2CEN
      00000088H.6 SFRSYM    DATA     BIT       TCON_TR1
      000000C2H   SFRSYM    DATA     BYTE      SMB0DAT
      000000CDH   SFRSYM    DATA     BYTE      TMR2H
      000000A1H   SFRSYM    DATA     BYTE      SPI0CFG
      00000095H   SFRSYM    DATA     BYTE      TMR3H
      000000EFH   SFRSYM    DATA     BYTE      HFOCN
      000000D3H   SFRSYM    DATA     BYTE      CRC0CNT
      000000A5H   SFRSYM    DATA     BYTE      TMR4H
      00000098H.4 SFRSYM    DATA     BIT       TMR4CN0_TF4CEN
      000000EFH   SFRSYM    DATA     BYTE      SMB0FCT
      00000096H   SFRSYM    DATA     BYTE      PCA0POL
      000000CCH   SFRSYM    DATA     BYTE      TMR2L
      000000F8H.7 SFRSYM    DATA     BIT       SPI0CN0_SPIF
      000000AEH   SFRSYM    DATA     BYTE      USB0ADR
      00000094H   SFRSYM    DATA     BYTE      TMR3L
      000000DFH   SFRSYM    DATA     BYTE      ADC0PWR
      000000A8H.7 SFRSYM    DATA     BIT       IE_EA
      000000A4H   SFRSYM    DATA     BYTE      TMR4L
      000000AFH   SFRSYM    DATA     BYTE      USB0DAT
      000000C8H.5 SFRSYM    DATA     BIT       TMR2CN0_TF2LEN
      000000F8H.6 SFRSYM    DATA     BIT       SPI0CN0_WCOL
      000000F8H.2 SFRSYM    DATA     BIT       SPI0CN0_NSSMD0
      000000D0H.7 SFRSYM    DATA     BIT       PSW_CY
      0000009DH   SFRSYM    DATA     BYTE      UART1FCN0
      000000A3H   SFRSYM    DATA     BYTE      SPI0DAT
      000000ADH   SFRSYM    DATA     BYTE      I2C0FCN0
      000000F8H.3 SFRSYM    DATA     BIT       SPI0CN0_NSSMD1
      000000BDH   SFRSYM    DATA     WORD      ADC0
      000000D8H   SFRSYM    DATA     BYTE      UART1FCN1
      000000ABH   SFRSYM    DATA     BYTE      I2C0FCN1
      00000098H.5 SFRSYM    DATA     BIT       TMR4CN0_TF4LEN
      000000D0H   SFRSYM    DATA     BYTE      PSW
      000000F7H   SFRSYM    DATA     BYTE      PCA0PWM
      000000F7H   SFRSYM    DATA     BYTE      SPI0FCT
      000000B6H   SFRSYM    DATA     BYTE      REVID
      000000B7H   SFRSYM    DATA     BYTE      FLKEY
      000000B3H   SFRSYM    DATA     BYTE      ADC0AC
      01002E69H   SYMBOL    CODE     ---       USB_ReadFIFOSetup
      010020BDH   SYMBOL    CODE     ---       handleUsbEp0Int
      01003C37H   SYMBOL    CODE     ---       handleUsbSuspendInt
      01003D7BH   SYMBOL    CODE     ---       handleUsbResumeInt
      01002351H   SYMBOL    CODE     ---       handleUsbEp0Rx
      0100136AH   SYMBOL    CODE     ---       handleUsbEp0Tx
      01003320H   SYMBOL    CODE     ---       handleUsbResetInt

      01002DB6H   BLOCK     CODE     ---       LVL=0
      ---         BLOCKEND  ---      ---       LVL=0

      01001705H   BLOCK     CODE     ---       LVL=0
      01001722H   BLOCK     CODE     NEAR LAB  LVL=1
      02000100H   SYMBOL    XDATA    BYTE      statusCommon
LX51 LINKER/LOCATER V4.66.30.0                                                        03/28/2016  20:19:13  PAGE 137


      02000101H   SYMBOL    XDATA    BYTE      statusIn
      02000102H   SYMBOL    XDATA    BYTE      statusOut
      02000103H   SYMBOL    XDATA    BYTE      indexSave
      ---         BLOCKEND  ---      ---       LVL=1
      01001705H   LINE      CODE     ---       #61
      01001722H   LINE      CODE     ---       #74
      0100172AH   LINE      CODE     ---       #75
      01001732H   LINE      CODE     ---       #76
      0100173AH   LINE      CODE     ---       #86
      01001742H   LINE      CODE     ---       #89
      0100174AH   LINE      CODE     ---       #90
      0100174AH   LINE      CODE     ---       #97
      01001765H   LINE      CODE     ---       #99
      01001765H   LINE      CODE     ---       #100
      0100176CH   LINE      CODE     ---       #101
      0100176CH   LINE      CODE     ---       #105
      0100177AH   LINE      CODE     ---       #106
      0100177AH   LINE      CODE     ---       #107
      01001781H   LINE      CODE     ---       #108
      01001781H   LINE      CODE     ---       #128
      01001781H   LINE      CODE     ---       #130
      01001785H   LINE      CODE     ---       #131
      01001785H   LINE      CODE     ---       #132
      01001788H   LINE      CODE     ---       #141
      01001788H   LINE      CODE     ---       #143
      0100178FH   LINE      CODE     ---       #144
      0100178FH   LINE      CODE     ---       #145
      01001792H   LINE      CODE     ---       #146
      01001792H   LINE      CODE     ---       #148
      01001799H   LINE      CODE     ---       #149
      01001799H   LINE      CODE     ---       #150
      0100179CH   LINE      CODE     ---       #151
      0100179CH   LINE      CODE     ---       #175
      010017A3H   LINE      CODE     ---       #176
      010017A3H   LINE      CODE     ---       #177
      010017A6H   LINE      CODE     ---       #178
      010017A6H   LINE      CODE     ---       #189
      010017ADH   LINE      CODE     ---       #190
      010017ADH   LINE      CODE     ---       #191
      010017B0H   LINE      CODE     ---       #192
      010017B0H   LINE      CODE     ---       #196
      010017B7H   LINE      CODE     ---       #197
      010017B7H   LINE      CODE     ---       #198
      010017BAH   LINE      CODE     ---       #199
      010017BAH   LINE      CODE     ---       #202
      010017C2H   LINE      CODE     ---       #208
      ---         BLOCKEND  ---      ---       LVL=0

      010020BDH   BLOCK     CODE     ---       LVL=0
      010020BDH   LINE      CODE     ---       #213
      010020BDH   LINE      CODE     ---       #214
      010020BDH   LINE      CODE     ---       #215
      010020C2H   LINE      CODE     ---       #217
      010020CCH   LINE      CODE     ---       #218
      010020CCH   LINE      CODE     ---       #219
      010020D7H   LINE      CODE     ---       #220
      010020E2H   LINE      CODE     ---       #221
      010020E5H   LINE      CODE     ---       #222
      010020E8H   LINE      CODE     ---       #223
      010020E8H   LINE      CODE     ---       #224
      010020EDH   LINE      CODE     ---       #225
      010020EDH   LINE      CODE     ---       #226
LX51 LINKER/LOCATER V4.66.30.0                                                        03/28/2016  20:19:13  PAGE 138


      010020F5H   LINE      CODE     ---       #227
      010020F5H   LINE      CODE     ---       #228
      010020F5H   LINE      CODE     ---       #229
      010020F7H   LINE      CODE     ---       #230
      010020FFH   LINE      CODE     ---       #231
      010020FFH   LINE      CODE     ---       #232
      01002103H   LINE      CODE     ---       #233
      01002106H   LINE      CODE     ---       #237
      01002110H   LINE      CODE     ---       #238
      01002110H   LINE      CODE     ---       #240
      0100211BH   LINE      CODE     ---       #241
      0100211BH   LINE      CODE     ---       #242
      0100211EH   LINE      CODE     ---       #243
      01002120H   LINE      CODE     ---       #245
      01002120H   LINE      CODE     ---       #246
      01002123H   LINE      CODE     ---       #247
      01002123H   LINE      CODE     ---       #249
      01002125H   LINE      CODE     ---       #251
      01002125H   LINE      CODE     ---       #254
      0100213EH   LINE      CODE     ---       #258
      0100213EH   LINE      CODE     ---       #259
      01002145H   LINE      CODE     ---       #260
      01002145H   LINE      CODE     ---       #261
      01002145H   LINE      CODE     ---       #263
      01002147H   LINE      CODE     ---       #264
      0100214EH   LINE      CODE     ---       #265
      0100214EH   LINE      CODE     ---       #266
      01002151H   LINE      CODE     ---       #267
      01002153H   LINE      CODE     ---       #269
      01002153H   LINE      CODE     ---       #270
      0100215AH   LINE      CODE     ---       #271
      0100215AH   LINE      CODE     ---       #272
      0100215AH   LINE      CODE     ---       #273
      01002166H   LINE      CODE     ---       #274
      01002166H   LINE      CODE     ---       #275
      01002169H   LINE      CODE     ---       #276
      01002169H   LINE      CODE     ---       #277
      ---         BLOCKEND  ---      ---       LVL=0

      01002E69H   BLOCK     CODE     ---       LVL=0
      01002E69H   BLOCK     CODE     NEAR LAB  LVL=1
      02000104H   SYMBOL    XDATA    ---       ptr
      ---         BLOCKEND  ---      ---       LVL=1
      01002E69H   LINE      CODE     ---       #282
      01002E69H   LINE      CODE     ---       #283
      01002E69H   LINE      CODE     ---       #284
      01002E75H   LINE      CODE     ---       #286
      01002E81H   LINE      CODE     ---       #288
      01002E8CH   LINE      CODE     ---       #291
      01002EA8H   LINE      CODE     ---       #292
      01002EB4H   LINE      CODE     ---       #293
      01002EBFH   LINE      CODE     ---       #294
      ---         BLOCKEND  ---      ---       LVL=0

      01003320H   BLOCK     CODE     ---       LVL=0
      01003320H   LINE      CODE     ---       #301
      01003320H   LINE      CODE     ---       #302
      01003320H   LINE      CODE     ---       #304
      01003323H   LINE      CODE     ---       #308
      01003329H   LINE      CODE     ---       #317
      0100332DH   LINE      CODE     ---       #332
      01003338H   LINE      CODE     ---       #339
LX51 LINKER/LOCATER V4.66.30.0                                                        03/28/2016  20:19:13  PAGE 139


      01003343H   LINE      CODE     ---       #340
      0100334EH   LINE      CODE     ---       #345
      01003351H   LINE      CODE     ---       #346
      01003351H   LINE      CODE     ---       #347
      01003353H   LINE      CODE     ---       #348
      01003355H   LINE      CODE     ---       #350
      01003355H   LINE      CODE     ---       #351
      0100335AH   LINE      CODE     ---       #352
      0100335AH   LINE      CODE     ---       #359
      ---         BLOCKEND  ---      ---       LVL=0

      01003C37H   BLOCK     CODE     ---       LVL=0
      01003C37H   LINE      CODE     ---       #369
      01003C37H   LINE      CODE     ---       #370
      01003C37H   LINE      CODE     ---       #371
      01003C40H   LINE      CODE     ---       #372
      01003C40H   LINE      CODE     ---       #373
      01003C45H   LINE      CODE     ---       #378
      01003C45H   LINE      CODE     ---       #379
      ---         BLOCKEND  ---      ---       LVL=0

      01003D7BH   BLOCK     CODE     ---       LVL=0
      01003D7BH   LINE      CODE     ---       #385
      01003D7BH   LINE      CODE     ---       #386
      01003D7BH   LINE      CODE     ---       #387
      ---         BLOCKEND  ---      ---       LVL=0

      0100136AH   BLOCK     CODE     ---       LVL=0
      0100136AH   BLOCK     CODE     NEAR LAB  LVL=1
      02000104H   SYMBOL    XDATA    BYTE      count
      02000105H   SYMBOL    XDATA    BYTE      count_snapshot
      02000106H   SYMBOL    XDATA    BYTE      i
      00000020H.3 SYMBOL    BIT      BIT       callback
      ---         BLOCKEND  ---      ---       LVL=1
      0100136AH   LINE      CODE     ---       #393
      0100136AH   LINE      CODE     ---       #394
      0100136AH   LINE      CODE     ---       #396
      01001371H   LINE      CODE     ---       #400
      0100138AH   LINE      CODE     ---       #404
      0100138CH   LINE      CODE     ---       #410
      01001397H   LINE      CODE     ---       #411
      01001397H   LINE      CODE     ---       #416
      0100139BH   LINE      CODE     ---       #417
      0100139BH   LINE      CODE     ---       #418
      010013A8H   LINE      CODE     ---       #419
      010013AEH   LINE      CODE     ---       #420
      010013B5H   LINE      CODE     ---       #421
      010013BCH   LINE      CODE     ---       #422
      010013BCH   LINE      CODE     ---       #425
      010013D0H   LINE      CODE     ---       #426
      010013D0H   LINE      CODE     ---       #427
      010013D6H   LINE      CODE     ---       #428
      010013DCH   LINE      CODE     ---       #429
      010013E5H   LINE      CODE     ---       #430
      010013EDH   LINE      CODE     ---       #431
      010013EDH   LINE      CODE     ---       #435
      010013EDH   LINE      CODE     ---       #436
      010013FAH   LINE      CODE     ---       #437
      01001408H   LINE      CODE     ---       #438
      01001408H   LINE      CODE     ---       #440
      0100140FH   LINE      CODE     ---       #441
      0100141FH   LINE      CODE     ---       #447
LX51 LINKER/LOCATER V4.66.30.0                                                        03/28/2016  20:19:13  PAGE 140


      01001427H   LINE      CODE     ---       #448
      01001427H   LINE      CODE     ---       #449
      01001432H   LINE      CODE     ---       #450
      01001435H   LINE      CODE     ---       #451
      0100143AH   LINE      CODE     ---       #452
      0100143EH   LINE      CODE     ---       #453
      01001440H   LINE      CODE     ---       #455
      01001440H   LINE      CODE     ---       #458
      0100144BH   LINE      CODE     ---       #459
      0100144BH   LINE      CODE     ---       #461
      0100144EH   LINE      CODE     ---       #462
      0100144EH   LINE      CODE     ---       #463
      01001459H   LINE      CODE     ---       #464
      01001459H   LINE      CODE     ---       #465
      ---         BLOCKEND  ---      ---       LVL=0

      01002351H   BLOCK     CODE     ---       LVL=0
      01002351H   BLOCK     CODE     NEAR LAB  LVL=1
      02000104H   SYMBOL    XDATA    BYTE      count
      02000105H   SYMBOL    XDATA    CHAR      status
      00000020H.3 SYMBOL    BIT      BIT       callback
      ---         BLOCKEND  ---      ---       LVL=1
      01002351H   LINE      CODE     ---       #470
      01002351H   LINE      CODE     ---       #471
      01002351H   LINE      CODE     ---       #474
      01002358H   LINE      CODE     ---       #477
      01002360H   LINE      CODE     ---       #481
      0100236EH   LINE      CODE     ---       #482
      0100236EH   LINE      CODE     ---       #483
      01002371H   LINE      CODE     ---       #484
      01002376H   LINE      CODE     ---       #485
      0100237CH   LINE      CODE     ---       #486
      0100237EH   LINE      CODE     ---       #488
      0100237EH   LINE      CODE     ---       #489
      01002389H   LINE      CODE     ---       #490
      0100239AH   LINE      CODE     ---       #491
      010023A3H   LINE      CODE     ---       #492
      010023A8H   LINE      CODE     ---       #498
      010023B1H   LINE      CODE     ---       #499
      010023B1H   LINE      CODE     ---       #500
      010023BCH   LINE      CODE     ---       #501
      010023BFH   LINE      CODE     ---       #502
      010023C4H   LINE      CODE     ---       #503
      010023C6H   LINE      CODE     ---       #505
      010023C6H   LINE      CODE     ---       #507
      010023D1H   LINE      CODE     ---       #508
      010023D1H   LINE      CODE     ---       #509
      010023D1H   LINE      CODE     ---       #512
      010023D4H   LINE      CODE     ---       #513
      010023D4H   LINE      CODE     ---       #514
      010023E3H   LINE      CODE     ---       #515
      010023E3H   LINE      CODE     ---       #516
      ---         BLOCKEND  ---      ---       LVL=0

      01003B00H   BLOCK     CODE     ---       LVL=0
      01003B00H   LINE      CODE     ---       #522
      01003B00H   LINE      CODE     ---       #523
      01003B00H   LINE      CODE     ---       #524
      01003B05H   LINE      CODE     ---       #525
      01003B0BH   LINE      CODE     ---       #526
      01003B16H   LINE      CODE     ---       #527
      ---         BLOCKEND  ---      ---       LVL=0
LX51 LINKER/LOCATER V4.66.30.0                                                        03/28/2016  20:19:13  PAGE 141



      01003DDBH   BLOCK     CODE     ---       LVL=0
      01003DDBH   LINE      CODE     ---       #533
      ---         BLOCKEND  ---      ---       LVL=0

      ---         MODULE    ---      ---       ASSERT
      01003DD8H   PUBLIC    CODE     ---       _slab_Assert

      01003DD8H   BLOCK     CODE     ---       LVL=0
      02000000H   SYMBOL    XDATA    ---       file
      02000003H   SYMBOL    XDATA    INT       line
      01003DD8H   LINE      CODE     ---       #8
      01003DD8H   LINE      CODE     ---       #9
      01003DD8H   LINE      CODE     ---       #10
      01003DD8H   LINE      CODE     ---       #11
      01003DD8H   LINE      CODE     ---       #13
      ---         BLOCKEND  ---      ---       LVL=0

      ---         MODULE    ---      ---       TESTS
      000000A2H   SFRSYM    DATA     BYTE      SPI0CKR
      00000080H   SFRSYM    DATA     BYTE      P0
      000000C8H.6 SFRSYM    DATA     BIT       SCON1_PERR
      000000D0H.2 SFRSYM    DATA     BIT       PSW_OV
      00000090H   SFRSYM    DATA     BYTE      P1
      000000F8H.1 SFRSYM    DATA     BIT       SPI0CN0_TXNF
      00000097H   SFRSYM    DATA     BYTE      WDTCN
      000000A0H   SFRSYM    DATA     BYTE      P2
      000000B0H   SFRSYM    DATA     BYTE      P3
      000000BCH   SFRSYM    DATA     BYTE      ADC0CF
      000000C0H.7 SFRSYM    DATA     BIT       SMB0CN0_MASTER
      000000F9H   SFRSYM    DATA     WORD      PCA0
      000000E6H   SFRSYM    DATA     BYTE      EIE1
      000000C0H.1 SFRSYM    DATA     BIT       SMB0CN0_ACK
      000000B3H   SFRSYM    DATA     BYTE      USB0XCN
      000000CEH   SFRSYM    DATA     BYTE      EIE2
      00000080H.7 SFRSYM    DATA     BIT       LED_R
      0000008FH   SFRSYM    DATA     BYTE      PSCTL
      000000E4H   SFRSYM    DATA     BYTE      IT01CF
      000000C0H.6 SFRSYM    DATA     BIT       SMB0CN0_TXMODE
      000000ADH   SFRSYM    DATA     BYTE      DERIVID
      000000A7H   SFRSYM    DATA     BYTE      SFRPAGE
      000000A4H   SFRSYM    DATA     BYTE      P0MDOUT
      00000080H.2 SFRSYM    DATA     BIT       U2F_BUTTON
      000000BFH   SFRSYM    DATA     BYTE      USB0CDSTA
      000000A5H   SFRSYM    DATA     BYTE      P1MDOUT
      000000E8H.5 SFRSYM    DATA     BIT       ADC0CN0_ADINT
      000000CBH   SFRSYM    DATA     BYTE      TMR2RLH
      000000A6H   SFRSYM    DATA     BYTE      P2MDOUT
      000000A8H   SFRSYM    DATA     BYTE      IE
      00000093H   SFRSYM    DATA     BYTE      TMR3RLH
      0000009CH   SFRSYM    DATA     BYTE      P3MDOUT
      000000A3H   SFRSYM    DATA     BYTE      TMR4RLH
      000000F3H   SFRSYM    DATA     BYTE      EIP1
      000000F4H   SFRSYM    DATA     BYTE      EIP2
      00000098H.2 SFRSYM    DATA     BIT       SCON0_RB8
      000000CAH   SFRSYM    DATA     BYTE      TMR2RLL
      000000FCH   SFRSYM    DATA     BYTE      PCA0CPH0
      00000092H   SFRSYM    DATA     BYTE      TMR3RLL
      000000EAH   SFRSYM    DATA     BYTE      PCA0CPH1
      00000098H.3 SFRSYM    DATA     BIT       SCON0_TB8
      000000F0H   SFRSYM    DATA     BIT       B_B0
      00000082H   SFRSYM    DATA     WORD      DP
LX51 LINKER/LOCATER V4.66.30.0                                                        03/28/2016  20:19:13  PAGE 142


      000000A2H   SFRSYM    DATA     BYTE      TMR4RLL
      000000ECH   SFRSYM    DATA     BYTE      PCA0CPH2
      000000F0H.1 SFRSYM    DATA     BIT       B_B1
      000000C3H   SFRSYM    DATA     WORD      ADC0GT
      000000BDH   SFRSYM    DATA     BYTE      I2C0SLAD
      000000D8H.3 SFRSYM    DATA     BIT       UART1FCN1_RFRQ
      000000F0H.2 SFRSYM    DATA     BIT       B_B2
      000000CFH   SFRSYM    DATA     BYTE      SFRPGCN
      000000FBH   SFRSYM    DATA     BYTE      PCA0CPL0
      000000F0H.3 SFRSYM    DATA     BIT       B_B3
      000000D9H   SFRSYM    DATA     BYTE      PCA0MD
      000000DAH   SFRSYM    DATA     BYTE      PCA0CPM0
      000000E9H   SFRSYM    DATA     BYTE      PCA0CPL1
      000000D8H.7 SFRSYM    DATA     BIT       UART1FCN1_TFRQ
      000000F0H.4 SFRSYM    DATA     BIT       B_B4
      000000DBH   SFRSYM    DATA     BYTE      PCA0CPM1
      000000EBH   SFRSYM    DATA     BYTE      PCA0CPL2
      000000F0H.5 SFRSYM    DATA     BIT       B_B5
      000000DCH   SFRSYM    DATA     BYTE      PCA0CPM2
      000000B8H   SFRSYM    DATA     BYTE      IP
      000000B9H   SFRSYM    DATA     BYTE      ADC0TK
      000000F0H.6 SFRSYM    DATA     BIT       B_B6
      000000C5H   SFRSYM    DATA     WORD      ADC0LT
      000000D8H.6 SFRSYM    DATA     BIT       UART1FCN1_TXNF
      00000098H.5 SFRSYM    DATA     BIT       SCON0_MCE
      000000F0H.7 SFRSYM    DATA     BIT       B_B7
      000000C3H   SFRSYM    DATA     BYTE      SMB0FCN0
      000000E1H   SFRSYM    DATA     BYTE      XBR0
      000000C4H   SFRSYM    DATA     BYTE      SMB0FCN1
      000000C1H   SFRSYM    DATA     BYTE      SMB0CF
      000000E2H   SFRSYM    DATA     BYTE      XBR1
      000000C1H   SFRSYM    DATA     BYTE      PFE0CN
      000000E7H   SFRSYM    DATA     BYTE      EMI0CN
      000000C0H.5 SFRSYM    DATA     BIT       SMB0CN0_STA
      000000E3H   SFRSYM    DATA     BYTE      XBR2
      000000BBH   SFRSYM    DATA     BYTE      ADC0MX
      000000E0H   SFRSYM    DATA     BIT       ACC_ACC0
      000000D1H   SFRSYM    DATA     BYTE      REF0CN
      0000008EH   SFRSYM    DATA     BYTE      CKCON0
      000000E0H.1 SFRSYM    DATA     BIT       ACC_ACC1
      000000C9H   SFRSYM    DATA     BYTE      REG0CN
      000000DDH   SFRSYM    DATA     BYTE      CRC0IN
      000000A6H   SFRSYM    DATA     BYTE      CKCON1
      000000C8H.2 SFRSYM    DATA     BIT       TMR2CN0_TR2
      000000E0H.2 SFRSYM    DATA     BIT       ACC_ACC2
      000000C6H   SFRSYM    DATA     BYTE      REG1CN
      000000E0H.3 SFRSYM    DATA     BIT       ACC_ACC3
      00000081H   SFRSYM    DATA     BYTE      SP
      0000009DH   SFRSYM    DATA     BYTE      CMP0MD
      000000E0H.4 SFRSYM    DATA     BIT       ACC_ACC4
      000000B1H   SFRSYM    DATA     BYTE      LFO0CN
      000000ABH   SFRSYM    DATA     BYTE      CMP1MD
      000000D8H   SFRSYM    DATA     BIT       PCA0CN0_CCF0
      000000E0H.5 SFRSYM    DATA     BIT       ACC_ACC5
      000000B5H   SFRSYM    DATA     BYTE      USB0CF
      00000098H.2 SFRSYM    DATA     BIT       TMR4CN0_TR4
      000000D8H.1 SFRSYM    DATA     BIT       PCA0CN0_CCF1
      000000E0H.6 SFRSYM    DATA     BIT       ACC_ACC6
      000000CCH   SFRSYM    DATA     WORD      TMR2
      0000009AH   SFRSYM    DATA     BYTE      SPI0FCN0
      000000D8H.2 SFRSYM    DATA     BIT       PCA0CN0_CCF2
      000000E0H.7 SFRSYM    DATA     BIT       ACC_ACC7
LX51 LINKER/LOCATER V4.66.30.0                                                        03/28/2016  20:19:13  PAGE 143


      00000094H   SFRSYM    DATA     WORD      TMR3
      0000009BH   SFRSYM    DATA     BYTE      SPI0FCN1
      000000A4H   SFRSYM    DATA     WORD      TMR4
      00000094H   SFRSYM    DATA     BYTE      SBCON1
      000000C0H.3 SFRSYM    DATA     BIT       SMB0CN0_ACKRQ
      000000FFH   SFRSYM    DATA     BYTE      VDM0CN
      000000F1H   SFRSYM    DATA     BYTE      P0MDIN
      00000098H.4 SFRSYM    DATA     BIT       SCON0_REN
      000000ACH   SFRSYM    DATA     BYTE      SMB0TC
      000000F2H   SFRSYM    DATA     BYTE      P1MDIN
      000000C8H.4 SFRSYM    DATA     BIT       SCON1_REN
      000000F3H   SFRSYM    DATA     BYTE      P2MDIN
      000000C0H.4 SFRSYM    DATA     BIT       SMB0CN0_STO
      000000B6H   SFRSYM    DATA     BYTE      USB0CDCF
      000000F4H   SFRSYM    DATA     BYTE      P3MDIN
      000000B9H   SFRSYM    DATA     BYTE      I2C0STAT
      000000BBH   SFRSYM    DATA     BYTE      I2C0DOUT
      00000096H   SFRSYM    DATA     BYTE      SBRLH1
      000000FEH   SFRSYM    DATA     BYTE      P0MASK
      000000D8H.5 SFRSYM    DATA     BIT       UART1FCN1_TXHOLD
      000000EEH   SFRSYM    DATA     BYTE      P1MASK
      000000FCH   SFRSYM    DATA     BYTE      P2MASK
      000000D0H.3 SFRSYM    DATA     BIT       PSW_RS0
      000000D8H.7 SFRSYM    DATA     BIT       PCA0CN0_CF
      0000009EH   SFRSYM    DATA     BYTE      PCA0CENT
      000000BAH   SFRSYM    DATA     BYTE      I2C0CN0
      000000D2H   SFRSYM    DATA     BYTE      CRC0ST
      000000F8H.4 SFRSYM    DATA     BIT       SPI0CN0_RXOVRN
      000000D0H.4 SFRSYM    DATA     BIT       PSW_RS1
      00000095H   SFRSYM    DATA     BYTE      SBRLL1
      000000C8H.2 SFRSYM    DATA     BIT       SCON1_RBX
      000000C8H   SFRSYM    DATA     BIT       TMR2CN0_T2XCLK0
      000000C8H.1 SFRSYM    DATA     BIT       TMR2CN0_T2XCLK1
      000000C8H.3 SFRSYM    DATA     BIT       SCON1_TBX
      000000E8H.7 SFRSYM    DATA     BIT       ADC0CN0_ADEN
      000000BEH   SFRSYM    DATA     BYTE      USB0CDCN
      00000089H   SFRSYM    DATA     BYTE      TMOD
      00000088H   SFRSYM    DATA     BYTE      TCON
      000000CFH   SFRSYM    DATA     BYTE      CRC0FLIP
      000000D0H   SFRSYM    DATA     BIT       PSW_PARITY
      000000A8H.4 SFRSYM    DATA     BIT       IE_ES0
      0000009FH   SFRSYM    DATA     BYTE      CMP0MX
      00000098H   SFRSYM    DATA     BIT       TMR4CN0_T4XCLK0
      000000A8H.1 SFRSYM    DATA     BIT       IE_ET0
      000000AAH   SFRSYM    DATA     BYTE      CMP1MX
      00000098H.1 SFRSYM    DATA     BIT       TMR4CN0_T4XCLK1
      000000A8H.3 SFRSYM    DATA     BIT       IE_ET1
      000000D4H   SFRSYM    DATA     BYTE      P0SKIP
      000000D8H   SFRSYM    DATA     BIT       UART1FCN1_RIE
      000000A8H.5 SFRSYM    DATA     BIT       IE_ET2
      000000D5H   SFRSYM    DATA     BYTE      P1SKIP
      000000CCH   SFRSYM    DATA     BYTE      P2SKIP
      000000E8H   SFRSYM    DATA     BYTE      ADC0CN0
      000000D8H.4 SFRSYM    DATA     BIT       UART1FCN1_TIE
      000000A8H   SFRSYM    DATA     BIT       IE_EX0
      000000B2H   SFRSYM    DATA     BYTE      ADC0CN1
      000000D8H.6 SFRSYM    DATA     BIT       PCA0CN0_CR
      000000A8H.2 SFRSYM    DATA     BIT       IE_EX1
      000000C8H.7 SFRSYM    DATA     BIT       SCON1_OVR
      00000098H.7 SFRSYM    DATA     BIT       SCON0_SMODE
      000000B5H   SFRSYM    DATA     BYTE      DEVICEID
      000000A9H   SFRSYM    DATA     BYTE      CLKSEL
LX51 LINKER/LOCATER V4.66.30.0                                                        03/28/2016  20:19:13  PAGE 144


      000000F8H   SFRSYM    DATA     BIT       SPI0CN0_SPIEN
      000000F0H   SFRSYM    DATA     BYTE      B
      000000BEH   SFRSYM    DATA     BYTE      ADC0H
      000000E8H.6 SFRSYM    DATA     BIT       ADC0CN0_ADBMEN
      000000CAH   SFRSYM    DATA     WORD      TMR2RL
      000000BDH   SFRSYM    DATA     BYTE      ADC0L
      00000092H   SFRSYM    DATA     WORD      TMR3RL
      000000A2H   SFRSYM    DATA     WORD      TMR4RL
      000000D8H   SFRSYM    DATA     BYTE      PCA0CN0
      000000E0H   SFRSYM    DATA     BYTE      ACC
      000000FBH   SFRSYM    DATA     WORD      PCA0CP0
      000000E9H   SFRSYM    DATA     WORD      PCA0CP1
      000000EBH   SFRSYM    DATA     WORD      PCA0CP2
      000000BCH   SFRSYM    DATA     BYTE      I2C0DIN
      000000CEH   SFRSYM    DATA     BYTE      CRC0CN0
      0000008CH   SFRSYM    DATA     BYTE      TH0
      00000086H   SFRSYM    DATA     BYTE      CRC0CN1
      000000B8H.4 SFRSYM    DATA     BIT       IP_PS0
      000000FAH   SFRSYM    DATA     BYTE      UART1FCT
      0000008DH   SFRSYM    DATA     BYTE      TH1
      000000FAH   SFRSYM    DATA     BYTE      PCA0H
      000000F5H   SFRSYM    DATA     BYTE      I2C0FCT
      000000B8H.1 SFRSYM    DATA     BIT       IP_PT0
      000000B8H.3 SFRSYM    DATA     BIT       IP_PT1
      000000C0H.2 SFRSYM    DATA     BIT       SMB0CN0_ARBLOST
      000000B8H.5 SFRSYM    DATA     BIT       IP_PT2
      0000008AH   SFRSYM    DATA     BYTE      TL0
      00000080H.3 SFRSYM    DATA     BIT       U2F_BUTTON_VAL
      000000D0H.5 SFRSYM    DATA     BIT       PSW_F0
      000000A8H.6 SFRSYM    DATA     BIT       IE_ESPI0
      0000008BH   SFRSYM    DATA     BYTE      TL1
      000000F9H   SFRSYM    DATA     BYTE      PCA0L
      000000C0H   SFRSYM    DATA     BIT       SMB0CN0_SI
      000000D0H.1 SFRSYM    DATA     BIT       PSW_F1
      00000080H   SFRSYM    DATA     BIT       P0_B0
      000000B8H   SFRSYM    DATA     BIT       IP_PX0
      00000090H   SFRSYM    DATA     BIT       P1_B0
      00000080H.1 SFRSYM    DATA     BIT       P0_B1
      000000B8H.2 SFRSYM    DATA     BIT       IP_PX1
      0000009EH   SFRSYM    DATA     BYTE      UART1LIN
      0000009BH   SFRSYM    DATA     BYTE      CMP0CN0
      00000088H.1 SFRSYM    DATA     BIT       TCON_IE0
      000000A0H   SFRSYM    DATA     BIT       P2_B0
      00000090H.1 SFRSYM    DATA     BIT       P1_B1
      00000080H.2 SFRSYM    DATA     BIT       P0_B2
      000000BFH   SFRSYM    DATA     BYTE      CMP1CN0
      00000099H   SFRSYM    DATA     BYTE      CMP0CN1
      00000088H.3 SFRSYM    DATA     BIT       TCON_IE1
      000000B0H   SFRSYM    DATA     BIT       P3_B0
      000000A0H.1 SFRSYM    DATA     BIT       P2_B1
      00000090H.2 SFRSYM    DATA     BIT       P1_B2
      00000080H.3 SFRSYM    DATA     BIT       P0_B3
      000000C0H   SFRSYM    DATA     BYTE      SMB0CN0
      000000ACH   SFRSYM    DATA     BYTE      CMP1CN1
      000000B0H.1 SFRSYM    DATA     BIT       P3_B1
      000000A0H.2 SFRSYM    DATA     BIT       P2_B2
      00000090H.3 SFRSYM    DATA     BIT       P1_B3
      00000080H.4 SFRSYM    DATA     BIT       P0_B4
      000000A0H.3 SFRSYM    DATA     BIT       P2_B3
      00000090H.4 SFRSYM    DATA     BIT       P1_B4
      00000080H.5 SFRSYM    DATA     BIT       P0_B5
      000000D8H.1 SFRSYM    DATA     BIT       UART1FCN1_RXTO0
LX51 LINKER/LOCATER V4.66.30.0                                                        03/28/2016  20:19:13  PAGE 145


      00000090H.5 SFRSYM    DATA     BIT       P1_B5
      00000080H.6 SFRSYM    DATA     BIT       P0_B6
      000000F5H   SFRSYM    DATA     BYTE      EIP1H
      000000D8H.2 SFRSYM    DATA     BIT       UART1FCN1_RXTO1
      00000090H.6 SFRSYM    DATA     BIT       P1_B6
      00000080H.7 SFRSYM    DATA     BIT       P0_B7
      000000C5H   SFRSYM    DATA     BYTE      SMB0RXLN
      000000F6H   SFRSYM    DATA     BYTE      EIP2H
      00000090H.7 SFRSYM    DATA     BIT       P1_B7
      00000083H   SFRSYM    DATA     BYTE      DPH
      000000C4H   SFRSYM    DATA     BYTE      ADC0GTH
      000000C8H.7 SFRSYM    DATA     BIT       TMR2CN0_TF2H
      000000C8H.3 SFRSYM    DATA     BIT       TMR2CN0_T2SPLIT
      000000D0H.6 SFRSYM    DATA     BIT       PSW_AC
      000000F8H   SFRSYM    DATA     BYTE      SPI0CN0
      000000C7H   SFRSYM    DATA     BYTE      HFO0CAL
      00000088H.5 SFRSYM    DATA     BIT       TCON_TF0
      00000098H   SFRSYM    DATA     BIT       SCON0_RI
      000000D6H   SFRSYM    DATA     BYTE      HFO1CAL
      00000082H   SFRSYM    DATA     BYTE      DPL
      00000088H.7 SFRSYM    DATA     BIT       TCON_TF1
      000000C8H   SFRSYM    DATA     BIT       SCON1_RI
      00000099H   SFRSYM    DATA     BYTE      SBUF0
      00000087H   SFRSYM    DATA     BYTE      PCON0
      000000F2H   SFRSYM    DATA     BYTE      IPH
      000000C3H   SFRSYM    DATA     BYTE      ADC0GTL
      00000098H.7 SFRSYM    DATA     BIT       TMR4CN0_TF4H
      00000098H.3 SFRSYM    DATA     BIT       TMR4CN0_T4SPLIT
      000000C8H.6 SFRSYM    DATA     BIT       TMR2CN0_TF2L
      00000098H.1 SFRSYM    DATA     BIT       SCON0_TI
      000000E8H   SFRSYM    DATA     BIT       ADC0CN0_ADCM0
      00000092H   SFRSYM    DATA     BYTE      SBUF1
      0000009AH   SFRSYM    DATA     BYTE      PCON1
      000000C6H   SFRSYM    DATA     BYTE      ADC0LTH
      00000088H   SFRSYM    DATA     BIT       TCON_IT0
      000000C8H.1 SFRSYM    DATA     BIT       SCON1_TI
      000000E8H.1 SFRSYM    DATA     BIT       ADC0CN0_ADCM1
      000000EFH   SFRSYM    DATA     BYTE      RSTSRC
      000000FDH   SFRSYM    DATA     BYTE      P0MAT
      000000DEH   SFRSYM    DATA     BYTE      CRC0DAT
      00000088H.2 SFRSYM    DATA     BIT       TCON_IT1
      000000E8H.2 SFRSYM    DATA     BIT       ADC0CN0_ADCM2
      000000D7H   SFRSYM    DATA     BYTE      SFRSTACK
      00000098H   SFRSYM    DATA     BYTE      SCON0
      000000F6H   SFRSYM    DATA     BYTE      PRTDRV
      000000EDH   SFRSYM    DATA     BYTE      P1MAT
      000000E8H.3 SFRSYM    DATA     BIT       ADC0CN0_ADWINT
      00000095H   SFRSYM    DATA     WORD      SBRL1
      000000B2H   SFRSYM    DATA     BYTE      USB0AEC
      00000093H   SFRSYM    DATA     BYTE      SMOD1
      000000C8H   SFRSYM    DATA     BYTE      SCON1
      000000FBH   SFRSYM    DATA     BYTE      P2MAT
      00000098H.6 SFRSYM    DATA     BIT       TMR4CN0_TF4L
      000000E8H.4 SFRSYM    DATA     BIT       ADC0CN0_ADBUSY
      000000D6H   SFRSYM    DATA     BYTE      SMB0ADM
      000000C5H   SFRSYM    DATA     BYTE      ADC0LTL
      000000F8H.5 SFRSYM    DATA     BIT       SPI0CN0_MODF
      000000B8H.6 SFRSYM    DATA     BIT       IP_PSPI0
      0000009CH   SFRSYM    DATA     BYTE      PCA0CLR
      000000C8H   SFRSYM    DATA     BYTE      TMR2CN0
      00000091H   SFRSYM    DATA     BYTE      TMR3CN0
      000000FDH   SFRSYM    DATA     BYTE      TMR2CN1
LX51 LINKER/LOCATER V4.66.30.0                                                        03/28/2016  20:19:13  PAGE 146


      00000098H   SFRSYM    DATA     BYTE      TMR4CN0
      000000FEH   SFRSYM    DATA     BYTE      TMR3CN1
      000000FFH   SFRSYM    DATA     BYTE      TMR4CN1
      000000D7H   SFRSYM    DATA     BYTE      SMB0ADR
      00000088H.4 SFRSYM    DATA     BIT       TCON_TR0
      000000C8H.4 SFRSYM    DATA     BIT       TMR2CN0_TF2CEN
      00000088H.6 SFRSYM    DATA     BIT       TCON_TR1
      000000C2H   SFRSYM    DATA     BYTE      SMB0DAT
      000000CDH   SFRSYM    DATA     BYTE      TMR2H
      000000A1H   SFRSYM    DATA     BYTE      SPI0CFG
      00000095H   SFRSYM    DATA     BYTE      TMR3H
      000000EFH   SFRSYM    DATA     BYTE      HFOCN
      000000D3H   SFRSYM    DATA     BYTE      CRC0CNT
      000000A5H   SFRSYM    DATA     BYTE      TMR4H
      00000098H.4 SFRSYM    DATA     BIT       TMR4CN0_TF4CEN
      000000EFH   SFRSYM    DATA     BYTE      SMB0FCT
      00000096H   SFRSYM    DATA     BYTE      PCA0POL
      000000CCH   SFRSYM    DATA     BYTE      TMR2L
      000000F8H.7 SFRSYM    DATA     BIT       SPI0CN0_SPIF
      000000AEH   SFRSYM    DATA     BYTE      USB0ADR
      00000094H   SFRSYM    DATA     BYTE      TMR3L
      000000DFH   SFRSYM    DATA     BYTE      ADC0PWR
      000000A8H.7 SFRSYM    DATA     BIT       IE_EA
      000000A4H   SFRSYM    DATA     BYTE      TMR4L
      000000AFH   SFRSYM    DATA     BYTE      USB0DAT
      000000C8H.5 SFRSYM    DATA     BIT       TMR2CN0_TF2LEN
      000000F8H.6 SFRSYM    DATA     BIT       SPI0CN0_WCOL
      00000090H   SFRSYM    DATA     BIT       LED_B
      000000F8H.2 SFRSYM    DATA     BIT       SPI0CN0_NSSMD0
      000000D0H.7 SFRSYM    DATA     BIT       PSW_CY
      0000009DH   SFRSYM    DATA     BYTE      UART1FCN0
      000000A3H   SFRSYM    DATA     BYTE      SPI0DAT
      000000ADH   SFRSYM    DATA     BYTE      I2C0FCN0
      000000F8H.3 SFRSYM    DATA     BIT       SPI0CN0_NSSMD1
      000000BDH   SFRSYM    DATA     WORD      ADC0
      000000D8H   SFRSYM    DATA     BYTE      UART1FCN1
      000000ABH   SFRSYM    DATA     BYTE      I2C0FCN1
      00000098H.5 SFRSYM    DATA     BIT       TMR4CN0_TF4LEN
      000000D0H   SFRSYM    DATA     BYTE      PSW
      000000F7H   SFRSYM    DATA     BYTE      PCA0PWM
      000000F7H   SFRSYM    DATA     BYTE      SPI0FCT
      000000B6H   SFRSYM    DATA     BYTE      REVID
      00000080H.6 SFRSYM    DATA     BIT       LED_G
      000000B7H   SFRSYM    DATA     BYTE      FLKEY
      000000B3H   SFRSYM    DATA     BYTE      ADC0AC

      ---         MODULE    ---      ---       ATECC508A
      020000B3H   PUBLIC    XDATA    BYTE      ?_atecc_send_recv?BYTE
      01001550H   PUBLIC    CODE     ---       _atecc_send_recv
      020000C3H   PUBLIC    XDATA    BYTE      ?_atecc_recv?BYTE
      01001BCEH   PUBLIC    CODE     ---       _atecc_recv
      01003C16H   PUBLIC    CODE     ---       atecc_wake
      01003D30H   PUBLIC    CODE     ---       atecc_idle
      020000C3H   PUBLIC    XDATA    BYTE      ?_atecc_send?BYTE
      01002F64H   PUBLIC    CODE     ---       _atecc_send
      000000A2H   SFRSYM    DATA     BYTE      SPI0CKR
      00000080H   SFRSYM    DATA     BYTE      P0
      000000C8H.6 SFRSYM    DATA     BIT       SCON1_PERR
      000000D0H.2 SFRSYM    DATA     BIT       PSW_OV
      00000090H   SFRSYM    DATA     BYTE      P1
      000000F8H.1 SFRSYM    DATA     BIT       SPI0CN0_TXNF
      00000097H   SFRSYM    DATA     BYTE      WDTCN
LX51 LINKER/LOCATER V4.66.30.0                                                        03/28/2016  20:19:13  PAGE 147


      000000A0H   SFRSYM    DATA     BYTE      P2
      000000B0H   SFRSYM    DATA     BYTE      P3
      000000BCH   SFRSYM    DATA     BYTE      ADC0CF
      000000C0H.7 SFRSYM    DATA     BIT       SMB0CN0_MASTER
      000000F9H   SFRSYM    DATA     WORD      PCA0
      000000E6H   SFRSYM    DATA     BYTE      EIE1
      000000C0H.1 SFRSYM    DATA     BIT       SMB0CN0_ACK
      000000B3H   SFRSYM    DATA     BYTE      USB0XCN
      000000CEH   SFRSYM    DATA     BYTE      EIE2
      00000080H.7 SFRSYM    DATA     BIT       LED_R
      0000008FH   SFRSYM    DATA     BYTE      PSCTL
      000000E4H   SFRSYM    DATA     BYTE      IT01CF
      000000C0H.6 SFRSYM    DATA     BIT       SMB0CN0_TXMODE
      000000ADH   SFRSYM    DATA     BYTE      DERIVID
      000000A7H   SFRSYM    DATA     BYTE      SFRPAGE
      000000A4H   SFRSYM    DATA     BYTE      P0MDOUT
      00000080H.2 SFRSYM    DATA     BIT       U2F_BUTTON
      000000BFH   SFRSYM    DATA     BYTE      USB0CDSTA
      000000A5H   SFRSYM    DATA     BYTE      P1MDOUT
      000000E8H.5 SFRSYM    DATA     BIT       ADC0CN0_ADINT
      000000CBH   SFRSYM    DATA     BYTE      TMR2RLH
      000000A6H   SFRSYM    DATA     BYTE      P2MDOUT
      000000A8H   SFRSYM    DATA     BYTE      IE
      00000093H   SFRSYM    DATA     BYTE      TMR3RLH
      0000009CH   SFRSYM    DATA     BYTE      P3MDOUT
      000000A3H   SFRSYM    DATA     BYTE      TMR4RLH
      000000F3H   SFRSYM    DATA     BYTE      EIP1
      000000F4H   SFRSYM    DATA     BYTE      EIP2
      00000098H.2 SFRSYM    DATA     BIT       SCON0_RB8
      000000CAH   SFRSYM    DATA     BYTE      TMR2RLL
      000000FCH   SFRSYM    DATA     BYTE      PCA0CPH0
      00000092H   SFRSYM    DATA     BYTE      TMR3RLL
      000000EAH   SFRSYM    DATA     BYTE      PCA0CPH1
      00000098H.3 SFRSYM    DATA     BIT       SCON0_TB8
      000000F0H   SFRSYM    DATA     BIT       B_B0
      00000082H   SFRSYM    DATA     WORD      DP
      000000A2H   SFRSYM    DATA     BYTE      TMR4RLL
      000000ECH   SFRSYM    DATA     BYTE      PCA0CPH2
      000000F0H.1 SFRSYM    DATA     BIT       B_B1
      000000C3H   SFRSYM    DATA     WORD      ADC0GT
      000000BDH   SFRSYM    DATA     BYTE      I2C0SLAD
      000000D8H.3 SFRSYM    DATA     BIT       UART1FCN1_RFRQ
      000000F0H.2 SFRSYM    DATA     BIT       B_B2
      000000CFH   SFRSYM    DATA     BYTE      SFRPGCN
      000000FBH   SFRSYM    DATA     BYTE      PCA0CPL0
      000000F0H.3 SFRSYM    DATA     BIT       B_B3
      000000D9H   SFRSYM    DATA     BYTE      PCA0MD
      000000DAH   SFRSYM    DATA     BYTE      PCA0CPM0
      000000E9H   SFRSYM    DATA     BYTE      PCA0CPL1
      000000D8H.7 SFRSYM    DATA     BIT       UART1FCN1_TFRQ
      000000F0H.4 SFRSYM    DATA     BIT       B_B4
      000000DBH   SFRSYM    DATA     BYTE      PCA0CPM1
      000000EBH   SFRSYM    DATA     BYTE      PCA0CPL2
      000000F0H.5 SFRSYM    DATA     BIT       B_B5
      000000DCH   SFRSYM    DATA     BYTE      PCA0CPM2
      000000B8H   SFRSYM    DATA     BYTE      IP
      000000B9H   SFRSYM    DATA     BYTE      ADC0TK
      000000F0H.6 SFRSYM    DATA     BIT       B_B6
      000000C5H   SFRSYM    DATA     WORD      ADC0LT
      000000D8H.6 SFRSYM    DATA     BIT       UART1FCN1_TXNF
      00000098H.5 SFRSYM    DATA     BIT       SCON0_MCE
      000000F0H.7 SFRSYM    DATA     BIT       B_B7
LX51 LINKER/LOCATER V4.66.30.0                                                        03/28/2016  20:19:13  PAGE 148


      000000C3H   SFRSYM    DATA     BYTE      SMB0FCN0
      000000E1H   SFRSYM    DATA     BYTE      XBR0
      000000C4H   SFRSYM    DATA     BYTE      SMB0FCN1
      000000C1H   SFRSYM    DATA     BYTE      SMB0CF
      000000E2H   SFRSYM    DATA     BYTE      XBR1
      000000C1H   SFRSYM    DATA     BYTE      PFE0CN
      000000E7H   SFRSYM    DATA     BYTE      EMI0CN
      000000C0H.5 SFRSYM    DATA     BIT       SMB0CN0_STA
      000000E3H   SFRSYM    DATA     BYTE      XBR2
      000000BBH   SFRSYM    DATA     BYTE      ADC0MX
      000000E0H   SFRSYM    DATA     BIT       ACC_ACC0
      000000D1H   SFRSYM    DATA     BYTE      REF0CN
      0000008EH   SFRSYM    DATA     BYTE      CKCON0
      000000E0H.1 SFRSYM    DATA     BIT       ACC_ACC1
      000000C9H   SFRSYM    DATA     BYTE      REG0CN
      000000DDH   SFRSYM    DATA     BYTE      CRC0IN
      000000A6H   SFRSYM    DATA     BYTE      CKCON1
      000000C8H.2 SFRSYM    DATA     BIT       TMR2CN0_TR2
      000000E0H.2 SFRSYM    DATA     BIT       ACC_ACC2
      000000C6H   SFRSYM    DATA     BYTE      REG1CN
      000000E0H.3 SFRSYM    DATA     BIT       ACC_ACC3
      00000081H   SFRSYM    DATA     BYTE      SP
      0000009DH   SFRSYM    DATA     BYTE      CMP0MD
      000000E0H.4 SFRSYM    DATA     BIT       ACC_ACC4
      000000B1H   SFRSYM    DATA     BYTE      LFO0CN
      000000ABH   SFRSYM    DATA     BYTE      CMP1MD
      000000D8H   SFRSYM    DATA     BIT       PCA0CN0_CCF0
      000000E0H.5 SFRSYM    DATA     BIT       ACC_ACC5
      000000B5H   SFRSYM    DATA     BYTE      USB0CF
      00000098H.2 SFRSYM    DATA     BIT       TMR4CN0_TR4
      000000D8H.1 SFRSYM    DATA     BIT       PCA0CN0_CCF1
      000000E0H.6 SFRSYM    DATA     BIT       ACC_ACC6
      000000CCH   SFRSYM    DATA     WORD      TMR2
      0000009AH   SFRSYM    DATA     BYTE      SPI0FCN0
      000000D8H.2 SFRSYM    DATA     BIT       PCA0CN0_CCF2
      000000E0H.7 SFRSYM    DATA     BIT       ACC_ACC7
      00000094H   SFRSYM    DATA     WORD      TMR3
      0000009BH   SFRSYM    DATA     BYTE      SPI0FCN1
      000000A4H   SFRSYM    DATA     WORD      TMR4
      00000094H   SFRSYM    DATA     BYTE      SBCON1
      000000C0H.3 SFRSYM    DATA     BIT       SMB0CN0_ACKRQ
      000000FFH   SFRSYM    DATA     BYTE      VDM0CN
      000000F1H   SFRSYM    DATA     BYTE      P0MDIN
      00000098H.4 SFRSYM    DATA     BIT       SCON0_REN
      000000ACH   SFRSYM    DATA     BYTE      SMB0TC
      000000F2H   SFRSYM    DATA     BYTE      P1MDIN
      000000C8H.4 SFRSYM    DATA     BIT       SCON1_REN
      000000F3H   SFRSYM    DATA     BYTE      P2MDIN
      000000C0H.4 SFRSYM    DATA     BIT       SMB0CN0_STO
      000000B6H   SFRSYM    DATA     BYTE      USB0CDCF
      000000F4H   SFRSYM    DATA     BYTE      P3MDIN
      000000B9H   SFRSYM    DATA     BYTE      I2C0STAT
      000000BBH   SFRSYM    DATA     BYTE      I2C0DOUT
      00000096H   SFRSYM    DATA     BYTE      SBRLH1
      000000FEH   SFRSYM    DATA     BYTE      P0MASK
      000000D8H.5 SFRSYM    DATA     BIT       UART1FCN1_TXHOLD
      000000EEH   SFRSYM    DATA     BYTE      P1MASK
      000000FCH   SFRSYM    DATA     BYTE      P2MASK
      000000D0H.3 SFRSYM    DATA     BIT       PSW_RS0
      000000D8H.7 SFRSYM    DATA     BIT       PCA0CN0_CF
      0000009EH   SFRSYM    DATA     BYTE      PCA0CENT
      000000BAH   SFRSYM    DATA     BYTE      I2C0CN0
LX51 LINKER/LOCATER V4.66.30.0                                                        03/28/2016  20:19:13  PAGE 149


      000000D2H   SFRSYM    DATA     BYTE      CRC0ST
      000000F8H.4 SFRSYM    DATA     BIT       SPI0CN0_RXOVRN
      000000D0H.4 SFRSYM    DATA     BIT       PSW_RS1
      00000095H   SFRSYM    DATA     BYTE      SBRLL1
      000000C8H.2 SFRSYM    DATA     BIT       SCON1_RBX
      000000C8H   SFRSYM    DATA     BIT       TMR2CN0_T2XCLK0
      000000C8H.1 SFRSYM    DATA     BIT       TMR2CN0_T2XCLK1
      000000C8H.3 SFRSYM    DATA     BIT       SCON1_TBX
      000000E8H.7 SFRSYM    DATA     BIT       ADC0CN0_ADEN
      000000BEH   SFRSYM    DATA     BYTE      USB0CDCN
      00000089H   SFRSYM    DATA     BYTE      TMOD
      00000088H   SFRSYM    DATA     BYTE      TCON
      000000CFH   SFRSYM    DATA     BYTE      CRC0FLIP
      000000D0H   SFRSYM    DATA     BIT       PSW_PARITY
      000000A8H.4 SFRSYM    DATA     BIT       IE_ES0
      0000009FH   SFRSYM    DATA     BYTE      CMP0MX
      00000098H   SFRSYM    DATA     BIT       TMR4CN0_T4XCLK0
      000000A8H.1 SFRSYM    DATA     BIT       IE_ET0
      000000AAH   SFRSYM    DATA     BYTE      CMP1MX
      00000098H.1 SFRSYM    DATA     BIT       TMR4CN0_T4XCLK1
      000000A8H.3 SFRSYM    DATA     BIT       IE_ET1
      000000D4H   SFRSYM    DATA     BYTE      P0SKIP
      000000D8H   SFRSYM    DATA     BIT       UART1FCN1_RIE
      000000A8H.5 SFRSYM    DATA     BIT       IE_ET2
      000000D5H   SFRSYM    DATA     BYTE      P1SKIP
      000000CCH   SFRSYM    DATA     BYTE      P2SKIP
      000000E8H   SFRSYM    DATA     BYTE      ADC0CN0
      000000D8H.4 SFRSYM    DATA     BIT       UART1FCN1_TIE
      000000A8H   SFRSYM    DATA     BIT       IE_EX0
      000000B2H   SFRSYM    DATA     BYTE      ADC0CN1
      000000D8H.6 SFRSYM    DATA     BIT       PCA0CN0_CR
      000000A8H.2 SFRSYM    DATA     BIT       IE_EX1
      000000C8H.7 SFRSYM    DATA     BIT       SCON1_OVR
      00000098H.7 SFRSYM    DATA     BIT       SCON0_SMODE
      000000B5H   SFRSYM    DATA     BYTE      DEVICEID
      000000A9H   SFRSYM    DATA     BYTE      CLKSEL
      000000F8H   SFRSYM    DATA     BIT       SPI0CN0_SPIEN
      000000F0H   SFRSYM    DATA     BYTE      B
      000000BEH   SFRSYM    DATA     BYTE      ADC0H
      000000E8H.6 SFRSYM    DATA     BIT       ADC0CN0_ADBMEN
      000000CAH   SFRSYM    DATA     WORD      TMR2RL
      000000BDH   SFRSYM    DATA     BYTE      ADC0L
      00000092H   SFRSYM    DATA     WORD      TMR3RL
      000000A2H   SFRSYM    DATA     WORD      TMR4RL
      000000D8H   SFRSYM    DATA     BYTE      PCA0CN0
      000000E0H   SFRSYM    DATA     BYTE      ACC
      000000FBH   SFRSYM    DATA     WORD      PCA0CP0
      000000E9H   SFRSYM    DATA     WORD      PCA0CP1
      000000EBH   SFRSYM    DATA     WORD      PCA0CP2
      000000BCH   SFRSYM    DATA     BYTE      I2C0DIN
      000000CEH   SFRSYM    DATA     BYTE      CRC0CN0
      0000008CH   SFRSYM    DATA     BYTE      TH0
      00000086H   SFRSYM    DATA     BYTE      CRC0CN1
      000000B8H.4 SFRSYM    DATA     BIT       IP_PS0
      000000FAH   SFRSYM    DATA     BYTE      UART1FCT
      0000008DH   SFRSYM    DATA     BYTE      TH1
      000000FAH   SFRSYM    DATA     BYTE      PCA0H
      000000F5H   SFRSYM    DATA     BYTE      I2C0FCT
      000000B8H.1 SFRSYM    DATA     BIT       IP_PT0
      000000B8H.3 SFRSYM    DATA     BIT       IP_PT1
      000000C0H.2 SFRSYM    DATA     BIT       SMB0CN0_ARBLOST
      000000B8H.5 SFRSYM    DATA     BIT       IP_PT2
LX51 LINKER/LOCATER V4.66.30.0                                                        03/28/2016  20:19:13  PAGE 150


      0000008AH   SFRSYM    DATA     BYTE      TL0
      00000080H.3 SFRSYM    DATA     BIT       U2F_BUTTON_VAL
      000000D0H.5 SFRSYM    DATA     BIT       PSW_F0
      000000A8H.6 SFRSYM    DATA     BIT       IE_ESPI0
      0000008BH   SFRSYM    DATA     BYTE      TL1
      000000F9H   SFRSYM    DATA     BYTE      PCA0L
      000000C0H   SFRSYM    DATA     BIT       SMB0CN0_SI
      000000D0H.1 SFRSYM    DATA     BIT       PSW_F1
      00000080H   SFRSYM    DATA     BIT       P0_B0
      000000B8H   SFRSYM    DATA     BIT       IP_PX0
      00000090H   SFRSYM    DATA     BIT       P1_B0
      00000080H.1 SFRSYM    DATA     BIT       P0_B1
      000000B8H.2 SFRSYM    DATA     BIT       IP_PX1
      0000009EH   SFRSYM    DATA     BYTE      UART1LIN
      0000009BH   SFRSYM    DATA     BYTE      CMP0CN0
      00000088H.1 SFRSYM    DATA     BIT       TCON_IE0
      000000A0H   SFRSYM    DATA     BIT       P2_B0
      00000090H.1 SFRSYM    DATA     BIT       P1_B1
      00000080H.2 SFRSYM    DATA     BIT       P0_B2
      000000BFH   SFRSYM    DATA     BYTE      CMP1CN0
      00000099H   SFRSYM    DATA     BYTE      CMP0CN1
      00000088H.3 SFRSYM    DATA     BIT       TCON_IE1
      000000B0H   SFRSYM    DATA     BIT       P3_B0
      000000A0H.1 SFRSYM    DATA     BIT       P2_B1
      00000090H.2 SFRSYM    DATA     BIT       P1_B2
      00000080H.3 SFRSYM    DATA     BIT       P0_B3
      000000C0H   SFRSYM    DATA     BYTE      SMB0CN0
      000000ACH   SFRSYM    DATA     BYTE      CMP1CN1
      000000B0H.1 SFRSYM    DATA     BIT       P3_B1
      000000A0H.2 SFRSYM    DATA     BIT       P2_B2
      00000090H.3 SFRSYM    DATA     BIT       P1_B3
      00000080H.4 SFRSYM    DATA     BIT       P0_B4
      000000A0H.3 SFRSYM    DATA     BIT       P2_B3
      00000090H.4 SFRSYM    DATA     BIT       P1_B4
      00000080H.5 SFRSYM    DATA     BIT       P0_B5
      000000D8H.1 SFRSYM    DATA     BIT       UART1FCN1_RXTO0
      00000090H.5 SFRSYM    DATA     BIT       P1_B5
      00000080H.6 SFRSYM    DATA     BIT       P0_B6
      000000F5H   SFRSYM    DATA     BYTE      EIP1H
      000000D8H.2 SFRSYM    DATA     BIT       UART1FCN1_RXTO1
      00000090H.6 SFRSYM    DATA     BIT       P1_B6
      00000080H.7 SFRSYM    DATA     BIT       P0_B7
      000000C5H   SFRSYM    DATA     BYTE      SMB0RXLN
      000000F6H   SFRSYM    DATA     BYTE      EIP2H
      00000090H.7 SFRSYM    DATA     BIT       P1_B7
      00000083H   SFRSYM    DATA     BYTE      DPH
      000000C4H   SFRSYM    DATA     BYTE      ADC0GTH
      000000C8H.7 SFRSYM    DATA     BIT       TMR2CN0_TF2H
      000000C8H.3 SFRSYM    DATA     BIT       TMR2CN0_T2SPLIT
      000000D0H.6 SFRSYM    DATA     BIT       PSW_AC
      000000F8H   SFRSYM    DATA     BYTE      SPI0CN0
      000000C7H   SFRSYM    DATA     BYTE      HFO0CAL
      00000088H.5 SFRSYM    DATA     BIT       TCON_TF0
      00000098H   SFRSYM    DATA     BIT       SCON0_RI
      000000D6H   SFRSYM    DATA     BYTE      HFO1CAL
      00000082H   SFRSYM    DATA     BYTE      DPL
      00000088H.7 SFRSYM    DATA     BIT       TCON_TF1
      000000C8H   SFRSYM    DATA     BIT       SCON1_RI
      00000099H   SFRSYM    DATA     BYTE      SBUF0
      00000087H   SFRSYM    DATA     BYTE      PCON0
      000000F2H   SFRSYM    DATA     BYTE      IPH
      000000C3H   SFRSYM    DATA     BYTE      ADC0GTL
LX51 LINKER/LOCATER V4.66.30.0                                                        03/28/2016  20:19:13  PAGE 151


      00000098H.7 SFRSYM    DATA     BIT       TMR4CN0_TF4H
      00000098H.3 SFRSYM    DATA     BIT       TMR4CN0_T4SPLIT
      000000C8H.6 SFRSYM    DATA     BIT       TMR2CN0_TF2L
      00000098H.1 SFRSYM    DATA     BIT       SCON0_TI
      000000E8H   SFRSYM    DATA     BIT       ADC0CN0_ADCM0
      00000092H   SFRSYM    DATA     BYTE      SBUF1
      0000009AH   SFRSYM    DATA     BYTE      PCON1
      000000C6H   SFRSYM    DATA     BYTE      ADC0LTH
      00000088H   SFRSYM    DATA     BIT       TCON_IT0
      000000C8H.1 SFRSYM    DATA     BIT       SCON1_TI
      000000E8H.1 SFRSYM    DATA     BIT       ADC0CN0_ADCM1
      000000EFH   SFRSYM    DATA     BYTE      RSTSRC
      000000FDH   SFRSYM    DATA     BYTE      P0MAT
      000000DEH   SFRSYM    DATA     BYTE      CRC0DAT
      00000088H.2 SFRSYM    DATA     BIT       TCON_IT1
      000000E8H.2 SFRSYM    DATA     BIT       ADC0CN0_ADCM2
      000000D7H   SFRSYM    DATA     BYTE      SFRSTACK
      00000098H   SFRSYM    DATA     BYTE      SCON0
      000000F6H   SFRSYM    DATA     BYTE      PRTDRV
      000000EDH   SFRSYM    DATA     BYTE      P1MAT
      000000E8H.3 SFRSYM    DATA     BIT       ADC0CN0_ADWINT
      00000095H   SFRSYM    DATA     WORD      SBRL1
      000000B2H   SFRSYM    DATA     BYTE      USB0AEC
      00000093H   SFRSYM    DATA     BYTE      SMOD1
      000000C8H   SFRSYM    DATA     BYTE      SCON1
      000000FBH   SFRSYM    DATA     BYTE      P2MAT
      00000098H.6 SFRSYM    DATA     BIT       TMR4CN0_TF4L
      000000E8H.4 SFRSYM    DATA     BIT       ADC0CN0_ADBUSY
      000000D6H   SFRSYM    DATA     BYTE      SMB0ADM
      000000C5H   SFRSYM    DATA     BYTE      ADC0LTL
      000000F8H.5 SFRSYM    DATA     BIT       SPI0CN0_MODF
      000000B8H.6 SFRSYM    DATA     BIT       IP_PSPI0
      0000009CH   SFRSYM    DATA     BYTE      PCA0CLR
      000000C8H   SFRSYM    DATA     BYTE      TMR2CN0
      00000091H   SFRSYM    DATA     BYTE      TMR3CN0
      000000FDH   SFRSYM    DATA     BYTE      TMR2CN1
      00000098H   SFRSYM    DATA     BYTE      TMR4CN0
      000000FEH   SFRSYM    DATA     BYTE      TMR3CN1
      000000FFH   SFRSYM    DATA     BYTE      TMR4CN1
      000000D7H   SFRSYM    DATA     BYTE      SMB0ADR
      00000088H.4 SFRSYM    DATA     BIT       TCON_TR0
      000000C8H.4 SFRSYM    DATA     BIT       TMR2CN0_TF2CEN
      00000088H.6 SFRSYM    DATA     BIT       TCON_TR1
      000000C2H   SFRSYM    DATA     BYTE      SMB0DAT
      000000CDH   SFRSYM    DATA     BYTE      TMR2H
      000000A1H   SFRSYM    DATA     BYTE      SPI0CFG
      00000095H   SFRSYM    DATA     BYTE      TMR3H
      000000EFH   SFRSYM    DATA     BYTE      HFOCN
      000000D3H   SFRSYM    DATA     BYTE      CRC0CNT
      000000A5H   SFRSYM    DATA     BYTE      TMR4H
      00000098H.4 SFRSYM    DATA     BIT       TMR4CN0_TF4CEN
      000000EFH   SFRSYM    DATA     BYTE      SMB0FCT
      00000096H   SFRSYM    DATA     BYTE      PCA0POL
      000000CCH   SFRSYM    DATA     BYTE      TMR2L
      000000F8H.7 SFRSYM    DATA     BIT       SPI0CN0_SPIF
      000000AEH   SFRSYM    DATA     BYTE      USB0ADR
      00000094H   SFRSYM    DATA     BYTE      TMR3L
      000000DFH   SFRSYM    DATA     BYTE      ADC0PWR
      000000A8H.7 SFRSYM    DATA     BIT       IE_EA
      000000A4H   SFRSYM    DATA     BYTE      TMR4L
      000000AFH   SFRSYM    DATA     BYTE      USB0DAT
      000000C8H.5 SFRSYM    DATA     BIT       TMR2CN0_TF2LEN
LX51 LINKER/LOCATER V4.66.30.0                                                        03/28/2016  20:19:13  PAGE 152


      000000F8H.6 SFRSYM    DATA     BIT       SPI0CN0_WCOL
      00000090H   SFRSYM    DATA     BIT       LED_B
      000000F8H.2 SFRSYM    DATA     BIT       SPI0CN0_NSSMD0
      000000D0H.7 SFRSYM    DATA     BIT       PSW_CY
      0000009DH   SFRSYM    DATA     BYTE      UART1FCN0
      000000A3H   SFRSYM    DATA     BYTE      SPI0DAT
      000000ADH   SFRSYM    DATA     BYTE      I2C0FCN0
      000000F8H.3 SFRSYM    DATA     BIT       SPI0CN0_NSSMD1
      000000BDH   SFRSYM    DATA     WORD      ADC0
      000000D8H   SFRSYM    DATA     BYTE      UART1FCN1
      000000ABH   SFRSYM    DATA     BYTE      I2C0FCN1
      00000098H.5 SFRSYM    DATA     BIT       TMR4CN0_TF4LEN
      000000D0H   SFRSYM    DATA     BYTE      PSW
      000000F7H   SFRSYM    DATA     BYTE      PCA0PWM
      000000F7H   SFRSYM    DATA     BYTE      SPI0FCT
      000000B6H   SFRSYM    DATA     BYTE      REVID
      00000080H.6 SFRSYM    DATA     BIT       LED_G
      000000B7H   SFRSYM    DATA     BYTE      FLKEY
      000000B3H   SFRSYM    DATA     BYTE      ADC0AC
      010038CEH   SYMBOL    CODE     ---       _delay_cmd

      010034F5H   BLOCK     CODE     ---       LVL=0
      ---         BLOCKEND  ---      ---       LVL=0

      01002F64H   BLOCK     CODE     ---       LVL=0
      00000007H   SYMBOL    DATA     BYTE      cmd
      00000005H   SYMBOL    DATA     BYTE      p1
      020000C5H   SYMBOL    XDATA    WORD      p2
      020000C7H   SYMBOL    XDATA    ---       buf
      020000CAH   SYMBOL    XDATA    BYTE      len
      01002F6CH   BLOCK     CODE     NEAR LAB  LVL=1
      00000012H   SYMBOL    DATA     ---       params
      ---         BLOCKEND  ---      ---       LVL=1
      01002F64H   LINE      CODE     ---       #18
      01002F6CH   LINE      CODE     ---       #20
      01002F6CH   LINE      CODE     ---       #22
      01002F6FH   LINE      CODE     ---       #23
      01002F77H   LINE      CODE     ---       #24
      01002F79H   LINE      CODE     ---       #25
      01002F7DH   LINE      CODE     ---       #26
      01002F83H   LINE      CODE     ---       #27
      01002F89H   LINE      CODE     ---       #29
      01002F8CH   LINE      CODE     ---       #30
      01002F9AH   LINE      CODE     ---       #31
      01002FA8H   LINE      CODE     ---       #32
      01002FB1H   LINE      CODE     ---       #33
      01002FB1H   LINE      CODE     ---       #34
      01002FB3H   LINE      CODE     ---       #35
      01002FB3H   LINE      CODE     ---       #36
      01002FB3H   LINE      CODE     ---       #37
      ---         BLOCKEND  ---      ---       LVL=0

      01003D30H   BLOCK     CODE     ---       LVL=0
      01003D30H   BLOCK     CODE     NEAR LAB  LVL=1
      00000018H   SYMBOL    DATA     BYTE      params
      ---         BLOCKEND  ---      ---       LVL=1
      01003D30H   LINE      CODE     ---       #39
      01003D30H   LINE      CODE     ---       #40
      01003D30H   LINE      CODE     ---       #42
      ---         BLOCKEND  ---      ---       LVL=0
      00000019H   SYMBOL    DATA     BYTE      params

LX51 LINKER/LOCATER V4.66.30.0                                                        03/28/2016  20:19:13  PAGE 153


      01003C16H   BLOCK     CODE     ---       LVL=0
      01003C16H   BLOCK     CODE     NEAR LAB  LVL=1
      0200035DH   SYMBOL    XDATA    ---       params
      ---         BLOCKEND  ---      ---       LVL=1
      01003C16H   LINE      CODE     ---       #51
      01003C16H   LINE      CODE     ---       #52
      01003C16H   LINE      CODE     ---       #54
      ---         BLOCKEND  ---      ---       LVL=0

      01001BCEH   BLOCK     CODE     ---       LVL=0
      020000C3H   SYMBOL    XDATA    ---       buf
      020000C6H   SYMBOL    XDATA    BYTE      buflen
      020000C7H   SYMBOL    XDATA    ---       res
      01001BD9H   BLOCK     CODE     NEAR LAB  LVL=1
      020000CAH   SYMBOL    XDATA    BYTE      pkt_len
      01001C8CH   SYMBOL    CODE     VOID      fail
      ---         BLOCKEND  ---      ---       LVL=1
      01001BCEH   LINE      CODE     ---       #59
      01001BD9H   LINE      CODE     ---       #60
      01001BD9H   LINE      CODE     ---       #62
      01001BDCH   LINE      CODE     ---       #63
      01001BF1H   LINE      CODE     ---       #64
      01001BF8H   LINE      CODE     ---       #65
      01001BF8H   LINE      CODE     ---       #66
      01001BFBH   LINE      CODE     ---       #67
      01001BFBH   LINE      CODE     ---       #69
      01001C02H   LINE      CODE     ---       #70
      01001C02H   LINE      CODE     ---       #71
      01001C07H   LINE      CODE     ---       #72
      01001C07H   LINE      CODE     ---       #74
      01001C1BH   LINE      CODE     ---       #75
      01001C1BH   LINE      CODE     ---       #76
      01001C3EH   LINE      CODE     ---       #77
      01001C3EH   LINE      CODE     ---       #78
      01001C3EH   LINE      CODE     ---       #79
      01001C3EH   LINE      CODE     ---       #80
      01001C3EH   LINE      CODE     ---       #82
      01001C3EH   LINE      CODE     ---       #83
      01001C3EH   LINE      CODE     ---       #84
      01001C3EH   LINE      CODE     ---       #86
      01001C51H   LINE      CODE     ---       #87
      01001C51H   LINE      CODE     ---       #88
      01001C54H   LINE      CODE     ---       #89
      01001C57H   LINE      CODE     ---       #90
      01001C57H   LINE      CODE     ---       #92
      01001C5FH   LINE      CODE     ---       #93
      01001C5FH   LINE      CODE     ---       #94
      01001C6DH   LINE      CODE     ---       #95
      01001C86H   LINE      CODE     ---       #96
      01001C86H   LINE      CODE     ---       #97
      01001C8CH   LINE      CODE     ---       #99
      01001C8CH   LINE      CODE     ---       #100
      01001C8EH   LINE      CODE     ---       #101
      ---         BLOCKEND  ---      ---       LVL=0

      010038CEH   BLOCK     CODE     ---       LVL=0
      00000007H   SYMBOL    DATA     BYTE      cmd
      010038CEH   BLOCK     CODE     NEAR LAB  LVL=1
      00000006H   SYMBOL    DATA     BYTE      d
      ---         BLOCKEND  ---      ---       LVL=1
      010038CEH   LINE      CODE     ---       #103
      010038CEH   LINE      CODE     ---       #104
LX51 LINKER/LOCATER V4.66.30.0                                                        03/28/2016  20:19:13  PAGE 154


      010038CEH   LINE      CODE     ---       #105
      010038CEH   LINE      CODE     ---       #106
      010038DAH   LINE      CODE     ---       #107
      010038DAH   LINE      CODE     ---       #108
      010038DAH   LINE      CODE     ---       #109
      010038DCH   LINE      CODE     ---       #110
      010038DEH   LINE      CODE     ---       #111
      010038DEH   LINE      CODE     ---       #112
      010038E0H   LINE      CODE     ---       #113
      010038E2H   LINE      CODE     ---       #114
      010038E2H   LINE      CODE     ---       #115
      010038E4H   LINE      CODE     ---       #116
      010038E6H   LINE      CODE     ---       #117
      010038E6H   LINE      CODE     ---       #118
      010038E8H   LINE      CODE     ---       #119
      010038E8H   LINE      CODE     ---       #120
      010038E8H   LINE      CODE     ---       #121
      ---         BLOCKEND  ---      ---       LVL=0

      01001550H   BLOCK     CODE     ---       LVL=0
      020000B3H   SYMBOL    XDATA    BYTE      cmd
      020000B4H   SYMBOL    XDATA    BYTE      p1
      020000B5H   SYMBOL    XDATA    WORD      p2
      020000B7H   SYMBOL    XDATA    ---       tx
      020000BAH   SYMBOL    XDATA    BYTE      txlen
      020000BBH   SYMBOL    XDATA    ---       rx
      020000BEH   SYMBOL    XDATA    BYTE      rxlen
      020000BFH   SYMBOL    XDATA    ---       res
      0100155EH   BLOCK     CODE     NEAR LAB  LVL=1
      020000C2H   SYMBOL    XDATA    BYTE      errors
      01001566H   SYMBOL    CODE     VOID      resend
      ---         BLOCKEND  ---      ---       LVL=1
      01001550H   LINE      CODE     ---       #124
      0100155EH   LINE      CODE     ---       #127
      0100155EH   LINE      CODE     ---       #128
      01001563H   LINE      CODE     ---       #129
      01001566H   LINE      CODE     ---       #130
      01001566H   LINE      CODE     ---       #131
      01001590H   LINE      CODE     ---       #132
      01001590H   LINE      CODE     ---       #133
      01001597H   LINE      CODE     ---       #134
      0100159DH   LINE      CODE     ---       #135
      010015A3H   LINE      CODE     ---       #136
      010015A3H   LINE      CODE     ---       #137
      010015A6H   LINE      CODE     ---       #138
      010015A6H   LINE      CODE     ---       #139
      010015A6H   LINE      CODE     ---       #140
      010015C2H   LINE      CODE     ---       #141
      010015C2H   LINE      CODE     ---       #142
      010015C8H   LINE      CODE     ---       #143
      010015CEH   LINE      CODE     ---       #144
      010015CEH   LINE      CODE     ---       #145
      010015DFH   LINE      CODE     ---       #146
      010015E2H   LINE      CODE     ---       #147
      010015E2H   LINE      CODE     ---       #148
      01001608H   LINE      CODE     ---       #149
      01001608H   LINE      CODE     ---       #150
      01001608H   LINE      CODE     ---       #151
      01001610H   LINE      CODE     ---       #152
      01001612H   LINE      CODE     ---       #153
      01001612H   LINE      CODE     ---       #154
      0100161AH   LINE      CODE     ---       #155
LX51 LINKER/LOCATER V4.66.30.0                                                        03/28/2016  20:19:13  PAGE 155


      0100161AH   LINE      CODE     ---       #156
      0100161AH   LINE      CODE     ---       #157
      0100161AH   LINE      CODE     ---       #158
      0100161AH   LINE      CODE     ---       #159
      0100161DH   LINE      CODE     ---       #160
      0100161DH   LINE      CODE     ---       #161
      0100161DH   LINE      CODE     ---       #162
      01001624H   LINE      CODE     ---       #163
      01001626H   LINE      CODE     ---       #164
      01001626H   LINE      CODE     ---       #166
      01001626H   LINE      CODE     ---       #167
      01001629H   LINE      CODE     ---       #168
      0100162BH   LINE      CODE     ---       #169
      ---         BLOCKEND  ---      ---       LVL=0

      ---         MODULE    ---      ---       EEPROM
      020000B2H   PUBLIC    XDATA    BYTE      ?__eeprom_write?BYTE
      0100304DH   PUBLIC    CODE     ---       __eeprom_write
      020000B3H   PUBLIC    XDATA    BYTE      ?_eeprom_read?BYTE
      01003482H   PUBLIC    CODE     ---       _eeprom_read
      010031E6H   PUBLIC    CODE     ---       eeprom_init
      000000A2H   SFRSYM    DATA     BYTE      SPI0CKR
      00000080H   SFRSYM    DATA     BYTE      P0
      000000C8H.6 SFRSYM    DATA     BIT       SCON1_PERR
      000000D0H.2 SFRSYM    DATA     BIT       PSW_OV
      00000090H   SFRSYM    DATA     BYTE      P1
      000000F8H.1 SFRSYM    DATA     BIT       SPI0CN0_TXNF
      00000097H   SFRSYM    DATA     BYTE      WDTCN
      000000A0H   SFRSYM    DATA     BYTE      P2
      000000B0H   SFRSYM    DATA     BYTE      P3
      000000BCH   SFRSYM    DATA     BYTE      ADC0CF
      000000C0H.7 SFRSYM    DATA     BIT       SMB0CN0_MASTER
      000000F9H   SFRSYM    DATA     WORD      PCA0
      000000E6H   SFRSYM    DATA     BYTE      EIE1
      000000C0H.1 SFRSYM    DATA     BIT       SMB0CN0_ACK
      000000B3H   SFRSYM    DATA     BYTE      USB0XCN
      000000CEH   SFRSYM    DATA     BYTE      EIE2
      0000008FH   SFRSYM    DATA     BYTE      PSCTL
      000000E4H   SFRSYM    DATA     BYTE      IT01CF
      000000C0H.6 SFRSYM    DATA     BIT       SMB0CN0_TXMODE
      000000ADH   SFRSYM    DATA     BYTE      DERIVID
      000000A7H   SFRSYM    DATA     BYTE      SFRPAGE
      000000A4H   SFRSYM    DATA     BYTE      P0MDOUT
      000000BFH   SFRSYM    DATA     BYTE      USB0CDSTA
      000000A5H   SFRSYM    DATA     BYTE      P1MDOUT
      000000E8H.5 SFRSYM    DATA     BIT       ADC0CN0_ADINT
      000000CBH   SFRSYM    DATA     BYTE      TMR2RLH
      000000A6H   SFRSYM    DATA     BYTE      P2MDOUT
      000000A8H   SFRSYM    DATA     BYTE      IE
      00000093H   SFRSYM    DATA     BYTE      TMR3RLH
      0000009CH   SFRSYM    DATA     BYTE      P3MDOUT
      000000A3H   SFRSYM    DATA     BYTE      TMR4RLH
      000000F3H   SFRSYM    DATA     BYTE      EIP1
      000000F4H   SFRSYM    DATA     BYTE      EIP2
      00000098H.2 SFRSYM    DATA     BIT       SCON0_RB8
      000000CAH   SFRSYM    DATA     BYTE      TMR2RLL
      000000FCH   SFRSYM    DATA     BYTE      PCA0CPH0
      00000092H   SFRSYM    DATA     BYTE      TMR3RLL
      000000EAH   SFRSYM    DATA     BYTE      PCA0CPH1
      00000098H.3 SFRSYM    DATA     BIT       SCON0_TB8
      000000F0H   SFRSYM    DATA     BIT       B_B0
      00000082H   SFRSYM    DATA     WORD      DP
LX51 LINKER/LOCATER V4.66.30.0                                                        03/28/2016  20:19:13  PAGE 156


      000000A2H   SFRSYM    DATA     BYTE      TMR4RLL
      000000ECH   SFRSYM    DATA     BYTE      PCA0CPH2
      000000F0H.1 SFRSYM    DATA     BIT       B_B1
      000000C3H   SFRSYM    DATA     WORD      ADC0GT
      000000BDH   SFRSYM    DATA     BYTE      I2C0SLAD
      000000D8H.3 SFRSYM    DATA     BIT       UART1FCN1_RFRQ
      000000F0H.2 SFRSYM    DATA     BIT       B_B2
      000000CFH   SFRSYM    DATA     BYTE      SFRPGCN
      000000FBH   SFRSYM    DATA     BYTE      PCA0CPL0
      000000F0H.3 SFRSYM    DATA     BIT       B_B3
      000000D9H   SFRSYM    DATA     BYTE      PCA0MD
      000000DAH   SFRSYM    DATA     BYTE      PCA0CPM0
      000000E9H   SFRSYM    DATA     BYTE      PCA0CPL1
      000000D8H.7 SFRSYM    DATA     BIT       UART1FCN1_TFRQ
      000000F0H.4 SFRSYM    DATA     BIT       B_B4
      000000DBH   SFRSYM    DATA     BYTE      PCA0CPM1
      000000EBH   SFRSYM    DATA     BYTE      PCA0CPL2
      000000F0H.5 SFRSYM    DATA     BIT       B_B5
      000000DCH   SFRSYM    DATA     BYTE      PCA0CPM2
      000000B8H   SFRSYM    DATA     BYTE      IP
      000000B9H   SFRSYM    DATA     BYTE      ADC0TK
      000000F0H.6 SFRSYM    DATA     BIT       B_B6
      000000C5H   SFRSYM    DATA     WORD      ADC0LT
      000000D8H.6 SFRSYM    DATA     BIT       UART1FCN1_TXNF
      00000098H.5 SFRSYM    DATA     BIT       SCON0_MCE
      000000F0H.7 SFRSYM    DATA     BIT       B_B7
      000000C3H   SFRSYM    DATA     BYTE      SMB0FCN0
      000000E1H   SFRSYM    DATA     BYTE      XBR0
      000000C4H   SFRSYM    DATA     BYTE      SMB0FCN1
      000000C1H   SFRSYM    DATA     BYTE      SMB0CF
      000000E2H   SFRSYM    DATA     BYTE      XBR1
      000000C1H   SFRSYM    DATA     BYTE      PFE0CN
      000000E7H   SFRSYM    DATA     BYTE      EMI0CN
      000000C0H.5 SFRSYM    DATA     BIT       SMB0CN0_STA
      000000E3H   SFRSYM    DATA     BYTE      XBR2
      000000BBH   SFRSYM    DATA     BYTE      ADC0MX
      000000E0H   SFRSYM    DATA     BIT       ACC_ACC0
      000000D1H   SFRSYM    DATA     BYTE      REF0CN
      0000008EH   SFRSYM    DATA     BYTE      CKCON0
      000000E0H.1 SFRSYM    DATA     BIT       ACC_ACC1
      000000C9H   SFRSYM    DATA     BYTE      REG0CN
      000000DDH   SFRSYM    DATA     BYTE      CRC0IN
      000000A6H   SFRSYM    DATA     BYTE      CKCON1
      000000C8H.2 SFRSYM    DATA     BIT       TMR2CN0_TR2
      000000E0H.2 SFRSYM    DATA     BIT       ACC_ACC2
      000000C6H   SFRSYM    DATA     BYTE      REG1CN
      000000E0H.3 SFRSYM    DATA     BIT       ACC_ACC3
      00000081H   SFRSYM    DATA     BYTE      SP
      0000009DH   SFRSYM    DATA     BYTE      CMP0MD
      000000E0H.4 SFRSYM    DATA     BIT       ACC_ACC4
      000000B1H   SFRSYM    DATA     BYTE      LFO0CN
      000000ABH   SFRSYM    DATA     BYTE      CMP1MD
      000000D8H   SFRSYM    DATA     BIT       PCA0CN0_CCF0
      000000E0H.5 SFRSYM    DATA     BIT       ACC_ACC5
      000000B5H   SFRSYM    DATA     BYTE      USB0CF
      00000098H.2 SFRSYM    DATA     BIT       TMR4CN0_TR4
      000000D8H.1 SFRSYM    DATA     BIT       PCA0CN0_CCF1
      000000E0H.6 SFRSYM    DATA     BIT       ACC_ACC6
      000000CCH   SFRSYM    DATA     WORD      TMR2
      0000009AH   SFRSYM    DATA     BYTE      SPI0FCN0
      000000D8H.2 SFRSYM    DATA     BIT       PCA0CN0_CCF2
      000000E0H.7 SFRSYM    DATA     BIT       ACC_ACC7
LX51 LINKER/LOCATER V4.66.30.0                                                        03/28/2016  20:19:13  PAGE 157


      00000094H   SFRSYM    DATA     WORD      TMR3
      0000009BH   SFRSYM    DATA     BYTE      SPI0FCN1
      000000A4H   SFRSYM    DATA     WORD      TMR4
      00000094H   SFRSYM    DATA     BYTE      SBCON1
      000000C0H.3 SFRSYM    DATA     BIT       SMB0CN0_ACKRQ
      000000FFH   SFRSYM    DATA     BYTE      VDM0CN
      000000F1H   SFRSYM    DATA     BYTE      P0MDIN
      00000098H.4 SFRSYM    DATA     BIT       SCON0_REN
      000000ACH   SFRSYM    DATA     BYTE      SMB0TC
      000000F2H   SFRSYM    DATA     BYTE      P1MDIN
      000000C8H.4 SFRSYM    DATA     BIT       SCON1_REN
      000000F3H   SFRSYM    DATA     BYTE      P2MDIN
      000000C0H.4 SFRSYM    DATA     BIT       SMB0CN0_STO
      000000B6H   SFRSYM    DATA     BYTE      USB0CDCF
      000000F4H   SFRSYM    DATA     BYTE      P3MDIN
      000000B9H   SFRSYM    DATA     BYTE      I2C0STAT
      000000BBH   SFRSYM    DATA     BYTE      I2C0DOUT
      00000096H   SFRSYM    DATA     BYTE      SBRLH1
      000000FEH   SFRSYM    DATA     BYTE      P0MASK
      000000D8H.5 SFRSYM    DATA     BIT       UART1FCN1_TXHOLD
      000000EEH   SFRSYM    DATA     BYTE      P1MASK
      000000FCH   SFRSYM    DATA     BYTE      P2MASK
      000000D0H.3 SFRSYM    DATA     BIT       PSW_RS0
      000000D8H.7 SFRSYM    DATA     BIT       PCA0CN0_CF
      0000009EH   SFRSYM    DATA     BYTE      PCA0CENT
      000000BAH   SFRSYM    DATA     BYTE      I2C0CN0
      000000D2H   SFRSYM    DATA     BYTE      CRC0ST
      000000F8H.4 SFRSYM    DATA     BIT       SPI0CN0_RXOVRN
      000000D0H.4 SFRSYM    DATA     BIT       PSW_RS1
      00000095H   SFRSYM    DATA     BYTE      SBRLL1
      000000C8H.2 SFRSYM    DATA     BIT       SCON1_RBX
      000000C8H   SFRSYM    DATA     BIT       TMR2CN0_T2XCLK0
      000000C8H.1 SFRSYM    DATA     BIT       TMR2CN0_T2XCLK1
      000000C8H.3 SFRSYM    DATA     BIT       SCON1_TBX
      000000E8H.7 SFRSYM    DATA     BIT       ADC0CN0_ADEN
      000000BEH   SFRSYM    DATA     BYTE      USB0CDCN
      00000089H   SFRSYM    DATA     BYTE      TMOD
      00000088H   SFRSYM    DATA     BYTE      TCON
      000000CFH   SFRSYM    DATA     BYTE      CRC0FLIP
      000000D0H   SFRSYM    DATA     BIT       PSW_PARITY
      000000A8H.4 SFRSYM    DATA     BIT       IE_ES0
      0000009FH   SFRSYM    DATA     BYTE      CMP0MX
      00000098H   SFRSYM    DATA     BIT       TMR4CN0_T4XCLK0
      000000A8H.1 SFRSYM    DATA     BIT       IE_ET0
      000000AAH   SFRSYM    DATA     BYTE      CMP1MX
      00000098H.1 SFRSYM    DATA     BIT       TMR4CN0_T4XCLK1
      000000A8H.3 SFRSYM    DATA     BIT       IE_ET1
      000000D4H   SFRSYM    DATA     BYTE      P0SKIP
      000000D8H   SFRSYM    DATA     BIT       UART1FCN1_RIE
      000000A8H.5 SFRSYM    DATA     BIT       IE_ET2
      000000D5H   SFRSYM    DATA     BYTE      P1SKIP
      000000CCH   SFRSYM    DATA     BYTE      P2SKIP
      000000E8H   SFRSYM    DATA     BYTE      ADC0CN0
      000000D8H.4 SFRSYM    DATA     BIT       UART1FCN1_TIE
      000000A8H   SFRSYM    DATA     BIT       IE_EX0
      000000B2H   SFRSYM    DATA     BYTE      ADC0CN1
      000000D8H.6 SFRSYM    DATA     BIT       PCA0CN0_CR
      000000A8H.2 SFRSYM    DATA     BIT       IE_EX1
      000000C8H.7 SFRSYM    DATA     BIT       SCON1_OVR
      00000098H.7 SFRSYM    DATA     BIT       SCON0_SMODE
      000000B5H   SFRSYM    DATA     BYTE      DEVICEID
      000000A9H   SFRSYM    DATA     BYTE      CLKSEL
LX51 LINKER/LOCATER V4.66.30.0                                                        03/28/2016  20:19:13  PAGE 158


      000000F8H   SFRSYM    DATA     BIT       SPI0CN0_SPIEN
      000000F0H   SFRSYM    DATA     BYTE      B
      000000BEH   SFRSYM    DATA     BYTE      ADC0H
      000000E8H.6 SFRSYM    DATA     BIT       ADC0CN0_ADBMEN
      000000CAH   SFRSYM    DATA     WORD      TMR2RL
      000000BDH   SFRSYM    DATA     BYTE      ADC0L
      00000092H   SFRSYM    DATA     WORD      TMR3RL
      000000A2H   SFRSYM    DATA     WORD      TMR4RL
      000000D8H   SFRSYM    DATA     BYTE      PCA0CN0
      000000E0H   SFRSYM    DATA     BYTE      ACC
      000000FBH   SFRSYM    DATA     WORD      PCA0CP0
      000000E9H   SFRSYM    DATA     WORD      PCA0CP1
      000000EBH   SFRSYM    DATA     WORD      PCA0CP2
      000000BCH   SFRSYM    DATA     BYTE      I2C0DIN
      000000CEH   SFRSYM    DATA     BYTE      CRC0CN0
      0000008CH   SFRSYM    DATA     BYTE      TH0
      00000086H   SFRSYM    DATA     BYTE      CRC0CN1
      000000B8H.4 SFRSYM    DATA     BIT       IP_PS0
      000000FAH   SFRSYM    DATA     BYTE      UART1FCT
      0000008DH   SFRSYM    DATA     BYTE      TH1
      000000FAH   SFRSYM    DATA     BYTE      PCA0H
      000000F5H   SFRSYM    DATA     BYTE      I2C0FCT
      000000B8H.1 SFRSYM    DATA     BIT       IP_PT0
      000000B8H.3 SFRSYM    DATA     BIT       IP_PT1
      000000C0H.2 SFRSYM    DATA     BIT       SMB0CN0_ARBLOST
      000000B8H.5 SFRSYM    DATA     BIT       IP_PT2
      0000008AH   SFRSYM    DATA     BYTE      TL0
      000000D0H.5 SFRSYM    DATA     BIT       PSW_F0
      000000A8H.6 SFRSYM    DATA     BIT       IE_ESPI0
      0000008BH   SFRSYM    DATA     BYTE      TL1
      000000F9H   SFRSYM    DATA     BYTE      PCA0L
      000000C0H   SFRSYM    DATA     BIT       SMB0CN0_SI
      000000D0H.1 SFRSYM    DATA     BIT       PSW_F1
      00000080H   SFRSYM    DATA     BIT       P0_B0
      000000B8H   SFRSYM    DATA     BIT       IP_PX0
      00000090H   SFRSYM    DATA     BIT       P1_B0
      00000080H.1 SFRSYM    DATA     BIT       P0_B1
      000000B8H.2 SFRSYM    DATA     BIT       IP_PX1
      0000009EH   SFRSYM    DATA     BYTE      UART1LIN
      0000009BH   SFRSYM    DATA     BYTE      CMP0CN0
      00000088H.1 SFRSYM    DATA     BIT       TCON_IE0
      000000A0H   SFRSYM    DATA     BIT       P2_B0
      00000090H.1 SFRSYM    DATA     BIT       P1_B1
      00000080H.2 SFRSYM    DATA     BIT       P0_B2
      000000BFH   SFRSYM    DATA     BYTE      CMP1CN0
      00000099H   SFRSYM    DATA     BYTE      CMP0CN1
      00000088H.3 SFRSYM    DATA     BIT       TCON_IE1
      000000B0H   SFRSYM    DATA     BIT       P3_B0
      000000A0H.1 SFRSYM    DATA     BIT       P2_B1
      00000090H.2 SFRSYM    DATA     BIT       P1_B2
      00000080H.3 SFRSYM    DATA     BIT       P0_B3
      000000C0H   SFRSYM    DATA     BYTE      SMB0CN0
      000000ACH   SFRSYM    DATA     BYTE      CMP1CN1
      000000B0H.1 SFRSYM    DATA     BIT       P3_B1
      000000A0H.2 SFRSYM    DATA     BIT       P2_B2
      00000090H.3 SFRSYM    DATA     BIT       P1_B3
      00000080H.4 SFRSYM    DATA     BIT       P0_B4
      000000A0H.3 SFRSYM    DATA     BIT       P2_B3
      00000090H.4 SFRSYM    DATA     BIT       P1_B4
      00000080H.5 SFRSYM    DATA     BIT       P0_B5
      000000D8H.1 SFRSYM    DATA     BIT       UART1FCN1_RXTO0
      00000090H.5 SFRSYM    DATA     BIT       P1_B5
LX51 LINKER/LOCATER V4.66.30.0                                                        03/28/2016  20:19:13  PAGE 159


      00000080H.6 SFRSYM    DATA     BIT       P0_B6
      000000F5H   SFRSYM    DATA     BYTE      EIP1H
      000000D8H.2 SFRSYM    DATA     BIT       UART1FCN1_RXTO1
      00000090H.6 SFRSYM    DATA     BIT       P1_B6
      00000080H.7 SFRSYM    DATA     BIT       P0_B7
      000000C5H   SFRSYM    DATA     BYTE      SMB0RXLN
      000000F6H   SFRSYM    DATA     BYTE      EIP2H
      00000090H.7 SFRSYM    DATA     BIT       P1_B7
      00000083H   SFRSYM    DATA     BYTE      DPH
      000000C4H   SFRSYM    DATA     BYTE      ADC0GTH
      000000C8H.7 SFRSYM    DATA     BIT       TMR2CN0_TF2H
      000000C8H.3 SFRSYM    DATA     BIT       TMR2CN0_T2SPLIT
      000000D0H.6 SFRSYM    DATA     BIT       PSW_AC
      000000F8H   SFRSYM    DATA     BYTE      SPI0CN0
      000000C7H   SFRSYM    DATA     BYTE      HFO0CAL
      00000088H.5 SFRSYM    DATA     BIT       TCON_TF0
      00000098H   SFRSYM    DATA     BIT       SCON0_RI
      000000D6H   SFRSYM    DATA     BYTE      HFO1CAL
      00000082H   SFRSYM    DATA     BYTE      DPL
      00000088H.7 SFRSYM    DATA     BIT       TCON_TF1
      000000C8H   SFRSYM    DATA     BIT       SCON1_RI
      00000099H   SFRSYM    DATA     BYTE      SBUF0
      00000087H   SFRSYM    DATA     BYTE      PCON0
      000000F2H   SFRSYM    DATA     BYTE      IPH
      000000C3H   SFRSYM    DATA     BYTE      ADC0GTL
      00000098H.7 SFRSYM    DATA     BIT       TMR4CN0_TF4H
      00000098H.3 SFRSYM    DATA     BIT       TMR4CN0_T4SPLIT
      000000C8H.6 SFRSYM    DATA     BIT       TMR2CN0_TF2L
      00000098H.1 SFRSYM    DATA     BIT       SCON0_TI
      000000E8H   SFRSYM    DATA     BIT       ADC0CN0_ADCM0
      00000092H   SFRSYM    DATA     BYTE      SBUF1
      0000009AH   SFRSYM    DATA     BYTE      PCON1
      000000C6H   SFRSYM    DATA     BYTE      ADC0LTH
      00000088H   SFRSYM    DATA     BIT       TCON_IT0
      000000C8H.1 SFRSYM    DATA     BIT       SCON1_TI
      000000E8H.1 SFRSYM    DATA     BIT       ADC0CN0_ADCM1
      000000EFH   SFRSYM    DATA     BYTE      RSTSRC
      000000FDH   SFRSYM    DATA     BYTE      P0MAT
      000000DEH   SFRSYM    DATA     BYTE      CRC0DAT
      00000088H.2 SFRSYM    DATA     BIT       TCON_IT1
      000000E8H.2 SFRSYM    DATA     BIT       ADC0CN0_ADCM2
      000000D7H   SFRSYM    DATA     BYTE      SFRSTACK
      00000098H   SFRSYM    DATA     BYTE      SCON0
      000000F6H   SFRSYM    DATA     BYTE      PRTDRV
      000000EDH   SFRSYM    DATA     BYTE      P1MAT
      000000E8H.3 SFRSYM    DATA     BIT       ADC0CN0_ADWINT
      00000095H   SFRSYM    DATA     WORD      SBRL1
      000000B2H   SFRSYM    DATA     BYTE      USB0AEC
      00000093H   SFRSYM    DATA     BYTE      SMOD1
      000000C8H   SFRSYM    DATA     BYTE      SCON1
      000000FBH   SFRSYM    DATA     BYTE      P2MAT
      00000098H.6 SFRSYM    DATA     BIT       TMR4CN0_TF4L
      000000E8H.4 SFRSYM    DATA     BIT       ADC0CN0_ADBUSY
      000000D6H   SFRSYM    DATA     BYTE      SMB0ADM
      000000C5H   SFRSYM    DATA     BYTE      ADC0LTL
      000000F8H.5 SFRSYM    DATA     BIT       SPI0CN0_MODF
      000000B8H.6 SFRSYM    DATA     BIT       IP_PSPI0
      0000009CH   SFRSYM    DATA     BYTE      PCA0CLR
      000000C8H   SFRSYM    DATA     BYTE      TMR2CN0
      00000091H   SFRSYM    DATA     BYTE      TMR3CN0
      000000FDH   SFRSYM    DATA     BYTE      TMR2CN1
      00000098H   SFRSYM    DATA     BYTE      TMR4CN0
LX51 LINKER/LOCATER V4.66.30.0                                                        03/28/2016  20:19:13  PAGE 160


      000000FEH   SFRSYM    DATA     BYTE      TMR3CN1
      000000FFH   SFRSYM    DATA     BYTE      TMR4CN1
      000000D7H   SFRSYM    DATA     BYTE      SMB0ADR
      00000088H.4 SFRSYM    DATA     BIT       TCON_TR0
      000000C8H.4 SFRSYM    DATA     BIT       TMR2CN0_TF2CEN
      00000088H.6 SFRSYM    DATA     BIT       TCON_TR1
      000000C2H   SFRSYM    DATA     BYTE      SMB0DAT
      000000CDH   SFRSYM    DATA     BYTE      TMR2H
      000000A1H   SFRSYM    DATA     BYTE      SPI0CFG
      00000095H   SFRSYM    DATA     BYTE      TMR3H
      000000EFH   SFRSYM    DATA     BYTE      HFOCN
      000000D3H   SFRSYM    DATA     BYTE      CRC0CNT
      000000A5H   SFRSYM    DATA     BYTE      TMR4H
      00000098H.4 SFRSYM    DATA     BIT       TMR4CN0_TF4CEN
      000000EFH   SFRSYM    DATA     BYTE      SMB0FCT
      00000096H   SFRSYM    DATA     BYTE      PCA0POL
      000000CCH   SFRSYM    DATA     BYTE      TMR2L
      000000F8H.7 SFRSYM    DATA     BIT       SPI0CN0_SPIF
      000000AEH   SFRSYM    DATA     BYTE      USB0ADR
      00000094H   SFRSYM    DATA     BYTE      TMR3L
      000000DFH   SFRSYM    DATA     BYTE      ADC0PWR
      000000A8H.7 SFRSYM    DATA     BIT       IE_EA
      000000A4H   SFRSYM    DATA     BYTE      TMR4L
      000000AFH   SFRSYM    DATA     BYTE      USB0DAT
      000000C8H.5 SFRSYM    DATA     BIT       TMR2CN0_TF2LEN
      000000F8H.6 SFRSYM    DATA     BIT       SPI0CN0_WCOL
      000000F8H.2 SFRSYM    DATA     BIT       SPI0CN0_NSSMD0
      000000D0H.7 SFRSYM    DATA     BIT       PSW_CY
      0000009DH   SFRSYM    DATA     BYTE      UART1FCN0
      000000A3H   SFRSYM    DATA     BYTE      SPI0DAT
      000000ADH   SFRSYM    DATA     BYTE      I2C0FCN0
      000000F8H.3 SFRSYM    DATA     BIT       SPI0CN0_NSSMD1
      000000BDH   SFRSYM    DATA     WORD      ADC0
      000000D8H   SFRSYM    DATA     BYTE      UART1FCN1
      000000ABH   SFRSYM    DATA     BYTE      I2C0FCN1
      00000098H.5 SFRSYM    DATA     BIT       TMR4CN0_TF4LEN
      000000D0H   SFRSYM    DATA     BYTE      PSW
      000000F7H   SFRSYM    DATA     BYTE      PCA0PWM
      000000F7H   SFRSYM    DATA     BYTE      SPI0FCT
      000000B6H   SFRSYM    DATA     BYTE      REVID
      000000B7H   SFRSYM    DATA     BYTE      FLKEY
      000000B3H   SFRSYM    DATA     BYTE      ADC0AC

      01003D3AH   BLOCK     CODE     ---       LVL=0
      ---         BLOCKEND  ---      ---       LVL=0

      010031E6H   BLOCK     CODE     ---       LVL=0
      010031E6H   BLOCK     CODE     NEAR LAB  LVL=1
      02000041H   SYMBOL    XDATA    BYTE      secbyte
      ---         BLOCKEND  ---      ---       LVL=1
      010031E6H   LINE      CODE     ---       #12
      010031E6H   LINE      CODE     ---       #13
      010031E6H   LINE      CODE     ---       #15
      010031F3H   LINE      CODE     ---       #16
      010031FAH   LINE      CODE     ---       #17
      010031FAH   LINE      CODE     ---       #18
      01003211H   LINE      CODE     ---       #19
      01003217H   LINE      CODE     ---       #20
      01003226H   LINE      CODE     ---       #21
      01003226H   LINE      CODE     ---       #22
      ---         BLOCKEND  ---      ---       LVL=0

LX51 LINKER/LOCATER V4.66.30.0                                                        03/28/2016  20:19:13  PAGE 161


      01003482H   BLOCK     CODE     ---       LVL=0
      00000006H   SYMBOL    DATA     WORD      addr
      020000B5H   SYMBOL    XDATA    ---       buf
      020000B8H   SYMBOL    XDATA    BYTE      len
      01003488H   BLOCK     CODE     NEAR LAB  LVL=1
      00000006H   SYMBOL    DATA     ---       eepaddr
      00000020H.0 SYMBOL    BIT      BIT       old_int
      ---         BLOCKEND  ---      ---       LVL=1
      01003482H   LINE      CODE     ---       #24
      01003488H   LINE      CODE     ---       #25
      01003488H   LINE      CODE     ---       #26
      01003488H   LINE      CODE     ---       #29
      01003492H   LINE      CODE     ---       #30
      01003492H   LINE      CODE     ---       #31
      01003496H   LINE      CODE     ---       #32
      01003498H   LINE      CODE     ---       #33
      010034B5H   LINE      CODE     ---       #34
      010034B9H   LINE      CODE     ---       #35
      010034BBH   LINE      CODE     ---       #36
      ---         BLOCKEND  ---      ---       LVL=0

      0100304DH   BLOCK     CODE     ---       LVL=0
      00000006H   SYMBOL    DATA     WORD      addr
      00000001H   SYMBOL    DATA     ---       buf
      020000B7H   SYMBOL    XDATA    BYTE      len
      020000B8H   SYMBOL    XDATA    BYTE      flags
      0100304DH   BLOCK     CODE     NEAR LAB  LVL=1
      00000010H   SYMBOL    DATA     ---       eepaddr
      00000020H.0 SYMBOL    BIT      BIT       old_int
      ---         BLOCKEND  ---      ---       LVL=1
      0100304DH   LINE      CODE     ---       #38
      0100304DH   LINE      CODE     ---       #39
      0100304DH   LINE      CODE     ---       #40
      01003051H   LINE      CODE     ---       #43
      0100305BH   LINE      CODE     ---       #44
      0100305BH   LINE      CODE     ---       #45
      0100305FH   LINE      CODE     ---       #46
      01003061H   LINE      CODE     ---       #48
      01003064H   LINE      CODE     ---       #49
      01003067H   LINE      CODE     ---       #52
      0100306AH   LINE      CODE     ---       #53
      0100306DH   LINE      CODE     ---       #54
      01003072H   LINE      CODE     ---       #56
      0100307CH   LINE      CODE     ---       #57
      01003080H   LINE      CODE     ---       #58
      01003084H   LINE      CODE     ---       #60
      0100308CH   LINE      CODE     ---       #61
      01003093H   LINE      CODE     ---       #62
      01003095H   LINE      CODE     ---       #63
      ---         BLOCKEND  ---      ---       LVL=0

      ---         MODULE    ---      ---       I2C
      01003B42H   PUBLIC    CODE     ---       smb_init
      010027B3H   PUBLIC    CODE     ---       _reverse_bits
      010026B1H   PUBLIC    CODE     ---       _feed_crc
      01003B93H   PUBLIC    CODE     ---       smb_init_crc
      0100372FH   PUBLIC    CODE     ---       _smb_set_ext_write
      020000CBH   PUBLIC    XDATA    BYTE      ?_smb_write?BYTE
      01003267H   PUBLIC    CODE     ---       _smb_write
      020000CBH   PUBLIC    XDATA    BYTE      ?_smb_read?BYTE
      01003001H   PUBLIC    CODE     ---       _smb_read
      000000A2H   SFRSYM    DATA     BYTE      SPI0CKR
LX51 LINKER/LOCATER V4.66.30.0                                                        03/28/2016  20:19:13  PAGE 162


      00000080H   SFRSYM    DATA     BYTE      P0
      000000C8H.6 SFRSYM    DATA     BIT       SCON1_PERR
      000000D0H.2 SFRSYM    DATA     BIT       PSW_OV
      00000090H   SFRSYM    DATA     BYTE      P1
      000000F8H.1 SFRSYM    DATA     BIT       SPI0CN0_TXNF
      00000097H   SFRSYM    DATA     BYTE      WDTCN
      000000A0H   SFRSYM    DATA     BYTE      P2
      000000B0H   SFRSYM    DATA     BYTE      P3
      000000BCH   SFRSYM    DATA     BYTE      ADC0CF
      000000C0H.7 SFRSYM    DATA     BIT       SMB0CN0_MASTER
      000000F9H   SFRSYM    DATA     WORD      PCA0
      000000E6H   SFRSYM    DATA     BYTE      EIE1
      000000C0H.1 SFRSYM    DATA     BIT       SMB0CN0_ACK
      000000B3H   SFRSYM    DATA     BYTE      USB0XCN
      000000CEH   SFRSYM    DATA     BYTE      EIE2
      00000080H.7 SFRSYM    DATA     BIT       LED_R
      0000008FH   SFRSYM    DATA     BYTE      PSCTL
      000000E4H   SFRSYM    DATA     BYTE      IT01CF
      000000C0H.6 SFRSYM    DATA     BIT       SMB0CN0_TXMODE
      000000ADH   SFRSYM    DATA     BYTE      DERIVID
      000000A7H   SFRSYM    DATA     BYTE      SFRPAGE
      000000A4H   SFRSYM    DATA     BYTE      P0MDOUT
      00000080H.2 SFRSYM    DATA     BIT       U2F_BUTTON
      000000BFH   SFRSYM    DATA     BYTE      USB0CDSTA
      000000A5H   SFRSYM    DATA     BYTE      P1MDOUT
      000000E8H.5 SFRSYM    DATA     BIT       ADC0CN0_ADINT
      000000CBH   SFRSYM    DATA     BYTE      TMR2RLH
      000000A6H   SFRSYM    DATA     BYTE      P2MDOUT
      000000A8H   SFRSYM    DATA     BYTE      IE
      00000093H   SFRSYM    DATA     BYTE      TMR3RLH
      0000009CH   SFRSYM    DATA     BYTE      P3MDOUT
      000000A3H   SFRSYM    DATA     BYTE      TMR4RLH
      000000F3H   SFRSYM    DATA     BYTE      EIP1
      000000F4H   SFRSYM    DATA     BYTE      EIP2
      00000098H.2 SFRSYM    DATA     BIT       SCON0_RB8
      000000CAH   SFRSYM    DATA     BYTE      TMR2RLL
      000000FCH   SFRSYM    DATA     BYTE      PCA0CPH0
      00000092H   SFRSYM    DATA     BYTE      TMR3RLL
      000000EAH   SFRSYM    DATA     BYTE      PCA0CPH1
      00000098H.3 SFRSYM    DATA     BIT       SCON0_TB8
      000000F0H   SFRSYM    DATA     BIT       B_B0
      00000082H   SFRSYM    DATA     WORD      DP
      000000A2H   SFRSYM    DATA     BYTE      TMR4RLL
      000000ECH   SFRSYM    DATA     BYTE      PCA0CPH2
      000000F0H.1 SFRSYM    DATA     BIT       B_B1
      000000C3H   SFRSYM    DATA     WORD      ADC0GT
      000000BDH   SFRSYM    DATA     BYTE      I2C0SLAD
      000000D8H.3 SFRSYM    DATA     BIT       UART1FCN1_RFRQ
      000000F0H.2 SFRSYM    DATA     BIT       B_B2
      000000CFH   SFRSYM    DATA     BYTE      SFRPGCN
      000000FBH   SFRSYM    DATA     BYTE      PCA0CPL0
      000000F0H.3 SFRSYM    DATA     BIT       B_B3
      000000D9H   SFRSYM    DATA     BYTE      PCA0MD
      000000DAH   SFRSYM    DATA     BYTE      PCA0CPM0
      000000E9H   SFRSYM    DATA     BYTE      PCA0CPL1
      000000D8H.7 SFRSYM    DATA     BIT       UART1FCN1_TFRQ
      000000F0H.4 SFRSYM    DATA     BIT       B_B4
      000000DBH   SFRSYM    DATA     BYTE      PCA0CPM1
      000000EBH   SFRSYM    DATA     BYTE      PCA0CPL2
      000000F0H.5 SFRSYM    DATA     BIT       B_B5
      000000DCH   SFRSYM    DATA     BYTE      PCA0CPM2
      000000B8H   SFRSYM    DATA     BYTE      IP
LX51 LINKER/LOCATER V4.66.30.0                                                        03/28/2016  20:19:13  PAGE 163


      000000B9H   SFRSYM    DATA     BYTE      ADC0TK
      000000F0H.6 SFRSYM    DATA     BIT       B_B6
      000000C5H   SFRSYM    DATA     WORD      ADC0LT
      000000D8H.6 SFRSYM    DATA     BIT       UART1FCN1_TXNF
      00000098H.5 SFRSYM    DATA     BIT       SCON0_MCE
      000000F0H.7 SFRSYM    DATA     BIT       B_B7
      000000C3H   SFRSYM    DATA     BYTE      SMB0FCN0
      000000E1H   SFRSYM    DATA     BYTE      XBR0
      000000C4H   SFRSYM    DATA     BYTE      SMB0FCN1
      000000C1H   SFRSYM    DATA     BYTE      SMB0CF
      000000E2H   SFRSYM    DATA     BYTE      XBR1
      000000C1H   SFRSYM    DATA     BYTE      PFE0CN
      000000E7H   SFRSYM    DATA     BYTE      EMI0CN
      000000C0H.5 SFRSYM    DATA     BIT       SMB0CN0_STA
      000000E3H   SFRSYM    DATA     BYTE      XBR2
      000000BBH   SFRSYM    DATA     BYTE      ADC0MX
      000000E0H   SFRSYM    DATA     BIT       ACC_ACC0
      000000D1H   SFRSYM    DATA     BYTE      REF0CN
      0000008EH   SFRSYM    DATA     BYTE      CKCON0
      000000E0H.1 SFRSYM    DATA     BIT       ACC_ACC1
      000000C9H   SFRSYM    DATA     BYTE      REG0CN
      000000DDH   SFRSYM    DATA     BYTE      CRC0IN
      000000A6H   SFRSYM    DATA     BYTE      CKCON1
      000000C8H.2 SFRSYM    DATA     BIT       TMR2CN0_TR2
      000000E0H.2 SFRSYM    DATA     BIT       ACC_ACC2
      000000C6H   SFRSYM    DATA     BYTE      REG1CN
      000000E0H.3 SFRSYM    DATA     BIT       ACC_ACC3
      00000081H   SFRSYM    DATA     BYTE      SP
      0000009DH   SFRSYM    DATA     BYTE      CMP0MD
      000000E0H.4 SFRSYM    DATA     BIT       ACC_ACC4
      000000B1H   SFRSYM    DATA     BYTE      LFO0CN
      000000ABH   SFRSYM    DATA     BYTE      CMP1MD
      000000D8H   SFRSYM    DATA     BIT       PCA0CN0_CCF0
      000000E0H.5 SFRSYM    DATA     BIT       ACC_ACC5
      000000B5H   SFRSYM    DATA     BYTE      USB0CF
      00000098H.2 SFRSYM    DATA     BIT       TMR4CN0_TR4
      000000D8H.1 SFRSYM    DATA     BIT       PCA0CN0_CCF1
      000000E0H.6 SFRSYM    DATA     BIT       ACC_ACC6
      000000CCH   SFRSYM    DATA     WORD      TMR2
      0000009AH   SFRSYM    DATA     BYTE      SPI0FCN0
      000000D8H.2 SFRSYM    DATA     BIT       PCA0CN0_CCF2
      000000E0H.7 SFRSYM    DATA     BIT       ACC_ACC7
      00000094H   SFRSYM    DATA     WORD      TMR3
      0000009BH   SFRSYM    DATA     BYTE      SPI0FCN1
      000000A4H   SFRSYM    DATA     WORD      TMR4
      00000094H   SFRSYM    DATA     BYTE      SBCON1
      000000C0H.3 SFRSYM    DATA     BIT       SMB0CN0_ACKRQ
      000000FFH   SFRSYM    DATA     BYTE      VDM0CN
      000000F1H   SFRSYM    DATA     BYTE      P0MDIN
      00000098H.4 SFRSYM    DATA     BIT       SCON0_REN
      000000ACH   SFRSYM    DATA     BYTE      SMB0TC
      000000F2H   SFRSYM    DATA     BYTE      P1MDIN
      000000C8H.4 SFRSYM    DATA     BIT       SCON1_REN
      000000F3H   SFRSYM    DATA     BYTE      P2MDIN
      000000C0H.4 SFRSYM    DATA     BIT       SMB0CN0_STO
      000000B6H   SFRSYM    DATA     BYTE      USB0CDCF
      000000F4H   SFRSYM    DATA     BYTE      P3MDIN
      000000B9H   SFRSYM    DATA     BYTE      I2C0STAT
      000000BBH   SFRSYM    DATA     BYTE      I2C0DOUT
      00000096H   SFRSYM    DATA     BYTE      SBRLH1
      000000FEH   SFRSYM    DATA     BYTE      P0MASK
      000000D8H.5 SFRSYM    DATA     BIT       UART1FCN1_TXHOLD
LX51 LINKER/LOCATER V4.66.30.0                                                        03/28/2016  20:19:13  PAGE 164


      000000EEH   SFRSYM    DATA     BYTE      P1MASK
      000000FCH   SFRSYM    DATA     BYTE      P2MASK
      000000D0H.3 SFRSYM    DATA     BIT       PSW_RS0
      000000D8H.7 SFRSYM    DATA     BIT       PCA0CN0_CF
      0000009EH   SFRSYM    DATA     BYTE      PCA0CENT
      000000BAH   SFRSYM    DATA     BYTE      I2C0CN0
      000000D2H   SFRSYM    DATA     BYTE      CRC0ST
      000000F8H.4 SFRSYM    DATA     BIT       SPI0CN0_RXOVRN
      000000D0H.4 SFRSYM    DATA     BIT       PSW_RS1
      00000095H   SFRSYM    DATA     BYTE      SBRLL1
      000000C8H.2 SFRSYM    DATA     BIT       SCON1_RBX
      000000C8H   SFRSYM    DATA     BIT       TMR2CN0_T2XCLK0
      000000C8H.1 SFRSYM    DATA     BIT       TMR2CN0_T2XCLK1
      000000C8H.3 SFRSYM    DATA     BIT       SCON1_TBX
      000000E8H.7 SFRSYM    DATA     BIT       ADC0CN0_ADEN
      000000BEH   SFRSYM    DATA     BYTE      USB0CDCN
      00000089H   SFRSYM    DATA     BYTE      TMOD
      00000088H   SFRSYM    DATA     BYTE      TCON
      000000CFH   SFRSYM    DATA     BYTE      CRC0FLIP
      000000D0H   SFRSYM    DATA     BIT       PSW_PARITY
      000000A8H.4 SFRSYM    DATA     BIT       IE_ES0
      0000009FH   SFRSYM    DATA     BYTE      CMP0MX
      00000098H   SFRSYM    DATA     BIT       TMR4CN0_T4XCLK0
      000000A8H.1 SFRSYM    DATA     BIT       IE_ET0
      000000AAH   SFRSYM    DATA     BYTE      CMP1MX
      00000098H.1 SFRSYM    DATA     BIT       TMR4CN0_T4XCLK1
      000000A8H.3 SFRSYM    DATA     BIT       IE_ET1
      000000D4H   SFRSYM    DATA     BYTE      P0SKIP
      000000D8H   SFRSYM    DATA     BIT       UART1FCN1_RIE
      000000A8H.5 SFRSYM    DATA     BIT       IE_ET2
      000000D5H   SFRSYM    DATA     BYTE      P1SKIP
      000000CCH   SFRSYM    DATA     BYTE      P2SKIP
      000000E8H   SFRSYM    DATA     BYTE      ADC0CN0
      000000D8H.4 SFRSYM    DATA     BIT       UART1FCN1_TIE
      000000A8H   SFRSYM    DATA     BIT       IE_EX0
      000000B2H   SFRSYM    DATA     BYTE      ADC0CN1
      000000D8H.6 SFRSYM    DATA     BIT       PCA0CN0_CR
      000000A8H.2 SFRSYM    DATA     BIT       IE_EX1
      000000C8H.7 SFRSYM    DATA     BIT       SCON1_OVR
      00000098H.7 SFRSYM    DATA     BIT       SCON0_SMODE
      000000B5H   SFRSYM    DATA     BYTE      DEVICEID
      000000A9H   SFRSYM    DATA     BYTE      CLKSEL
      000000F8H   SFRSYM    DATA     BIT       SPI0CN0_SPIEN
      000000F0H   SFRSYM    DATA     BYTE      B
      000000BEH   SFRSYM    DATA     BYTE      ADC0H
      000000E8H.6 SFRSYM    DATA     BIT       ADC0CN0_ADBMEN
      000000CAH   SFRSYM    DATA     WORD      TMR2RL
      000000BDH   SFRSYM    DATA     BYTE      ADC0L
      00000092H   SFRSYM    DATA     WORD      TMR3RL
      000000A2H   SFRSYM    DATA     WORD      TMR4RL
      000000D8H   SFRSYM    DATA     BYTE      PCA0CN0
      000000E0H   SFRSYM    DATA     BYTE      ACC
      000000FBH   SFRSYM    DATA     WORD      PCA0CP0
      000000E9H   SFRSYM    DATA     WORD      PCA0CP1
      000000EBH   SFRSYM    DATA     WORD      PCA0CP2
      000000BCH   SFRSYM    DATA     BYTE      I2C0DIN
      000000CEH   SFRSYM    DATA     BYTE      CRC0CN0
      0000008CH   SFRSYM    DATA     BYTE      TH0
      00000086H   SFRSYM    DATA     BYTE      CRC0CN1
      000000B8H.4 SFRSYM    DATA     BIT       IP_PS0
      000000FAH   SFRSYM    DATA     BYTE      UART1FCT
      0000008DH   SFRSYM    DATA     BYTE      TH1
LX51 LINKER/LOCATER V4.66.30.0                                                        03/28/2016  20:19:13  PAGE 165


      000000FAH   SFRSYM    DATA     BYTE      PCA0H
      000000F5H   SFRSYM    DATA     BYTE      I2C0FCT
      000000B8H.1 SFRSYM    DATA     BIT       IP_PT0
      000000B8H.3 SFRSYM    DATA     BIT       IP_PT1
      000000C0H.2 SFRSYM    DATA     BIT       SMB0CN0_ARBLOST
      000000B8H.5 SFRSYM    DATA     BIT       IP_PT2
      0000008AH   SFRSYM    DATA     BYTE      TL0
      00000080H.3 SFRSYM    DATA     BIT       U2F_BUTTON_VAL
      000000D0H.5 SFRSYM    DATA     BIT       PSW_F0
      000000A8H.6 SFRSYM    DATA     BIT       IE_ESPI0
      0000008BH   SFRSYM    DATA     BYTE      TL1
      000000F9H   SFRSYM    DATA     BYTE      PCA0L
      000000C0H   SFRSYM    DATA     BIT       SMB0CN0_SI
      000000D0H.1 SFRSYM    DATA     BIT       PSW_F1
      00000080H   SFRSYM    DATA     BIT       P0_B0
      000000B8H   SFRSYM    DATA     BIT       IP_PX0
      00000090H   SFRSYM    DATA     BIT       P1_B0
      00000080H.1 SFRSYM    DATA     BIT       P0_B1
      000000B8H.2 SFRSYM    DATA     BIT       IP_PX1
      0000009EH   SFRSYM    DATA     BYTE      UART1LIN
      0000009BH   SFRSYM    DATA     BYTE      CMP0CN0
      00000088H.1 SFRSYM    DATA     BIT       TCON_IE0
      000000A0H   SFRSYM    DATA     BIT       P2_B0
      00000090H.1 SFRSYM    DATA     BIT       P1_B1
      00000080H.2 SFRSYM    DATA     BIT       P0_B2
      000000BFH   SFRSYM    DATA     BYTE      CMP1CN0
      00000099H   SFRSYM    DATA     BYTE      CMP0CN1
      00000088H.3 SFRSYM    DATA     BIT       TCON_IE1
      000000B0H   SFRSYM    DATA     BIT       P3_B0
      000000A0H.1 SFRSYM    DATA     BIT       P2_B1
      00000090H.2 SFRSYM    DATA     BIT       P1_B2
      00000080H.3 SFRSYM    DATA     BIT       P0_B3
      000000C0H   SFRSYM    DATA     BYTE      SMB0CN0
      000000ACH   SFRSYM    DATA     BYTE      CMP1CN1
      000000B0H.1 SFRSYM    DATA     BIT       P3_B1
      000000A0H.2 SFRSYM    DATA     BIT       P2_B2
      00000090H.3 SFRSYM    DATA     BIT       P1_B3
      00000080H.4 SFRSYM    DATA     BIT       P0_B4
      000000A0H.3 SFRSYM    DATA     BIT       P2_B3
      00000090H.4 SFRSYM    DATA     BIT       P1_B4
      00000080H.5 SFRSYM    DATA     BIT       P0_B5
      000000D8H.1 SFRSYM    DATA     BIT       UART1FCN1_RXTO0
      00000090H.5 SFRSYM    DATA     BIT       P1_B5
      00000080H.6 SFRSYM    DATA     BIT       P0_B6
      000000F5H   SFRSYM    DATA     BYTE      EIP1H
      000000D8H.2 SFRSYM    DATA     BIT       UART1FCN1_RXTO1
      00000090H.6 SFRSYM    DATA     BIT       P1_B6
      00000080H.7 SFRSYM    DATA     BIT       P0_B7
      000000C5H   SFRSYM    DATA     BYTE      SMB0RXLN
      000000F6H   SFRSYM    DATA     BYTE      EIP2H
      00000090H.7 SFRSYM    DATA     BIT       P1_B7
      00000083H   SFRSYM    DATA     BYTE      DPH
      000000C4H   SFRSYM    DATA     BYTE      ADC0GTH
      000000C8H.7 SFRSYM    DATA     BIT       TMR2CN0_TF2H
      000000C8H.3 SFRSYM    DATA     BIT       TMR2CN0_T2SPLIT
      000000D0H.6 SFRSYM    DATA     BIT       PSW_AC
      000000F8H   SFRSYM    DATA     BYTE      SPI0CN0
      000000C7H   SFRSYM    DATA     BYTE      HFO0CAL
      00000088H.5 SFRSYM    DATA     BIT       TCON_TF0
      00000098H   SFRSYM    DATA     BIT       SCON0_RI
      000000D6H   SFRSYM    DATA     BYTE      HFO1CAL
      00000082H   SFRSYM    DATA     BYTE      DPL
LX51 LINKER/LOCATER V4.66.30.0                                                        03/28/2016  20:19:13  PAGE 166


      00000088H.7 SFRSYM    DATA     BIT       TCON_TF1
      000000C8H   SFRSYM    DATA     BIT       SCON1_RI
      00000099H   SFRSYM    DATA     BYTE      SBUF0
      00000087H   SFRSYM    DATA     BYTE      PCON0
      000000F2H   SFRSYM    DATA     BYTE      IPH
      000000C3H   SFRSYM    DATA     BYTE      ADC0GTL
      00000098H.7 SFRSYM    DATA     BIT       TMR4CN0_TF4H
      00000098H.3 SFRSYM    DATA     BIT       TMR4CN0_T4SPLIT
      000000C8H.6 SFRSYM    DATA     BIT       TMR2CN0_TF2L
      00000098H.1 SFRSYM    DATA     BIT       SCON0_TI
      000000E8H   SFRSYM    DATA     BIT       ADC0CN0_ADCM0
      00000092H   SFRSYM    DATA     BYTE      SBUF1
      0000009AH   SFRSYM    DATA     BYTE      PCON1
      000000C6H   SFRSYM    DATA     BYTE      ADC0LTH
      00000088H   SFRSYM    DATA     BIT       TCON_IT0
      000000C8H.1 SFRSYM    DATA     BIT       SCON1_TI
      000000E8H.1 SFRSYM    DATA     BIT       ADC0CN0_ADCM1
      000000EFH   SFRSYM    DATA     BYTE      RSTSRC
      000000FDH   SFRSYM    DATA     BYTE      P0MAT
      000000DEH   SFRSYM    DATA     BYTE      CRC0DAT
      00000088H.2 SFRSYM    DATA     BIT       TCON_IT1
      000000E8H.2 SFRSYM    DATA     BIT       ADC0CN0_ADCM2
      000000D7H   SFRSYM    DATA     BYTE      SFRSTACK
      00000098H   SFRSYM    DATA     BYTE      SCON0
      000000F6H   SFRSYM    DATA     BYTE      PRTDRV
      000000EDH   SFRSYM    DATA     BYTE      P1MAT
      000000E8H.3 SFRSYM    DATA     BIT       ADC0CN0_ADWINT
      00000095H   SFRSYM    DATA     WORD      SBRL1
      000000B2H   SFRSYM    DATA     BYTE      USB0AEC
      00000093H   SFRSYM    DATA     BYTE      SMOD1
      000000C8H   SFRSYM    DATA     BYTE      SCON1
      000000FBH   SFRSYM    DATA     BYTE      P2MAT
      00000098H.6 SFRSYM    DATA     BIT       TMR4CN0_TF4L
      000000E8H.4 SFRSYM    DATA     BIT       ADC0CN0_ADBUSY
      000000D6H   SFRSYM    DATA     BYTE      SMB0ADM
      000000C5H   SFRSYM    DATA     BYTE      ADC0LTL
      000000F8H.5 SFRSYM    DATA     BIT       SPI0CN0_MODF
      000000B8H.6 SFRSYM    DATA     BIT       IP_PSPI0
      0000009CH   SFRSYM    DATA     BYTE      PCA0CLR
      000000C8H   SFRSYM    DATA     BYTE      TMR2CN0
      00000091H   SFRSYM    DATA     BYTE      TMR3CN0
      000000FDH   SFRSYM    DATA     BYTE      TMR2CN1
      00000098H   SFRSYM    DATA     BYTE      TMR4CN0
      000000FEH   SFRSYM    DATA     BYTE      TMR3CN1
      000000FFH   SFRSYM    DATA     BYTE      TMR4CN1
      000000D7H   SFRSYM    DATA     BYTE      SMB0ADR
      00000088H.4 SFRSYM    DATA     BIT       TCON_TR0
      000000C8H.4 SFRSYM    DATA     BIT       TMR2CN0_TF2CEN
      00000088H.6 SFRSYM    DATA     BIT       TCON_TR1
      000000C2H   SFRSYM    DATA     BYTE      SMB0DAT
      000000CDH   SFRSYM    DATA     BYTE      TMR2H
      000000A1H   SFRSYM    DATA     BYTE      SPI0CFG
      00000095H   SFRSYM    DATA     BYTE      TMR3H
      000000EFH   SFRSYM    DATA     BYTE      HFOCN
      000000D3H   SFRSYM    DATA     BYTE      CRC0CNT
      000000A5H   SFRSYM    DATA     BYTE      TMR4H
      00000098H.4 SFRSYM    DATA     BIT       TMR4CN0_TF4CEN
      000000EFH   SFRSYM    DATA     BYTE      SMB0FCT
      00000096H   SFRSYM    DATA     BYTE      PCA0POL
      000000CCH   SFRSYM    DATA     BYTE      TMR2L
      000000F8H.7 SFRSYM    DATA     BIT       SPI0CN0_SPIF
      000000AEH   SFRSYM    DATA     BYTE      USB0ADR
LX51 LINKER/LOCATER V4.66.30.0                                                        03/28/2016  20:19:13  PAGE 167


      00000094H   SFRSYM    DATA     BYTE      TMR3L
      000000DFH   SFRSYM    DATA     BYTE      ADC0PWR
      000000A8H.7 SFRSYM    DATA     BIT       IE_EA
      000000A4H   SFRSYM    DATA     BYTE      TMR4L
      000000AFH   SFRSYM    DATA     BYTE      USB0DAT
      000000C8H.5 SFRSYM    DATA     BIT       TMR2CN0_TF2LEN
      000000F8H.6 SFRSYM    DATA     BIT       SPI0CN0_WCOL
      00000090H   SFRSYM    DATA     BIT       LED_B
      000000F8H.2 SFRSYM    DATA     BIT       SPI0CN0_NSSMD0
      000000D0H.7 SFRSYM    DATA     BIT       PSW_CY
      0000009DH   SFRSYM    DATA     BYTE      UART1FCN0
      000000A3H   SFRSYM    DATA     BYTE      SPI0DAT
      000000ADH   SFRSYM    DATA     BYTE      I2C0FCN0
      000000F8H.3 SFRSYM    DATA     BIT       SPI0CN0_NSSMD1
      000000BDH   SFRSYM    DATA     WORD      ADC0
      000000D8H   SFRSYM    DATA     BYTE      UART1FCN1
      000000ABH   SFRSYM    DATA     BYTE      I2C0FCN1
      00000098H.5 SFRSYM    DATA     BIT       TMR4CN0_TF4LEN
      000000D0H   SFRSYM    DATA     BYTE      PSW
      000000F7H   SFRSYM    DATA     BYTE      PCA0PWM
      000000F7H   SFRSYM    DATA     BYTE      SPI0FCT
      000000B6H   SFRSYM    DATA     BYTE      REVID
      00000080H.6 SFRSYM    DATA     BIT       LED_G
      000000B7H   SFRSYM    DATA     BYTE      FLKEY
      000000B3H   SFRSYM    DATA     BYTE      ADC0AC
      01003A21H   SYMBOL    CODE     ---       while_busy

      01003785H   BLOCK     CODE     ---       LVL=0
      ---         BLOCKEND  ---      ---       LVL=0

      01003A21H   BLOCK     CODE     ---       LVL=0
      01003A21H   LINE      CODE     ---       #17
      01003A21H   LINE      CODE     ---       #18
      01003A21H   LINE      CODE     ---       #19
      01003A28H   LINE      CODE     ---       #20
      01003A28H   LINE      CODE     ---       #21
      01003A31H   LINE      CODE     ---       #22
      01003A31H   LINE      CODE     ---       #23
      01003A36H   LINE      CODE     ---       #24
      01003A39H   LINE      CODE     ---       #25
      01003A39H   LINE      CODE     ---       #26
      01003A39H   LINE      CODE     ---       #27
      01003A3BH   LINE      CODE     ---       #28
      ---         BLOCKEND  ---      ---       LVL=0

      01003001H   BLOCK     CODE     ---       LVL=0
      020000CBH   SYMBOL    XDATA    BYTE      addr
      020000CCH   SYMBOL    XDATA    ---       dest
      020000CFH   SYMBOL    XDATA    BYTE      count
      01003001H   LINE      CODE     ---       #30
      0100300AH   LINE      CODE     ---       #31
      0100300AH   LINE      CODE     ---       #32
      01003013H   LINE      CODE     ---       #34
      01003019H   LINE      CODE     ---       #35
      0100301CH   LINE      CODE     ---       #37
      01003020H   LINE      CODE     ---       #38
      01003028H   LINE      CODE     ---       #39
      01003030H   LINE      CODE     ---       #40
      0100303CH   LINE      CODE     ---       #41
      0100303EH   LINE      CODE     ---       #43
      01003047H   LINE      CODE     ---       #44
      0100304CH   LINE      CODE     ---       #45
LX51 LINKER/LOCATER V4.66.30.0                                                        03/28/2016  20:19:13  PAGE 168


      ---         BLOCKEND  ---      ---       LVL=0

      01003267H   BLOCK     CODE     ---       LVL=0
      020000CBH   SYMBOL    XDATA    BYTE      addr
      020000CCH   SYMBOL    XDATA    ---       buf
      020000CFH   SYMBOL    XDATA    BYTE      len
      01003267H   LINE      CODE     ---       #48
      01003270H   LINE      CODE     ---       #49
      01003270H   LINE      CODE     ---       #50
      01003276H   LINE      CODE     ---       #52
      0100327CH   LINE      CODE     ---       #53
      0100327FH   LINE      CODE     ---       #55
      01003287H   LINE      CODE     ---       #56
      01003293H   LINE      CODE     ---       #57
      01003298H   LINE      CODE     ---       #58
      010032A0H   LINE      CODE     ---       #60
      010032A2H   LINE      CODE     ---       #61
      010032A5H   LINE      CODE     ---       #62
      ---         BLOCKEND  ---      ---       LVL=0

      0100372FH   BLOCK     CODE     ---       LVL=0
      020000CBH   SYMBOL    XDATA    ---       extbuf
      020000CEH   SYMBOL    XDATA    BYTE      extlen
      0100372FH   LINE      CODE     ---       #64
      0100373AH   LINE      CODE     ---       #65
      0100373AH   LINE      CODE     ---       #66
      0100373DH   LINE      CODE     ---       #67
      01003745H   LINE      CODE     ---       #68
      01003751H   LINE      CODE     ---       #69
      01003756H   LINE      CODE     ---       #70
      0100375BH   LINE      CODE     ---       #71
      ---         BLOCKEND  ---      ---       LVL=0

      01003B93H   BLOCK     CODE     ---       LVL=0
      01003B93H   LINE      CODE     ---       #73
      01003B93H   LINE      CODE     ---       #74
      01003B93H   LINE      CODE     ---       #75
      01003B96H   LINE      CODE     ---       #76
      01003B9DH   LINE      CODE     ---       #77
      01003B9FH   LINE      CODE     ---       #78
      01003BA6H   LINE      CODE     ---       #79
      ---         BLOCKEND  ---      ---       LVL=0

      010026B1H   BLOCK     CODE     ---       LVL=0
      00000002H   SYMBOL    DATA     WORD      crc
      00000005H   SYMBOL    DATA     BYTE      b
      010026B1H   LINE      CODE     ---       #81
      010026B5H   LINE      CODE     ---       #82
      010026B5H   LINE      CODE     ---       #83
      010026B8H   LINE      CODE     ---       #84
      010026C7H   LINE      CODE     ---       #85
      010026D7H   LINE      CODE     ---       #86
      010026E7H   LINE      CODE     ---       #87
      010026F7H   LINE      CODE     ---       #88
      01002707H   LINE      CODE     ---       #89
      01002717H   LINE      CODE     ---       #90
      01002727H   LINE      CODE     ---       #91
      01002733H   LINE      CODE     ---       #92
      ---         BLOCKEND  ---      ---       LVL=0

      010027B3H   BLOCK     CODE     ---       LVL=0
      00000004H   SYMBOL    DATA     WORD      crc
LX51 LINKER/LOCATER V4.66.30.0                                                        03/28/2016  20:19:13  PAGE 169


      010027B3H   LINE      CODE     ---       #94
      010027B7H   LINE      CODE     ---       #95
      010027B7H   LINE      CODE     ---       #97
      010027D6H   LINE      CODE     ---       #98
      010027FDH   LINE      CODE     ---       #99
      01002829H   LINE      CODE     ---       #100
      0100282EH   LINE      CODE     ---       #101
      ---         BLOCKEND  ---      ---       LVL=0

      01003B42H   BLOCK     CODE     ---       LVL=0
      01003B42H   LINE      CODE     ---       #103
      01003B42H   LINE      CODE     ---       #104
      01003B42H   LINE      CODE     ---       #105
      01003B51H   LINE      CODE     ---       #106
      01003B56H   LINE      CODE     ---       #107
      ---         BLOCKEND  ---      ---       LVL=0

      ---         MODULE    ---      ---       MAIN
      00000021H   PUBLIC    DATA     ---       appdata
      01000EF6H   PUBLIC    CODE     ---       main
      01003DCAH   PUBLIC    CODE     ---       test_app
      01003D44H   PUBLIC    CODE     ---       _set_app_u2f_hid_msg
      01003DC7H   PUBLIC    CODE     ---       _set_app_error
      000000A2H   SFRSYM    DATA     BYTE      SPI0CKR
      00000080H   SFRSYM    DATA     BYTE      P0
      000000C8H.6 SFRSYM    DATA     BIT       SCON1_PERR
      000000D0H.2 SFRSYM    DATA     BIT       PSW_OV
      00000090H   SFRSYM    DATA     BYTE      P1
      000000F8H.1 SFRSYM    DATA     BIT       SPI0CN0_TXNF
      00000097H   SFRSYM    DATA     BYTE      WDTCN
      000000A0H   SFRSYM    DATA     BYTE      P2
      000000B0H   SFRSYM    DATA     BYTE      P3
      000000BCH   SFRSYM    DATA     BYTE      ADC0CF
      000000C0H.7 SFRSYM    DATA     BIT       SMB0CN0_MASTER
      000000F9H   SFRSYM    DATA     WORD      PCA0
      000000E6H   SFRSYM    DATA     BYTE      EIE1
      000000C0H.1 SFRSYM    DATA     BIT       SMB0CN0_ACK
      000000B3H   SFRSYM    DATA     BYTE      USB0XCN
      000000CEH   SFRSYM    DATA     BYTE      EIE2
      00000080H.7 SFRSYM    DATA     BIT       LED_R
      0000008FH   SFRSYM    DATA     BYTE      PSCTL
      000000E4H   SFRSYM    DATA     BYTE      IT01CF
      000000C0H.6 SFRSYM    DATA     BIT       SMB0CN0_TXMODE
      000000ADH   SFRSYM    DATA     BYTE      DERIVID
      000000A7H   SFRSYM    DATA     BYTE      SFRPAGE
      000000A4H   SFRSYM    DATA     BYTE      P0MDOUT
      00000080H.2 SFRSYM    DATA     BIT       U2F_BUTTON
      000000BFH   SFRSYM    DATA     BYTE      USB0CDSTA
      000000A5H   SFRSYM    DATA     BYTE      P1MDOUT
      000000E8H.5 SFRSYM    DATA     BIT       ADC0CN0_ADINT
      000000CBH   SFRSYM    DATA     BYTE      TMR2RLH
      000000A6H   SFRSYM    DATA     BYTE      P2MDOUT
      000000A8H   SFRSYM    DATA     BYTE      IE
      00000093H   SFRSYM    DATA     BYTE      TMR3RLH
      0000009CH   SFRSYM    DATA     BYTE      P3MDOUT
      000000A3H   SFRSYM    DATA     BYTE      TMR4RLH
      000000F3H   SFRSYM    DATA     BYTE      EIP1
      000000F4H   SFRSYM    DATA     BYTE      EIP2
      00000098H.2 SFRSYM    DATA     BIT       SCON0_RB8
      000000CAH   SFRSYM    DATA     BYTE      TMR2RLL
      000000FCH   SFRSYM    DATA     BYTE      PCA0CPH0
      00000092H   SFRSYM    DATA     BYTE      TMR3RLL
LX51 LINKER/LOCATER V4.66.30.0                                                        03/28/2016  20:19:13  PAGE 170


      000000EAH   SFRSYM    DATA     BYTE      PCA0CPH1
      00000098H.3 SFRSYM    DATA     BIT       SCON0_TB8
      000000F0H   SFRSYM    DATA     BIT       B_B0
      00000082H   SFRSYM    DATA     WORD      DP
      000000A2H   SFRSYM    DATA     BYTE      TMR4RLL
      000000ECH   SFRSYM    DATA     BYTE      PCA0CPH2
      000000F0H.1 SFRSYM    DATA     BIT       B_B1
      000000C3H   SFRSYM    DATA     WORD      ADC0GT
      000000BDH   SFRSYM    DATA     BYTE      I2C0SLAD
      000000D8H.3 SFRSYM    DATA     BIT       UART1FCN1_RFRQ
      000000F0H.2 SFRSYM    DATA     BIT       B_B2
      000000CFH   SFRSYM    DATA     BYTE      SFRPGCN
      000000FBH   SFRSYM    DATA     BYTE      PCA0CPL0
      000000F0H.3 SFRSYM    DATA     BIT       B_B3
      000000D9H   SFRSYM    DATA     BYTE      PCA0MD
      000000DAH   SFRSYM    DATA     BYTE      PCA0CPM0
      000000E9H   SFRSYM    DATA     BYTE      PCA0CPL1
      000000D8H.7 SFRSYM    DATA     BIT       UART1FCN1_TFRQ
      000000F0H.4 SFRSYM    DATA     BIT       B_B4
      000000DBH   SFRSYM    DATA     BYTE      PCA0CPM1
      000000EBH   SFRSYM    DATA     BYTE      PCA0CPL2
      000000F0H.5 SFRSYM    DATA     BIT       B_B5
      000000DCH   SFRSYM    DATA     BYTE      PCA0CPM2
      000000B8H   SFRSYM    DATA     BYTE      IP
      000000B9H   SFRSYM    DATA     BYTE      ADC0TK
      000000F0H.6 SFRSYM    DATA     BIT       B_B6
      000000C5H   SFRSYM    DATA     WORD      ADC0LT
      000000D8H.6 SFRSYM    DATA     BIT       UART1FCN1_TXNF
      00000098H.5 SFRSYM    DATA     BIT       SCON0_MCE
      000000F0H.7 SFRSYM    DATA     BIT       B_B7
      000000C3H   SFRSYM    DATA     BYTE      SMB0FCN0
      000000E1H   SFRSYM    DATA     BYTE      XBR0
      000000C4H   SFRSYM    DATA     BYTE      SMB0FCN1
      000000C1H   SFRSYM    DATA     BYTE      SMB0CF
      000000E2H   SFRSYM    DATA     BYTE      XBR1
      000000C1H   SFRSYM    DATA     BYTE      PFE0CN
      000000E7H   SFRSYM    DATA     BYTE      EMI0CN
      000000C0H.5 SFRSYM    DATA     BIT       SMB0CN0_STA
      000000E3H   SFRSYM    DATA     BYTE      XBR2
      000000BBH   SFRSYM    DATA     BYTE      ADC0MX
      000000E0H   SFRSYM    DATA     BIT       ACC_ACC0
      000000D1H   SFRSYM    DATA     BYTE      REF0CN
      0000008EH   SFRSYM    DATA     BYTE      CKCON0
      000000E0H.1 SFRSYM    DATA     BIT       ACC_ACC1
      000000C9H   SFRSYM    DATA     BYTE      REG0CN
      000000DDH   SFRSYM    DATA     BYTE      CRC0IN
      000000A6H   SFRSYM    DATA     BYTE      CKCON1
      000000C8H.2 SFRSYM    DATA     BIT       TMR2CN0_TR2
      000000E0H.2 SFRSYM    DATA     BIT       ACC_ACC2
      000000C6H   SFRSYM    DATA     BYTE      REG1CN
      000000E0H.3 SFRSYM    DATA     BIT       ACC_ACC3
      00000081H   SFRSYM    DATA     BYTE      SP
      0000009DH   SFRSYM    DATA     BYTE      CMP0MD
      000000E0H.4 SFRSYM    DATA     BIT       ACC_ACC4
      000000B1H   SFRSYM    DATA     BYTE      LFO0CN
      000000ABH   SFRSYM    DATA     BYTE      CMP1MD
      000000D8H   SFRSYM    DATA     BIT       PCA0CN0_CCF0
      000000E0H.5 SFRSYM    DATA     BIT       ACC_ACC5
      000000B5H   SFRSYM    DATA     BYTE      USB0CF
      00000098H.2 SFRSYM    DATA     BIT       TMR4CN0_TR4
      000000D8H.1 SFRSYM    DATA     BIT       PCA0CN0_CCF1
      000000E0H.6 SFRSYM    DATA     BIT       ACC_ACC6
LX51 LINKER/LOCATER V4.66.30.0                                                        03/28/2016  20:19:13  PAGE 171


      000000CCH   SFRSYM    DATA     WORD      TMR2
      0000009AH   SFRSYM    DATA     BYTE      SPI0FCN0
      000000D8H.2 SFRSYM    DATA     BIT       PCA0CN0_CCF2
      000000E0H.7 SFRSYM    DATA     BIT       ACC_ACC7
      00000094H   SFRSYM    DATA     WORD      TMR3
      0000009BH   SFRSYM    DATA     BYTE      SPI0FCN1
      000000A4H   SFRSYM    DATA     WORD      TMR4
      00000094H   SFRSYM    DATA     BYTE      SBCON1
      000000C0H.3 SFRSYM    DATA     BIT       SMB0CN0_ACKRQ
      000000FFH   SFRSYM    DATA     BYTE      VDM0CN
      000000F1H   SFRSYM    DATA     BYTE      P0MDIN
      00000098H.4 SFRSYM    DATA     BIT       SCON0_REN
      000000ACH   SFRSYM    DATA     BYTE      SMB0TC
      000000F2H   SFRSYM    DATA     BYTE      P1MDIN
      000000C8H.4 SFRSYM    DATA     BIT       SCON1_REN
      000000F3H   SFRSYM    DATA     BYTE      P2MDIN
      000000C0H.4 SFRSYM    DATA     BIT       SMB0CN0_STO
      000000B6H   SFRSYM    DATA     BYTE      USB0CDCF
      000000F4H   SFRSYM    DATA     BYTE      P3MDIN
      000000B9H   SFRSYM    DATA     BYTE      I2C0STAT
      000000BBH   SFRSYM    DATA     BYTE      I2C0DOUT
      00000096H   SFRSYM    DATA     BYTE      SBRLH1
      000000FEH   SFRSYM    DATA     BYTE      P0MASK
      000000D8H.5 SFRSYM    DATA     BIT       UART1FCN1_TXHOLD
      000000EEH   SFRSYM    DATA     BYTE      P1MASK
      000000FCH   SFRSYM    DATA     BYTE      P2MASK
      000000D0H.3 SFRSYM    DATA     BIT       PSW_RS0
      000000D8H.7 SFRSYM    DATA     BIT       PCA0CN0_CF
      0000009EH   SFRSYM    DATA     BYTE      PCA0CENT
      000000BAH   SFRSYM    DATA     BYTE      I2C0CN0
      000000D2H   SFRSYM    DATA     BYTE      CRC0ST
      000000F8H.4 SFRSYM    DATA     BIT       SPI0CN0_RXOVRN
      000000D0H.4 SFRSYM    DATA     BIT       PSW_RS1
      00000095H   SFRSYM    DATA     BYTE      SBRLL1
      000000C8H.2 SFRSYM    DATA     BIT       SCON1_RBX
      000000C8H   SFRSYM    DATA     BIT       TMR2CN0_T2XCLK0
      000000C8H.1 SFRSYM    DATA     BIT       TMR2CN0_T2XCLK1
      000000C8H.3 SFRSYM    DATA     BIT       SCON1_TBX
      000000E8H.7 SFRSYM    DATA     BIT       ADC0CN0_ADEN
      000000BEH   SFRSYM    DATA     BYTE      USB0CDCN
      00000089H   SFRSYM    DATA     BYTE      TMOD
      00000088H   SFRSYM    DATA     BYTE      TCON
      000000CFH   SFRSYM    DATA     BYTE      CRC0FLIP
      000000D0H   SFRSYM    DATA     BIT       PSW_PARITY
      000000A8H.4 SFRSYM    DATA     BIT       IE_ES0
      0000009FH   SFRSYM    DATA     BYTE      CMP0MX
      00000098H   SFRSYM    DATA     BIT       TMR4CN0_T4XCLK0
      000000A8H.1 SFRSYM    DATA     BIT       IE_ET0
      000000AAH   SFRSYM    DATA     BYTE      CMP1MX
      00000098H.1 SFRSYM    DATA     BIT       TMR4CN0_T4XCLK1
      000000A8H.3 SFRSYM    DATA     BIT       IE_ET1
      000000D4H   SFRSYM    DATA     BYTE      P0SKIP
      000000D8H   SFRSYM    DATA     BIT       UART1FCN1_RIE
      000000A8H.5 SFRSYM    DATA     BIT       IE_ET2
      000000D5H   SFRSYM    DATA     BYTE      P1SKIP
      000000CCH   SFRSYM    DATA     BYTE      P2SKIP
      000000E8H   SFRSYM    DATA     BYTE      ADC0CN0
      000000D8H.4 SFRSYM    DATA     BIT       UART1FCN1_TIE
      000000A8H   SFRSYM    DATA     BIT       IE_EX0
      000000B2H   SFRSYM    DATA     BYTE      ADC0CN1
      000000D8H.6 SFRSYM    DATA     BIT       PCA0CN0_CR
      000000A8H.2 SFRSYM    DATA     BIT       IE_EX1
LX51 LINKER/LOCATER V4.66.30.0                                                        03/28/2016  20:19:13  PAGE 172


      000000C8H.7 SFRSYM    DATA     BIT       SCON1_OVR
      00000098H.7 SFRSYM    DATA     BIT       SCON0_SMODE
      000000B5H   SFRSYM    DATA     BYTE      DEVICEID
      000000A9H   SFRSYM    DATA     BYTE      CLKSEL
      000000F8H   SFRSYM    DATA     BIT       SPI0CN0_SPIEN
      000000F0H   SFRSYM    DATA     BYTE      B
      000000BEH   SFRSYM    DATA     BYTE      ADC0H
      000000E8H.6 SFRSYM    DATA     BIT       ADC0CN0_ADBMEN
      000000CAH   SFRSYM    DATA     WORD      TMR2RL
      000000BDH   SFRSYM    DATA     BYTE      ADC0L
      00000092H   SFRSYM    DATA     WORD      TMR3RL
      000000A2H   SFRSYM    DATA     WORD      TMR4RL
      000000D8H   SFRSYM    DATA     BYTE      PCA0CN0
      000000E0H   SFRSYM    DATA     BYTE      ACC
      000000FBH   SFRSYM    DATA     WORD      PCA0CP0
      000000E9H   SFRSYM    DATA     WORD      PCA0CP1
      000000EBH   SFRSYM    DATA     WORD      PCA0CP2
      000000BCH   SFRSYM    DATA     BYTE      I2C0DIN
      000000CEH   SFRSYM    DATA     BYTE      CRC0CN0
      0000008CH   SFRSYM    DATA     BYTE      TH0
      00000086H   SFRSYM    DATA     BYTE      CRC0CN1
      000000B8H.4 SFRSYM    DATA     BIT       IP_PS0
      000000FAH   SFRSYM    DATA     BYTE      UART1FCT
      0000008DH   SFRSYM    DATA     BYTE      TH1
      000000FAH   SFRSYM    DATA     BYTE      PCA0H
      000000F5H   SFRSYM    DATA     BYTE      I2C0FCT
      000000B8H.1 SFRSYM    DATA     BIT       IP_PT0
      000000B8H.3 SFRSYM    DATA     BIT       IP_PT1
      000000C0H.2 SFRSYM    DATA     BIT       SMB0CN0_ARBLOST
      000000B8H.5 SFRSYM    DATA     BIT       IP_PT2
      0000008AH   SFRSYM    DATA     BYTE      TL0
      00000080H.3 SFRSYM    DATA     BIT       U2F_BUTTON_VAL
      000000D0H.5 SFRSYM    DATA     BIT       PSW_F0
      000000A8H.6 SFRSYM    DATA     BIT       IE_ESPI0
      0000008BH   SFRSYM    DATA     BYTE      TL1
      000000F9H   SFRSYM    DATA     BYTE      PCA0L
      000000C0H   SFRSYM    DATA     BIT       SMB0CN0_SI
      000000D0H.1 SFRSYM    DATA     BIT       PSW_F1
      00000080H   SFRSYM    DATA     BIT       P0_B0
      000000B8H   SFRSYM    DATA     BIT       IP_PX0
      00000090H   SFRSYM    DATA     BIT       P1_B0
      00000080H.1 SFRSYM    DATA     BIT       P0_B1
      000000B8H.2 SFRSYM    DATA     BIT       IP_PX1
      0000009EH   SFRSYM    DATA     BYTE      UART1LIN
      0000009BH   SFRSYM    DATA     BYTE      CMP0CN0
      00000088H.1 SFRSYM    DATA     BIT       TCON_IE0
      000000A0H   SFRSYM    DATA     BIT       P2_B0
      00000090H.1 SFRSYM    DATA     BIT       P1_B1
      00000080H.2 SFRSYM    DATA     BIT       P0_B2
      000000BFH   SFRSYM    DATA     BYTE      CMP1CN0
      00000099H   SFRSYM    DATA     BYTE      CMP0CN1
      00000088H.3 SFRSYM    DATA     BIT       TCON_IE1
      000000B0H   SFRSYM    DATA     BIT       P3_B0
      000000A0H.1 SFRSYM    DATA     BIT       P2_B1
      00000090H.2 SFRSYM    DATA     BIT       P1_B2
      00000080H.3 SFRSYM    DATA     BIT       P0_B3
      000000C0H   SFRSYM    DATA     BYTE      SMB0CN0
      000000ACH   SFRSYM    DATA     BYTE      CMP1CN1
      000000B0H.1 SFRSYM    DATA     BIT       P3_B1
      000000A0H.2 SFRSYM    DATA     BIT       P2_B2
      00000090H.3 SFRSYM    DATA     BIT       P1_B3
      00000080H.4 SFRSYM    DATA     BIT       P0_B4
LX51 LINKER/LOCATER V4.66.30.0                                                        03/28/2016  20:19:13  PAGE 173


      000000A0H.3 SFRSYM    DATA     BIT       P2_B3
      00000090H.4 SFRSYM    DATA     BIT       P1_B4
      00000080H.5 SFRSYM    DATA     BIT       P0_B5
      000000D8H.1 SFRSYM    DATA     BIT       UART1FCN1_RXTO0
      00000090H.5 SFRSYM    DATA     BIT       P1_B5
      00000080H.6 SFRSYM    DATA     BIT       P0_B6
      000000F5H   SFRSYM    DATA     BYTE      EIP1H
      000000D8H.2 SFRSYM    DATA     BIT       UART1FCN1_RXTO1
      00000090H.6 SFRSYM    DATA     BIT       P1_B6
      00000080H.7 SFRSYM    DATA     BIT       P0_B7
      000000C5H   SFRSYM    DATA     BYTE      SMB0RXLN
      000000F6H   SFRSYM    DATA     BYTE      EIP2H
      00000090H.7 SFRSYM    DATA     BIT       P1_B7
      00000083H   SFRSYM    DATA     BYTE      DPH
      000000C4H   SFRSYM    DATA     BYTE      ADC0GTH
      000000C8H.7 SFRSYM    DATA     BIT       TMR2CN0_TF2H
      000000C8H.3 SFRSYM    DATA     BIT       TMR2CN0_T2SPLIT
      000000D0H.6 SFRSYM    DATA     BIT       PSW_AC
      000000F8H   SFRSYM    DATA     BYTE      SPI0CN0
      000000C7H   SFRSYM    DATA     BYTE      HFO0CAL
      00000088H.5 SFRSYM    DATA     BIT       TCON_TF0
      00000098H   SFRSYM    DATA     BIT       SCON0_RI
      000000D6H   SFRSYM    DATA     BYTE      HFO1CAL
      00000082H   SFRSYM    DATA     BYTE      DPL
      00000088H.7 SFRSYM    DATA     BIT       TCON_TF1
      000000C8H   SFRSYM    DATA     BIT       SCON1_RI
      00000099H   SFRSYM    DATA     BYTE      SBUF0
      00000087H   SFRSYM    DATA     BYTE      PCON0
      000000F2H   SFRSYM    DATA     BYTE      IPH
      000000C3H   SFRSYM    DATA     BYTE      ADC0GTL
      00000098H.7 SFRSYM    DATA     BIT       TMR4CN0_TF4H
      00000098H.3 SFRSYM    DATA     BIT       TMR4CN0_T4SPLIT
      000000C8H.6 SFRSYM    DATA     BIT       TMR2CN0_TF2L
      00000098H.1 SFRSYM    DATA     BIT       SCON0_TI
      000000E8H   SFRSYM    DATA     BIT       ADC0CN0_ADCM0
      00000092H   SFRSYM    DATA     BYTE      SBUF1
      0000009AH   SFRSYM    DATA     BYTE      PCON1
      000000C6H   SFRSYM    DATA     BYTE      ADC0LTH
      00000088H   SFRSYM    DATA     BIT       TCON_IT0
      000000C8H.1 SFRSYM    DATA     BIT       SCON1_TI
      000000E8H.1 SFRSYM    DATA     BIT       ADC0CN0_ADCM1
      000000EFH   SFRSYM    DATA     BYTE      RSTSRC
      000000FDH   SFRSYM    DATA     BYTE      P0MAT
      000000DEH   SFRSYM    DATA     BYTE      CRC0DAT
      00000088H.2 SFRSYM    DATA     BIT       TCON_IT1
      000000E8H.2 SFRSYM    DATA     BIT       ADC0CN0_ADCM2
      000000D7H   SFRSYM    DATA     BYTE      SFRSTACK
      00000098H   SFRSYM    DATA     BYTE      SCON0
      000000F6H   SFRSYM    DATA     BYTE      PRTDRV
      000000EDH   SFRSYM    DATA     BYTE      P1MAT
      000000E8H.3 SFRSYM    DATA     BIT       ADC0CN0_ADWINT
      00000095H   SFRSYM    DATA     WORD      SBRL1
      000000B2H   SFRSYM    DATA     BYTE      USB0AEC
      00000093H   SFRSYM    DATA     BYTE      SMOD1
      000000C8H   SFRSYM    DATA     BYTE      SCON1
      000000FBH   SFRSYM    DATA     BYTE      P2MAT
      00000098H.6 SFRSYM    DATA     BIT       TMR4CN0_TF4L
      000000E8H.4 SFRSYM    DATA     BIT       ADC0CN0_ADBUSY
      000000D6H   SFRSYM    DATA     BYTE      SMB0ADM
      000000C5H   SFRSYM    DATA     BYTE      ADC0LTL
      000000F8H.5 SFRSYM    DATA     BIT       SPI0CN0_MODF
      000000B8H.6 SFRSYM    DATA     BIT       IP_PSPI0
LX51 LINKER/LOCATER V4.66.30.0                                                        03/28/2016  20:19:13  PAGE 174


      0000009CH   SFRSYM    DATA     BYTE      PCA0CLR
      000000C8H   SFRSYM    DATA     BYTE      TMR2CN0
      00000091H   SFRSYM    DATA     BYTE      TMR3CN0
      000000FDH   SFRSYM    DATA     BYTE      TMR2CN1
      00000098H   SFRSYM    DATA     BYTE      TMR4CN0
      000000FEH   SFRSYM    DATA     BYTE      TMR3CN1
      000000FFH   SFRSYM    DATA     BYTE      TMR4CN1
      000000D7H   SFRSYM    DATA     BYTE      SMB0ADR
      00000088H.4 SFRSYM    DATA     BIT       TCON_TR0
      000000C8H.4 SFRSYM    DATA     BIT       TMR2CN0_TF2CEN
      00000088H.6 SFRSYM    DATA     BIT       TCON_TR1
      000000C2H   SFRSYM    DATA     BYTE      SMB0DAT
      000000CDH   SFRSYM    DATA     BYTE      TMR2H
      000000A1H   SFRSYM    DATA     BYTE      SPI0CFG
      00000095H   SFRSYM    DATA     BYTE      TMR3H
      000000EFH   SFRSYM    DATA     BYTE      HFOCN
      000000D3H   SFRSYM    DATA     BYTE      CRC0CNT
      000000A5H   SFRSYM    DATA     BYTE      TMR4H
      00000098H.4 SFRSYM    DATA     BIT       TMR4CN0_TF4CEN
      000000EFH   SFRSYM    DATA     BYTE      SMB0FCT
      00000096H   SFRSYM    DATA     BYTE      PCA0POL
      000000CCH   SFRSYM    DATA     BYTE      TMR2L
      000000F8H.7 SFRSYM    DATA     BIT       SPI0CN0_SPIF
      000000AEH   SFRSYM    DATA     BYTE      USB0ADR
      00000094H   SFRSYM    DATA     BYTE      TMR3L
      000000DFH   SFRSYM    DATA     BYTE      ADC0PWR
      000000A8H.7 SFRSYM    DATA     BIT       IE_EA
      000000A4H   SFRSYM    DATA     BYTE      TMR4L
      000000AFH   SFRSYM    DATA     BYTE      USB0DAT
      000000C8H.5 SFRSYM    DATA     BIT       TMR2CN0_TF2LEN
      000000F8H.6 SFRSYM    DATA     BIT       SPI0CN0_WCOL
      00000090H   SFRSYM    DATA     BIT       LED_B
      000000F8H.2 SFRSYM    DATA     BIT       SPI0CN0_NSSMD0
      000000D0H.7 SFRSYM    DATA     BIT       PSW_CY
      0000009DH   SFRSYM    DATA     BYTE      UART1FCN0
      000000A3H   SFRSYM    DATA     BYTE      SPI0DAT
      000000ADH   SFRSYM    DATA     BYTE      I2C0FCN0
      000000F8H.3 SFRSYM    DATA     BIT       SPI0CN0_NSSMD1
      000000BDH   SFRSYM    DATA     WORD      ADC0
      000000D8H   SFRSYM    DATA     BYTE      UART1FCN1
      000000ABH   SFRSYM    DATA     BYTE      I2C0FCN1
      00000098H.5 SFRSYM    DATA     BIT       TMR4CN0_TF4LEN
      000000D0H   SFRSYM    DATA     BYTE      PSW
      000000F7H   SFRSYM    DATA     BYTE      PCA0PWM
      000000F7H   SFRSYM    DATA     BYTE      SPI0FCT
      000000B6H   SFRSYM    DATA     BYTE      REVID
      00000080H.6 SFRSYM    DATA     BIT       LED_G
      000000B7H   SFRSYM    DATA     BYTE      FLKEY
      000000B3H   SFRSYM    DATA     BYTE      ADC0AC
      01003A3CH   SYMBOL    CODE     ---       _init

      01003A3CH   BLOCK     CODE     ---       LVL=0
      00000001H   SYMBOL    DATA     ---       ap
      01003A3CH   LINE      CODE     ---       #20
      01003A3CH   LINE      CODE     ---       #21
      01003A3CH   LINE      CODE     ---       #22
      01003A45H   LINE      CODE     ---       #23
      01003A48H   LINE      CODE     ---       #24
      01003A4BH   LINE      CODE     ---       #25
      01003A4EH   LINE      CODE     ---       #27
      01003A51H   LINE      CODE     ---       #28
      01003A54H   LINE      CODE     ---       #30
LX51 LINKER/LOCATER V4.66.30.0                                                        03/28/2016  20:19:13  PAGE 175


      01003A56H   LINE      CODE     ---       #31
      ---         BLOCKEND  ---      ---       LVL=0

      01003DC7H   BLOCK     CODE     ---       LVL=0
      00000007H   SYMBOL    DATA     BYTE      ec
      01003DC7H   LINE      CODE     ---       #33
      01003DC7H   LINE      CODE     ---       #34
      01003DC7H   LINE      CODE     ---       #35
      01003DC9H   LINE      CODE     ---       #36
      ---         BLOCKEND  ---      ---       LVL=0

      01003D44H   BLOCK     CODE     ---       LVL=0
      00000001H   SYMBOL    DATA     ---       msg
      01003D44H   LINE      CODE     ---       #38
      01003D44H   LINE      CODE     ---       #39
      01003D44H   LINE      CODE     ---       #40
      01003D47H   LINE      CODE     ---       #41
      01003D4DH   LINE      CODE     ---       #42
      ---         BLOCKEND  ---      ---       LVL=0

      01003DCAH   BLOCK     CODE     ---       LVL=0
      01003DCAH   LINE      CODE     ---       #59
      01003DCAH   LINE      CODE     ---       #60
      01003DCAH   LINE      CODE     ---       #62
      01003DCCH   LINE      CODE     ---       #63
      ---         BLOCKEND  ---      ---       LVL=0

      01000EF6H   BLOCK     CODE     ---       LVL=0
      01000EF6H   BLOCK     CODE     NEAR LAB  LVL=1
      00000008H   SYMBOL    DATA     BYTE      i
      00000009H   SYMBOL    DATA     WORD      last_ms
      0000000BH   SYMBOL    DATA     WORD      ms_heart
      0000000DH   SYMBOL    DATA     WORD      ms_wink
      0000000FH   SYMBOL    DATA     BYTE      winks
      0200003EH   SYMBOL    XDATA    BYTE      leds
      0200003FH   SYMBOL    XDATA    WORD      button
      ---         BLOCKEND  ---      ---       LVL=1
      01000EF6H   LINE      CODE     ---       #69
      01000EF6H   LINE      CODE     ---       #71
      01000EF9H   LINE      CODE     ---       #72
      01000EFFH   LINE      CODE     ---       #75
      01000F01H   LINE      CODE     ---       #76
      01000F05H   LINE      CODE     ---       #77
      01000F09H   LINE      CODE     ---       #79
      01000F0CH   LINE      CODE     ---       #80
      01000F15H   LINE      CODE     ---       #83
      01000F17H   LINE      CODE     ---       #86
      01000F19H   LINE      CODE     ---       #88
      01000F22H   LINE      CODE     ---       #94
      01000F22H   LINE      CODE     ---       #96
      01000F4AH   LINE      CODE     ---       #97
      01000F4AH   LINE      CODE     ---       #98
      01000F63H   LINE      CODE     ---       #99
      01000F70H   LINE      CODE     ---       #100
      01000F8AH   LINE      CODE     ---       #101
      01000F8CH   LINE      CODE     ---       #102
      01000F8FH   LINE      CODE     ---       #103
      01000F8FH   LINE      CODE     ---       #106
      01000FA3H   LINE      CODE     ---       #107
      01000FA3H   LINE      CODE     ---       #108
      01000FB9H   LINE      CODE     ---       #110
      01000FB9H   LINE      CODE     ---       #112
LX51 LINKER/LOCATER V4.66.30.0                                                        03/28/2016  20:19:13  PAGE 176


      01000FC6H   LINE      CODE     ---       #113
      01000FC6H   LINE      CODE     ---       #114
      01000FC6H   LINE      CODE     ---       #115
      01000FC6H   LINE      CODE     ---       #116
      01000FC6H   LINE      CODE     ---       #118
      01000FCFH   LINE      CODE     ---       #122
      01000FD5H   LINE      CODE     ---       #123
      01000FD7H   LINE      CODE     ---       #124
      01000FD9H   LINE      CODE     ---       #125
      01000FD9H   LINE      CODE     ---       #126
      01000FDBH   LINE      CODE     ---       #127
      01000FE1H   LINE      CODE     ---       #128
      01000FE4H   LINE      CODE     ---       #129
      01000FE6H   LINE      CODE     ---       #130
      01000FE6H   LINE      CODE     ---       #131
      01000FE8H   LINE      CODE     ---       #132
      01000FEAH   LINE      CODE     ---       #133
      01001012H   LINE      CODE     ---       #134
      01001012H   LINE      CODE     ---       #135
      01001014H   LINE      CODE     ---       #136
      01001016H   LINE      CODE     ---       #137
      01001016H   LINE      CODE     ---       #138
      0100101BH   LINE      CODE     ---       #139
      0100101BH   LINE      CODE     ---       #140
      0100101EH   LINE      CODE     ---       #141
      01001020H   LINE      CODE     ---       #142
      01001020H   LINE      CODE     ---       #143
      01001020H   LINE      CODE     ---       #144
      01001020H   LINE      CODE     ---       #146
      01001027H   LINE      CODE     ---       #147
      01001027H   LINE      CODE     ---       #148
      01001036H   LINE      CODE     ---       #149
      01001039H   LINE      CODE     ---       #150
      01001039H   LINE      CODE     ---       #153
      ---         BLOCKEND  ---      ---       LVL=0

      ---         MODULE    ---      ---       U2F_ATECC
      0200027FH   PUBLIC    XDATA    ---       key_store
      01000C46H   PUBLIC    CODE     ---       __attest
      01000076H   PUBLIC    CODE     ---       u2f_attestation_cert_size
      01003DA6H   PUBLIC    CODE     ---       u2f_get_attestation_cert
      0100282FH   PUBLIC    CODE     ---       u2f_count
      01002D56H   PUBLIC    CODE     ---       _u2f_load_key
      020000A3H   PUBLIC    XDATA    BYTE      ?_u2f_new_keypair?BYTE
      01002508H   PUBLIC    CODE     ---       _u2f_new_keypair
      020000A3H   PUBLIC    XDATA    BYTE      ?_u2f_ecdsa_sign?BYTE
      01001A49H   PUBLIC    CODE     ---       _u2f_ecdsa_sign
      010037FDH   PUBLIC    CODE     ---       u2f_sha256_finish
      01002C91H   PUBLIC    CODE     ---       _u2f_sha256_update
      01003A57H   PUBLIC    CODE     ---       u2f_sha256_start
      01003DD3H   PUBLIC    CODE     ---       u2f_get_user_feedback
      01003DDCH   PUBLIC    CODE     ---       u2f_response_start
      01003DD0H   PUBLIC    CODE     ---       u2f_response_flush
      01003DCDH   PUBLIC    CODE     ---       _u2f_response_writeback
      01001D49H   PUBLIC    CODE     ---       u2f_init
      000000A2H   SFRSYM    DATA     BYTE      SPI0CKR
      00000080H   SFRSYM    DATA     BYTE      P0
      000000C8H.6 SFRSYM    DATA     BIT       SCON1_PERR
      000000D0H.2 SFRSYM    DATA     BIT       PSW_OV
      00000090H   SFRSYM    DATA     BYTE      P1
      000000F8H.1 SFRSYM    DATA     BIT       SPI0CN0_TXNF
      00000097H   SFRSYM    DATA     BYTE      WDTCN
LX51 LINKER/LOCATER V4.66.30.0                                                        03/28/2016  20:19:13  PAGE 177


      000000A0H   SFRSYM    DATA     BYTE      P2
      000000B0H   SFRSYM    DATA     BYTE      P3
      000000BCH   SFRSYM    DATA     BYTE      ADC0CF
      000000C0H.7 SFRSYM    DATA     BIT       SMB0CN0_MASTER
      000000F9H   SFRSYM    DATA     WORD      PCA0
      000000E6H   SFRSYM    DATA     BYTE      EIE1
      000000C0H.1 SFRSYM    DATA     BIT       SMB0CN0_ACK
      000000B3H   SFRSYM    DATA     BYTE      USB0XCN
      000000CEH   SFRSYM    DATA     BYTE      EIE2
      00000080H.7 SFRSYM    DATA     BIT       LED_R
      0000008FH   SFRSYM    DATA     BYTE      PSCTL
      000000E4H   SFRSYM    DATA     BYTE      IT01CF
      000000C0H.6 SFRSYM    DATA     BIT       SMB0CN0_TXMODE
      000000ADH   SFRSYM    DATA     BYTE      DERIVID
      000000A7H   SFRSYM    DATA     BYTE      SFRPAGE
      000000A4H   SFRSYM    DATA     BYTE      P0MDOUT
      00000080H.2 SFRSYM    DATA     BIT       U2F_BUTTON
      000000BFH   SFRSYM    DATA     BYTE      USB0CDSTA
      000000A5H   SFRSYM    DATA     BYTE      P1MDOUT
      000000E8H.5 SFRSYM    DATA     BIT       ADC0CN0_ADINT
      000000CBH   SFRSYM    DATA     BYTE      TMR2RLH
      000000A6H   SFRSYM    DATA     BYTE      P2MDOUT
      000000A8H   SFRSYM    DATA     BYTE      IE
      00000093H   SFRSYM    DATA     BYTE      TMR3RLH
      0000009CH   SFRSYM    DATA     BYTE      P3MDOUT
      000000A3H   SFRSYM    DATA     BYTE      TMR4RLH
      000000F3H   SFRSYM    DATA     BYTE      EIP1
      000000F4H   SFRSYM    DATA     BYTE      EIP2
      00000098H.2 SFRSYM    DATA     BIT       SCON0_RB8
      000000CAH   SFRSYM    DATA     BYTE      TMR2RLL
      000000FCH   SFRSYM    DATA     BYTE      PCA0CPH0
      00000092H   SFRSYM    DATA     BYTE      TMR3RLL
      000000EAH   SFRSYM    DATA     BYTE      PCA0CPH1
      00000098H.3 SFRSYM    DATA     BIT       SCON0_TB8
      000000F0H   SFRSYM    DATA     BIT       B_B0
      00000082H   SFRSYM    DATA     WORD      DP
      000000A2H   SFRSYM    DATA     BYTE      TMR4RLL
      000000ECH   SFRSYM    DATA     BYTE      PCA0CPH2
      000000F0H.1 SFRSYM    DATA     BIT       B_B1
      000000C3H   SFRSYM    DATA     WORD      ADC0GT
      000000BDH   SFRSYM    DATA     BYTE      I2C0SLAD
      000000D8H.3 SFRSYM    DATA     BIT       UART1FCN1_RFRQ
      000000F0H.2 SFRSYM    DATA     BIT       B_B2
      000000CFH   SFRSYM    DATA     BYTE      SFRPGCN
      000000FBH   SFRSYM    DATA     BYTE      PCA0CPL0
      000000F0H.3 SFRSYM    DATA     BIT       B_B3
      000000D9H   SFRSYM    DATA     BYTE      PCA0MD
      000000DAH   SFRSYM    DATA     BYTE      PCA0CPM0
      000000E9H   SFRSYM    DATA     BYTE      PCA0CPL1
      000000D8H.7 SFRSYM    DATA     BIT       UART1FCN1_TFRQ
      000000F0H.4 SFRSYM    DATA     BIT       B_B4
      000000DBH   SFRSYM    DATA     BYTE      PCA0CPM1
      000000EBH   SFRSYM    DATA     BYTE      PCA0CPL2
      000000F0H.5 SFRSYM    DATA     BIT       B_B5
      000000DCH   SFRSYM    DATA     BYTE      PCA0CPM2
      000000B8H   SFRSYM    DATA     BYTE      IP
      000000B9H   SFRSYM    DATA     BYTE      ADC0TK
      000000F0H.6 SFRSYM    DATA     BIT       B_B6
      000000C5H   SFRSYM    DATA     WORD      ADC0LT
      000000D8H.6 SFRSYM    DATA     BIT       UART1FCN1_TXNF
      00000098H.5 SFRSYM    DATA     BIT       SCON0_MCE
      000000F0H.7 SFRSYM    DATA     BIT       B_B7
LX51 LINKER/LOCATER V4.66.30.0                                                        03/28/2016  20:19:13  PAGE 178


      000000C3H   SFRSYM    DATA     BYTE      SMB0FCN0
      000000E1H   SFRSYM    DATA     BYTE      XBR0
      000000C4H   SFRSYM    DATA     BYTE      SMB0FCN1
      000000C1H   SFRSYM    DATA     BYTE      SMB0CF
      000000E2H   SFRSYM    DATA     BYTE      XBR1
      000000C1H   SFRSYM    DATA     BYTE      PFE0CN
      000000E7H   SFRSYM    DATA     BYTE      EMI0CN
      000000C0H.5 SFRSYM    DATA     BIT       SMB0CN0_STA
      000000E3H   SFRSYM    DATA     BYTE      XBR2
      000000BBH   SFRSYM    DATA     BYTE      ADC0MX
      000000E0H   SFRSYM    DATA     BIT       ACC_ACC0
      000000D1H   SFRSYM    DATA     BYTE      REF0CN
      0000008EH   SFRSYM    DATA     BYTE      CKCON0
      000000E0H.1 SFRSYM    DATA     BIT       ACC_ACC1
      000000C9H   SFRSYM    DATA     BYTE      REG0CN
      000000DDH   SFRSYM    DATA     BYTE      CRC0IN
      000000A6H   SFRSYM    DATA     BYTE      CKCON1
      000000C8H.2 SFRSYM    DATA     BIT       TMR2CN0_TR2
      000000E0H.2 SFRSYM    DATA     BIT       ACC_ACC2
      000000C6H   SFRSYM    DATA     BYTE      REG1CN
      000000E0H.3 SFRSYM    DATA     BIT       ACC_ACC3
      00000081H   SFRSYM    DATA     BYTE      SP
      0000009DH   SFRSYM    DATA     BYTE      CMP0MD
      000000E0H.4 SFRSYM    DATA     BIT       ACC_ACC4
      000000B1H   SFRSYM    DATA     BYTE      LFO0CN
      000000ABH   SFRSYM    DATA     BYTE      CMP1MD
      000000D8H   SFRSYM    DATA     BIT       PCA0CN0_CCF0
      000000E0H.5 SFRSYM    DATA     BIT       ACC_ACC5
      000000B5H   SFRSYM    DATA     BYTE      USB0CF
      00000098H.2 SFRSYM    DATA     BIT       TMR4CN0_TR4
      000000D8H.1 SFRSYM    DATA     BIT       PCA0CN0_CCF1
      000000E0H.6 SFRSYM    DATA     BIT       ACC_ACC6
      000000CCH   SFRSYM    DATA     WORD      TMR2
      0000009AH   SFRSYM    DATA     BYTE      SPI0FCN0
      000000D8H.2 SFRSYM    DATA     BIT       PCA0CN0_CCF2
      000000E0H.7 SFRSYM    DATA     BIT       ACC_ACC7
      00000094H   SFRSYM    DATA     WORD      TMR3
      0000009BH   SFRSYM    DATA     BYTE      SPI0FCN1
      000000A4H   SFRSYM    DATA     WORD      TMR4
      00000094H   SFRSYM    DATA     BYTE      SBCON1
      000000C0H.3 SFRSYM    DATA     BIT       SMB0CN0_ACKRQ
      000000FFH   SFRSYM    DATA     BYTE      VDM0CN
      000000F1H   SFRSYM    DATA     BYTE      P0MDIN
      00000098H.4 SFRSYM    DATA     BIT       SCON0_REN
      000000ACH   SFRSYM    DATA     BYTE      SMB0TC
      000000F2H   SFRSYM    DATA     BYTE      P1MDIN
      000000C8H.4 SFRSYM    DATA     BIT       SCON1_REN
      000000F3H   SFRSYM    DATA     BYTE      P2MDIN
      000000C0H.4 SFRSYM    DATA     BIT       SMB0CN0_STO
      000000B6H   SFRSYM    DATA     BYTE      USB0CDCF
      000000F4H   SFRSYM    DATA     BYTE      P3MDIN
      000000B9H   SFRSYM    DATA     BYTE      I2C0STAT
      000000BBH   SFRSYM    DATA     BYTE      I2C0DOUT
      00000096H   SFRSYM    DATA     BYTE      SBRLH1
      000000FEH   SFRSYM    DATA     BYTE      P0MASK
      000000D8H.5 SFRSYM    DATA     BIT       UART1FCN1_TXHOLD
      000000EEH   SFRSYM    DATA     BYTE      P1MASK
      000000FCH   SFRSYM    DATA     BYTE      P2MASK
      000000D0H.3 SFRSYM    DATA     BIT       PSW_RS0
      000000D8H.7 SFRSYM    DATA     BIT       PCA0CN0_CF
      0000009EH   SFRSYM    DATA     BYTE      PCA0CENT
      000000BAH   SFRSYM    DATA     BYTE      I2C0CN0
LX51 LINKER/LOCATER V4.66.30.0                                                        03/28/2016  20:19:13  PAGE 179


      000000D2H   SFRSYM    DATA     BYTE      CRC0ST
      000000F8H.4 SFRSYM    DATA     BIT       SPI0CN0_RXOVRN
      000000D0H.4 SFRSYM    DATA     BIT       PSW_RS1
      00000095H   SFRSYM    DATA     BYTE      SBRLL1
      000000C8H.2 SFRSYM    DATA     BIT       SCON1_RBX
      000000C8H   SFRSYM    DATA     BIT       TMR2CN0_T2XCLK0
      000000C8H.1 SFRSYM    DATA     BIT       TMR2CN0_T2XCLK1
      000000C8H.3 SFRSYM    DATA     BIT       SCON1_TBX
      000000E8H.7 SFRSYM    DATA     BIT       ADC0CN0_ADEN
      000000BEH   SFRSYM    DATA     BYTE      USB0CDCN
      00000089H   SFRSYM    DATA     BYTE      TMOD
      00000088H   SFRSYM    DATA     BYTE      TCON
      000000CFH   SFRSYM    DATA     BYTE      CRC0FLIP
      000000D0H   SFRSYM    DATA     BIT       PSW_PARITY
      000000A8H.4 SFRSYM    DATA     BIT       IE_ES0
      0000009FH   SFRSYM    DATA     BYTE      CMP0MX
      00000098H   SFRSYM    DATA     BIT       TMR4CN0_T4XCLK0
      000000A8H.1 SFRSYM    DATA     BIT       IE_ET0
      000000AAH   SFRSYM    DATA     BYTE      CMP1MX
      00000098H.1 SFRSYM    DATA     BIT       TMR4CN0_T4XCLK1
      000000A8H.3 SFRSYM    DATA     BIT       IE_ET1
      000000D4H   SFRSYM    DATA     BYTE      P0SKIP
      000000D8H   SFRSYM    DATA     BIT       UART1FCN1_RIE
      000000A8H.5 SFRSYM    DATA     BIT       IE_ET2
      000000D5H   SFRSYM    DATA     BYTE      P1SKIP
      000000CCH   SFRSYM    DATA     BYTE      P2SKIP
      000000E8H   SFRSYM    DATA     BYTE      ADC0CN0
      000000D8H.4 SFRSYM    DATA     BIT       UART1FCN1_TIE
      000000A8H   SFRSYM    DATA     BIT       IE_EX0
      000000B2H   SFRSYM    DATA     BYTE      ADC0CN1
      000000D8H.6 SFRSYM    DATA     BIT       PCA0CN0_CR
      000000A8H.2 SFRSYM    DATA     BIT       IE_EX1
      000000C8H.7 SFRSYM    DATA     BIT       SCON1_OVR
      00000098H.7 SFRSYM    DATA     BIT       SCON0_SMODE
      000000B5H   SFRSYM    DATA     BYTE      DEVICEID
      000000A9H   SFRSYM    DATA     BYTE      CLKSEL
      000000F8H   SFRSYM    DATA     BIT       SPI0CN0_SPIEN
      000000F0H   SFRSYM    DATA     BYTE      B
      000000BEH   SFRSYM    DATA     BYTE      ADC0H
      000000E8H.6 SFRSYM    DATA     BIT       ADC0CN0_ADBMEN
      000000CAH   SFRSYM    DATA     WORD      TMR2RL
      000000BDH   SFRSYM    DATA     BYTE      ADC0L
      00000092H   SFRSYM    DATA     WORD      TMR3RL
      000000A2H   SFRSYM    DATA     WORD      TMR4RL
      000000D8H   SFRSYM    DATA     BYTE      PCA0CN0
      000000E0H   SFRSYM    DATA     BYTE      ACC
      000000FBH   SFRSYM    DATA     WORD      PCA0CP0
      000000E9H   SFRSYM    DATA     WORD      PCA0CP1
      000000EBH   SFRSYM    DATA     WORD      PCA0CP2
      000000BCH   SFRSYM    DATA     BYTE      I2C0DIN
      000000CEH   SFRSYM    DATA     BYTE      CRC0CN0
      0000008CH   SFRSYM    DATA     BYTE      TH0
      00000086H   SFRSYM    DATA     BYTE      CRC0CN1
      000000B8H.4 SFRSYM    DATA     BIT       IP_PS0
      000000FAH   SFRSYM    DATA     BYTE      UART1FCT
      0000008DH   SFRSYM    DATA     BYTE      TH1
      000000FAH   SFRSYM    DATA     BYTE      PCA0H
      000000F5H   SFRSYM    DATA     BYTE      I2C0FCT
      000000B8H.1 SFRSYM    DATA     BIT       IP_PT0
      000000B8H.3 SFRSYM    DATA     BIT       IP_PT1
      000000C0H.2 SFRSYM    DATA     BIT       SMB0CN0_ARBLOST
      000000B8H.5 SFRSYM    DATA     BIT       IP_PT2
LX51 LINKER/LOCATER V4.66.30.0                                                        03/28/2016  20:19:13  PAGE 180


      0000008AH   SFRSYM    DATA     BYTE      TL0
      00000080H.3 SFRSYM    DATA     BIT       U2F_BUTTON_VAL
      000000D0H.5 SFRSYM    DATA     BIT       PSW_F0
      000000A8H.6 SFRSYM    DATA     BIT       IE_ESPI0
      0000008BH   SFRSYM    DATA     BYTE      TL1
      000000F9H   SFRSYM    DATA     BYTE      PCA0L
      000000C0H   SFRSYM    DATA     BIT       SMB0CN0_SI
      000000D0H.1 SFRSYM    DATA     BIT       PSW_F1
      00000080H   SFRSYM    DATA     BIT       P0_B0
      000000B8H   SFRSYM    DATA     BIT       IP_PX0
      00000090H   SFRSYM    DATA     BIT       P1_B0
      00000080H.1 SFRSYM    DATA     BIT       P0_B1
      000000B8H.2 SFRSYM    DATA     BIT       IP_PX1
      0000009EH   SFRSYM    DATA     BYTE      UART1LIN
      0000009BH   SFRSYM    DATA     BYTE      CMP0CN0
      00000088H.1 SFRSYM    DATA     BIT       TCON_IE0
      000000A0H   SFRSYM    DATA     BIT       P2_B0
      00000090H.1 SFRSYM    DATA     BIT       P1_B1
      00000080H.2 SFRSYM    DATA     BIT       P0_B2
      000000BFH   SFRSYM    DATA     BYTE      CMP1CN0
      00000099H   SFRSYM    DATA     BYTE      CMP0CN1
      00000088H.3 SFRSYM    DATA     BIT       TCON_IE1
      000000B0H   SFRSYM    DATA     BIT       P3_B0
      000000A0H.1 SFRSYM    DATA     BIT       P2_B1
      00000090H.2 SFRSYM    DATA     BIT       P1_B2
      00000080H.3 SFRSYM    DATA     BIT       P0_B3
      000000C0H   SFRSYM    DATA     BYTE      SMB0CN0
      000000ACH   SFRSYM    DATA     BYTE      CMP1CN1
      000000B0H.1 SFRSYM    DATA     BIT       P3_B1
      000000A0H.2 SFRSYM    DATA     BIT       P2_B2
      00000090H.3 SFRSYM    DATA     BIT       P1_B3
      00000080H.4 SFRSYM    DATA     BIT       P0_B4
      000000A0H.3 SFRSYM    DATA     BIT       P2_B3
      00000090H.4 SFRSYM    DATA     BIT       P1_B4
      00000080H.5 SFRSYM    DATA     BIT       P0_B5
      000000D8H.1 SFRSYM    DATA     BIT       UART1FCN1_RXTO0
      00000090H.5 SFRSYM    DATA     BIT       P1_B5
      00000080H.6 SFRSYM    DATA     BIT       P0_B6
      000000F5H   SFRSYM    DATA     BYTE      EIP1H
      000000D8H.2 SFRSYM    DATA     BIT       UART1FCN1_RXTO1
      00000090H.6 SFRSYM    DATA     BIT       P1_B6
      00000080H.7 SFRSYM    DATA     BIT       P0_B7
      000000C5H   SFRSYM    DATA     BYTE      SMB0RXLN
      000000F6H   SFRSYM    DATA     BYTE      EIP2H
      00000090H.7 SFRSYM    DATA     BIT       P1_B7
      00000083H   SFRSYM    DATA     BYTE      DPH
      000000C4H   SFRSYM    DATA     BYTE      ADC0GTH
      000000C8H.7 SFRSYM    DATA     BIT       TMR2CN0_TF2H
      000000C8H.3 SFRSYM    DATA     BIT       TMR2CN0_T2SPLIT
      000000D0H.6 SFRSYM    DATA     BIT       PSW_AC
      000000F8H   SFRSYM    DATA     BYTE      SPI0CN0
      000000C7H   SFRSYM    DATA     BYTE      HFO0CAL
      00000088H.5 SFRSYM    DATA     BIT       TCON_TF0
      00000098H   SFRSYM    DATA     BIT       SCON0_RI
      000000D6H   SFRSYM    DATA     BYTE      HFO1CAL
      00000082H   SFRSYM    DATA     BYTE      DPL
      00000088H.7 SFRSYM    DATA     BIT       TCON_TF1
      000000C8H   SFRSYM    DATA     BIT       SCON1_RI
      00000099H   SFRSYM    DATA     BYTE      SBUF0
      00000087H   SFRSYM    DATA     BYTE      PCON0
      000000F2H   SFRSYM    DATA     BYTE      IPH
      000000C3H   SFRSYM    DATA     BYTE      ADC0GTL
LX51 LINKER/LOCATER V4.66.30.0                                                        03/28/2016  20:19:13  PAGE 181


      00000098H.7 SFRSYM    DATA     BIT       TMR4CN0_TF4H
      00000098H.3 SFRSYM    DATA     BIT       TMR4CN0_T4SPLIT
      000000C8H.6 SFRSYM    DATA     BIT       TMR2CN0_TF2L
      00000098H.1 SFRSYM    DATA     BIT       SCON0_TI
      000000E8H   SFRSYM    DATA     BIT       ADC0CN0_ADCM0
      00000092H   SFRSYM    DATA     BYTE      SBUF1
      0000009AH   SFRSYM    DATA     BYTE      PCON1
      000000C6H   SFRSYM    DATA     BYTE      ADC0LTH
      00000088H   SFRSYM    DATA     BIT       TCON_IT0
      000000C8H.1 SFRSYM    DATA     BIT       SCON1_TI
      000000E8H.1 SFRSYM    DATA     BIT       ADC0CN0_ADCM1
      000000EFH   SFRSYM    DATA     BYTE      RSTSRC
      000000FDH   SFRSYM    DATA     BYTE      P0MAT
      000000DEH   SFRSYM    DATA     BYTE      CRC0DAT
      00000088H.2 SFRSYM    DATA     BIT       TCON_IT1
      000000E8H.2 SFRSYM    DATA     BIT       ADC0CN0_ADCM2
      000000D7H   SFRSYM    DATA     BYTE      SFRSTACK
      00000098H   SFRSYM    DATA     BYTE      SCON0
      000000F6H   SFRSYM    DATA     BYTE      PRTDRV
      000000EDH   SFRSYM    DATA     BYTE      P1MAT
      000000E8H.3 SFRSYM    DATA     BIT       ADC0CN0_ADWINT
      00000095H   SFRSYM    DATA     WORD      SBRL1
      000000B2H   SFRSYM    DATA     BYTE      USB0AEC
      00000093H   SFRSYM    DATA     BYTE      SMOD1
      000000C8H   SFRSYM    DATA     BYTE      SCON1
      000000FBH   SFRSYM    DATA     BYTE      P2MAT
      00000098H.6 SFRSYM    DATA     BIT       TMR4CN0_TF4L
      000000E8H.4 SFRSYM    DATA     BIT       ADC0CN0_ADBUSY
      000000D6H   SFRSYM    DATA     BYTE      SMB0ADM
      000000C5H   SFRSYM    DATA     BYTE      ADC0LTL
      000000F8H.5 SFRSYM    DATA     BIT       SPI0CN0_MODF
      000000B8H.6 SFRSYM    DATA     BIT       IP_PSPI0
      0000009CH   SFRSYM    DATA     BYTE      PCA0CLR
      000000C8H   SFRSYM    DATA     BYTE      TMR2CN0
      00000091H   SFRSYM    DATA     BYTE      TMR3CN0
      000000FDH   SFRSYM    DATA     BYTE      TMR2CN1
      00000098H   SFRSYM    DATA     BYTE      TMR4CN0
      000000FEH   SFRSYM    DATA     BYTE      TMR3CN1
      000000FFH   SFRSYM    DATA     BYTE      TMR4CN1
      000000D7H   SFRSYM    DATA     BYTE      SMB0ADR
      00000088H.4 SFRSYM    DATA     BIT       TCON_TR0
      000000C8H.4 SFRSYM    DATA     BIT       TMR2CN0_TF2CEN
      00000088H.6 SFRSYM    DATA     BIT       TCON_TR1
      000000C2H   SFRSYM    DATA     BYTE      SMB0DAT
      000000CDH   SFRSYM    DATA     BYTE      TMR2H
      000000A1H   SFRSYM    DATA     BYTE      SPI0CFG
      00000095H   SFRSYM    DATA     BYTE      TMR3H
      000000EFH   SFRSYM    DATA     BYTE      HFOCN
      000000D3H   SFRSYM    DATA     BYTE      CRC0CNT
      000000A5H   SFRSYM    DATA     BYTE      TMR4H
      00000098H.4 SFRSYM    DATA     BIT       TMR4CN0_TF4CEN
      000000EFH   SFRSYM    DATA     BYTE      SMB0FCT
      00000096H   SFRSYM    DATA     BYTE      PCA0POL
      000000CCH   SFRSYM    DATA     BYTE      TMR2L
      000000F8H.7 SFRSYM    DATA     BIT       SPI0CN0_SPIF
      000000AEH   SFRSYM    DATA     BYTE      USB0ADR
      00000094H   SFRSYM    DATA     BYTE      TMR3L
      000000DFH   SFRSYM    DATA     BYTE      ADC0PWR
      000000A8H.7 SFRSYM    DATA     BIT       IE_EA
      000000A4H   SFRSYM    DATA     BYTE      TMR4L
      000000AFH   SFRSYM    DATA     BYTE      USB0DAT
      000000C8H.5 SFRSYM    DATA     BIT       TMR2CN0_TF2LEN
LX51 LINKER/LOCATER V4.66.30.0                                                        03/28/2016  20:19:13  PAGE 182


      000000F8H.6 SFRSYM    DATA     BIT       SPI0CN0_WCOL
      00000090H   SFRSYM    DATA     BIT       LED_B
      000000F8H.2 SFRSYM    DATA     BIT       SPI0CN0_NSSMD0
      000000D0H.7 SFRSYM    DATA     BIT       PSW_CY
      0000009DH   SFRSYM    DATA     BYTE      UART1FCN0
      000000A3H   SFRSYM    DATA     BYTE      SPI0DAT
      000000ADH   SFRSYM    DATA     BYTE      I2C0FCN0
      000000F8H.3 SFRSYM    DATA     BIT       SPI0CN0_NSSMD1
      000000BDH   SFRSYM    DATA     WORD      ADC0
      000000D8H   SFRSYM    DATA     BYTE      UART1FCN1
      000000ABH   SFRSYM    DATA     BYTE      I2C0FCN1
      00000098H.5 SFRSYM    DATA     BIT       TMR4CN0_TF4LEN
      000000D0H   SFRSYM    DATA     BYTE      PSW
      000000F7H   SFRSYM    DATA     BYTE      PCA0PWM
      000000F7H   SFRSYM    DATA     BYTE      SPI0FCT
      000000B6H   SFRSYM    DATA     BYTE      REVID
      00000080H.6 SFRSYM    DATA     BIT       LED_G
      000000B7H   SFRSYM    DATA     BYTE      FLKEY
      000000B3H   SFRSYM    DATA     BYTE      ADC0AC
      02000236H   SYMBOL    XDATA    ---       resbuf
      02000239H   SYMBOL    XDATA    BYTE      resseq
      0200023AH   SYMBOL    XDATA    ---       res_digest
      0200023EH   SYMBOL    XDATA    BYTE      shaoffset
      0200023FH   SYMBOL    XDATA    ---       res
      01003701H   SYMBOL    CODE     ---       flush_key_store
      02000283H   SYMBOL    XDATA    ---       shabuf

      01002B5DH   BLOCK     CODE     ---       LVL=0
      ---         BLOCKEND  ---      ---       LVL=0

      01003701H   BLOCK     CODE     ---       LVL=0
      01003701H   LINE      CODE     ---       #42
      01003701H   LINE      CODE     ---       #43
      01003701H   LINE      CODE     ---       #44
      01003718H   LINE      CODE     ---       #45
      ---         BLOCKEND  ---      ---       LVL=0

      01001D49H   BLOCK     CODE     ---       LVL=0
      01001D49H   BLOCK     CODE     NEAR LAB  LVL=1
      02000041H   SYMBOL    XDATA    BYTE      i
      02000042H   SYMBOL    XDATA    BYTE      j
      02000043H   SYMBOL    XDATA    ---       res
      ---         BLOCKEND  ---      ---       LVL=1
      01001D49H   LINE      CODE     ---       #48
      01001D49H   LINE      CODE     ---       #49
      01001D49H   LINE      CODE     ---       #53
      01001D59H   LINE      CODE     ---       #56
      01001D64H   LINE      CODE     ---       #57
      01001D64H   LINE      CODE     ---       #58
      01001D6DH   LINE      CODE     ---       #59
      01001D73H   LINE      CODE     ---       #60
      01001D78H   LINE      CODE     ---       #61
      01001D7AH   LINE      CODE     ---       #62
      01001D7DH   LINE      CODE     ---       #64
      01001D82H   LINE      CODE     ---       #65
      01001D82H   LINE      CODE     ---       #67
      01001D97H   LINE      CODE     ---       #70
      01001DD0H   LINE      CODE     ---       #72
      01001DF3H   LINE      CODE     ---       #73
      01001DFFH   LINE      CODE     ---       #75
      01001DFFH   LINE      CODE     ---       #76
      ---         BLOCKEND  ---      ---       LVL=0
LX51 LINKER/LOCATER V4.66.30.0                                                        03/28/2016  20:19:13  PAGE 183



      01003DCDH   BLOCK     CODE     ---       LVL=0
      00000001H   SYMBOL    DATA     ---       buf
      00000004H   SYMBOL    DATA     WORD      len
      01003DCDH   LINE      CODE     ---       #78
      01003DCDH   LINE      CODE     ---       #79
      01003DCDH   LINE      CODE     ---       #80
      ---         BLOCKEND  ---      ---       LVL=0

      01003DD0H   BLOCK     CODE     ---       LVL=0
      01003DD0H   LINE      CODE     ---       #83
      01003DD0H   LINE      CODE     ---       #84
      01003DD0H   LINE      CODE     ---       #85
      ---         BLOCKEND  ---      ---       LVL=0

      01003DDCH   BLOCK     CODE     ---       LVL=0
      01003DDCH   LINE      CODE     ---       #88
      01003DDCH   LINE      CODE     ---       #89
      01003DDCH   LINE      CODE     ---       #90
      ---         BLOCKEND  ---      ---       LVL=0

      01003DD3H   BLOCK     CODE     ---       LVL=0
      01003DD3H   LINE      CODE     ---       #92
      01003DD3H   LINE      CODE     ---       #93
      01003DD3H   LINE      CODE     ---       #94
      01003DD5H   LINE      CODE     ---       #95
      ---         BLOCKEND  ---      ---       LVL=0

      01003A57H   BLOCK     CODE     ---       LVL=0
      01003A57H   LINE      CODE     ---       #101
      01003A57H   LINE      CODE     ---       #102
      01003A57H   LINE      CODE     ---       #103
      01003A5CH   LINE      CODE     ---       #106
      ---         BLOCKEND  ---      ---       LVL=0

      01002C91H   BLOCK     CODE     ---       LVL=0
      020000A3H   SYMBOL    XDATA    ---       buf
      020000A6H   SYMBOL    XDATA    BYTE      len
      01002C9CH   BLOCK     CODE     NEAR LAB  LVL=1
      020000A7H   SYMBOL    XDATA    BYTE      i
      ---         BLOCKEND  ---      ---       LVL=1
      01002C91H   LINE      CODE     ---       #110
      01002C9CH   LINE      CODE     ---       #111
      01002C9CH   LINE      CODE     ---       #112
      01002C9FH   LINE      CODE     ---       #113
      01002CA9H   LINE      CODE     ---       #114
      01002CA9H   LINE      CODE     ---       #115
      01002CCAH   LINE      CODE     ---       #116
      01002CD1H   LINE      CODE     ---       #117
      01002CD1H   LINE      CODE     ---       #120
      01002CECH   LINE      CODE     ---       #121
      01002CF1H   LINE      CODE     ---       #122
      01002CF1H   LINE      CODE     ---       #123
      01002CF3H   LINE      CODE     ---       #124
      ---         BLOCKEND  ---      ---       LVL=0

      010037FDH   BLOCK     CODE     ---       LVL=0
      010037FDH   LINE      CODE     ---       #127
      010037FDH   LINE      CODE     ---       #128
      010037FDH   LINE      CODE     ---       #129
      ---         BLOCKEND  ---      ---       LVL=0

LX51 LINKER/LOCATER V4.66.30.0                                                        03/28/2016  20:19:13  PAGE 184


      01001A49H   BLOCK     CODE     ---       LVL=0
      020000A3H   SYMBOL    XDATA    ---       dest
      020000A6H   SYMBOL    XDATA    ---       handle
      01001A4FH   BLOCK     CODE     NEAR LAB  LVL=1
      020000A9H   SYMBOL    XDATA    ---       res
      020000ADH   SYMBOL    XDATA    ---       k
      020000B1H   SYMBOL    XDATA    WORD      keyslot
      ---         BLOCKEND  ---      ---       LVL=1
      01001A49H   LINE      CODE     ---       #135
      01001A4FH   LINE      CODE     ---       #136
      01001A4FH   LINE      CODE     ---       #139
      01001A5CH   LINE      CODE     ---       #140
      01001A64H   LINE      CODE     ---       #141
      01001A64H   LINE      CODE     ---       #142
      01001A67H   LINE      CODE     ---       #143
      01001A67H   LINE      CODE     ---       #144
      01001A74H   LINE      CODE     ---       #145
      01001A74H   LINE      CODE     ---       #146
      01001A79H   LINE      CODE     ---       #147
      01001A7BH   LINE      CODE     ---       #149
      01001A7BH   LINE      CODE     ---       #150
      01001A82H   LINE      CODE     ---       #151
      01001A82H   LINE      CODE     ---       #154
      01001A9DH   LINE      CODE     ---       #157
      01001AAAH   LINE      CODE     ---       #158
      01001AAAH   LINE      CODE     ---       #159
      01001AC7H   LINE      CODE     ---       #165
      01001AFBH   LINE      CODE     ---       #167
      01001AFBH   LINE      CODE     ---       #168
      01001AFEH   LINE      CODE     ---       #169
      01001AFEH   LINE      CODE     ---       #170
      01001AFEH   LINE      CODE     ---       #172
      01001B0AH   LINE      CODE     ---       #174
      01001B0CH   LINE      CODE     ---       #175
      ---         BLOCKEND  ---      ---       LVL=0

      01002508H   BLOCK     CODE     ---       LVL=0
      020000A3H   SYMBOL    XDATA    ---       handle
      020000A6H   SYMBOL    XDATA    ---       pubkey
      0100250EH   BLOCK     CODE     NEAR LAB  LVL=1
      020000A9H   SYMBOL    XDATA    ---       res
      020000ADH   SYMBOL    XDATA    ---       k
      020000B1H   SYMBOL    XDATA    BYTE      keyslot
      ---         BLOCKEND  ---      ---       LVL=1
      01002508H   LINE      CODE     ---       #178
      0100250EH   LINE      CODE     ---       #179
      0100250EH   LINE      CODE     ---       #182
      01002516H   LINE      CODE     ---       #183
      0100251BH   LINE      CODE     ---       #184
      0100251BH   LINE      CODE     ---       #185
      0100251EH   LINE      CODE     ---       #186
      0100251EH   LINE      CODE     ---       #189
      01002542H   LINE      CODE     ---       #192
      0100254EH   LINE      CODE     ---       #194
      0100255CH   LINE      CODE     ---       #195
      0100256AH   LINE      CODE     ---       #196
      0100256AH   LINE      CODE     ---       #198
      0100256FH   LINE      CODE     ---       #199
      01002574H   LINE      CODE     ---       #200
      01002574H   LINE      CODE     ---       #201
      0100258DH   LINE      CODE     ---       #202
      01002593H   LINE      CODE     ---       #203
LX51 LINKER/LOCATER V4.66.30.0                                                        03/28/2016  20:19:13  PAGE 185


      01002596H   LINE      CODE     ---       #205
      01002598H   LINE      CODE     ---       #206
      ---         BLOCKEND  ---      ---       LVL=0

      01002D56H   BLOCK     CODE     ---       LVL=0
      02000061H   SYMBOL    XDATA    ---       handle
      02000064H   SYMBOL    XDATA    BYTE      len
      01002D61H   BLOCK     CODE     NEAR LAB  LVL=1
      02000065H   SYMBOL    XDATA    ---       k
      00000007H   SYMBOL    DATA     BYTE      keyslot
      ---         BLOCKEND  ---      ---       LVL=1
      01002D56H   LINE      CODE     ---       #208
      01002D61H   LINE      CODE     ---       #209
      01002D61H   LINE      CODE     ---       #211
      01002D66H   LINE      CODE     ---       #212
      01002D6BH   LINE      CODE     ---       #213
      01002D6BH   LINE      CODE     ---       #214
      01002D6EH   LINE      CODE     ---       #215
      01002D6EH   LINE      CODE     ---       #216
      01002D79H   LINE      CODE     ---       #222
      01002DB0H   LINE      CODE     ---       #224
      01002DB0H   LINE      CODE     ---       #225
      01002DB3H   LINE      CODE     ---       #226
      01002DB3H   LINE      CODE     ---       #227
      01002DB5H   LINE      CODE     ---       #228
      ---         BLOCKEND  ---      ---       LVL=0

      0100282FH   BLOCK     CODE     ---       LVL=0
      0100282FH   BLOCK     CODE     NEAR LAB  LVL=1
      02000061H   SYMBOL    XDATA    ---       res
      ---         BLOCKEND  ---      ---       LVL=1
      0100282FH   LINE      CODE     ---       #230
      0100282FH   LINE      CODE     ---       #231
      0100282FH   LINE      CODE     ---       #234
      01002845H   LINE      CODE     ---       #236
      010028A8H   LINE      CODE     ---       #237
      ---         BLOCKEND  ---      ---       LVL=0

      01003DA6H   BLOCK     CODE     ---       LVL=0
      01003DA6H   LINE      CODE     ---       #262
      01003DA6H   LINE      CODE     ---       #263
      01003DA6H   LINE      CODE     ---       #264
      01003DACH   LINE      CODE     ---       #265
      ---         BLOCKEND  ---      ---       LVL=0

      01000076H   BLOCK     CODE     ---       LVL=0
      01000076H   LINE      CODE     ---       #268
      01000076H   LINE      CODE     ---       #269
      01000076H   LINE      CODE     ---       #270
      0100007AH   LINE      CODE     ---       #271
      ---         BLOCKEND  ---      ---       LVL=0
      00000006H   SYMBOL    DATA     WORD      len

      ---         MODULE    ---      ---       ?C_INIT
      010025E0H   PUBLIC    CODE     ---       ?C_START

      ---         MODULE    ---      ---       ?C?COPY
      0100014EH   PUBLIC    CODE     ---       ?C?COPY

      ---         MODULE    ---      ---       ?C?CLDPTR
      01000174H   PUBLIC    CODE     ---       ?C?CLDPTR

LX51 LINKER/LOCATER V4.66.30.0                                                        03/28/2016  20:19:13  PAGE 186


      ---         MODULE    ---      ---       ?C?CLDOPTR
      0100018DH   PUBLIC    CODE     ---       ?C?CLDOPTR

      ---         MODULE    ---      ---       ?C?CSTPTR
      010001BAH   PUBLIC    CODE     ---       ?C?CSTPTR

      ---         MODULE    ---      ---       ?C?CSTOPTR
      010001CCH   PUBLIC    CODE     ---       ?C?CSTOPTR

      ---         MODULE    ---      ---       ?C?IILDX
      010001EEH   PUBLIC    CODE     ---       ?C?IILDX

      ---         MODULE    ---      ---       ?C?ILDIX
      01000204H   PUBLIC    CODE     ---       ?C?ILDIX

      ---         MODULE    ---      ---       ?C?ILDPTR
      0100021AH   PUBLIC    CODE     ---       ?C?ILDPTR

      ---         MODULE    ---      ---       ?C?ILDOPTR
      01000245H   PUBLIC    CODE     ---       ?C?ILDOPTR

      ---         MODULE    ---      ---       ?C?ISTPTR
      0100027DH   PUBLIC    CODE     ---       ?C?ISTPTR

      ---         MODULE    ---      ---       ?C?ISTOPTR
      0100029CH   PUBLIC    CODE     ---       ?C?ISTOPTR

      ---         MODULE    ---      ---       ?C?LADD
      010002C9H   PUBLIC    CODE     ---       ?C?LADD

      ---         MODULE    ---      ---       ?C?ULDIV
      01000312H   PUBLIC    CODE     ---       ?C?ULDIV

      ---         MODULE    ---      ---       ?C?LOR
      010003A4H   PUBLIC    CODE     ---       ?C?LOR

      ---         MODULE    ---      ---       ?C?ULCMP
      010003B1H   PUBLIC    CODE     ---       ?C?ULCMP

      ---         MODULE    ---      ---       ?C?ULSHR
      010003C2H   PUBLIC    CODE     ---       ?C?ULSHR

      ---         MODULE    ---      ---       ?C?LSHL
      010003D5H   PUBLIC    CODE     ---       ?C?LSHL

      ---         MODULE    ---      ---       ?C?LLDPTR
      010003E8H   PUBLIC    CODE     ---       ?C?LLDPTR

      ---         MODULE    ---      ---       ?C?LSTPTR
      01000408H   PUBLIC    CODE     ---       ?C?LSTPTR

      ---         MODULE    ---      ---       ?C?LSTOPTR
      01000422H   PUBLIC    CODE     ---       ?C?LSTOPTR

      ---         MODULE    ---      ---       ?C?LLDXDATA
      01000446H   PUBLIC    CODE     ---       ?C?LLDXDATA

      ---         MODULE    ---      ---       ?C?LLDXDATA0
      01000452H   PUBLIC    CODE     ---       ?C?LLDXDATA0

      ---         MODULE    ---      ---       ?C?LLDOPTR0
      0100045EH   PUBLIC    CODE     ---       ?C?LLDOPTR0
LX51 LINKER/LOCATER V4.66.30.0                                                        03/28/2016  20:19:13  PAGE 187



      ---         MODULE    ---      ---       ?C?LSTXDATA
      0100048EH   PUBLIC    CODE     ---       ?C?LSTXDATA

      ---         MODULE    ---      ---       ?C?LSTKXDATA
      0100049AH   PUBLIC    CODE     ---       ?C?LSTKXDATA

      ---         MODULE    ---      ---       ?C?PLDXDATA
      010004CBH   PUBLIC    CODE     ---       ?C?PLDXDATA

      ---         MODULE    ---      ---       ?C?PLDIXDATA
      010004D4H   PUBLIC    CODE     ---       ?C?PLDIXDATA

      ---         MODULE    ---      ---       ?C?PSTXDATA
      010004EBH   PUBLIC    CODE     ---       ?C?PSTXDATA

      ---         MODULE    ---      ---       ?C?PLDPTR
      010004F4H   PUBLIC    CODE     ---       ?C?PLDPTR

      ---         MODULE    ---      ---       ?C?PILDPTR
      01000514H   PUBLIC    CODE     ---       ?C?PILDPTR

      ---         MODULE    ---      ---       ?C?PLDOPTR
      01000536H   PUBLIC    CODE     ---       ?C?PLDOPTR

      ---         MODULE    ---      ---       ?C?PSTOPTR
      01000566H   PUBLIC    CODE     ---       ?C?PSTOPTR

      ---         MODULE    ---      ---       ?C?CCASE
      010005BFH   PUBLIC    CODE     ---       ?C?CCASE

      ---         MODULE    ---      ---       ?C?MEMSET
      010005E5H   PUBLIC    CODE     ---       ?C?MEMSET

      ---         MODULE    ---      ---       ?C?MEMMOVE
      0100078BH   PUBLIC    CODE     ---       ?C?MEMMOVE

      ---         MODULE    ---      ---       ?C?LLDIDATA
      010007B3H   PUBLIC    CODE     ---       ?C?LLDIDATA

      ---         MODULE    ---      ---       ?C?LLDPDATA
      010007BFH   PUBLIC    CODE     ---       ?C?LLDPDATA

      ---         MODULE    ---      ---       ?C?LLDCODE
      010007CBH   PUBLIC    CODE     ---       ?C?LLDCODE

      ---         MODULE    ---      ---       ?C?LLDIDATA0
      010007DBH   PUBLIC    CODE     ---       ?C?LLDIDATA0

      ---         MODULE    ---      ---       ?C?LLDPDATA0
      010007E8H   PUBLIC    CODE     ---       ?C?LLDPDATA0

      ---         MODULE    ---      ---       ?C?LLDCODE0
      010007F5H   PUBLIC    CODE     ---       ?C?LLDCODE0

      ---         MODULE    ---      ---       ?C?LSTIDATA
      01000805H   PUBLIC    CODE     ---       ?C?LSTIDATA

      ---         MODULE    ---      ---       ?C?LSTPDATA
      01000811H   PUBLIC    CODE     ---       ?C?LSTPDATA

      ---         MODULE    ---      ---       ?C?PLDIDATA
LX51 LINKER/LOCATER V4.66.30.0                                                        03/28/2016  20:19:13  PAGE 188


      0100081DH   PUBLIC    CODE     ---       ?C?PLDIDATA

      ---         MODULE    ---      ---       ?C?PILDIDATA
      01000826H   PUBLIC    CODE     ---       ?C?PILDIDATA

      ---         MODULE    ---      ---       ?C?PSTIDATA
      01000836H   PUBLIC    CODE     ---       ?C?PSTIDATA

      ---         MODULE    ---      ---       ?C?PILDXDATA
      0100083FH   PUBLIC    CODE     ---       ?C?PILDXDATA

      ---         MODULE    ---      ---       ?C?PLDPDATA
      01000856H   PUBLIC    CODE     ---       ?C?PLDPDATA

      ---         MODULE    ---      ---       ?C?PILDPDATA
      0100085FH   PUBLIC    CODE     ---       ?C?PILDPDATA

      ---         MODULE    ---      ---       ?C?PSTPDATA
      0100086FH   PUBLIC    CODE     ---       ?C?PSTPDATA

      ---         MODULE    ---      ---       ?C?PLDCODE
      01000878H   PUBLIC    CODE     ---       ?C?PLDCODE



*** WARNING L15: MULTIPLE CALL TO FUNCTION
    NAME:    _U2F_PRINTS/BSP
    CALLER1: SMBUS0_ISR/INTERRUPTS
    CALLER2: ?C_C51STARTUP

*** WARNING L15: MULTIPLE CALL TO FUNCTION
    NAME:    _U2F_PRINTB/BSP
    CALLER1: SMBUS0_ISR/INTERRUPTS
    CALLER2: ?C_C51STARTUP

*** WARNING L15: MULTIPLE CALL TO FUNCTION
    NAME:    ___INT2STR16/BSP
    CALLER1: SMBUS0_ISR/INTERRUPTS
    CALLER2: ?C_C51STARTUP

*** WARNING L15: MULTIPLE CALL TO FUNCTION
    NAME:    _INT2STR_MAP_16/BSP
    CALLER1: SMBUS0_ISR/INTERRUPTS
    CALLER2: ?C_C51STARTUP

*** WARNING L15: MULTIPLE CALL TO FUNCTION
    NAME:    _USB_WRITEFIFO/EFM8_USBDEP
    CALLER1: ?C_C51STARTUP
    CALLER2: USBIRQHANDLER/EFM8_USBDINT

*** WARNING L15: MULTIPLE CALL TO FUNCTION
    NAME:    ___INT2STR16/BSP
    CALLER1: ?C_C51STARTUP
    CALLER2: USBIRQHANDLER/EFM8_USBDINT

*** WARNING L15: MULTIPLE CALL TO FUNCTION
    NAME:    _INT2STR_MAP_16/BSP
    CALLER1: ?C_C51STARTUP
    CALLER2: USBIRQHANDLER/EFM8_USBDINT

*** WARNING L15: MULTIPLE CALL TO FUNCTION
    NAME:    _U2F_PRINTS/BSP
LX51 LINKER/LOCATER V4.66.30.0                                                        03/28/2016  20:19:13  PAGE 189


    CALLER1: ?C_C51STARTUP
    CALLER2: USBIRQHANDLER/EFM8_USBDINT

*** WARNING L15: MULTIPLE CALL TO FUNCTION
    NAME:    _USBD_WRITE/EFM8_USBD
    CALLER1: ?C_C51STARTUP
    CALLER2: USBIRQHANDLER/EFM8_USBDINT

*** WARNING L25: DATA TYPES DIFFERENT
    SYMBOL:  _u2f_delay
    MODULE:  ./src/atecc508a.OBJ (ATECC508A)
   DEFINED:  ./src/bsp.OBJ (BSP)

Program Size: data=108.7 xdata=863 const=188 code=15837
LX51 RUN COMPLETE.  10 WARNING(S),  0 ERROR(S)
