LX51 LINKER/LOCATER V4.66.30.0                                                          03/29/2016  00:06:41  PAGE 1


LX51 LINKER/LOCATER V4.66.30.0, INVOKED BY:
Z:\HOME\PP\SIMPLICITYSTUDIO_V3\DEVELOPER\TOOLCHAINS\KEIL_8051\9.53\BIN\LX51.EXE ./src/InitDevice.OBJ, ./src/Interrupts.O
>> BJ, ./src/SILABS_STARTUP.OBJ, ./src/bsp.OBJ, ./src/callback.OBJ, ./src/descriptors.OBJ, ./src/idle.OBJ, ./src/u2f.OBJ
>> , ./src/u2f_hid.OBJ, ./lib/efm8ub1/peripheralDrivers/src/usb_0.OBJ, ./lib/efm8_usb/src/efm8_usbd.OBJ, ./lib/efm8_usb/
>> src/efm8_usbdch9.OBJ, ./lib/efm8_usb/src/efm8_usbdep.OBJ, ./lib/efm8_usb/src/efm8_usbdint.OBJ, ./lib/efm8_assert/asse
>> rt.OBJ, ./tests/tests.OBJ, ./src/atecc508a.OBJ, ./src/eeprom.OBJ, ./src/i2c.OBJ, ./src/main.OBJ, ./src/u2f-atecc.OBJ 
>> TO U2F-FIRMWARE.OMF.CRBUILD REMOVEUNUSED PRINT (.\u2f-firmware.m51) PAGEWIDTH (120) PAGELENGTH (65) CLASSES (CODE (C:
>> 0X0-C:0X3FFE), CONST (C:0X0-C:0X3FFE), ECODE (C:0X0-C:0X3FFE), HCONST (C:0X0-C:0X3FFE), XDATA (X:0X0-X:0X3FF), HDATA 
>> (X:0X0-X:0X3FF))


CPU MODE:     8051 MODE
MEMORY MODEL: LARGE


INPUT MODULES INCLUDED:
  ./src/InitDevice.OBJ (INITDEVICE)
         COMMENT TYPE 0: C51 V9.53.0.0
  ./src/Interrupts.OBJ (INTERRUPTS)
         COMMENT TYPE 0: C51 V9.53.0.0
  ./src/SILABS_STARTUP.OBJ (?C_STARTUP)
         COMMENT TYPE 1: A51 / ASM51 Assembler
  ./src/bsp.OBJ (BSP)
         COMMENT TYPE 0: C51 V9.53.0.0
  ./src/callback.OBJ (CALLBACK)
         COMMENT TYPE 0: C51 V9.53.0.0
  ./src/descriptors.OBJ (DESCRIPTORS)
         COMMENT TYPE 0: C51 V9.53.0.0
  ./src/idle.OBJ (IDLE)
         COMMENT TYPE 0: C51 V9.53.0.0
  ./src/u2f.OBJ (U2F)
         COMMENT TYPE 0: C51 V9.53.0.0
  ./src/u2f_hid.OBJ (U2F_HID)
         COMMENT TYPE 0: C51 V9.53.0.0
  ./lib/efm8ub1/peripheralDrivers/src/usb_0.OBJ (USB_0)
         COMMENT TYPE 0: C51 V9.53.0.0
  ./lib/efm8_usb/src/efm8_usbd.OBJ (EFM8_USBD)
         COMMENT TYPE 0: C51 V9.53.0.0
  ./lib/efm8_usb/src/efm8_usbdch9.OBJ (EFM8_USBDCH9)
         COMMENT TYPE 0: C51 V9.53.0.0
  ./lib/efm8_usb/src/efm8_usbdep.OBJ (EFM8_USBDEP)
         COMMENT TYPE 0: C51 V9.53.0.0
  ./lib/efm8_usb/src/efm8_usbdint.OBJ (EFM8_USBDINT)
         COMMENT TYPE 0: C51 V9.53.0.0
  ./lib/efm8_assert/assert.OBJ (ASSERT)
         COMMENT TYPE 0: C51 V9.53.0.0
  ./tests/tests.OBJ (TESTS)
         COMMENT TYPE 0: C51 V9.53.0.0
  ./src/atecc508a.OBJ (ATECC508A)
         COMMENT TYPE 0: C51 V9.53.0.0
  ./src/eeprom.OBJ (EEPROM)
         COMMENT TYPE 0: C51 V9.53.0.0
  ./src/i2c.OBJ (I2C)
         COMMENT TYPE 0: C51 V9.53.0.0
  ./src/main.OBJ (MAIN)
         COMMENT TYPE 0: C51 V9.53.0.0
  ./src/u2f-atecc.OBJ (U2F_ATECC)
         COMMENT TYPE 0: C51 V9.53.0.0
  /HOME/PP/SIMPLICITYSTUDIO_V3/DEVELOPER/TOOLCHAINS/KEIL_8051/9.53/LIB\C51L.LIB (?C_INIT)
         COMMENT TYPE 1: A51 / ASM51 Assembler
  /HOME/PP/SIMPLICITYSTUDIO_V3/DEVELOPER/TOOLCHAINS/KEIL_8051/9.53/LIB\C51L.LIB (?C?COPY)
         COMMENT TYPE 1: A51 / ASM51 Assembler
  /HOME/PP/SIMPLICITYSTUDIO_V3/DEVELOPER/TOOLCHAINS/KEIL_8051/9.53/LIB\C51L.LIB (?C?CLDPTR)
LX51 LINKER/LOCATER V4.66.30.0                                                        03/29/2016  00:06:41  PAGE 2


         COMMENT TYPE 1: A51 / ASM51 Assembler
  /HOME/PP/SIMPLICITYSTUDIO_V3/DEVELOPER/TOOLCHAINS/KEIL_8051/9.53/LIB\C51L.LIB (?C?CLDOPTR)
         COMMENT TYPE 1: A51 / ASM51 Assembler
  /HOME/PP/SIMPLICITYSTUDIO_V3/DEVELOPER/TOOLCHAINS/KEIL_8051/9.53/LIB\C51L.LIB (?C?CSTPTR)
         COMMENT TYPE 1: A51 / ASM51 Assembler
  /HOME/PP/SIMPLICITYSTUDIO_V3/DEVELOPER/TOOLCHAINS/KEIL_8051/9.53/LIB\C51L.LIB (?C?CSTOPTR)
         COMMENT TYPE 1: A51 / ASM51 Assembler
  /HOME/PP/SIMPLICITYSTUDIO_V3/DEVELOPER/TOOLCHAINS/KEIL_8051/9.53/LIB\C51L.LIB (?C?IILDX)
         COMMENT TYPE 1: A51 / ASM51 Assembler
  /HOME/PP/SIMPLICITYSTUDIO_V3/DEVELOPER/TOOLCHAINS/KEIL_8051/9.53/LIB\C51L.LIB (?C?ILDIX)
         COMMENT TYPE 1: A51 / ASM51 Assembler
  /HOME/PP/SIMPLICITYSTUDIO_V3/DEVELOPER/TOOLCHAINS/KEIL_8051/9.53/LIB\C51L.LIB (?C?ILDPTR)
         COMMENT TYPE 1: A51 / ASM51 Assembler
  /HOME/PP/SIMPLICITYSTUDIO_V3/DEVELOPER/TOOLCHAINS/KEIL_8051/9.53/LIB\C51L.LIB (?C?ILDOPTR)
         COMMENT TYPE 1: A51 / ASM51 Assembler
  /HOME/PP/SIMPLICITYSTUDIO_V3/DEVELOPER/TOOLCHAINS/KEIL_8051/9.53/LIB\C51L.LIB (?C?ISTPTR)
         COMMENT TYPE 1: A51 / ASM51 Assembler
  /HOME/PP/SIMPLICITYSTUDIO_V3/DEVELOPER/TOOLCHAINS/KEIL_8051/9.53/LIB\C51L.LIB (?C?ISTOPTR)
         COMMENT TYPE 1: A51 / ASM51 Assembler
  /HOME/PP/SIMPLICITYSTUDIO_V3/DEVELOPER/TOOLCHAINS/KEIL_8051/9.53/LIB\C51L.LIB (?C?LADD)
         COMMENT TYPE 1: A51 / ASM51 Assembler
  /HOME/PP/SIMPLICITYSTUDIO_V3/DEVELOPER/TOOLCHAINS/KEIL_8051/9.53/LIB\C51L.LIB (?C?ULDIV)
         COMMENT TYPE 1: A51 / ASM51 Assembler
  /HOME/PP/SIMPLICITYSTUDIO_V3/DEVELOPER/TOOLCHAINS/KEIL_8051/9.53/LIB\C51L.LIB (?C?LOR)
         COMMENT TYPE 1: A51 / ASM51 Assembler
  /HOME/PP/SIMPLICITYSTUDIO_V3/DEVELOPER/TOOLCHAINS/KEIL_8051/9.53/LIB\C51L.LIB (?C?ULCMP)
         COMMENT TYPE 1: A51 / ASM51 Assembler
  /HOME/PP/SIMPLICITYSTUDIO_V3/DEVELOPER/TOOLCHAINS/KEIL_8051/9.53/LIB\C51L.LIB (?C?ULSHR)
         COMMENT TYPE 1: A51 / ASM51 Assembler
  /HOME/PP/SIMPLICITYSTUDIO_V3/DEVELOPER/TOOLCHAINS/KEIL_8051/9.53/LIB\C51L.LIB (?C?LSHL)
         COMMENT TYPE 1: A51 / ASM51 Assembler
  /HOME/PP/SIMPLICITYSTUDIO_V3/DEVELOPER/TOOLCHAINS/KEIL_8051/9.53/LIB\C51L.LIB (?C?LLDPTR)
         COMMENT TYPE 1: A51 / ASM51 Assembler
  /HOME/PP/SIMPLICITYSTUDIO_V3/DEVELOPER/TOOLCHAINS/KEIL_8051/9.53/LIB\C51L.LIB (?C?LSTPTR)
         COMMENT TYPE 1: A51 / ASM51 Assembler
  /HOME/PP/SIMPLICITYSTUDIO_V3/DEVELOPER/TOOLCHAINS/KEIL_8051/9.53/LIB\C51L.LIB (?C?LSTOPTR)
         COMMENT TYPE 1: A51 / ASM51 Assembler
  /HOME/PP/SIMPLICITYSTUDIO_V3/DEVELOPER/TOOLCHAINS/KEIL_8051/9.53/LIB\C51L.LIB (?C?LLDXDATA)
         COMMENT TYPE 1: A51 / ASM51 Assembler
  /HOME/PP/SIMPLICITYSTUDIO_V3/DEVELOPER/TOOLCHAINS/KEIL_8051/9.53/LIB\C51L.LIB (?C?LLDXDATA0)
         COMMENT TYPE 1: A51 / ASM51 Assembler
  /HOME/PP/SIMPLICITYSTUDIO_V3/DEVELOPER/TOOLCHAINS/KEIL_8051/9.53/LIB\C51L.LIB (?C?LLDOPTR0)
         COMMENT TYPE 1: A51 / ASM51 Assembler
  /HOME/PP/SIMPLICITYSTUDIO_V3/DEVELOPER/TOOLCHAINS/KEIL_8051/9.53/LIB\C51L.LIB (?C?LSTXDATA)
         COMMENT TYPE 1: A51 / ASM51 Assembler
  /HOME/PP/SIMPLICITYSTUDIO_V3/DEVELOPER/TOOLCHAINS/KEIL_8051/9.53/LIB\C51L.LIB (?C?LSTKXDATA)
         COMMENT TYPE 1: A51 / ASM51 Assembler
  /HOME/PP/SIMPLICITYSTUDIO_V3/DEVELOPER/TOOLCHAINS/KEIL_8051/9.53/LIB\C51L.LIB (?C?PLDXDATA)
         COMMENT TYPE 1: A51 / ASM51 Assembler
  /HOME/PP/SIMPLICITYSTUDIO_V3/DEVELOPER/TOOLCHAINS/KEIL_8051/9.53/LIB\C51L.LIB (?C?PLDIXDATA)
         COMMENT TYPE 1: A51 / ASM51 Assembler
  /HOME/PP/SIMPLICITYSTUDIO_V3/DEVELOPER/TOOLCHAINS/KEIL_8051/9.53/LIB\C51L.LIB (?C?PSTXDATA)
         COMMENT TYPE 1: A51 / ASM51 Assembler
  /HOME/PP/SIMPLICITYSTUDIO_V3/DEVELOPER/TOOLCHAINS/KEIL_8051/9.53/LIB\C51L.LIB (?C?PLDPTR)
         COMMENT TYPE 1: A51 / ASM51 Assembler
  /HOME/PP/SIMPLICITYSTUDIO_V3/DEVELOPER/TOOLCHAINS/KEIL_8051/9.53/LIB\C51L.LIB (?C?PILDPTR)
         COMMENT TYPE 1: A51 / ASM51 Assembler
  /HOME/PP/SIMPLICITYSTUDIO_V3/DEVELOPER/TOOLCHAINS/KEIL_8051/9.53/LIB\C51L.LIB (?C?PLDOPTR)
         COMMENT TYPE 1: A51 / ASM51 Assembler
  /HOME/PP/SIMPLICITYSTUDIO_V3/DEVELOPER/TOOLCHAINS/KEIL_8051/9.53/LIB\C51L.LIB (?C?PSTOPTR)
         COMMENT TYPE 1: A51 / ASM51 Assembler
  /HOME/PP/SIMPLICITYSTUDIO_V3/DEVELOPER/TOOLCHAINS/KEIL_8051/9.53/LIB\C51L.LIB (?C?CCASE)
LX51 LINKER/LOCATER V4.66.30.0                                                        03/29/2016  00:06:41  PAGE 3


         COMMENT TYPE 1: A51 / ASM51 Assembler
  /HOME/PP/SIMPLICITYSTUDIO_V3/DEVELOPER/TOOLCHAINS/KEIL_8051/9.53/LIB\C51L.LIB (?C?MEMSET)
         COMMENT TYPE 1: A51 / ASM51 Assembler
  /HOME/PP/SIMPLICITYSTUDIO_V3/DEVELOPER/TOOLCHAINS/KEIL_8051/9.53/LIB\C51L.LIB (?C?MEMMOVE)
         COMMENT TYPE 1: A51 / ASM51 Assembler
  /HOME/PP/SIMPLICITYSTUDIO_V3/DEVELOPER/TOOLCHAINS/KEIL_8051/9.53/LIB\C51L.LIB (?C?LLDIDATA)
         COMMENT TYPE 1: A51 / ASM51 Assembler
  /HOME/PP/SIMPLICITYSTUDIO_V3/DEVELOPER/TOOLCHAINS/KEIL_8051/9.53/LIB\C51L.LIB (?C?LLDPDATA)
         COMMENT TYPE 1: A51 / ASM51 Assembler
  /HOME/PP/SIMPLICITYSTUDIO_V3/DEVELOPER/TOOLCHAINS/KEIL_8051/9.53/LIB\C51L.LIB (?C?LLDCODE)
         COMMENT TYPE 1: A51 / ASM51 Assembler
  /HOME/PP/SIMPLICITYSTUDIO_V3/DEVELOPER/TOOLCHAINS/KEIL_8051/9.53/LIB\C51L.LIB (?C?LLDIDATA0)
         COMMENT TYPE 1: A51 / ASM51 Assembler
  /HOME/PP/SIMPLICITYSTUDIO_V3/DEVELOPER/TOOLCHAINS/KEIL_8051/9.53/LIB\C51L.LIB (?C?LLDPDATA0)
         COMMENT TYPE 1: A51 / ASM51 Assembler
  /HOME/PP/SIMPLICITYSTUDIO_V3/DEVELOPER/TOOLCHAINS/KEIL_8051/9.53/LIB\C51L.LIB (?C?LLDCODE0)
         COMMENT TYPE 1: A51 / ASM51 Assembler
  /HOME/PP/SIMPLICITYSTUDIO_V3/DEVELOPER/TOOLCHAINS/KEIL_8051/9.53/LIB\C51L.LIB (?C?LSTIDATA)
         COMMENT TYPE 1: A51 / ASM51 Assembler
  /HOME/PP/SIMPLICITYSTUDIO_V3/DEVELOPER/TOOLCHAINS/KEIL_8051/9.53/LIB\C51L.LIB (?C?LSTPDATA)
         COMMENT TYPE 1: A51 / ASM51 Assembler
  /HOME/PP/SIMPLICITYSTUDIO_V3/DEVELOPER/TOOLCHAINS/KEIL_8051/9.53/LIB\C51L.LIB (?C?PLDIDATA)
         COMMENT TYPE 1: A51 / ASM51 Assembler
  /HOME/PP/SIMPLICITYSTUDIO_V3/DEVELOPER/TOOLCHAINS/KEIL_8051/9.53/LIB\C51L.LIB (?C?PILDIDATA)
         COMMENT TYPE 1: A51 / ASM51 Assembler
  /HOME/PP/SIMPLICITYSTUDIO_V3/DEVELOPER/TOOLCHAINS/KEIL_8051/9.53/LIB\C51L.LIB (?C?PSTIDATA)
         COMMENT TYPE 1: A51 / ASM51 Assembler
  /HOME/PP/SIMPLICITYSTUDIO_V3/DEVELOPER/TOOLCHAINS/KEIL_8051/9.53/LIB\C51L.LIB (?C?PILDXDATA)
         COMMENT TYPE 1: A51 / ASM51 Assembler
  /HOME/PP/SIMPLICITYSTUDIO_V3/DEVELOPER/TOOLCHAINS/KEIL_8051/9.53/LIB\C51L.LIB (?C?PLDPDATA)
         COMMENT TYPE 1: A51 / ASM51 Assembler
  /HOME/PP/SIMPLICITYSTUDIO_V3/DEVELOPER/TOOLCHAINS/KEIL_8051/9.53/LIB\C51L.LIB (?C?PILDPDATA)
         COMMENT TYPE 1: A51 / ASM51 Assembler
  /HOME/PP/SIMPLICITYSTUDIO_V3/DEVELOPER/TOOLCHAINS/KEIL_8051/9.53/LIB\C51L.LIB (?C?PSTPDATA)
         COMMENT TYPE 1: A51 / ASM51 Assembler
  /HOME/PP/SIMPLICITYSTUDIO_V3/DEVELOPER/TOOLCHAINS/KEIL_8051/9.53/LIB\C51L.LIB (?C?PLDCODE)
         COMMENT TYPE 1: A51 / ASM51 Assembler


ACTIVE MEMORY CLASSES OF MODULE:  U2F-FIRMWARE.OMF.CRBUILD (INITDEVICE)

BASE        START       END         USED      MEMORY CLASS
==========================================================
C:000000H   C:000000H   C:003FFEH   003D1DH   CODE
C:000000H   C:000000H   C:003FFEH   00021BH   CONST
C:000000H   C:000000H   C:003FFEH             ECODE
B00:0000H   C:000000H   C:003FFEH             HCONST
X:000000H   X:000000H   X:0003FFH   000396H   XDATA
X:000000H   X:000000H   X:0003FFH             HDATA
I:000000H   I:000000H   I:00007FH   000065H   DATA
I:000000H   I:000000H   I:0000FFH   000001H   IDATA
I:000020H.0 I:000020H.0 I:00002FH.7 000000H.7 BIT


MEMORY MAP OF MODULE:  U2F-FIRMWARE.OMF.CRBUILD (INITDEVICE)


START     STOP      LENGTH    ALIGN  RELOC    MEMORY CLASS   SEGMENT NAME
=========================================================================

* * * * * * * * * * *   D A T A   M E M O R Y   * * * * * * * * * * * * *
000000H   000007H   000008H   ---    AT..     DATA           "REG BANK 0"
LX51 LINKER/LOCATER V4.66.30.0                                                        03/29/2016  00:06:41  PAGE 4


000008H   00000FH   000008H   BYTE   UNIT     DATA           ?DT?ATECC508A
000010H   000014H   000005H   BYTE   UNIT     DATA           ?DT?INTERRUPTS
000015H   000017H   000003H   BYTE   UNIT     DATA           _DATA_GROUP_
000018H   000019H   000002H   BYTE   UNIT     DATA           ?DT?BSP
00001AH.0 00001FH.7 000006H.0 ---    ---      **GAP**
000020H.0 000020H.6 000000H.7 BIT    UNIT     BIT            _BIT_GROUP_
000020H.7 000020H   000000H.1 ---    ---      **GAP**
000021H   00006BH   00004BH   BYTE   UNIT     DATA           ?DT?MAIN
00006CH   00006CH   000001H   BYTE   UNIT     IDATA          ?STACK

* * * * * * * * * * *   C O D E   M E M O R Y   * * * * * * * * * * * * *
000000H   000002H   000003H   ---    OFFS..   CODE           ?CO??C_STARTUP?0
000003H   00002AH   000028H   BYTE   UNIT     CODE           ?PR?U2F
00002BH   00002DH   000003H   BYTE   OFFS..   CODE           ?INTERRUPTS?0002B
00002EH   00003AH   00000DH   BYTE   UNIT     CODE           ?PR?TIMER16_3_ENTER_DEFAULTMODE_FROM_RESET?INITDEVICE
00003BH   00003DH   000003H   BYTE   OFFS..   CODE           ?INTERRUPTS?0003B
00003EH   000072H   000035H   BYTE   UNIT     CODE           ?PR?_U2F_PRINTD?BSP
000073H   000075H   000003H   BYTE   OFFS..   CODE           ?INTERRUPTS?00073
000076H   00007AH   000005H   BYTE   UNIT     CODE           ?PR?U2F_ATTESTATION_CERT_SIZE?U2F_ATECC
00007BH   00007DH   000003H   BYTE   OFFS..   CODE           ?EFM8_USBDINT?0007B
00007EH   000883H   000806H   BYTE   UNIT     CODE           ?C?LIB_CODE
000884H   000A71H   0001EEH   BYTE   UNIT     CODE           ?PR?_HID_U2F_PARSE?U2F_HID
000A72H   000C18H   0001A7H   BYTE   UNIT     CODE           ?PR?SMBUS0_ISR?INTERRUPTS
000C19H   000DBEH   0001A6H   BYTE   UNIT     CODE           ?PR?MAIN?MAIN
000DBFH   000F0FH   000151H   BYTE   UNIT     CODE           ?PR?_USBD_SETUPCMDCB?CALLBACK
000F10H   001026H   000117H   BYTE   UNIT     CODE           ?PR?GETDESCRIPTOR?EFM8_USBDCH9
001027H   001138H   000112H   BYTE   UNIT     CODE           ?PR?_U2F_REGISTER?U2F
001139H   00123DH   000105H   BYTE   UNIT     CODE           ?PR?_U2F_HID_REQUEST?U2F_HID
00123EH   001337H   0000FAH   BYTE   UNIT     CODE           ?PR?HANDLEUSBEP0TX?EFM8_USBDINT
001338H   001423H   0000ECH   BYTE   UNIT     CODE           ?PR?HANDLEUSBOUT1INT?EFM8_USBDEP
001424H   001504H   0000E1H   BYTE   UNIT     CODE           ?PR?_U2F_AUTHENTICATE?U2F
001505H   0015E0H   0000DCH   BYTE   UNIT     CODE           ?PR?_ATECC_SEND_RECV?ATECC508A
0015E1H   0016B8H   0000D8H   BYTE   UNIT     CODE           ?PR?USBIRQHANDLER?EFM8_USBDINT
0016B9H   00178CH   0000D4H   BYTE   UNIT     CODE           ?PR?_U2F_HID_WRITEBACK?U2F_HID
00178DH   00185EH   0000D2H   BYTE   UNIT     CODE           ?PR?_USBD_WRITE?EFM8_USBD
00185FH   001924H   0000C6H   BYTE   UNIT     CODE           ?PR?GETSTATUS?EFM8_USBDCH9
001925H   0019E8H   0000C4H   BYTE   UNIT     CODE           ?PR?U2F_HID
0019E9H   001AACH   0000C4H   BYTE   UNIT     CODE           ?PR?_U2F_ECDSA_SIGN?U2F_ATECC
001AADH   001B6DH   0000C1H   BYTE   UNIT     CODE           ?PR?GET_NEW_CID?U2F_HID
001B6EH   001C2AH   0000BDH   BYTE   UNIT     CODE           ?PR?_ATECC_RECV?ATECC508A
001C2BH   001CDCH   0000B2H   BYTE   UNIT     CODE           ?PR?SETCONFIGURATION?EFM8_USBDCH9
001CDDH   001D8BH   0000AFH   BYTE   UNIT     CODE           ?PR?_DUMP_SIGNATURE_DER?U2F
001D8CH   001E3AH   0000AFH   BYTE   UNIT     CODE           ?PR?_USBD_READ?EFM8_USBD
001E3BH   001EE7H   0000ADH   BYTE   UNIT     CODE           ?PR?_U2F_REQUEST?U2F
001EE8H   001F94H   0000ADH   BYTE   UNIT     CODE           ?PR?HANDLEUSBEP0INT?EFM8_USBDINT
001F95H   00203FH   0000ABH   BYTE   UNIT     CODE           ?PR?U2F_INIT?U2F_ATECC
002040H   0020E9H   0000AAH   BYTE   UNIT     CODE           ?PR?CLEARFEATURE?EFM8_USBDCH9
0020EAH   00218EH   0000A5H   BYTE   UNIT     CODE           ?PR?HANDLEUSBIN1INT?EFM8_USBDEP
00218FH   002226H   000098H   BYTE   UNIT     CODE           ?PR?_USBD_INIT?EFM8_USBD
002227H   0022B9H   000093H   BYTE   UNIT     CODE           ?PR?HANDLEUSBEP0RX?EFM8_USBDINT
0022BAH   00234BH   000092H   BYTE   UNIT     CODE           ?CO?U2F_HID
00234CH   0023DDH   000092H   BYTE   UNIT     CODE           ?PR?SETFEATURE?EFM8_USBDCH9
0023DEH   00246EH   000091H   BYTE   UNIT     CODE           ?PR?_U2F_NEW_KEYPAIR?U2F_ATECC
00246FH   0024FAH   00008CH   BYTE   UNIT     CODE           ?C_C51STARTUP
0024FBH   002586H   00008CH   BYTE   UNIT     CODE           ?PR?_USB_ACTIVATEEP?USB_0
002587H   002609H   000083H   BYTE   UNIT     CODE           ?PR?_FEED_CRC?I2C
00260AH   002688H   00007FH   BYTE   UNIT     CODE           ?PR?_USBD_ABORTTRANSFER?EFM8_USBD
002689H   002704H   00007CH   BYTE   UNIT     CODE           ?PR?_REVERSE_BITS?I2C
002705H   00277EH   00007AH   BYTE   UNIT     CODE           ?PR?U2F_COUNT?U2F_ATECC
00277FH   0027F6H   000078H   BYTE   UNIT     CODE           ?PR?USBDCH9_SETUPCMD?EFM8_USBDCH9
0027F7H   00286EH   000078H   BYTE   UNIT     CODE           ?PR?SETADDRESS?EFM8_USBDCH9
00286FH   0028E4H   000076H   BYTE   UNIT     CODE           ?PR?BSP
LX51 LINKER/LOCATER V4.66.30.0                                                        03/29/2016  00:06:41  PAGE 5


0028E5H   002959H   000075H   BYTE   UNIT     CODE           ?PR?_USB_WRITEFIFO?EFM8_USBDEP
00295AH   0029C6H   00006DH   BYTE   UNIT     CODE           ?PR?_USB_WRITE?BSP
0029C7H   002A32H   00006CH   BYTE   UNIT     CODE           ?PR?EFM8_USBD
002A33H   002A9BH   000069H   BYTE   UNIT     CODE           ?PR?U2F_ATECC
002A9CH   002B03H   000068H   BYTE   UNIT     CODE           ?PR?_BUFFER_REQUEST?U2F_HID
002B04H   002B6AH   000067H   BYTE   UNIT     CODE           ?CO?U2F
002B6BH   002BCEH   000064H   BYTE   UNIT     CODE           ?PR?EFM8_USBDCH9
002BCFH   002C31H   000063H   BYTE   UNIT     CODE           ?PR?_U2F_SHA256_UPDATE?U2F_ATECC
002C32H   002C93H   000062H   BYTE   UNIT     CODE           ?PR?_USB_READFIFO?EFM8_USBDEP
002C94H   002CF4H   000061H   BYTE   UNIT     CODE           ?PR?U2F_GET_USER_FEEDBACK?U2F_ATECC
002CF5H   002D54H   000060H   BYTE   UNIT     CODE           ?PR?_U2F_LOAD_KEY?U2F_ATECC
002D55H   002DAEH   00005AH   BYTE   UNIT     CODE           ?PR?EFM8_USBDINT
002DAFH   002E05H   000057H   BYTE   UNIT     CODE           ?PR?USB_READFIFOSETUP?EFM8_USBDINT
002E06H   002E59H   000054H   BYTE   UNIT     CODE           ?PR?GETCONFIGURATION?EFM8_USBDCH9
002E5AH   002EA9H   000050H   BYTE   UNIT     CODE           ?PR?_DUMP_HEX?BSP
002EAAH   002EF7H   00004EH   BYTE   UNIT     CODE           ?PR?_ATECC_SEND?ATECC508A
002EF8H   002F44H   00004DH   BYTE   UNIT     CODE           ?PR?CALLBACK
002F45H   002F91H   00004DH   BYTE   UNIT     CODE           ?PR?_SMB_READ?I2C
002F92H   002FDAH   000049H   BYTE   UNIT     CODE           ?PR?__EEPROM_WRITE?EEPROM
002FDBH   003021H   000047H   BYTE   UNIT     CODE           ?PR?_INT2STR_MAP_10?BSP
003022H   003067H   000046H   BYTE   UNIT     CODE           ?PR?ENTER_DEFAULTMODE_FROM_RESET?INITDEVICE
003068H   0030ACH   000045H   BYTE   UNIT     CODE           ?PR?_GET_CID?U2F_HID
0030ADH   0030EEH   000042H   BYTE   UNIT     CODE           ?PR?GETINTERFACE?EFM8_USBDCH9
0030EFH   00312FH   000041H   BYTE   UNIT     CODE           ?PR?_INT2STR_MAP_16?BSP
003130H   003170H   000041H   BYTE   UNIT     CODE           ?PR?EEPROM_INIT?EEPROM
003171H   0031B0H   000040H   BYTE   UNIT     CODE           ?PR?_USBD_SETUSBSTATE?EFM8_USBD
0031B1H   0031F0H   000040H   BYTE   UNIT     CODE           ?PR?_SMB_WRITE?I2C
0031F1H   00322DH   00003DH   BYTE   UNIT     CODE           ?C_INITSEG
00322EH   00326AH   00003DH   BYTE   UNIT     CODE           ?PR?_U2F_DELAY?BSP
00326BH   0032A7H   00003DH   BYTE   UNIT     CODE           ?CO?EFM8_USBD
0032A8H   0032E4H   00003DH   BYTE   UNIT     CODE           ?PR?HANDLEUSBRESETINT?EFM8_USBDINT
0032E5H   00331FH   00003BH   BYTE   UNIT     CODE           ?PR?___INT2STR10?BSP
003320H   00335AH   00003BH   BYTE   UNIT     CODE           ?PR?___INT2STR16?BSP
00335BH   003395H   00003BH   BYTE   UNIT     CODE           ?PR?_STAMP_ERROR?U2F_HID
003396H   0033CFH   00003AH   BYTE   UNIT     CODE           ?PR?_DEL_CID?U2F_HID
0033D0H   003409H   00003AH   BYTE   UNIT     CODE           ?PR?_EEPROM_READ?EEPROM
00340AH   003442H   000039H   BYTE   UNIT     CODE           ?PR?_U2F_PRINTB?BSP
003443H   00347AH   000038H   BYTE   UNIT     CODE           ?PR?ATECC508A
00347BH   0034B1H   000037H   BYTE   UNIT     CODE           ?PR?SETINTERFACE?EFM8_USBDCH9
0034B2H   0034E7H   000036H   BYTE   UNIT     CODE           ?PR?USBD_ABORTALLTRANSFERS?EFM8_USBD
0034E8H   00351CH   000035H   BYTE   UNIT     CODE           ?PR?_U2F_PRINTL?BSP
00351DH   003551H   000035H   BYTE   UNIT     CODE           ?PR?_IS_CID_FREE?U2F_HID
003552H   003585H   000034H   BYTE   UNIT     CODE           ?PR?_USB_ABORTINEP?USB_0
003586H   0035B9H   000034H   BYTE   UNIT     CODE           ?PR?_USB_ABORTOUTEP?USB_0
0035BAH   0035EBH   000032H   BYTE   UNIT     CODE           ?PR?TIMER2_ISR?INTERRUPTS
0035ECH   003619H   00002EH   BYTE   UNIT     CODE           ?PR?_INT2STR_REDUCE_10?BSP
00361AH   003647H   00002EH   BYTE   UNIT     CODE           ?PR?FLUSH_KEY_STORE?U2F_ATECC
003648H   003674H   00002DH   BYTE   UNIT     CODE           ?PR?_SMB_SET_EXT_WRITE?I2C
003675H   0036A0H   00002CH   BYTE   UNIT     CODE           ?PR?_START_BUFFERING?U2F_HID
0036A1H   0036C9H   000029H   BYTE   UNIT     CODE           ?PR?_USBD_EPISBUSY?EFM8_USBD
0036CAH   0036F1H   000028H   BYTE   UNIT     CODE           ?PR?U2F_HID_INIT?U2F_HID
0036F2H   003718H   000027H   BYTE   UNIT     CODE           ?PR?_USBD_XFERCOMPLETECB?CALLBACK
003719H   00373FH   000027H   BYTE   UNIT     CODE           ?PR?U2F_SHA256_FINISH?U2F_ATECC
003740H   003762H   000023H   BYTE   UNIT     CODE           ?PR?_USB_GETSHORTREGISTER?USB_0
003763H   003785H   000023H   BYTE   UNIT     CODE           ?PR?EFM8_USBDEP
003786H   0037A7H   000022H   BYTE   UNIT     CODE           ?PR?IDLETIMERSTART?IDLE
0037A8H   0037C8H   000021H   BYTE   UNIT     CODE           ?PR?_U2F_PRINTS?BSP
0037C9H   0037E9H   000021H   BYTE   UNIT     CODE           ?PR?_USB_READFIFO_XDATA?EFM8_USBDEP
0037EAH   00380AH   000021H   BYTE   UNIT     CODE           ?PR?_DELAY_CMD?ATECC508A
00380BH   00382AH   000020H   BYTE   UNIT     CODE           ?CO?BSP
00382BH   003849H   00001FH   BYTE   UNIT     CODE           ?PR?_GET_SIGNATURE_LENGTH?U2F
00384AH   003868H   00001FH   BYTE   UNIT     CODE           ?PR?_EP0_WRITE?EFM8_USBDCH9
LX51 LINKER/LOCATER V4.66.30.0                                                        03/29/2016  00:06:41  PAGE 6


003869H   003887H   00001FH   BYTE   UNIT     CODE           ?PR?_USB_READFIFO_PDATA?EFM8_USBDEP
003888H   0038A6H   00001FH   BYTE   UNIT     CODE           ?PR?I2C
0038A7H   0038C3H   00001DH   BYTE   UNIT     CODE           ?PR?USBD_ACTIVATEALLEPS?EFM8_USBDCH9
0038C4H   0038E0H   00001DH   BYTE   UNIT     CODE           ?PR?_USB_READFIFO_IDATA?EFM8_USBDEP
0038E1H   0038FCH   00001CH   BYTE   UNIT     CODE           ?PR?MAIN
0038FDH   003917H   00001BH   BYTE   UNIT     CODE           ?PR?UPDATE_FROM_PACKET_LENGTH?INTERRUPTS
003918H   003932H   00001BH   BYTE   UNIT     CODE           ?PR?__FEED_CRC?INTERRUPTS
003933H   00394DH   00001BH   BYTE   UNIT     CODE           ?PR?_INIT?MAIN
00394EH   003967H   00001AH   BYTE   UNIT     CODE           ?PR?U2F_SHA256_START?U2F_ATECC
003968H   003980H   000019H   BYTE   UNIT     CODE           ?PR?U2F_VERSION?U2F
003981H   003999H   000019H   BYTE   UNIT     CODE           ?PR?WHILE_BUSY?I2C
00399AH   0039B1H   000018H   BYTE   UNIT     CODE           ?PR?_PUTF?BSP
0039B2H   0039C9H   000018H   BYTE   UNIT     CODE           ?PR?_IDLETIMERSET?IDLE
0039CAH   0039E1H   000018H   BYTE   UNIT     CODE           ?PR?U2F_HID_RESET_PACKET?U2F_HID
0039E2H   0039F8H   000017H   BYTE   UNIT     CODE           ?PR?USBD_CONNECT?EFM8_USBD
0039F9H   003A0FH   000017H   BYTE   UNIT     CODE           ?PR?_USB_WRITEFIFO_CODE?EFM8_USBDEP
003A10H   003A26H   000017H   BYTE   UNIT     CODE           ?PR?SENDEP0STALL?EFM8_USBDINT
003A27H   003A3DH   000017H   BYTE   UNIT     CODE           ?CO?MAIN
003A3EH   003A53H   000016H   BYTE   UNIT     CODE           ?PR?_USB_WRITEFIFO_XDATA?EFM8_USBDEP
003A54H   003A68H   000015H   BYTE   UNIT     CODE           ?PR?PORTS_0_ENTER_DEFAULTMODE_FROM_RESET?INITDEVICE
003A69H   003A7DH   000015H   BYTE   UNIT     CODE           ?PR?RESTART_BUS?INTERRUPTS
003A7EH   003A91H   000014H   BYTE   UNIT     CODE           ?PR?_USB_WRITEFIFO_IDATA?EFM8_USBDEP
003A92H   003AA5H   000014H   BYTE   UNIT     CODE           ?PR?_USB_WRITEFIFO_PDATA?EFM8_USBDEP
003AA6H   003AB9H   000014H   BYTE   UNIT     CODE           ?PR?SMB_INIT_CRC?I2C
003ABAH   003ACCH   000013H   BYTE   UNIT     CODE           ?PR?TIMER01_0_ENTER_DEFAULTMODE_FROM_RESET?INITDEVICE
003ACDH   003ADFH   000013H   BYTE   UNIT     CODE           ?PR?TIMER16_2_ENTER_DEFAULTMODE_FROM_RESET?INITDEVICE
003AE0H   003AF2H   000013H   BYTE   UNIT     CODE           ?PR?_INT2STR_REDUCE_16?BSP
003AF3H   003B05H   000013H   BYTE   UNIT     CODE           ?PR?SMB_INIT?I2C
003B06H   003B17H   000012H   BYTE   UNIT     CODE           ?PR?PORTS_1_ENTER_DEFAULTMODE_FROM_RESET?INITDEVICE
003B18H   003B28H   000011H   BYTE   UNIT     CODE           ?PR?U2F_HID_FLUSH?U2F_HID
003B29H   003B39H   000011H   BYTE   UNIT     CODE           ?PR?ATECC_WAKE?ATECC508A
003B3AH   003B4AH   000011H   BYTE   UNIT     CODE           ?PR?_RGB?MAIN
003B4BH   003B5AH   000010H   BYTE   UNIT     CODE           ?PR?TIMER3_ISR?INTERRUPTS
003B5BH   003B69H   00000FH   BYTE   UNIT     CODE           ?PR?HANDLEUSBSUSPENDINT?EFM8_USBDINT
003B6AH   003B77H   00000EH   BYTE   UNIT     CODE           ?PR?CLOCK_0_ENTER_DEFAULTMODE_FROM_RESET?INITDEVICE
003B78H   003B84H   00000DH   BYTE   UNIT     CODE           ?PR?USB_GETSETUPEND?USB_0
003B85H   003B91H   00000DH   BYTE   UNIT     CODE           ?PR?USB_EP0SENTSTALL?USB_0
003B92H   003B9EH   00000DH   BYTE   UNIT     CODE           ?PR?USB_EP0INPACKETREADY?USB_0
003B9FH   003BABH   00000DH   BYTE   UNIT     CODE           ?PR?USB_EPNINGETSENTSTALL?USB_0
003BACH   003BB8H   00000DH   BYTE   UNIT     CODE           ?PR?USB_EPNOUTGETSENTSTALL?USB_0
003BB9H   003BC4H   00000CH   BYTE   UNIT     CODE           ?CO?INTERRUPTS
003BC5H   003BD0H   00000CH   BYTE   UNIT     CODE           ?PR?_U2F_PUTD?BSP
003BD1H   003BDCH   00000CH   BYTE   UNIT     CODE           ?PR?USB_EP0OUTPACKETREADY?USB_0
003BDDH   003BE8H   00000CH   BYTE   UNIT     CODE           ?PR?USB_EPNGETOUTPACKETREADY?USB_0
003BE9H   003BF3H   00000BH   BYTE   UNIT     CODE           ?PR?INTERRUPTS
003BF4H   003BFEH   00000BH   BYTE   UNIT     CODE           ?PR?_USB_SETINDEX?USB_0
003BFFH   003C09H   00000BH   BYTE   UNIT     CODE           ?PR?USB_GETCOMMONINTS?USB_0
003C0AH   003C14H   00000BH   BYTE   UNIT     CODE           ?PR?USB_GETININTS?USB_0
003C15H   003C1FH   00000BH   BYTE   UNIT     CODE           ?PR?USB_GETOUTINTS?USB_0
003C20H   003C2AH   00000BH   BYTE   UNIT     CODE           ?PR?USB_GETINDEX?USB_0
003C2BH   003C35H   00000BH   BYTE   UNIT     CODE           ?PR?USB_EP0GETCOUNT?USB_0
003C36H   003C40H   00000BH   BYTE   UNIT     CODE           ?CO?ATECC508A
003C41H   003C4AH   00000AH   BYTE   UNIT     CODE           ?PR?WDT_0_ENTER_DEFAULTMODE_FROM_RESET?INITDEVICE
003C4BH   003C54H   00000AH   BYTE   UNIT     CODE           ?PR?PBCFG_0_ENTER_DEFAULTMODE_FROM_RESET?INITDEVICE
003C55H   003C5EH   00000AH   BYTE   UNIT     CODE           ?PR?TIMER_SETUP_0_ENTER_DEFAULTMODE_FROM_RESET?INITDEVICE
003C5FH   003C68H   00000AH   BYTE   UNIT     CODE           ?PR?_U2F_PUTB?BSP
003C69H   003C72H   00000AH   BYTE   UNIT     CODE           ?PR?ATECC_IDLE?ATECC508A
003C73H   003C7CH   00000AH   BYTE   UNIT     CODE           ?PR?EEPROM
003C7DH   003C86H   00000AH   BYTE   UNIT     CODE           ?PR?_SET_APP_U2F_HID_MSG?MAIN
003C87H   003C8FH   000009H   BYTE   UNIT     CODE           ?PR?USBLIB_0_ENTER_DEFAULTMODE_FROM_RESET?INITDEVICE
003C90H   003C98H   000009H   BYTE   UNIT     CODE           ?PR?_USBD_DEVICESTATECHANGECB?CALLBACK
003C99H   003CA1H   000009H   BYTE   UNIT     CODE           ?PR?_U2F_HID_SET_LEN?U2F_HID
LX51 LINKER/LOCATER V4.66.30.0                                                        03/29/2016  00:06:41  PAGE 7


003CA2H   003CAAH   000009H   BYTE   UNIT     CODE           ?PR?_REFRESH_CID?U2F_HID
003CABH   003CB2H   000008H   BYTE   UNIT     CODE           ?PR?PCA_0_ENTER_DEFAULTMODE_FROM_RESET?INITDEVICE
003CB3H   003CBAH   000008H   BYTE   UNIT     CODE           ?PR?HANDLEUSBRESUMEINT?EFM8_USBDINT
003CBBH   003CC1H   000007H   BYTE   UNIT     CODE           ?PR?VREG_0_ENTER_DEFAULTMODE_FROM_RESET?INITDEVICE
003CC2H   003CC8H   000007H   BYTE   UNIT     CODE           ?PR?CIP51_0_ENTER_DEFAULTMODE_FROM_RESET?INITDEVICE
003CC9H   003CCFH   000007H   BYTE   UNIT     CODE           ?PR?INTERRUPT_0_ENTER_DEFAULTMODE_FROM_RESET?INITDEVICE
003CD0H   003CD6H   000007H   BYTE   UNIT     CODE           ?PR?PCACH_0_ENTER_DEFAULTMODE_FROM_RESET?INITDEVICE
003CD7H   003CDDH   000007H   BYTE   UNIT     CODE           ?PR?PCACH_1_ENTER_DEFAULTMODE_FROM_RESET?INITDEVICE
003CDEH   003CE4H   000007H   BYTE   UNIT     CODE           ?PR?PCACH_2_ENTER_DEFAULTMODE_FROM_RESET?INITDEVICE
003CE5H   003CEBH   000007H   BYTE   UNIT     CODE           ?PR?USB_GETINTSENABLED?USB_0
003CECH   003CF2H   000007H   BYTE   UNIT     CODE           ?PR?U2F_GET_ATTESTATION_CERT?U2F_ATECC
003CF3H   003CF8H   000006H   BYTE   UNIT     CODE           ?PR?_U2F_PUTL?BSP
003CF9H   003CFEH   000006H   BYTE   UNIT     CODE           ?PR?IDLEGETRATE?IDLE
003CFFH   003D04H   000006H   BYTE   UNIT     CODE           ?PR?USB_EPOUTGETCOUNT?USB_0
003D05H   003D08H   000004H   BYTE   UNIT     CODE           ?PR?SMBUS_0_ENTER_DEFAULTMODE_FROM_RESET?INITDEVICE
003D09H   003D0CH   000004H   BYTE   UNIT     CODE           ?PR?UART_0_ENTER_DEFAULTMODE_FROM_RESET?INITDEVICE
003D0DH   003D0FH   000003H   BYTE   UNIT     CODE           ?PR?_SET_APP_ERROR?MAIN
003D10H   003D12H   000003H   BYTE   UNIT     CODE           ?PR?_U2F_RESPONSE_WRITEBACK?U2F_ATECC
003D13H   003D15H   000003H   BYTE   UNIT     CODE           ?PR?U2F_RESPONSE_FLUSH?U2F_ATECC
003D16H   003D17H   000002H   BYTE   UNIT     CODE           ?PR?USBD_ISSELFPOWEREDCB?CALLBACK
003D18H   003D19H   000002H   BYTE   UNIT     CODE           ?PR?_SLAB_ASSERT?ASSERT
003D1AH   003D1AH   000001H   BYTE   UNIT     CODE           ?PR?USBD_RESETCB?CALLBACK
003D1BH   003D1BH   000001H   BYTE   UNIT     CODE           ?PR?FORCEMODULELOAD_USBINT?EFM8_USBDINT
003D1CH   003D1CH   000001H   BYTE   UNIT     CODE           ?PR?U2F_RESPONSE_START?U2F_ATECC
003D1DH   003E7BH   00015FH   BYTE   UNIT     CONST          ?CO?U2F_ATECC
003E7CH   003F35H   0000BAH   BYTE   UNIT     CONST          ?CO?DESCRIPTORS
003F36H   003F37H   000002H   BYTE   UNIT     CONST          ?CO?EFM8_USBDCH9

* * * * * * * * * * *  X D A T A   M E M O R Y  * * * * * * * * * * * * *
000000H   000149H   00014AH   BYTE   UNIT     XDATA          ?XD?U2F_HID
00014AH   00026EH   000125H   BYTE   UNIT     XDATA          _XDATA_GROUP_
00026FH   000301H   000093H   BYTE   UNIT     XDATA          ?XD?U2F_ATECC
000302H   000342H   000041H   BYTE   UNIT     XDATA          ?XD?CALLBACK
000343H   00036DH   00002BH   BYTE   UNIT     XDATA          ?XD?EFM8_USBD
00036EH   000382H   000015H   BYTE   UNIT     XDATA          ?XD?INTERRUPTS
000383H   00038EH   00000CH   BYTE   UNIT     XDATA          ?XD?BSP
00038FH   000391H   000003H   BYTE   UNIT     XDATA          ?XD?IDLE
000392H   000393H   000002H   BYTE   UNIT     XDATA          ?XD?EFM8_USBDCH9
000394H   000395H   000002H   BYTE   UNIT     XDATA          ?XD?ATECC508A

* * * * * * * * *   R E M O V E D     S E G M E N T S   * * * * * * * *
   *DEL*:           000015H   BYTE   UNIT     CODE           ?PR?PORTS_2_ENTER_DEFAULTMODE_FROM_RESET?INITDEVICE
   *DEL*:           000009H   BYTE   UNIT     CODE           ?PR?_U2F_PUTX?BSP
   *DEL*:           000006H   BYTE   UNIT     CODE           ?PR?_U2F_PUTLX?BSP
   *DEL*:           000035H   BYTE   UNIT     CODE           ?PR?_U2F_PRINTX?BSP
   *DEL*:           00002FH   BYTE   UNIT     XDATA          ?XD?_U2F_PRINTX?BSP
   *DEL*:           000035H   BYTE   UNIT     CODE           ?PR?_U2F_PRINTLX?BSP
   *DEL*:           00002FH   BYTE   UNIT     XDATA          ?XD?_U2F_PRINTLX?BSP
   *DEL*:           000009H   BYTE   UNIT     CODE           ?PR?ISIDLETIMERINDEFINITE?IDLE
   *DEL*:           000011H   BYTE   UNIT     CODE           ?PR?ISIDLETIMEREXPIRED?IDLE
   *DEL*:           000017H   BYTE   UNIT     CODE           ?PR?IDLETIMERTICK?IDLE
   *DEL*:           000012H   BYTE   UNIT     CODE           ?PR?_CHECK_CID?U2F_HID
   *DEL*:           00000DH   BYTE   UNIT     CODE           ?PR?USB_ISSUSPENDED?USB_0
   *DEL*:           000006H   BYTE   UNIT     CODE           ?PR?USB_GETSOFNUMBER?USB_0
   *DEL*:           000008H   BYTE   UNIT     CODE           ?PR?USB_ISPREFETCHENABLED?USB_0
   *DEL*:           000008H   BYTE   UNIT     CODE           ?PR?USB_ISREGULATORENABLED?USB_0
   *DEL*:           00001DH   BYTE   UNIT     CODE           ?PR?USB_SUSPENDOSCILLATOR?USB_0
   *DEL*:           00000BH   BYTE   UNIT     CODE           ?PR?USBD_DISCONNECT?EFM8_USBD
   *DEL*:           000006H   BYTE   UNIT     CODE           ?PR?USBD_GETUSBSTATE?EFM8_USBD
   *DEL*:           000077H   BYTE   UNIT     CODE           ?PR?_USBD_STALLEP?EFM8_USBD
   *DEL*:           000002H   BYTE   UNIT     XDATA          ?XD?_USBD_STALLEP?EFM8_USBD
   *DEL*:           000000H.1 BIT    UNIT     BIT            ?BI?_USBD_STALLEP?EFM8_USBD
LX51 LINKER/LOCATER V4.66.30.0                                                        03/29/2016  00:06:41  PAGE 8


   *DEL*:           00000BH   BYTE   UNIT     CODE           ?PR?USBD_STOP?EFM8_USBD
   *DEL*:           000064H   BYTE   UNIT     CODE           ?PR?USBD_SUSPEND?EFM8_USBD
   *DEL*:           000001H   BYTE   UNIT     XDATA          ?XD?USBD_SUSPEND?EFM8_USBD
   *DEL*:           000000H.2 BIT    UNIT     BIT            ?BI?USBD_SUSPEND?EFM8_USBD
   *DEL*:           000075H   BYTE   UNIT     CODE           ?PR?_USBD_UNSTALLEP?EFM8_USBD
   *DEL*:           000002H   BYTE   UNIT     XDATA          ?XD?_USBD_UNSTALLEP?EFM8_USBD
   *DEL*:           000000H.1 BIT    UNIT     BIT            ?BI?_USBD_UNSTALLEP?EFM8_USBD
   *DEL*:           00000AH   BYTE   UNIT     CODE           ?PR?ATECC_SLEEP?ATECC508A
   *DEL*:           0000BAH   BYTE   UNIT     CODE           ?PR?_ATECC_WRITE_EEPROM?ATECC508A
   *DEL*:           000014H   BYTE   UNIT     XDATA          ?XD?_ATECC_WRITE_EEPROM?ATECC508A
   *DEL*:           000003H   BYTE   UNIT     CODE           ?PR?_SET_RESPONSE_LENGTH?U2F_ATECC



OVERLAY MAP OF MODULE:   U2F-FIRMWARE.OMF.CRBUILD (INITDEVICE)


FUNCTION/MODULE                                BIT_GROUP   DATA_GROUP   XDATA_GROUP
--> CALLED FUNCTION/MODULE                    START  STOP  START  STOP  START  STOP
===================================================================================
TIMER2_ISR/INTERRUPTS                         ----- -----  ----- -----  ----- -----

*** NEW ROOT ********************************

SMBUS0_ISR/INTERRUPTS                         ----- -----  0015H 0015H  ----- -----
  +--> INTERRUPTS
  +--> __FEED_CRC/INTERRUPTS
  +--> UPDATE_FROM_PACKET_LENGTH/INTERRUPTS
  +--> _FEED_CRC/I2C
  +--> ?CO?INTERRUPTS
  +--> _U2F_PRINTB/BSP
  +--> RESTART_BUS/INTERRUPTS
  +--> _REVERSE_BITS/I2C

INTERRUPTS                                    ----- -----  ----- -----  ----- -----

__FEED_CRC/INTERRUPTS                         ----- -----  ----- -----  ----- -----
  +--> _FEED_CRC/I2C

_FEED_CRC/I2C                                 ----- -----  ----- -----  ----- -----
  +--> I2C

I2C                                           ----- -----  ----- -----  ----- -----

UPDATE_FROM_PACKET_LENGTH/INTERRUPTS          ----- -----  ----- -----  ----- -----

?CO?INTERRUPTS                                ----- -----  ----- -----  ----- -----

_U2F_PRINTB/BSP                               ----- -----  ----- -----  0212H 0240H
  +--> _U2F_PRINTS/BSP
  +--> BSP
  +--> _U2F_PUTB/BSP

_U2F_PRINTS/BSP                               ----- -----  ----- -----  0261H 0263H
  +--> BSP
  +--> _PUTF/BSP

BSP                                           ----- -----  ----- -----  ----- -----
  +--> ?CO?BSP

?CO?BSP                                       ----- -----  ----- -----  ----- -----

LX51 LINKER/LOCATER V4.66.30.0                                                        03/29/2016  00:06:41  PAGE 9


_PUTF/BSP                                     ----- -----  ----- -----  ----- -----

_U2F_PUTB/BSP                                 ----- -----  ----- -----  ----- -----
  +--> ___INT2STR16/BSP
  +--> _U2F_PRINTS/BSP

___INT2STR16/BSP                              ----- -----  ----- -----  0261H 0267H
  +--> BSP
  +--> _INT2STR_REDUCE_16/BSP
  +--> _INT2STR_MAP_16/BSP

_INT2STR_REDUCE_16/BSP                        ----- -----  ----- -----  ----- -----

_INT2STR_MAP_16/BSP                           ----- -----  ----- -----  0268H 026EH
  +--> BSP

RESTART_BUS/INTERRUPTS                        ----- -----  ----- -----  ----- -----

_REVERSE_BITS/I2C                             ----- -----  ----- -----  ----- -----
  +--> I2C

*** NEW ROOT ********************************

TIMER3_ISR/INTERRUPTS                         ----- -----  ----- -----  ----- -----
  +--> RESTART_BUS/INTERRUPTS

*** NEW ROOT ********************************

?C_C51STARTUP                                 ----- -----  ----- -----  ----- -----
  +--> MAIN/MAIN
  +--> ?C_INITSEG

MAIN/MAIN                                     ----- -----  ----- -----  0187H 018FH
  +--> ENTER_DEFAULTMODE_FROM_RESET/INITDEVICE
  +--> _INIT/MAIN
  +--> ?CO?MAIN
  +--> _U2F_PRINTS/BSP
  +--> MAIN
  +--> _U2F_PRINTL/BSP
  +--> _USBD_EPISBUSY/EFM8_USBD
  +--> _USBD_READ/EFM8_USBD
  +--> _RGB/MAIN
  +--> _U2F_HID_REQUEST/U2F_HID
  +--> _U2F_PRINTB/BSP

ENTER_DEFAULTMODE_FROM_RESET/INITDEVICE       ----- -----  ----- -----  0190H 0190H
  +--> WDT_0_ENTER_DEFAULTMODE_FROM_RESET/INITDEVICE
  +--> VREG_0_ENTER_DEFAULTMODE_FROM_RESET/INITDEVICE
  +--> PORTS_0_ENTER_DEFAULTMODE_FROM_RESET/INITDEVICE
  +--> PORTS_1_ENTER_DEFAULTMODE_FROM_RESET/INITDEVICE
  +--> PBCFG_0_ENTER_DEFAULTMODE_FROM_RESET/INITDEVICE
  +--> CIP51_0_ENTER_DEFAULTMODE_FROM_RESET/INITDEVICE
  +--> CLOCK_0_ENTER_DEFAULTMODE_FROM_RESET/INITDEVICE
  +--> TIMER01_0_ENTER_DEFAULTMODE_FROM_RESET/INITDEVICE
  +--> TIMER16_2_ENTER_DEFAULTMODE_FROM_RESET/INITDEVICE
  +--> TIMER16_3_ENTER_DEFAULTMODE_FROM_RESET/INITDEVICE
  +--> TIMER_SETUP_0_ENTER_DEFAULTMODE_FROM_RESET/INITDEVICE
  +--> PCA_0_ENTER_DEFAULTMODE_FROM_RESET/INITDEVICE
  +--> PCACH_0_ENTER_DEFAULTMODE_FROM_RESET/INITDEVICE
  +--> PCACH_1_ENTER_DEFAULTMODE_FROM_RESET/INITDEVICE
  +--> PCACH_2_ENTER_DEFAULTMODE_FROM_RESET/INITDEVICE
  +--> SMBUS_0_ENTER_DEFAULTMODE_FROM_RESET/INITDEVICE
LX51 LINKER/LOCATER V4.66.30.0                                                        03/29/2016  00:06:41  PAGE 10


  +--> UART_0_ENTER_DEFAULTMODE_FROM_RESET/INITDEVICE
  +--> INTERRUPT_0_ENTER_DEFAULTMODE_FROM_RESET/INITDEVICE
  +--> USBLIB_0_ENTER_DEFAULTMODE_FROM_RESET/INITDEVICE

WDT_0_ENTER_DEFAULTMODE_FROM_RESET/INITD+     ----- -----  ----- -----  ----- -----
... EVICE

VREG_0_ENTER_DEFAULTMODE_FROM_RESET/INIT+     ----- -----  ----- -----  ----- -----
... DEVICE

PORTS_0_ENTER_DEFAULTMODE_FROM_RESET/INI+     ----- -----  ----- -----  ----- -----
... TDEVICE

PORTS_1_ENTER_DEFAULTMODE_FROM_RESET/INI+     ----- -----  ----- -----  ----- -----
... TDEVICE

PBCFG_0_ENTER_DEFAULTMODE_FROM_RESET/INI+     ----- -----  ----- -----  ----- -----
... TDEVICE

CIP51_0_ENTER_DEFAULTMODE_FROM_RESET/INI+     ----- -----  ----- -----  ----- -----
... TDEVICE

CLOCK_0_ENTER_DEFAULTMODE_FROM_RESET/INI+     ----- -----  ----- -----  ----- -----
... TDEVICE

TIMER01_0_ENTER_DEFAULTMODE_FROM_RESET/I+     ----- -----  ----- -----  ----- -----
... NITDEVICE

TIMER16_2_ENTER_DEFAULTMODE_FROM_RESET/I+     ----- -----  ----- -----  ----- -----
... NITDEVICE

TIMER16_3_ENTER_DEFAULTMODE_FROM_RESET/I+     ----- -----  ----- -----  ----- -----
... NITDEVICE

TIMER_SETUP_0_ENTER_DEFAULTMODE_FROM_RES+     ----- -----  ----- -----  ----- -----
... ET/INITDEVICE

PCA_0_ENTER_DEFAULTMODE_FROM_RESET/INITD+     ----- -----  ----- -----  ----- -----
... EVICE

PCACH_0_ENTER_DEFAULTMODE_FROM_RESET/INI+     ----- -----  ----- -----  ----- -----
... TDEVICE

PCACH_1_ENTER_DEFAULTMODE_FROM_RESET/INI+     ----- -----  ----- -----  ----- -----
... TDEVICE

PCACH_2_ENTER_DEFAULTMODE_FROM_RESET/INI+     ----- -----  ----- -----  ----- -----
... TDEVICE

SMBUS_0_ENTER_DEFAULTMODE_FROM_RESET/INI+     ----- -----  ----- -----  ----- -----
... TDEVICE

UART_0_ENTER_DEFAULTMODE_FROM_RESET/INIT+     ----- -----  ----- -----  ----- -----
... DEVICE

INTERRUPT_0_ENTER_DEFAULTMODE_FROM_RESET+     ----- -----  ----- -----  ----- -----
... /INITDEVICE

USBLIB_0_ENTER_DEFAULTMODE_FROM_RESET/IN+     ----- -----  ----- -----  ----- -----
... ITDEVICE
  +--> ?CO?DESCRIPTORS
  +--> _USBD_INIT/EFM8_USBD
LX51 LINKER/LOCATER V4.66.30.0                                                        03/29/2016  00:06:41  PAGE 11



?CO?DESCRIPTORS                               ----- -----  ----- -----  ----- -----

_USBD_INIT/EFM8_USBD                          ----- -----  ----- -----  0191H 0194H
  +--> EFM8_USBD
  +--> FORCEMODULELOAD_USBINT/EFM8_USBDINT
  +--> USBD_CONNECT/EFM8_USBD

EFM8_USBD                                     ----- -----  ----- -----  ----- -----
  +--> ?CO?EFM8_USBD

?CO?EFM8_USBD                                 ----- -----  ----- -----  ----- -----

FORCEMODULELOAD_USBINT/EFM8_USBDINT           ----- -----  ----- -----  ----- -----

USBD_CONNECT/EFM8_USBD                        ----- -----  ----- -----  ----- -----

_INIT/MAIN                                    ----- -----  ----- -----  ----- -----
  +--> U2F_HID_INIT/U2F_HID
  +--> SMB_INIT/I2C
  +--> ATECC_IDLE/ATECC508A
  +--> EEPROM_INIT/EEPROM
  +--> U2F_INIT/U2F_ATECC

U2F_HID_INIT/U2F_HID                          ----- -----  ----- -----  ----- -----
  +--> U2F_HID

U2F_HID                                       ----- -----  ----- -----  ----- -----

SMB_INIT/I2C                                  ----- -----  ----- -----  ----- -----

ATECC_IDLE/ATECC508A                          ----- -----  ----- -----  ----- -----
  +--> ATECC508A
  +--> _SMB_WRITE/I2C

ATECC508A                                     ----- -----  ----- -----  ----- -----

_SMB_WRITE/I2C                                ----- -----  ----- -----  021AH 021EH
  +--> WHILE_BUSY/I2C

WHILE_BUSY/I2C                                ----- -----  ----- -----  ----- -----
  +--> _SET_APP_ERROR/MAIN

_SET_APP_ERROR/MAIN                           ----- -----  ----- -----  ----- -----

EEPROM_INIT/EEPROM                            ----- -----  ----- -----  0190H 0190H
  +--> EEPROM
  +--> _EEPROM_READ/EEPROM
  +--> __EEPROM_WRITE/EEPROM

EEPROM                                        ----- -----  ----- -----  ----- -----

_EEPROM_READ/EEPROM                           20H.0 20H.0  ----- -----  0202H 0207H

__EEPROM_WRITE/EEPROM                         20H.0 20H.0  0016H 0017H  0201H 0207H

U2F_INIT/U2F_ATECC                            ----- -----  ----- -----  0190H 0195H
  +--> U2F_ATECC
  +--> _EEPROM_READ/EEPROM
  +--> FLUSH_KEY_STORE/U2F_ATECC
  +--> _ATECC_SEND_RECV/ATECC508A
  +--> __EEPROM_WRITE/EEPROM
LX51 LINKER/LOCATER V4.66.30.0                                                        03/29/2016  00:06:41  PAGE 12



U2F_ATECC                                     ----- -----  ----- -----  ----- -----

FLUSH_KEY_STORE/U2F_ATECC                     ----- -----  ----- -----  ----- -----
  +--> __EEPROM_WRITE/EEPROM

_ATECC_SEND_RECV/ATECC508A                    ----- -----  ----- -----  0202H 0211H
  +--> ATECC_WAKE/ATECC508A
  +--> _ATECC_SEND/ATECC508A
  +--> _U2F_DELAY/BSP
  +--> _ATECC_RECV/ATECC508A
  +--> ?CO?ATECC508A
  +--> _U2F_PRINTB/BSP
  +--> _DELAY_CMD/ATECC508A
  +--> ATECC_IDLE/ATECC508A

ATECC_WAKE/ATECC508A                          ----- -----  ----- -----  ----- -----
  +--> _SMB_WRITE/I2C

_ATECC_SEND/ATECC508A                         ----- -----  ----- -----  0212H 0219H
  +--> SMB_INIT_CRC/I2C
  +--> _SMB_SET_EXT_WRITE/I2C
  +--> ATECC508A
  +--> _SMB_WRITE/I2C

SMB_INIT_CRC/I2C                              ----- -----  ----- -----  ----- -----
  +--> WHILE_BUSY/I2C

_SMB_SET_EXT_WRITE/I2C                        ----- -----  ----- -----  021AH 021DH
  +--> WHILE_BUSY/I2C

_U2F_DELAY/BSP                                ----- -----  ----- -----  0212H 0217H

_ATECC_RECV/ATECC508A                         ----- -----  ----- -----  0212H 0219H
  +--> SMB_INIT_CRC/I2C
  +--> ATECC508A
  +--> _SMB_READ/I2C
  +--> _SET_APP_ERROR/MAIN

_SMB_READ/I2C                                 ----- -----  ----- -----  021AH 021EH
  +--> WHILE_BUSY/I2C

?CO?ATECC508A                                 ----- -----  ----- -----  ----- -----

_DELAY_CMD/ATECC508A                          ----- -----  ----- -----  ----- -----
  +--> _U2F_DELAY/BSP

?CO?MAIN                                      ----- -----  ----- -----  ----- -----

MAIN                                          ----- -----  ----- -----  ----- -----

_U2F_PRINTL/BSP                               ----- -----  ----- -----  0190H 01BEH
  +--> _U2F_PRINTS/BSP
  +--> BSP
  +--> _U2F_PUTL/BSP

_U2F_PUTL/BSP                                 ----- -----  ----- -----  ----- -----
  +--> ___INT2STR10/BSP
  +--> _U2F_PRINTS/BSP

___INT2STR10/BSP                              ----- -----  ----- -----  0234H 023AH
  +--> BSP
LX51 LINKER/LOCATER V4.66.30.0                                                        03/29/2016  00:06:41  PAGE 13


  +--> _INT2STR_REDUCE_10/BSP
  +--> _INT2STR_MAP_10/BSP

_INT2STR_REDUCE_10/BSP                        ----- -----  ----- -----  023BH 0241H
  +--> BSP

_INT2STR_MAP_10/BSP                           ----- -----  ----- -----  023BH 0241H
  +--> BSP

_USBD_EPISBUSY/EFM8_USBD                      ----- -----  ----- -----  0190H 0190H
  +--> EFM8_USBD
  +--> _SLAB_ASSERT/ASSERT

_SLAB_ASSERT/ASSERT                           ----- -----  ----- -----  ----- -----

_USBD_READ/EFM8_USBD                          20H.0 20H.1  ----- -----  0190H 0198H
  +--> EFM8_USBD
  +--> _SLAB_ASSERT/ASSERT
  +--> USB_GETINTSENABLED/USB_0

USB_GETINTSENABLED/USB_0                      ----- -----  ----- -----  ----- -----

_RGB/MAIN                                     ----- -----  ----- -----  ----- -----

_U2F_HID_REQUEST/U2F_HID                      ----- -----  ----- -----  0190H 0198H
  +--> U2F_HID
  +--> _GET_CID/U2F_HID
  +--> _REFRESH_CID/U2F_HID
  +--> U2F_HID_RESET_PACKET/U2F_HID
  +--> _STAMP_ERROR/U2F_HID
  +--> ?CO?U2F_HID
  +--> _U2F_PRINTS/BSP
  +--> _HID_U2F_PARSE/U2F_HID

_GET_CID/U2F_HID                              ----- -----  ----- -----  0199H 019DH
  +--> U2F_HID

_REFRESH_CID/U2F_HID                          ----- -----  ----- -----  ----- -----
  +--> U2F_HID

U2F_HID_RESET_PACKET/U2F_HID                  ----- -----  ----- -----  ----- -----
  +--> U2F_HID

_STAMP_ERROR/U2F_HID                          ----- -----  ----- -----  01A4H 01A8H
  +--> U2F_HID
  +--> _USB_WRITE/BSP
  +--> _DEL_CID/U2F_HID

_USB_WRITE/BSP                                ----- -----  ----- -----  01FEH 0204H
  +--> _USBD_WRITE/EFM8_USBD
  +--> _U2F_DELAY/BSP
  +--> ?CO?BSP
  +--> _U2F_PRINTD/BSP

_USBD_WRITE/EFM8_USBD                         20H.3 20H.4  ----- -----  0256H 025EH
  +--> EFM8_USBD
  +--> _SLAB_ASSERT/ASSERT
  +--> USB_GETINTSENABLED/USB_0
  +--> _USB_WRITEFIFO/EFM8_USBDEP

_USB_WRITEFIFO/EFM8_USBDEP                    20H.5 20H.5  ----- -----  025FH 0263H
  +--> EFM8_USBDEP
LX51 LINKER/LOCATER V4.66.30.0                                                        03/29/2016  00:06:41  PAGE 14


  +--> _USB_WRITEFIFO_IDATA/EFM8_USBDEP
  +--> _USB_WRITEFIFO_XDATA/EFM8_USBDEP
  +--> _USB_WRITEFIFO_PDATA/EFM8_USBDEP
  +--> _USB_WRITEFIFO_CODE/EFM8_USBDEP
  +--> _USB_SETINDEX/USB_0

EFM8_USBDEP                                   ----- -----  ----- -----  ----- -----

_USB_WRITEFIFO_IDATA/EFM8_USBDEP              ----- -----  ----- -----  ----- -----

_USB_WRITEFIFO_XDATA/EFM8_USBDEP              ----- -----  ----- -----  ----- -----

_USB_WRITEFIFO_PDATA/EFM8_USBDEP              ----- -----  ----- -----  ----- -----

_USB_WRITEFIFO_CODE/EFM8_USBDEP               ----- -----  ----- -----  ----- -----

_USB_SETINDEX/USB_0                           ----- -----  ----- -----  ----- -----

_U2F_PRINTD/BSP                               ----- -----  ----- -----  0205H 0233H
  +--> _U2F_PRINTS/BSP
  +--> BSP
  +--> _U2F_PUTD/BSP

_U2F_PUTD/BSP                                 ----- -----  ----- -----  ----- -----
  +--> ___INT2STR10/BSP
  +--> _U2F_PRINTS/BSP

_DEL_CID/U2F_HID                              ----- -----  ----- -----  01A9H 01ADH
  +--> U2F_HID

?CO?U2F_HID                                   ----- -----  ----- -----  ----- -----

_HID_U2F_PARSE/U2F_HID                        ----- -----  ----- -----  0199H 01A0H
  +--> U2F_HID
  +--> ?CO?U2F_HID
  +--> _U2F_HID_SET_LEN/U2F_HID
  +--> GET_NEW_CID/U2F_HID
  +--> _U2F_HID_WRITEBACK/U2F_HID
  +--> U2F_HID_FLUSH/U2F_HID
  +--> _U2F_PRINTS/BSP
  +--> _START_BUFFERING/U2F_HID
  +--> _BUFFER_REQUEST/U2F_HID
  +--> _U2F_REQUEST/U2F
  +--> _STAMP_ERROR/U2F_HID
  +--> _U2F_PRINTB/BSP

_U2F_HID_SET_LEN/U2F_HID                      ----- -----  ----- -----  ----- -----

GET_NEW_CID/U2F_HID                           ----- -----  ----- -----  01A1H 01A2H
  +--> U2F_HID
  +--> _IS_CID_FREE/U2F_HID
  +--> _REFRESH_CID/U2F_HID

_IS_CID_FREE/U2F_HID                          ----- -----  ----- -----  01A3H 01A5H
  +--> U2F_HID

_U2F_HID_WRITEBACK/U2F_HID                    ----- -----  ----- -----  01F9H 01FDH
  +--> U2F_HID
  +--> _SET_APP_ERROR/MAIN
  +--> _USB_WRITE/BSP

U2F_HID_FLUSH/U2F_HID                         ----- -----  ----- -----  ----- -----
LX51 LINKER/LOCATER V4.66.30.0                                                        03/29/2016  00:06:41  PAGE 15


  +--> U2F_HID
  +--> _USB_WRITE/BSP
  +--> U2F_HID_RESET_PACKET/U2F_HID

_START_BUFFERING/U2F_HID                      ----- -----  ----- -----  ----- -----
  +--> U2F_HID

_BUFFER_REQUEST/U2F_HID                       ----- -----  ----- -----  01A1H 01A3H
  +--> ?CO?U2F_HID
  +--> _U2F_PRINTS/BSP
  +--> U2F_HID
  +--> _STAMP_ERROR/U2F_HID

_U2F_REQUEST/U2F                              ----- -----  ----- -----  01A1H 01A6H
  +--> U2F_RESPONSE_START/U2F_ATECC
  +--> ?CO?U2F
  +--> _U2F_REGISTER/U2F
  +--> _U2F_AUTHENTICATE/U2F
  +--> _U2F_PRINTS/BSP
  +--> U2F_VERSION/U2F
  +--> _U2F_RESPONSE_WRITEBACK/U2F_ATECC
  +--> U2F_RESPONSE_FLUSH/U2F_ATECC

U2F_RESPONSE_START/U2F_ATECC                  ----- -----  ----- -----  ----- -----

?CO?U2F                                       ----- -----  ----- -----  ----- -----

_U2F_REGISTER/U2F                             ----- -----  ----- -----  01A7H 01F1H
  +--> ?CO?U2F
  +--> U2F
  +--> U2F_ATTESTATION_CERT_SIZE/U2F_ATECC
  +--> U2F_GET_USER_FEEDBACK/U2F_ATECC
  +--> _U2F_NEW_KEYPAIR/U2F_ATECC
  +--> U2F_SHA256_START/U2F_ATECC
  +--> _U2F_SHA256_UPDATE/U2F_ATECC
  +--> U2F_SHA256_FINISH/U2F_ATECC
  +--> _U2F_ECDSA_SIGN/U2F_ATECC
  +--> _GET_SIGNATURE_LENGTH/U2F
  +--> _U2F_HID_SET_LEN/U2F_HID
  +--> _U2F_RESPONSE_WRITEBACK/U2F_ATECC
  +--> U2F_GET_ATTESTATION_CERT/U2F_ATECC
  +--> _DUMP_SIGNATURE_DER/U2F

U2F                                           ----- -----  ----- -----  ----- -----

U2F_ATTESTATION_CERT_SIZE/U2F_ATECC           ----- -----  ----- -----  ----- -----

U2F_GET_USER_FEEDBACK/U2F_ATECC               ----- -----  ----- -----  01F2H 01F5H
  +--> _RGB/MAIN

_U2F_NEW_KEYPAIR/U2F_ATECC                    ----- -----  ----- -----  01F2H 0200H
  +--> U2F_ATECC
  +--> _ATECC_SEND_RECV/ATECC508A
  +--> _EEPROM_READ/EEPROM
  +--> _SET_APP_ERROR/MAIN
  +--> FLUSH_KEY_STORE/U2F_ATECC

U2F_SHA256_START/U2F_ATECC                    ----- -----  ----- -----  ----- -----
  +--> U2F_ATECC
  +--> _ATECC_SEND_RECV/ATECC508A

_U2F_SHA256_UPDATE/U2F_ATECC                  ----- -----  ----- -----  01F2H 01F6H
LX51 LINKER/LOCATER V4.66.30.0                                                        03/29/2016  00:06:41  PAGE 16


  +--> U2F_ATECC
  +--> _ATECC_SEND_RECV/ATECC508A

U2F_SHA256_FINISH/U2F_ATECC                   ----- -----  ----- -----  ----- -----
  +--> U2F_ATECC
  +--> _ATECC_SEND_RECV/ATECC508A

_U2F_ECDSA_SIGN/U2F_ATECC                     ----- -----  ----- -----  01F2H 0201H
  +--> U2F_ATECC
  +--> _ATECC_SEND_RECV/ATECC508A
  +--> _EEPROM_READ/EEPROM

_GET_SIGNATURE_LENGTH/U2F                     ----- -----  ----- -----  ----- -----

_U2F_RESPONSE_WRITEBACK/U2F_ATECC             ----- -----  ----- -----  ----- -----
  +--> _U2F_HID_WRITEBACK/U2F_HID

U2F_GET_ATTESTATION_CERT/U2F_ATECC            ----- -----  ----- -----  ----- -----
  +--> ?CO?U2F_ATECC

?CO?U2F_ATECC                                 ----- -----  ----- -----  ----- -----

_DUMP_SIGNATURE_DER/U2F                       ----- -----  ----- -----  01F2H 01F8H
  +--> ?CO?U2F
  +--> U2F
  +--> _U2F_RESPONSE_WRITEBACK/U2F_ATECC

_U2F_AUTHENTICATE/U2F                         ----- -----  ----- -----  01A7H 01AFH
  +--> U2F
  +--> _U2F_LOAD_KEY/U2F_ATECC
  +--> _U2F_HID_SET_LEN/U2F_HID
  +--> U2F_GET_USER_FEEDBACK/U2F_ATECC
  +--> U2F_COUNT/U2F_ATECC
  +--> U2F_SHA256_START/U2F_ATECC
  +--> _U2F_SHA256_UPDATE/U2F_ATECC
  +--> U2F_SHA256_FINISH/U2F_ATECC
  +--> _U2F_ECDSA_SIGN/U2F_ATECC
  +--> _GET_SIGNATURE_LENGTH/U2F
  +--> _U2F_RESPONSE_WRITEBACK/U2F_ATECC
  +--> _DUMP_SIGNATURE_DER/U2F

_U2F_LOAD_KEY/U2F_ATECC                       ----- -----  ----- -----  01B0H 01B7H
  +--> U2F_ATECC
  +--> _EEPROM_READ/EEPROM

U2F_COUNT/U2F_ATECC                           ----- -----  ----- -----  01B0H 01B3H
  +--> U2F_ATECC
  +--> _ATECC_SEND_RECV/ATECC508A

U2F_VERSION/U2F                               ----- -----  ----- -----  ----- -----
  +--> _U2F_HID_SET_LEN/U2F_HID
  +--> ?CO?U2F
  +--> _U2F_RESPONSE_WRITEBACK/U2F_ATECC

U2F_RESPONSE_FLUSH/U2F_ATECC                  ----- -----  ----- -----  ----- -----
  +--> U2F_HID_FLUSH/U2F_HID

?C_INITSEG                                    ----- -----  ----- -----  ----- -----
  +--> ?CO?BSP

*** NEW ROOT ********************************

LX51 LINKER/LOCATER V4.66.30.0                                                        03/29/2016  00:06:41  PAGE 17


USBIRQHANDLER/EFM8_USBDINT                    ----- -----  ----- -----  024FH 0252H
  +--> USB_GETCOMMONINTS/USB_0
  +--> USB_GETININTS/USB_0
  +--> USB_GETOUTINTS/USB_0
  +--> USB_GETINDEX/USB_0
  +--> HANDLEUSBRESETINT/EFM8_USBDINT
  +--> HANDLEUSBRESUMEINT/EFM8_USBDINT
  +--> HANDLEUSBSUSPENDINT/EFM8_USBDINT
  +--> HANDLEUSBIN1INT/EFM8_USBDEP
  +--> HANDLEUSBOUT1INT/EFM8_USBDEP
  +--> HANDLEUSBEP0INT/EFM8_USBDINT
  +--> _USB_SETINDEX/USB_0

USB_GETCOMMONINTS/USB_0                       ----- -----  ----- -----  ----- -----

USB_GETININTS/USB_0                           ----- -----  ----- -----  ----- -----

USB_GETOUTINTS/USB_0                          ----- -----  ----- -----  ----- -----

USB_GETINDEX/USB_0                            ----- -----  ----- -----  ----- -----

HANDLEUSBRESETINT/EFM8_USBDINT                ----- -----  ----- -----  ----- -----
  +--> EFM8_USBDINT
  +--> _USBD_SETUSBSTATE/EFM8_USBD
  +--> USBD_RESETCB/CALLBACK

EFM8_USBDINT                                  ----- -----  ----- -----  ----- -----

_USBD_SETUSBSTATE/EFM8_USBD                   ----- -----  ----- -----  0255H 0256H
  +--> USBD_ABORTALLTRANSFERS/EFM8_USBD
  +--> _USBD_DEVICESTATECHANGECB/CALLBACK

USBD_ABORTALLTRANSFERS/EFM8_USBD              20H.3 20H.3  ----- -----  0257H 0258H
  +--> USB_GETINTSENABLED/USB_0
  +--> EFM8_USBD
  +--> _USBD_ABORTTRANSFER/EFM8_USBD

_USBD_ABORTTRANSFER/EFM8_USBD                 20H.4 20H.4  ----- -----  0259H 025DH
  +--> EFM8_USBD
  +--> _SLAB_ASSERT/ASSERT
  +--> USB_GETINTSENABLED/USB_0
  +--> _USB_ABORTINEP/USB_0
  +--> _USB_ABORTOUTEP/USB_0

_USB_ABORTINEP/USB_0                          ----- -----  ----- -----  ----- -----
  +--> _USB_SETINDEX/USB_0

_USB_ABORTOUTEP/USB_0                         ----- -----  ----- -----  ----- -----
  +--> _USB_SETINDEX/USB_0

_USBD_DEVICESTATECHANGECB/CALLBACK            ----- -----  ----- -----  0257H 0258H

USBD_RESETCB/CALLBACK                         ----- -----  ----- -----  ----- -----

HANDLEUSBRESUMEINT/EFM8_USBDINT               ----- -----  ----- -----  ----- -----
  +--> _USBD_SETUSBSTATE/EFM8_USBD

HANDLEUSBSUSPENDINT/EFM8_USBDINT              ----- -----  ----- -----  ----- -----
  +--> _USBD_SETUSBSTATE/EFM8_USBD

HANDLEUSBIN1INT/EFM8_USBDEP                   20H.3 20H.3  ----- -----  0253H 0253H
  +--> _USB_SETINDEX/USB_0
LX51 LINKER/LOCATER V4.66.30.0                                                        03/29/2016  00:06:41  PAGE 18


  +--> USB_EPNINGETSENTSTALL/USB_0
  +--> EFM8_USBDEP
  +--> _USB_WRITEFIFO/EFM8_USBDEP
  +--> _USBD_XFERCOMPLETECB/CALLBACK

USB_EPNINGETSENTSTALL/USB_0                   ----- -----  ----- -----  ----- -----

_USBD_XFERCOMPLETECB/CALLBACK                 ----- -----  ----- -----  0256H 025BH
  +--> _DUMP_HEX/BSP
  +--> _SET_APP_U2F_HID_MSG/MAIN

_DUMP_HEX/BSP                                 ----- -----  ----- -----  025CH 0260H
  +--> BSP
  +--> _PUTF/BSP
  +--> _U2F_PUTB/BSP
  +--> _U2F_PRINTS/BSP

_SET_APP_U2F_HID_MSG/MAIN                     ----- -----  ----- -----  ----- -----

HANDLEUSBOUT1INT/EFM8_USBDEP                  20H.3 20H.3  ----- -----  0253H 0254H
  +--> _USB_SETINDEX/USB_0
  +--> USB_EPNOUTGETSENTSTALL/USB_0
  +--> USB_EPNGETOUTPACKETREADY/USB_0
  +--> USB_EPOUTGETCOUNT/USB_0
  +--> _USB_READFIFO/EFM8_USBDEP
  +--> EFM8_USBDEP
  +--> _USBD_XFERCOMPLETECB/CALLBACK

USB_EPNOUTGETSENTSTALL/USB_0                  ----- -----  ----- -----  ----- -----

USB_EPNGETOUTPACKETREADY/USB_0                ----- -----  ----- -----  ----- -----

USB_EPOUTGETCOUNT/USB_0                       ----- -----  ----- -----  ----- -----
  +--> _USB_GETSHORTREGISTER/USB_0

_USB_GETSHORTREGISTER/USB_0                   ----- -----  ----- -----  ----- -----

_USB_READFIFO/EFM8_USBDEP                     ----- -----  ----- -----  0255H 0259H
  +--> EFM8_USBDEP
  +--> _USB_READFIFO_IDATA/EFM8_USBDEP
  +--> _USB_READFIFO_XDATA/EFM8_USBDEP
  +--> _USB_READFIFO_PDATA/EFM8_USBDEP

_USB_READFIFO_IDATA/EFM8_USBDEP               ----- -----  ----- -----  ----- -----

_USB_READFIFO_XDATA/EFM8_USBDEP               ----- -----  ----- -----  ----- -----

_USB_READFIFO_PDATA/EFM8_USBDEP               ----- -----  ----- -----  ----- -----

HANDLEUSBEP0INT/EFM8_USBDINT                  ----- -----  ----- -----  ----- -----
  +--> _USB_SETINDEX/USB_0
  +--> USB_EP0SENTSTALL/USB_0
  +--> USB_GETSETUPEND/USB_0
  +--> EFM8_USBDINT
  +--> USB_EP0OUTPACKETREADY/USB_0
  +--> USB_READFIFOSETUP/EFM8_USBDINT
  +--> _USBD_SETUPCMDCB/CALLBACK
  +--> USBDCH9_SETUPCMD/EFM8_USBDCH9
  +--> SENDEP0STALL/EFM8_USBDINT
  +--> HANDLEUSBEP0RX/EFM8_USBDINT
  +--> USB_EP0INPACKETREADY/USB_0
  +--> HANDLEUSBEP0TX/EFM8_USBDINT
LX51 LINKER/LOCATER V4.66.30.0                                                        03/29/2016  00:06:41  PAGE 19



USB_EP0SENTSTALL/USB_0                        ----- -----  ----- -----  ----- -----

USB_GETSETUPEND/USB_0                         ----- -----  ----- -----  ----- -----

USB_EP0OUTPACKETREADY/USB_0                   ----- -----  ----- -----  ----- -----

USB_READFIFOSETUP/EFM8_USBDINT                ----- -----  ----- -----  0253H 0254H
  +--> _USB_READFIFO/EFM8_USBDEP
  +--> EFM8_USBDINT

_USBD_SETUPCMDCB/CALLBACK                     ----- -----  ----- -----  0253H 0255H
  +--> CALLBACK
  +--> ?CO?DESCRIPTORS
  +--> _IDLETIMERSET/IDLE
  +--> IDLEGETRATE/IDLE
  +--> _USBD_WRITE/EFM8_USBD

CALLBACK                                      ----- -----  ----- -----  ----- -----

_IDLETIMERSET/IDLE                            ----- -----  ----- -----  ----- -----
  +--> IDLETIMERSTART/IDLE

IDLETIMERSTART/IDLE                           ----- -----  ----- -----  ----- -----

IDLEGETRATE/IDLE                              ----- -----  ----- -----  ----- -----

USBDCH9_SETUPCMD/EFM8_USBDCH9                 ----- -----  ----- -----  0253H 0253H
  +--> GETSTATUS/EFM8_USBDCH9
  +--> CLEARFEATURE/EFM8_USBDCH9
  +--> SETFEATURE/EFM8_USBDCH9
  +--> SETADDRESS/EFM8_USBDCH9
  +--> GETDESCRIPTOR/EFM8_USBDCH9
  +--> GETCONFIGURATION/EFM8_USBDCH9
  +--> SETCONFIGURATION/EFM8_USBDCH9
  +--> GETINTERFACE/EFM8_USBDCH9
  +--> SETINTERFACE/EFM8_USBDCH9
  +--> _USB_SETINDEX/USB_0
  +--> SENDEP0STALL/EFM8_USBDINT

GETSTATUS/EFM8_USBDCH9                        ----- -----  ----- -----  0254H 0254H
  +--> EFM8_USBDCH9
  +--> USBD_ISSELFPOWEREDCB/CALLBACK
  +--> _EP0_WRITE/EFM8_USBDCH9

EFM8_USBDCH9                                  ----- -----  ----- -----  ----- -----

USBD_ISSELFPOWEREDCB/CALLBACK                 ----- -----  ----- -----  ----- -----

_EP0_WRITE/EFM8_USBDCH9                       ----- -----  ----- -----  ----- -----

CLEARFEATURE/EFM8_USBDCH9                     ----- -----  ----- -----  0254H 0254H
  +--> EFM8_USBDCH9
  +--> _USB_SETINDEX/USB_0

SETFEATURE/EFM8_USBDCH9                       ----- -----  ----- -----  0254H 0254H
  +--> EFM8_USBDCH9
  +--> _USB_SETINDEX/USB_0

SETADDRESS/EFM8_USBDCH9                       ----- -----  ----- -----  0254H 0254H
  +--> EFM8_USBDCH9
  +--> _USBD_SETUSBSTATE/EFM8_USBD
LX51 LINKER/LOCATER V4.66.30.0                                                        03/29/2016  00:06:41  PAGE 20



GETDESCRIPTOR/EFM8_USBDCH9                    ----- -----  ----- -----  0254H 0258H
  +--> EFM8_USBDCH9
  +--> _EP0_WRITE/EFM8_USBDCH9

GETCONFIGURATION/EFM8_USBDCH9                 ----- -----  ----- -----  ----- -----
  +--> ?CO?EFM8_USBDCH9
  +--> _EP0_WRITE/EFM8_USBDCH9

?CO?EFM8_USBDCH9                              ----- -----  ----- -----  ----- -----

SETCONFIGURATION/EFM8_USBDCH9                 ----- -----  ----- -----  0254H 0254H
  +--> EFM8_USBDCH9
  +--> USBD_ACTIVATEALLEPS/EFM8_USBDCH9
  +--> _USBD_SETUSBSTATE/EFM8_USBD
  +--> USBD_ABORTALLTRANSFERS/EFM8_USBD

USBD_ACTIVATEALLEPS/EFM8_USBDCH9              20H.3 20H.3  ----- -----  ----- -----
  +--> EFM8_USBDCH9
  +--> _USB_ACTIVATEEP/USB_0

_USB_ACTIVATEEP/USB_0                         20H.4 20H.6  ----- -----  ----- -----
  +--> _USB_SETINDEX/USB_0

GETINTERFACE/EFM8_USBDCH9                     ----- -----  ----- -----  ----- -----
  +--> EFM8_USBDCH9
  +--> ?CO?EFM8_USBDCH9
  +--> _EP0_WRITE/EFM8_USBDCH9

SETINTERFACE/EFM8_USBDCH9                     ----- -----  ----- -----  ----- -----
  +--> EFM8_USBDCH9
  +--> USBD_ACTIVATEALLEPS/EFM8_USBDCH9

SENDEP0STALL/EFM8_USBDINT                     ----- -----  ----- -----  ----- -----
  +--> _USB_SETINDEX/USB_0

HANDLEUSBEP0RX/EFM8_USBDINT                   20H.3 20H.3  ----- -----  0253H 0254H
  +--> USB_EP0GETCOUNT/USB_0
  +--> EFM8_USBDINT
  +--> _USB_READFIFO/EFM8_USBDEP
  +--> _USBD_XFERCOMPLETECB/CALLBACK

USB_EP0GETCOUNT/USB_0                         ----- -----  ----- -----  ----- -----

USB_EP0INPACKETREADY/USB_0                    ----- -----  ----- -----  ----- -----

HANDLEUSBEP0TX/EFM8_USBDINT                   20H.3 20H.3  ----- -----  0253H 0255H
  +--> _USB_WRITEFIFO/EFM8_USBDEP
  +--> EFM8_USBDINT
  +--> ?CO?EFM8_USBDCH9
  +--> _USBD_XFERCOMPLETECB/CALLBACK



PUBLIC SYMBOLS OF MODULE:  U2F-FIRMWARE.OMF.CRBUILD (INITDEVICE)


      VALUE       CLASS    TYPE      PUBLIC SYMBOL NAME
      =================================================
      02000201H   XDATA    BYTE      ?__eeprom_write?BYTE
      02000212H   XDATA    BYTE      ?_atecc_recv?BYTE
      02000212H   XDATA    BYTE      ?_atecc_send?BYTE
LX51 LINKER/LOCATER V4.66.30.0                                                        03/29/2016  00:06:41  PAGE 21


      02000202H   XDATA    BYTE      ?_atecc_send_recv?BYTE
*DEL*:00000000H   XDATA    BYTE      ?_atecc_write_eeprom?BYTE
      02000202H   XDATA    BYTE      ?_eeprom_read?BYTE
      0200021AH   XDATA    BYTE      ?_smb_read?BYTE
      0200021AH   XDATA    BYTE      ?_smb_write?BYTE
      020001F2H   XDATA    BYTE      ?_u2f_ecdsa_sign?BYTE
      020001F2H   XDATA    BYTE      ?_u2f_new_keypair?BYTE
      02000212H   XDATA    BYTE      ?_u2f_printb?BYTE
      02000205H   XDATA    BYTE      ?_u2f_printd?BYTE
      02000190H   XDATA    BYTE      ?_u2f_printl?BYTE
*DEL*:00000000H   XDATA    BYTE      ?_u2f_printlx?BYTE
*DEL*:00000000H   XDATA    BYTE      ?_u2f_printx?BYTE
      00000020H.4 BIT      BIT       ?_USB_ActivateEp?BIT
      00000020H.5 BIT      BIT       ?_USB_WriteFIFO?BIT
      00000020H.0 BIT      BIT       ?_USBD_Read?BIT
      02000190H   XDATA    BYTE      ?_USBD_Read?BYTE
      00000020H.3 BIT      BIT       ?_USBD_Write?BIT
      02000256H   XDATA    BYTE      ?_USBD_Write?BYTE
      02000256H   XDATA    BYTE      ?_USBD_XferCompleteCb?BYTE
      010005BFH   CODE     ---       ?C?CCASE
      0100018DH   CODE     ---       ?C?CLDOPTR
      01000174H   CODE     ---       ?C?CLDPTR
      00000000H   NUMBER   ---       ?C?CODESEG
      0100014EH   CODE     ---       ?C?COPY
      010001CCH   CODE     ---       ?C?CSTOPTR
      010001BAH   CODE     ---       ?C?CSTPTR
      010001EEH   CODE     ---       ?C?IILDX
      01000204H   CODE     ---       ?C?ILDIX
      01000245H   CODE     ---       ?C?ILDOPTR
      0100021AH   CODE     ---       ?C?ILDPTR
      0100029CH   CODE     ---       ?C?ISTOPTR
      0100027DH   CODE     ---       ?C?ISTPTR
      010002C9H   CODE     ---       ?C?LADD
      010007CBH   CODE     ---       ?C?LLDCODE
      010007F5H   CODE     ---       ?C?LLDCODE0
      010007B3H   CODE     ---       ?C?LLDIDATA
      010007DBH   CODE     ---       ?C?LLDIDATA0
      0100045EH   CODE     ---       ?C?LLDOPTR0
      010007BFH   CODE     ---       ?C?LLDPDATA
      010007E8H   CODE     ---       ?C?LLDPDATA0
      010003E8H   CODE     ---       ?C?LLDPTR
      01000446H   CODE     ---       ?C?LLDXDATA
      01000452H   CODE     ---       ?C?LLDXDATA0
      010003A4H   CODE     ---       ?C?LOR
      010003D5H   CODE     ---       ?C?LSHL
      01000805H   CODE     ---       ?C?LSTIDATA
      0100049AH   CODE     ---       ?C?LSTKXDATA
      01000422H   CODE     ---       ?C?LSTOPTR
      01000811H   CODE     ---       ?C?LSTPDATA
      01000408H   CODE     ---       ?C?LSTPTR
      0100048EH   CODE     ---       ?C?LSTXDATA
      0100078BH   CODE     ---       ?C?MEMMOVE
      010005E5H   CODE     ---       ?C?MEMSET
      01000826H   CODE     ---       ?C?PILDIDATA
      0100085FH   CODE     ---       ?C?PILDPDATA
      01000514H   CODE     ---       ?C?PILDPTR
      0100083FH   CODE     ---       ?C?PILDXDATA
      01000878H   CODE     ---       ?C?PLDCODE
      0100081DH   CODE     ---       ?C?PLDIDATA
      010004D4H   CODE     ---       ?C?PLDIXDATA
      01000536H   CODE     ---       ?C?PLDOPTR
      01000856H   CODE     ---       ?C?PLDPDATA
LX51 LINKER/LOCATER V4.66.30.0                                                        03/29/2016  00:06:41  PAGE 22


      010004F4H   CODE     ---       ?C?PLDPTR
      010004CBH   CODE     ---       ?C?PLDXDATA
      01000836H   CODE     ---       ?C?PSTIDATA
      01000566H   CODE     ---       ?C?PSTOPTR
      0100086FH   CODE     ---       ?C?PSTPDATA
      010004EBH   CODE     ---       ?C?PSTXDATA
      010003B1H   CODE     ---       ?C?ULCMP
      01000312H   CODE     ---       ?C?ULDIV
      010003C2H   CODE     ---       ?C?ULSHR
      00000000H   NUMBER   ---       ?C?XDATASEG
      010024B6H   CODE     ---       ?C_START
      01000000H   CODE     ---       ?C_STARTUP
      010032E5H   CODE     ---       ___int2str10
      01003320H   CODE     ---       ___int2str16
      01003D1DH   CONST    ---       __attest
      01002F92H   CODE     ---       __eeprom_write
      01001B6EH   CODE     ---       _atecc_recv
      01002EAAH   CODE     ---       _atecc_send
      01001505H   CODE     ---       _atecc_send_recv
*DEL*:00000000H   CODE     ---       _atecc_write_eeprom
      01002E5AH   CODE     ---       _dump_hex
      010033D0H   CODE     ---       _eeprom_read
      01002587H   CODE     ---       _feed_crc
      010039B2H   CODE     ---       _idleTimerSet
      00000011H   DATA     DWORD     _MS_
      0100399AH   CODE     ---       _putf
      01002689H   CODE     ---       _reverse_bits
      01003B3AH   CODE     ---       _rgb
      01003D0DH   CODE     ---       _set_app_error
      01003C7DH   CODE     ---       _set_app_u2f_hid_msg
*DEL*:00000000H   CODE     ---       _set_response_length
      01003D18H   CODE     ---       _slab_Assert
      01002F45H   CODE     ---       _smb_read
      01003648H   CODE     ---       _smb_set_ext_write
      010031B1H   CODE     ---       _smb_write
      0100322EH   CODE     ---       _u2f_delay
      010019E9H   CODE     ---       _u2f_ecdsa_sign
      01001139H   CODE     ---       _u2f_hid_request
      01003C99H   CODE     ---       _u2f_hid_set_len
      010016B9H   CODE     ---       _u2f_hid_writeback
      01002CF5H   CODE     ---       _u2f_load_key
      010023DEH   CODE     ---       _u2f_new_keypair
      0100340AH   CODE     ---       _u2f_printb
      0100003EH   CODE     ---       _u2f_printd
      010034E8H   CODE     ---       _u2f_printl
*DEL*:00000000H   CODE     ---       _u2f_printlx
      010037A8H   CODE     ---       _u2f_prints
*DEL*:00000000H   CODE     ---       _u2f_printx
      01003C5FH   CODE     ---       _u2f_putb
      01003BC5H   CODE     ---       _u2f_putd
      01003CF3H   CODE     ---       _u2f_putl
*DEL*:00000000H   CODE     ---       _u2f_putlx
*DEL*:00000000H   CODE     ---       _u2f_putx
      01001E3BH   CODE     ---       _u2f_request
      01003D10H   CODE     ---       _u2f_response_writeback
      01002BCFH   CODE     ---       _u2f_sha256_update
      01003552H   CODE     ---       _USB_AbortInEp
      01003586H   CODE     ---       _USB_AbortOutEp
      010024FBH   CODE     ---       _USB_ActivateEp
      01002C32H   CODE     ---       _USB_ReadFIFO
      01003BF4H   CODE     ---       _USB_SetIndex
      0100295AH   CODE     ---       _usb_write
LX51 LINKER/LOCATER V4.66.30.0                                                        03/29/2016  00:06:41  PAGE 23


      010028E5H   CODE     ---       _USB_WriteFIFO
      0100260AH   CODE     ---       _USBD_AbortTransfer
      01003C90H   CODE     ---       _USBD_DeviceStateChangeCb
      010036A1H   CODE     ---       _USBD_EpIsBusy
      0100218FH   CODE     ---       _USBD_Init
      01001D8CH   CODE     ---       _USBD_Read
      01000DBFH   CODE     ---       _USBD_SetupCmdCb
      01003171H   CODE     ---       _USBD_SetUsbState
*DEL*:00000000H   CODE     ---       _USBD_StallEp
*DEL*:00000000H   CODE     ---       _USBD_UnStallEp
      0100178DH   CODE     ---       _USBD_Write
      010036F2H   CODE     ---       _USBD_XferCompleteCb
*SFR* 000000E0H   DATA     BYTE      ACC
*SFR* 000000E0H   DATA     BIT       ACC_ACC0
*SFR* 000000E0H.1 DATA     BIT       ACC_ACC1
*SFR* 000000E0H.2 DATA     BIT       ACC_ACC2
*SFR* 000000E0H.3 DATA     BIT       ACC_ACC3
*SFR* 000000E0H.4 DATA     BIT       ACC_ACC4
*SFR* 000000E0H.5 DATA     BIT       ACC_ACC5
*SFR* 000000E0H.6 DATA     BIT       ACC_ACC6
*SFR* 000000E0H.7 DATA     BIT       ACC_ACC7
*SFR* 000000BDH   DATA     WORD      ADC0
*SFR* 000000B3H   DATA     BYTE      ADC0AC
*SFR* 000000BCH   DATA     BYTE      ADC0CF
*SFR* 000000E8H   DATA     BYTE      ADC0CN0
*SFR* 000000E8H.6 DATA     BIT       ADC0CN0_ADBMEN
*SFR* 000000E8H.4 DATA     BIT       ADC0CN0_ADBUSY
*SFR* 000000E8H   DATA     BIT       ADC0CN0_ADCM0
*SFR* 000000E8H.1 DATA     BIT       ADC0CN0_ADCM1
*SFR* 000000E8H.2 DATA     BIT       ADC0CN0_ADCM2
*SFR* 000000E8H.7 DATA     BIT       ADC0CN0_ADEN
*SFR* 000000E8H.5 DATA     BIT       ADC0CN0_ADINT
*SFR* 000000E8H.3 DATA     BIT       ADC0CN0_ADWINT
*SFR* 000000B2H   DATA     BYTE      ADC0CN1
*SFR* 000000C3H   DATA     WORD      ADC0GT
*SFR* 000000C4H   DATA     BYTE      ADC0GTH
*SFR* 000000C3H   DATA     BYTE      ADC0GTL
*SFR* 000000BEH   DATA     BYTE      ADC0H
*SFR* 000000BDH   DATA     BYTE      ADC0L
*SFR* 000000C5H   DATA     WORD      ADC0LT
*SFR* 000000C6H   DATA     BYTE      ADC0LTH
*SFR* 000000C5H   DATA     BYTE      ADC0LTL
*SFR* 000000BBH   DATA     BYTE      ADC0MX
*SFR* 000000DFH   DATA     BYTE      ADC0PWR
*SFR* 000000B9H   DATA     BYTE      ADC0TK
      00000021H   DATA     ---       appdata
      01003C69H   CODE     ---       atecc_idle
*DEL*:00000000H   CODE     ---       atecc_sleep
      01003B29H   CODE     ---       atecc_wake
*SFR* 000000F0H   DATA     BYTE      B
*SFR* 000000F0H   DATA     BIT       B_B0
*SFR* 000000F0H.1 DATA     BIT       B_B1
*SFR* 000000F0H.2 DATA     BIT       B_B2
*SFR* 000000F0H.3 DATA     BIT       B_B3
*SFR* 000000F0H.4 DATA     BIT       B_B4
*SFR* 000000F0H.5 DATA     BIT       B_B5
*SFR* 000000F0H.6 DATA     BIT       B_B6
*SFR* 000000F0H.7 DATA     BIT       B_B7
      02000006H   XDATA    ---       CIDS
      01003CC2H   CODE     ---       CIP51_0_enter_DefaultMode_from_RESET
*SFR* 0000008EH   DATA     BYTE      CKCON0
*SFR* 000000A6H   DATA     BYTE      CKCON1
LX51 LINKER/LOCATER V4.66.30.0                                                        03/29/2016  00:06:41  PAGE 24


*SFR* 000000A9H   DATA     BYTE      CLKSEL
      01003B6AH   CODE     ---       CLOCK_0_enter_DefaultMode_from_RESET
*SFR* 0000009BH   DATA     BYTE      CMP0CN0
*SFR* 00000099H   DATA     BYTE      CMP0CN1
*SFR* 0000009DH   DATA     BYTE      CMP0MD
*SFR* 0000009FH   DATA     BYTE      CMP0MX
*SFR* 000000BFH   DATA     BYTE      CMP1CN0
*SFR* 000000ACH   DATA     BYTE      CMP1CN1
*SFR* 000000ABH   DATA     BYTE      CMP1MD
*SFR* 000000AAH   DATA     BYTE      CMP1MX
      01003EB0H   CONST    ---       configDesc
*SFR* 000000CEH   DATA     BYTE      CRC0CN0
*SFR* 00000086H   DATA     BYTE      CRC0CN1
*SFR* 000000D3H   DATA     BYTE      CRC0CNT
*SFR* 000000DEH   DATA     BYTE      CRC0DAT
*SFR* 000000CFH   DATA     BYTE      CRC0FLIP
*SFR* 000000DDH   DATA     BYTE      CRC0IN
*SFR* 000000D2H   DATA     BYTE      CRC0ST
*SFR* 000000ADH   DATA     BYTE      DERIVID
      01003E9EH   CONST    ---       deviceDesc
*SFR* 000000B5H   DATA     BYTE      DEVICEID
*SFR* 00000082H   DATA     WORD      DP
*SFR* 00000083H   DATA     BYTE      DPH
*SFR* 00000082H   DATA     BYTE      DPL
      01003130H   CODE     ---       eeprom_init
*SFR* 000000E6H   DATA     BYTE      EIE1
*SFR* 000000CEH   DATA     BYTE      EIE2
*SFR* 000000F3H   DATA     BYTE      EIP1
*SFR* 000000F5H   DATA     BYTE      EIP1H
*SFR* 000000F4H   DATA     BYTE      EIP2
*SFR* 000000F6H   DATA     BYTE      EIP2H
*SFR* 000000E7H   DATA     BYTE      EMI0CN
      01003022H   CODE     ---       enter_DefaultMode_from_RESET
*SFR* 000000B7H   DATA     BYTE      FLKEY
      01003D1BH   CODE     ---       forceModuleLoad_usbint
      01002227H   CODE     ---       handleUsbEp0Rx
      010020EAH   CODE     ---       handleUsbIn1Int
      01001338H   CODE     ---       handleUsbOut1Int
*SFR* 000000C7H   DATA     BYTE      HFO0CAL
*SFR* 000000D6H   DATA     BYTE      HFO1CAL
*SFR* 000000EFH   DATA     BYTE      HFOCN
      02000303H   XDATA    ---       hidmsgbuf
*SFR* 000000BAH   DATA     BYTE      I2C0CN0
*SFR* 000000BCH   DATA     BYTE      I2C0DIN
*SFR* 000000BBH   DATA     BYTE      I2C0DOUT
*SFR* 000000ADH   DATA     BYTE      I2C0FCN0
*SFR* 000000ABH   DATA     BYTE      I2C0FCN1
*SFR* 000000F5H   DATA     BYTE      I2C0FCT
*SFR* 000000BDH   DATA     BYTE      I2C0SLAD
*SFR* 000000B9H   DATA     BYTE      I2C0STAT
      01003CF9H   CODE     ---       idleGetRate
      01003786H   CODE     ---       idleTimerStart
*DEL*:00000000H   CODE     ---       idleTimerTick
*SFR* 000000A8H   DATA     BYTE      IE
*SFR* 000000A8H.7 DATA     BIT       IE_EA
*SFR* 000000A8H.4 DATA     BIT       IE_ES0
*SFR* 000000A8H.6 DATA     BIT       IE_ESPI0
*SFR* 000000A8H.1 DATA     BIT       IE_ET0
*SFR* 000000A8H.3 DATA     BIT       IE_ET1
*SFR* 000000A8H.5 DATA     BIT       IE_ET2
*SFR* 000000A8H   DATA     BIT       IE_EX0
*SFR* 000000A8H.2 DATA     BIT       IE_EX1
LX51 LINKER/LOCATER V4.66.30.0                                                        03/29/2016  00:06:41  PAGE 25


      01003F2CH   CONST    ---       initstruct
      01003CC9H   CODE     ---       INTERRUPT_0_enter_DefaultMode_from_RESET
*SFR* 000000B8H   DATA     BYTE      IP
*SFR* 000000B8H.4 DATA     BIT       IP_PS0
*SFR* 000000B8H.6 DATA     BIT       IP_PSPI0
*SFR* 000000B8H.1 DATA     BIT       IP_PT0
*SFR* 000000B8H.3 DATA     BIT       IP_PT1
*SFR* 000000B8H.5 DATA     BIT       IP_PT2
*SFR* 000000B8H   DATA     BIT       IP_PX0
*SFR* 000000B8H.2 DATA     BIT       IP_PX1
*SFR* 000000F2H   DATA     BYTE      IPH
*DEL*:00000000H   CODE     ---       isIdleTimerExpired
*DEL*:00000000H   CODE     ---       isIdleTimerIndefinite
*SFR* 000000E4H   DATA     BYTE      IT01CF
      020002B8H   XDATA    ---       key_store
*SFR* 00000080H.6 DATA     BIT       LED_B
*SFR* 00000080H.7 DATA     BIT       LED_G
*SFR* 00000090H   DATA     BIT       LED_R
*SFR* 000000B1H   DATA     BYTE      LFO0CN
      01000C19H   CODE     ---       main
      02000343H   XDATA    ---       myUsbDevice
*SFR* 00000080H   DATA     BYTE      P0
*SFR* 00000080H   DATA     BIT       P0_B0
*SFR* 00000080H.1 DATA     BIT       P0_B1
*SFR* 00000080H.2 DATA     BIT       P0_B2
*SFR* 00000080H.3 DATA     BIT       P0_B3
*SFR* 00000080H.4 DATA     BIT       P0_B4
*SFR* 00000080H.5 DATA     BIT       P0_B5
*SFR* 00000080H.6 DATA     BIT       P0_B6
*SFR* 00000080H.7 DATA     BIT       P0_B7
*SFR* 000000FEH   DATA     BYTE      P0MASK
*SFR* 000000FDH   DATA     BYTE      P0MAT
*SFR* 000000F1H   DATA     BYTE      P0MDIN
*SFR* 000000A4H   DATA     BYTE      P0MDOUT
*SFR* 000000D4H   DATA     BYTE      P0SKIP
*SFR* 00000090H   DATA     BYTE      P1
*SFR* 00000090H   DATA     BIT       P1_B0
*SFR* 00000090H.1 DATA     BIT       P1_B1
*SFR* 00000090H.2 DATA     BIT       P1_B2
*SFR* 00000090H.3 DATA     BIT       P1_B3
*SFR* 00000090H.4 DATA     BIT       P1_B4
*SFR* 00000090H.5 DATA     BIT       P1_B5
*SFR* 00000090H.6 DATA     BIT       P1_B6
*SFR* 00000090H.7 DATA     BIT       P1_B7
*SFR* 000000EEH   DATA     BYTE      P1MASK
*SFR* 000000EDH   DATA     BYTE      P1MAT
*SFR* 000000F2H   DATA     BYTE      P1MDIN
*SFR* 000000A5H   DATA     BYTE      P1MDOUT
*SFR* 000000D5H   DATA     BYTE      P1SKIP
*SFR* 000000A0H   DATA     BYTE      P2
*SFR* 000000A0H   DATA     BIT       P2_B0
*SFR* 000000A0H.1 DATA     BIT       P2_B1
*SFR* 000000A0H.2 DATA     BIT       P2_B2
*SFR* 000000A0H.3 DATA     BIT       P2_B3
*SFR* 000000FCH   DATA     BYTE      P2MASK
*SFR* 000000FBH   DATA     BYTE      P2MAT
*SFR* 000000F3H   DATA     BYTE      P2MDIN
*SFR* 000000A6H   DATA     BYTE      P2MDOUT
*SFR* 000000CCH   DATA     BYTE      P2SKIP
*SFR* 000000B0H   DATA     BYTE      P3
*SFR* 000000B0H   DATA     BIT       P3_B0
*SFR* 000000B0H.1 DATA     BIT       P3_B1
LX51 LINKER/LOCATER V4.66.30.0                                                        03/29/2016  00:06:41  PAGE 26


*SFR* 000000F4H   DATA     BYTE      P3MDIN
*SFR* 0000009CH   DATA     BYTE      P3MDOUT
      01003C4BH   CODE     ---       PBCFG_0_enter_DefaultMode_from_RESET
*SFR* 000000F9H   DATA     WORD      PCA0
*SFR* 0000009EH   DATA     BYTE      PCA0CENT
*SFR* 0000009CH   DATA     BYTE      PCA0CLR
*SFR* 000000D8H   DATA     BYTE      PCA0CN0
*SFR* 000000D8H   DATA     BIT       PCA0CN0_CCF0
*SFR* 000000D8H.1 DATA     BIT       PCA0CN0_CCF1
*SFR* 000000D8H.2 DATA     BIT       PCA0CN0_CCF2
*SFR* 000000D8H.7 DATA     BIT       PCA0CN0_CF
*SFR* 000000D8H.6 DATA     BIT       PCA0CN0_CR
*SFR* 000000FBH   DATA     WORD      PCA0CP0
*SFR* 000000E9H   DATA     WORD      PCA0CP1
*SFR* 000000EBH   DATA     WORD      PCA0CP2
*SFR* 000000FCH   DATA     BYTE      PCA0CPH0
*SFR* 000000EAH   DATA     BYTE      PCA0CPH1
*SFR* 000000ECH   DATA     BYTE      PCA0CPH2
*SFR* 000000FBH   DATA     BYTE      PCA0CPL0
*SFR* 000000E9H   DATA     BYTE      PCA0CPL1
*SFR* 000000EBH   DATA     BYTE      PCA0CPL2
*SFR* 000000DAH   DATA     BYTE      PCA0CPM0
*SFR* 000000DBH   DATA     BYTE      PCA0CPM1
*SFR* 000000DCH   DATA     BYTE      PCA0CPM2
*SFR* 000000FAH   DATA     BYTE      PCA0H
*SFR* 000000F9H   DATA     BYTE      PCA0L
*SFR* 000000D9H   DATA     BYTE      PCA0MD
*SFR* 00000096H   DATA     BYTE      PCA0POL
*SFR* 000000F7H   DATA     BYTE      PCA0PWM
      01003CABH   CODE     ---       PCA_0_enter_DefaultMode_from_RESET
      01003CD0H   CODE     ---       PCACH_0_enter_DefaultMode_from_RESET
      01003CD7H   CODE     ---       PCACH_1_enter_DefaultMode_from_RESET
      01003CDEH   CODE     ---       PCACH_2_enter_DefaultMode_from_RESET
*SFR* 00000087H   DATA     BYTE      PCON0
*SFR* 0000009AH   DATA     BYTE      PCON1
*SFR* 000000C1H   DATA     BYTE      PFE0CN
      01003A54H   CODE     ---       PORTS_0_enter_DefaultMode_from_RESET
      01003B06H   CODE     ---       PORTS_1_enter_DefaultMode_from_RESET
*DEL*:00000000H   CODE     ---       PORTS_2_enter_DefaultMode_from_RESET
*SFR* 000000F6H   DATA     BYTE      PRTDRV
*SFR* 0000008FH   DATA     BYTE      PSCTL
*SFR* 000000D0H   DATA     BYTE      PSW
*SFR* 000000D0H.6 DATA     BIT       PSW_AC
*SFR* 000000D0H.7 DATA     BIT       PSW_CY
*SFR* 000000D0H.5 DATA     BIT       PSW_F0
*SFR* 000000D0H.1 DATA     BIT       PSW_F1
*SFR* 000000D0H.2 DATA     BIT       PSW_OV
*SFR* 000000D0H   DATA     BIT       PSW_PARITY
*SFR* 000000D0H.3 DATA     BIT       PSW_RS0
*SFR* 000000D0H.4 DATA     BIT       PSW_RS1
*SFR* 000000D1H   DATA     BYTE      REF0CN
*SFR* 000000C9H   DATA     BYTE      REG0CN
*SFR* 000000C6H   DATA     BYTE      REG1CN
      01003E7CH   CONST    ---       ReportDescriptor0
*SFR* 000000B6H   DATA     BYTE      REVID
*SFR* 000000EFH   DATA     BYTE      RSTSRC
*SFR* 00000094H   DATA     BYTE      SBCON1
*SFR* 00000095H   DATA     WORD      SBRL1
*SFR* 00000096H   DATA     BYTE      SBRLH1
*SFR* 00000095H   DATA     BYTE      SBRLL1
*SFR* 00000099H   DATA     BYTE      SBUF0
*SFR* 00000092H   DATA     BYTE      SBUF1
LX51 LINKER/LOCATER V4.66.30.0                                                        03/29/2016  00:06:41  PAGE 27


*SFR* 00000098H   DATA     BYTE      SCON0
*SFR* 00000098H.5 DATA     BIT       SCON0_MCE
*SFR* 00000098H.2 DATA     BIT       SCON0_RB8
*SFR* 00000098H.4 DATA     BIT       SCON0_REN
*SFR* 00000098H   DATA     BIT       SCON0_RI
*SFR* 00000098H.7 DATA     BIT       SCON0_SMODE
*SFR* 00000098H.3 DATA     BIT       SCON0_TB8
*SFR* 00000098H.1 DATA     BIT       SCON0_TI
*SFR* 000000C8H   DATA     BYTE      SCON1
*SFR* 000000C8H.7 DATA     BIT       SCON1_OVR
*SFR* 000000C8H.6 DATA     BIT       SCON1_PERR
*SFR* 000000C8H.2 DATA     BIT       SCON1_RBX
*SFR* 000000C8H.4 DATA     BIT       SCON1_REN
*SFR* 000000C8H   DATA     BIT       SCON1_RI
*SFR* 000000C8H.3 DATA     BIT       SCON1_TBX
*SFR* 000000C8H.1 DATA     BIT       SCON1_TI
      01003A10H   CODE     ---       SendEp0Stall
*SFR* 000000A7H   DATA     BYTE      SFRPAGE
*SFR* 000000CFH   DATA     BYTE      SFRPGCN
*SFR* 000000D7H   DATA     BYTE      SFRSTACK
      0200036EH   XDATA    ---       SMB
*SFR* 000000D6H   DATA     BYTE      SMB0ADM
*SFR* 000000D7H   DATA     BYTE      SMB0ADR
*SFR* 000000C1H   DATA     BYTE      SMB0CF
*SFR* 000000C0H   DATA     BYTE      SMB0CN0
*SFR* 000000C0H.1 DATA     BIT       SMB0CN0_ACK
*SFR* 000000C0H.3 DATA     BIT       SMB0CN0_ACKRQ
*SFR* 000000C0H.2 DATA     BIT       SMB0CN0_ARBLOST
*SFR* 000000C0H.7 DATA     BIT       SMB0CN0_MASTER
*SFR* 000000C0H   DATA     BIT       SMB0CN0_SI
*SFR* 000000C0H.5 DATA     BIT       SMB0CN0_STA
*SFR* 000000C0H.4 DATA     BIT       SMB0CN0_STO
*SFR* 000000C0H.6 DATA     BIT       SMB0CN0_TXMODE
*SFR* 000000C2H   DATA     BYTE      SMB0DAT
*SFR* 000000C3H   DATA     BYTE      SMB0FCN0
*SFR* 000000C4H   DATA     BYTE      SMB0FCN1
*SFR* 000000EFH   DATA     BYTE      SMB0FCT
*SFR* 000000C5H   DATA     BYTE      SMB0RXLN
*SFR* 000000ACH   DATA     BYTE      SMB0TC
      00000010H   DATA     BYTE      SMB_FLAGS
      01003AF3H   CODE     ---       smb_init
      01003AA6H   CODE     ---       smb_init_crc
      01000A72H   CODE     ---       SMBUS0_ISR
      01003D05H   CODE     ---       SMBUS_0_enter_DefaultMode_from_RESET
*SFR* 00000093H   DATA     BYTE      SMOD1
*SFR* 00000081H   DATA     BYTE      SP
*SFR* 000000A1H   DATA     BYTE      SPI0CFG
*SFR* 000000A2H   DATA     BYTE      SPI0CKR
*SFR* 000000F8H   DATA     BYTE      SPI0CN0
*SFR* 000000F8H.5 DATA     BIT       SPI0CN0_MODF
*SFR* 000000F8H.2 DATA     BIT       SPI0CN0_NSSMD0
*SFR* 000000F8H.3 DATA     BIT       SPI0CN0_NSSMD1
*SFR* 000000F8H.4 DATA     BIT       SPI0CN0_RXOVRN
*SFR* 000000F8H   DATA     BIT       SPI0CN0_SPIEN
*SFR* 000000F8H.7 DATA     BIT       SPI0CN0_SPIF
*SFR* 000000F8H.1 DATA     BIT       SPI0CN0_TXNF
*SFR* 000000F8H.6 DATA     BIT       SPI0CN0_WCOL
*SFR* 000000A3H   DATA     BYTE      SPI0DAT
*SFR* 0000009AH   DATA     BYTE      SPI0FCN0
*SFR* 0000009BH   DATA     BYTE      SPI0FCN1
*SFR* 000000F7H   DATA     BYTE      SPI0FCT
*SFR* 00000088H   DATA     BYTE      TCON
LX51 LINKER/LOCATER V4.66.30.0                                                        03/29/2016  00:06:41  PAGE 28


*SFR* 00000088H.1 DATA     BIT       TCON_IE0
*SFR* 00000088H.3 DATA     BIT       TCON_IE1
*SFR* 00000088H   DATA     BIT       TCON_IT0
*SFR* 00000088H.2 DATA     BIT       TCON_IT1
*SFR* 00000088H.5 DATA     BIT       TCON_TF0
*SFR* 00000088H.7 DATA     BIT       TCON_TF1
*SFR* 00000088H.4 DATA     BIT       TCON_TR0
*SFR* 00000088H.6 DATA     BIT       TCON_TR1
*SFR* 0000008CH   DATA     BYTE      TH0
*SFR* 0000008DH   DATA     BYTE      TH1
      01003ABAH   CODE     ---       TIMER01_0_enter_DefaultMode_from_RESET
      01003ACDH   CODE     ---       TIMER16_2_enter_DefaultMode_from_RESET
      0100002EH   CODE     ---       TIMER16_3_enter_DefaultMode_from_RESET
      010035BAH   CODE     ---       TIMER2_ISR
      01003B4BH   CODE     ---       TIMER3_ISR
      01003C55H   CODE     ---       TIMER_SETUP_0_enter_DefaultMode_from_RESET
*SFR* 0000008AH   DATA     BYTE      TL0
*SFR* 0000008BH   DATA     BYTE      TL1
*SFR* 00000089H   DATA     BYTE      TMOD
      02000302H   XDATA    BYTE      tmpBuffer
*SFR* 000000CCH   DATA     WORD      TMR2
*SFR* 000000C8H   DATA     BYTE      TMR2CN0
*SFR* 000000C8H.3 DATA     BIT       TMR2CN0_T2SPLIT
*SFR* 000000C8H   DATA     BIT       TMR2CN0_T2XCLK0
*SFR* 000000C8H.1 DATA     BIT       TMR2CN0_T2XCLK1
*SFR* 000000C8H.4 DATA     BIT       TMR2CN0_TF2CEN
*SFR* 000000C8H.7 DATA     BIT       TMR2CN0_TF2H
*SFR* 000000C8H.6 DATA     BIT       TMR2CN0_TF2L
*SFR* 000000C8H.5 DATA     BIT       TMR2CN0_TF2LEN
*SFR* 000000C8H.2 DATA     BIT       TMR2CN0_TR2
*SFR* 000000FDH   DATA     BYTE      TMR2CN1
*SFR* 000000CDH   DATA     BYTE      TMR2H
*SFR* 000000CCH   DATA     BYTE      TMR2L
*SFR* 000000CAH   DATA     WORD      TMR2RL
*SFR* 000000CBH   DATA     BYTE      TMR2RLH
*SFR* 000000CAH   DATA     BYTE      TMR2RLL
*SFR* 00000094H   DATA     WORD      TMR3
*SFR* 00000091H   DATA     BYTE      TMR3CN0
*SFR* 000000FEH   DATA     BYTE      TMR3CN1
*SFR* 00000095H   DATA     BYTE      TMR3H
*SFR* 00000094H   DATA     BYTE      TMR3L
*SFR* 00000092H   DATA     WORD      TMR3RL
*SFR* 00000093H   DATA     BYTE      TMR3RLH
*SFR* 00000092H   DATA     BYTE      TMR3RLL
*SFR* 000000A4H   DATA     WORD      TMR4
*SFR* 00000098H   DATA     BYTE      TMR4CN0
*SFR* 00000098H.3 DATA     BIT       TMR4CN0_T4SPLIT
*SFR* 00000098H   DATA     BIT       TMR4CN0_T4XCLK0
*SFR* 00000098H.1 DATA     BIT       TMR4CN0_T4XCLK1
*SFR* 00000098H.4 DATA     BIT       TMR4CN0_TF4CEN
*SFR* 00000098H.7 DATA     BIT       TMR4CN0_TF4H
*SFR* 00000098H.6 DATA     BIT       TMR4CN0_TF4L
*SFR* 00000098H.5 DATA     BIT       TMR4CN0_TF4LEN
*SFR* 00000098H.2 DATA     BIT       TMR4CN0_TR4
*SFR* 000000FFH   DATA     BYTE      TMR4CN1
*SFR* 000000A5H   DATA     BYTE      TMR4H
*SFR* 000000A4H   DATA     BYTE      TMR4L
*SFR* 000000A2H   DATA     WORD      TMR4RL
*SFR* 000000A3H   DATA     BYTE      TMR4RLH
*SFR* 000000A2H   DATA     BYTE      TMR4RLL
      01003F36H   CONST    ---       txZero
      01000076H   CODE     ---       u2f_attestation_cert_size
LX51 LINKER/LOCATER V4.66.30.0                                                        03/29/2016  00:06:41  PAGE 29


*SFR* 00000080H.2 DATA     BIT       U2F_BUTTON
*SFR* 00000080H.3 DATA     BIT       U2F_BUTTON_VAL
      01002705H   CODE     ---       u2f_count
      01003CECH   CODE     ---       u2f_get_attestation_cert
      01002C94H   CODE     ---       u2f_get_user_feedback
      01003B18H   CODE     ---       u2f_hid_flush
      010036CAH   CODE     ---       u2f_hid_init
      01001F95H   CODE     ---       u2f_init
      01003D13H   CODE     ---       u2f_response_flush
      01003D1CH   CODE     ---       u2f_response_start
      01003719H   CODE     ---       u2f_sha256_finish
      0100394EH   CODE     ---       u2f_sha256_start
*SFR* 0000009DH   DATA     BYTE      UART1FCN0
*SFR* 000000D8H   DATA     BYTE      UART1FCN1
*SFR* 000000D8H.3 DATA     BIT       UART1FCN1_RFRQ
*SFR* 000000D8H   DATA     BIT       UART1FCN1_RIE
*SFR* 000000D8H.1 DATA     BIT       UART1FCN1_RXTO0
*SFR* 000000D8H.2 DATA     BIT       UART1FCN1_RXTO1
*SFR* 000000D8H.7 DATA     BIT       UART1FCN1_TFRQ
*SFR* 000000D8H.4 DATA     BIT       UART1FCN1_TIE
*SFR* 000000D8H.5 DATA     BIT       UART1FCN1_TXHOLD
*SFR* 000000D8H.6 DATA     BIT       UART1FCN1_TXNF
*SFR* 000000FAH   DATA     BYTE      UART1FCT
*SFR* 0000009EH   DATA     BYTE      UART1LIN
      01003D09H   CODE     ---       UART_0_enter_DefaultMode_from_RESET
*SFR* 000000AEH   DATA     BYTE      USB0ADR
*SFR* 000000B2H   DATA     BYTE      USB0AEC
*SFR* 000000B6H   DATA     BYTE      USB0CDCF
*SFR* 000000BEH   DATA     BYTE      USB0CDCN
*SFR* 000000BFH   DATA     BYTE      USB0CDSTA
*SFR* 000000B5H   DATA     BYTE      USB0CF
*SFR* 000000AFH   DATA     BYTE      USB0DAT
*SFR* 000000B3H   DATA     BYTE      USB0XCN
      01003C2BH   CODE     ---       USB_Ep0GetCount
      01003B92H   CODE     ---       USB_Ep0InPacketReady
      01003BD1H   CODE     ---       USB_Ep0OutPacketReady
      01003B85H   CODE     ---       USB_Ep0SentStall
      01003BDDH   CODE     ---       USB_EpnGetOutPacketReady
      01003B9FH   CODE     ---       USB_EpnInGetSentStall
      01003BACH   CODE     ---       USB_EpnOutGetSentStall
      01003CFFH   CODE     ---       USB_EpOutGetCount
      01003BFFH   CODE     ---       USB_GetCommonInts
      01003C20H   CODE     ---       USB_GetIndex
      01003C0AH   CODE     ---       USB_GetInInts
      01003CE5H   CODE     ---       USB_GetIntsEnabled
      01003C15H   CODE     ---       USB_GetOutInts
      01003B78H   CODE     ---       USB_GetSetupEnd
*DEL*:00000000H   CODE     ---       USB_GetSofNumber
*DEL*:00000000H   CODE     ---       USB_IsPrefetchEnabled
*DEL*:00000000H   CODE     ---       USB_IsRegulatorEnabled
*DEL*:00000000H   CODE     ---       USB_IsSuspended
*DEL*:00000000H   CODE     ---       USB_SuspendOscillator
      010034B2H   CODE     ---       USBD_AbortAllTransfers
      010039E2H   CODE     ---       USBD_Connect
*DEL*:00000000H   CODE     ---       USBD_Disconnect
*DEL*:00000000H   CODE     ---       USBD_GetUsbState
      01003D16H   CODE     ---       USBD_IsSelfPoweredCb
      01003D1AH   CODE     ---       USBD_ResetCb
*DEL*:00000000H   CODE     ---       USBD_Stop
*DEL*:00000000H   CODE     ---       USBD_Suspend
      0100277FH   CODE     ---       USBDCH9_SetupCmd
      010015E1H   CODE     ---       usbIrqHandler
LX51 LINKER/LOCATER V4.66.30.0                                                        03/29/2016  00:06:41  PAGE 30


      01003C87H   CODE     ---       USBLIB_0_enter_DefaultMode_from_RESET
*SFR* 000000FFH   DATA     BYTE      VDM0CN
      01003CBBH   CODE     ---       VREG_0_enter_DefaultMode_from_RESET
      01003C41H   CODE     ---       WDT_0_enter_DefaultMode_from_RESET
*SFR* 00000097H   DATA     BYTE      WDTCN
*SFR* 000000E1H   DATA     BYTE      XBR0
*SFR* 000000E2H   DATA     BYTE      XBR1
*SFR* 000000E3H   DATA     BYTE      XBR2



SYMBOL TABLE OF MODULE:  U2F-FIRMWARE.OMF.CRBUILD (INITDEVICE)

      VALUE       REP       CLASS    TYPE      SYMBOL NAME
      ====================================================
      ---         MODULE    ---      ---       INITDEVICE
      01003CDEH   PUBLIC    CODE     ---       PCACH_2_enter_DefaultMode_from_RESET
      01003CD7H   PUBLIC    CODE     ---       PCACH_1_enter_DefaultMode_from_RESET
      01003CD0H   PUBLIC    CODE     ---       PCACH_0_enter_DefaultMode_from_RESET
      01003CABH   PUBLIC    CODE     ---       PCA_0_enter_DefaultMode_from_RESET
      01003C87H   PUBLIC    CODE     ---       USBLIB_0_enter_DefaultMode_from_RESET
      01003CC9H   PUBLIC    CODE     ---       INTERRUPT_0_enter_DefaultMode_from_RESET
      01003D09H   PUBLIC    CODE     ---       UART_0_enter_DefaultMode_from_RESET
      01003D05H   PUBLIC    CODE     ---       SMBUS_0_enter_DefaultMode_from_RESET
      01003C55H   PUBLIC    CODE     ---       TIMER_SETUP_0_enter_DefaultMode_from_RESET
      0100002EH   PUBLIC    CODE     ---       TIMER16_3_enter_DefaultMode_from_RESET
      01003ACDH   PUBLIC    CODE     ---       TIMER16_2_enter_DefaultMode_from_RESET
      01003ABAH   PUBLIC    CODE     ---       TIMER01_0_enter_DefaultMode_from_RESET
      01003B6AH   PUBLIC    CODE     ---       CLOCK_0_enter_DefaultMode_from_RESET
      01003CC2H   PUBLIC    CODE     ---       CIP51_0_enter_DefaultMode_from_RESET
      01003C4BH   PUBLIC    CODE     ---       PBCFG_0_enter_DefaultMode_from_RESET
      01003B06H   PUBLIC    CODE     ---       PORTS_1_enter_DefaultMode_from_RESET
      01003A54H   PUBLIC    CODE     ---       PORTS_0_enter_DefaultMode_from_RESET
      01003CBBH   PUBLIC    CODE     ---       VREG_0_enter_DefaultMode_from_RESET
      01003C41H   PUBLIC    CODE     ---       WDT_0_enter_DefaultMode_from_RESET
      01003022H   PUBLIC    CODE     ---       enter_DefaultMode_from_RESET
      000000A2H   SFRSYM    DATA     BYTE      SPI0CKR
      00000080H   SFRSYM    DATA     BYTE      P0
      000000C8H.6 SFRSYM    DATA     BIT       SCON1_PERR
      000000D0H.2 SFRSYM    DATA     BIT       PSW_OV
      00000090H   SFRSYM    DATA     BYTE      P1
      000000F8H.1 SFRSYM    DATA     BIT       SPI0CN0_TXNF
      00000097H   SFRSYM    DATA     BYTE      WDTCN
      000000A0H   SFRSYM    DATA     BYTE      P2
      000000B0H   SFRSYM    DATA     BYTE      P3
      000000BCH   SFRSYM    DATA     BYTE      ADC0CF
      000000C0H.7 SFRSYM    DATA     BIT       SMB0CN0_MASTER
      000000F9H   SFRSYM    DATA     WORD      PCA0
      000000E6H   SFRSYM    DATA     BYTE      EIE1
      000000C0H.1 SFRSYM    DATA     BIT       SMB0CN0_ACK
      000000B3H   SFRSYM    DATA     BYTE      USB0XCN
      000000CEH   SFRSYM    DATA     BYTE      EIE2
      0000008FH   SFRSYM    DATA     BYTE      PSCTL
      000000E4H   SFRSYM    DATA     BYTE      IT01CF
      000000C0H.6 SFRSYM    DATA     BIT       SMB0CN0_TXMODE
      000000ADH   SFRSYM    DATA     BYTE      DERIVID
      000000A7H   SFRSYM    DATA     BYTE      SFRPAGE
      000000A4H   SFRSYM    DATA     BYTE      P0MDOUT
      000000BFH   SFRSYM    DATA     BYTE      USB0CDSTA
      000000A5H   SFRSYM    DATA     BYTE      P1MDOUT
      000000E8H.5 SFRSYM    DATA     BIT       ADC0CN0_ADINT
      000000CBH   SFRSYM    DATA     BYTE      TMR2RLH
LX51 LINKER/LOCATER V4.66.30.0                                                        03/29/2016  00:06:41  PAGE 31


      000000A6H   SFRSYM    DATA     BYTE      P2MDOUT
      000000A8H   SFRSYM    DATA     BYTE      IE
      00000093H   SFRSYM    DATA     BYTE      TMR3RLH
      0000009CH   SFRSYM    DATA     BYTE      P3MDOUT
      000000A3H   SFRSYM    DATA     BYTE      TMR4RLH
      000000F3H   SFRSYM    DATA     BYTE      EIP1
      000000F4H   SFRSYM    DATA     BYTE      EIP2
      00000098H.2 SFRSYM    DATA     BIT       SCON0_RB8
      000000CAH   SFRSYM    DATA     BYTE      TMR2RLL
      000000FCH   SFRSYM    DATA     BYTE      PCA0CPH0
      00000092H   SFRSYM    DATA     BYTE      TMR3RLL
      000000EAH   SFRSYM    DATA     BYTE      PCA0CPH1
      00000098H.3 SFRSYM    DATA     BIT       SCON0_TB8
      000000F0H   SFRSYM    DATA     BIT       B_B0
      00000082H   SFRSYM    DATA     WORD      DP
      000000A2H   SFRSYM    DATA     BYTE      TMR4RLL
      000000ECH   SFRSYM    DATA     BYTE      PCA0CPH2
      000000F0H.1 SFRSYM    DATA     BIT       B_B1
      000000C3H   SFRSYM    DATA     WORD      ADC0GT
      000000BDH   SFRSYM    DATA     BYTE      I2C0SLAD
      000000D8H.3 SFRSYM    DATA     BIT       UART1FCN1_RFRQ
      000000F0H.2 SFRSYM    DATA     BIT       B_B2
      000000CFH   SFRSYM    DATA     BYTE      SFRPGCN
      000000FBH   SFRSYM    DATA     BYTE      PCA0CPL0
      000000F0H.3 SFRSYM    DATA     BIT       B_B3
      000000D9H   SFRSYM    DATA     BYTE      PCA0MD
      000000DAH   SFRSYM    DATA     BYTE      PCA0CPM0
      000000E9H   SFRSYM    DATA     BYTE      PCA0CPL1
      000000D8H.7 SFRSYM    DATA     BIT       UART1FCN1_TFRQ
      000000F0H.4 SFRSYM    DATA     BIT       B_B4
      000000DBH   SFRSYM    DATA     BYTE      PCA0CPM1
      000000EBH   SFRSYM    DATA     BYTE      PCA0CPL2
      000000F0H.5 SFRSYM    DATA     BIT       B_B5
      000000DCH   SFRSYM    DATA     BYTE      PCA0CPM2
      000000B8H   SFRSYM    DATA     BYTE      IP
      000000B9H   SFRSYM    DATA     BYTE      ADC0TK
      000000F0H.6 SFRSYM    DATA     BIT       B_B6
      000000C5H   SFRSYM    DATA     WORD      ADC0LT
      000000D8H.6 SFRSYM    DATA     BIT       UART1FCN1_TXNF
      00000098H.5 SFRSYM    DATA     BIT       SCON0_MCE
      000000F0H.7 SFRSYM    DATA     BIT       B_B7
      000000C3H   SFRSYM    DATA     BYTE      SMB0FCN0
      000000E1H   SFRSYM    DATA     BYTE      XBR0
      000000C4H   SFRSYM    DATA     BYTE      SMB0FCN1
      000000C1H   SFRSYM    DATA     BYTE      SMB0CF
      000000E2H   SFRSYM    DATA     BYTE      XBR1
      000000C1H   SFRSYM    DATA     BYTE      PFE0CN
      000000E7H   SFRSYM    DATA     BYTE      EMI0CN
      000000C0H.5 SFRSYM    DATA     BIT       SMB0CN0_STA
      000000E3H   SFRSYM    DATA     BYTE      XBR2
      000000BBH   SFRSYM    DATA     BYTE      ADC0MX
      000000E0H   SFRSYM    DATA     BIT       ACC_ACC0
      000000D1H   SFRSYM    DATA     BYTE      REF0CN
      0000008EH   SFRSYM    DATA     BYTE      CKCON0
      000000E0H.1 SFRSYM    DATA     BIT       ACC_ACC1
      000000C9H   SFRSYM    DATA     BYTE      REG0CN
      000000DDH   SFRSYM    DATA     BYTE      CRC0IN
      000000A6H   SFRSYM    DATA     BYTE      CKCON1
      000000C8H.2 SFRSYM    DATA     BIT       TMR2CN0_TR2
      000000E0H.2 SFRSYM    DATA     BIT       ACC_ACC2
      000000C6H   SFRSYM    DATA     BYTE      REG1CN
      000000E0H.3 SFRSYM    DATA     BIT       ACC_ACC3
LX51 LINKER/LOCATER V4.66.30.0                                                        03/29/2016  00:06:41  PAGE 32


      00000081H   SFRSYM    DATA     BYTE      SP
      0000009DH   SFRSYM    DATA     BYTE      CMP0MD
      000000E0H.4 SFRSYM    DATA     BIT       ACC_ACC4
      000000B1H   SFRSYM    DATA     BYTE      LFO0CN
      000000ABH   SFRSYM    DATA     BYTE      CMP1MD
      000000D8H   SFRSYM    DATA     BIT       PCA0CN0_CCF0
      000000E0H.5 SFRSYM    DATA     BIT       ACC_ACC5
      000000B5H   SFRSYM    DATA     BYTE      USB0CF
      00000098H.2 SFRSYM    DATA     BIT       TMR4CN0_TR4
      000000D8H.1 SFRSYM    DATA     BIT       PCA0CN0_CCF1
      000000E0H.6 SFRSYM    DATA     BIT       ACC_ACC6
      000000CCH   SFRSYM    DATA     WORD      TMR2
      0000009AH   SFRSYM    DATA     BYTE      SPI0FCN0
      000000D8H.2 SFRSYM    DATA     BIT       PCA0CN0_CCF2
      000000E0H.7 SFRSYM    DATA     BIT       ACC_ACC7
      00000094H   SFRSYM    DATA     WORD      TMR3
      0000009BH   SFRSYM    DATA     BYTE      SPI0FCN1
      000000A4H   SFRSYM    DATA     WORD      TMR4
      00000094H   SFRSYM    DATA     BYTE      SBCON1
      000000C0H.3 SFRSYM    DATA     BIT       SMB0CN0_ACKRQ
      000000FFH   SFRSYM    DATA     BYTE      VDM0CN
      000000F1H   SFRSYM    DATA     BYTE      P0MDIN
      00000098H.4 SFRSYM    DATA     BIT       SCON0_REN
      000000ACH   SFRSYM    DATA     BYTE      SMB0TC
      000000F2H   SFRSYM    DATA     BYTE      P1MDIN
      000000C8H.4 SFRSYM    DATA     BIT       SCON1_REN
      000000F3H   SFRSYM    DATA     BYTE      P2MDIN
      000000C0H.4 SFRSYM    DATA     BIT       SMB0CN0_STO
      000000B6H   SFRSYM    DATA     BYTE      USB0CDCF
      000000F4H   SFRSYM    DATA     BYTE      P3MDIN
      000000B9H   SFRSYM    DATA     BYTE      I2C0STAT
      000000BBH   SFRSYM    DATA     BYTE      I2C0DOUT
      00000096H   SFRSYM    DATA     BYTE      SBRLH1
      000000FEH   SFRSYM    DATA     BYTE      P0MASK
      000000D8H.5 SFRSYM    DATA     BIT       UART1FCN1_TXHOLD
      000000EEH   SFRSYM    DATA     BYTE      P1MASK
      000000FCH   SFRSYM    DATA     BYTE      P2MASK
      000000D0H.3 SFRSYM    DATA     BIT       PSW_RS0
      000000D8H.7 SFRSYM    DATA     BIT       PCA0CN0_CF
      0000009EH   SFRSYM    DATA     BYTE      PCA0CENT
      000000BAH   SFRSYM    DATA     BYTE      I2C0CN0
      000000D2H   SFRSYM    DATA     BYTE      CRC0ST
      000000F8H.4 SFRSYM    DATA     BIT       SPI0CN0_RXOVRN
      000000D0H.4 SFRSYM    DATA     BIT       PSW_RS1
      00000095H   SFRSYM    DATA     BYTE      SBRLL1
      000000C8H.2 SFRSYM    DATA     BIT       SCON1_RBX
      000000C8H   SFRSYM    DATA     BIT       TMR2CN0_T2XCLK0
      000000C8H.1 SFRSYM    DATA     BIT       TMR2CN0_T2XCLK1
      000000C8H.3 SFRSYM    DATA     BIT       SCON1_TBX
      000000E8H.7 SFRSYM    DATA     BIT       ADC0CN0_ADEN
      000000BEH   SFRSYM    DATA     BYTE      USB0CDCN
      00000089H   SFRSYM    DATA     BYTE      TMOD
      00000088H   SFRSYM    DATA     BYTE      TCON
      000000CFH   SFRSYM    DATA     BYTE      CRC0FLIP
      000000D0H   SFRSYM    DATA     BIT       PSW_PARITY
      000000A8H.4 SFRSYM    DATA     BIT       IE_ES0
      0000009FH   SFRSYM    DATA     BYTE      CMP0MX
      00000098H   SFRSYM    DATA     BIT       TMR4CN0_T4XCLK0
      000000A8H.1 SFRSYM    DATA     BIT       IE_ET0
      000000AAH   SFRSYM    DATA     BYTE      CMP1MX
      00000098H.1 SFRSYM    DATA     BIT       TMR4CN0_T4XCLK1
      000000A8H.3 SFRSYM    DATA     BIT       IE_ET1
LX51 LINKER/LOCATER V4.66.30.0                                                        03/29/2016  00:06:41  PAGE 33


      000000D4H   SFRSYM    DATA     BYTE      P0SKIP
      000000D8H   SFRSYM    DATA     BIT       UART1FCN1_RIE
      000000A8H.5 SFRSYM    DATA     BIT       IE_ET2
      000000D5H   SFRSYM    DATA     BYTE      P1SKIP
      000000CCH   SFRSYM    DATA     BYTE      P2SKIP
      000000E8H   SFRSYM    DATA     BYTE      ADC0CN0
      000000D8H.4 SFRSYM    DATA     BIT       UART1FCN1_TIE
      000000A8H   SFRSYM    DATA     BIT       IE_EX0
      000000B2H   SFRSYM    DATA     BYTE      ADC0CN1
      000000D8H.6 SFRSYM    DATA     BIT       PCA0CN0_CR
      000000A8H.2 SFRSYM    DATA     BIT       IE_EX1
      000000C8H.7 SFRSYM    DATA     BIT       SCON1_OVR
      00000098H.7 SFRSYM    DATA     BIT       SCON0_SMODE
      000000B5H   SFRSYM    DATA     BYTE      DEVICEID
      000000A9H   SFRSYM    DATA     BYTE      CLKSEL
      000000F8H   SFRSYM    DATA     BIT       SPI0CN0_SPIEN
      000000F0H   SFRSYM    DATA     BYTE      B
      000000BEH   SFRSYM    DATA     BYTE      ADC0H
      000000E8H.6 SFRSYM    DATA     BIT       ADC0CN0_ADBMEN
      000000CAH   SFRSYM    DATA     WORD      TMR2RL
      000000BDH   SFRSYM    DATA     BYTE      ADC0L
      00000092H   SFRSYM    DATA     WORD      TMR3RL
      000000A2H   SFRSYM    DATA     WORD      TMR4RL
      000000D8H   SFRSYM    DATA     BYTE      PCA0CN0
      000000E0H   SFRSYM    DATA     BYTE      ACC
      000000FBH   SFRSYM    DATA     WORD      PCA0CP0
      000000E9H   SFRSYM    DATA     WORD      PCA0CP1
      000000EBH   SFRSYM    DATA     WORD      PCA0CP2
      000000BCH   SFRSYM    DATA     BYTE      I2C0DIN
      000000CEH   SFRSYM    DATA     BYTE      CRC0CN0
      0000008CH   SFRSYM    DATA     BYTE      TH0
      00000086H   SFRSYM    DATA     BYTE      CRC0CN1
      000000B8H.4 SFRSYM    DATA     BIT       IP_PS0
      000000FAH   SFRSYM    DATA     BYTE      UART1FCT
      0000008DH   SFRSYM    DATA     BYTE      TH1
      000000FAH   SFRSYM    DATA     BYTE      PCA0H
      000000F5H   SFRSYM    DATA     BYTE      I2C0FCT
      000000B8H.1 SFRSYM    DATA     BIT       IP_PT0
      000000B8H.3 SFRSYM    DATA     BIT       IP_PT1
      000000C0H.2 SFRSYM    DATA     BIT       SMB0CN0_ARBLOST
      000000B8H.5 SFRSYM    DATA     BIT       IP_PT2
      0000008AH   SFRSYM    DATA     BYTE      TL0
      000000D0H.5 SFRSYM    DATA     BIT       PSW_F0
      000000A8H.6 SFRSYM    DATA     BIT       IE_ESPI0
      0000008BH   SFRSYM    DATA     BYTE      TL1
      000000F9H   SFRSYM    DATA     BYTE      PCA0L
      000000C0H   SFRSYM    DATA     BIT       SMB0CN0_SI
      000000D0H.1 SFRSYM    DATA     BIT       PSW_F1
      00000080H   SFRSYM    DATA     BIT       P0_B0
      000000B8H   SFRSYM    DATA     BIT       IP_PX0
      00000090H   SFRSYM    DATA     BIT       P1_B0
      00000080H.1 SFRSYM    DATA     BIT       P0_B1
      000000B8H.2 SFRSYM    DATA     BIT       IP_PX1
      0000009EH   SFRSYM    DATA     BYTE      UART1LIN
      0000009BH   SFRSYM    DATA     BYTE      CMP0CN0
      00000088H.1 SFRSYM    DATA     BIT       TCON_IE0
      000000A0H   SFRSYM    DATA     BIT       P2_B0
      00000090H.1 SFRSYM    DATA     BIT       P1_B1
      00000080H.2 SFRSYM    DATA     BIT       P0_B2
      000000BFH   SFRSYM    DATA     BYTE      CMP1CN0
      00000099H   SFRSYM    DATA     BYTE      CMP0CN1
      00000088H.3 SFRSYM    DATA     BIT       TCON_IE1
LX51 LINKER/LOCATER V4.66.30.0                                                        03/29/2016  00:06:41  PAGE 34


      000000B0H   SFRSYM    DATA     BIT       P3_B0
      000000A0H.1 SFRSYM    DATA     BIT       P2_B1
      00000090H.2 SFRSYM    DATA     BIT       P1_B2
      00000080H.3 SFRSYM    DATA     BIT       P0_B3
      000000C0H   SFRSYM    DATA     BYTE      SMB0CN0
      000000ACH   SFRSYM    DATA     BYTE      CMP1CN1
      000000B0H.1 SFRSYM    DATA     BIT       P3_B1
      000000A0H.2 SFRSYM    DATA     BIT       P2_B2
      00000090H.3 SFRSYM    DATA     BIT       P1_B3
      00000080H.4 SFRSYM    DATA     BIT       P0_B4
      000000A0H.3 SFRSYM    DATA     BIT       P2_B3
      00000090H.4 SFRSYM    DATA     BIT       P1_B4
      00000080H.5 SFRSYM    DATA     BIT       P0_B5
      000000D8H.1 SFRSYM    DATA     BIT       UART1FCN1_RXTO0
      00000090H.5 SFRSYM    DATA     BIT       P1_B5
      00000080H.6 SFRSYM    DATA     BIT       P0_B6
      000000F5H   SFRSYM    DATA     BYTE      EIP1H
      000000D8H.2 SFRSYM    DATA     BIT       UART1FCN1_RXTO1
      00000090H.6 SFRSYM    DATA     BIT       P1_B6
      00000080H.7 SFRSYM    DATA     BIT       P0_B7
      000000C5H   SFRSYM    DATA     BYTE      SMB0RXLN
      000000F6H   SFRSYM    DATA     BYTE      EIP2H
      00000090H.7 SFRSYM    DATA     BIT       P1_B7
      00000083H   SFRSYM    DATA     BYTE      DPH
      000000C4H   SFRSYM    DATA     BYTE      ADC0GTH
      000000C8H.7 SFRSYM    DATA     BIT       TMR2CN0_TF2H
      000000C8H.3 SFRSYM    DATA     BIT       TMR2CN0_T2SPLIT
      000000D0H.6 SFRSYM    DATA     BIT       PSW_AC
      000000F8H   SFRSYM    DATA     BYTE      SPI0CN0
      000000C7H   SFRSYM    DATA     BYTE      HFO0CAL
      00000088H.5 SFRSYM    DATA     BIT       TCON_TF0
      00000098H   SFRSYM    DATA     BIT       SCON0_RI
      000000D6H   SFRSYM    DATA     BYTE      HFO1CAL
      00000082H   SFRSYM    DATA     BYTE      DPL
      00000088H.7 SFRSYM    DATA     BIT       TCON_TF1
      000000C8H   SFRSYM    DATA     BIT       SCON1_RI
      00000099H   SFRSYM    DATA     BYTE      SBUF0
      00000087H   SFRSYM    DATA     BYTE      PCON0
      000000F2H   SFRSYM    DATA     BYTE      IPH
      000000C3H   SFRSYM    DATA     BYTE      ADC0GTL
      00000098H.7 SFRSYM    DATA     BIT       TMR4CN0_TF4H
      00000098H.3 SFRSYM    DATA     BIT       TMR4CN0_T4SPLIT
      000000C8H.6 SFRSYM    DATA     BIT       TMR2CN0_TF2L
      00000098H.1 SFRSYM    DATA     BIT       SCON0_TI
      000000E8H   SFRSYM    DATA     BIT       ADC0CN0_ADCM0
      00000092H   SFRSYM    DATA     BYTE      SBUF1
      0000009AH   SFRSYM    DATA     BYTE      PCON1
      000000C6H   SFRSYM    DATA     BYTE      ADC0LTH
      00000088H   SFRSYM    DATA     BIT       TCON_IT0
      000000C8H.1 SFRSYM    DATA     BIT       SCON1_TI
      000000E8H.1 SFRSYM    DATA     BIT       ADC0CN0_ADCM1
      000000EFH   SFRSYM    DATA     BYTE      RSTSRC
      000000FDH   SFRSYM    DATA     BYTE      P0MAT
      000000DEH   SFRSYM    DATA     BYTE      CRC0DAT
      00000088H.2 SFRSYM    DATA     BIT       TCON_IT1
      000000E8H.2 SFRSYM    DATA     BIT       ADC0CN0_ADCM2
      000000D7H   SFRSYM    DATA     BYTE      SFRSTACK
      00000098H   SFRSYM    DATA     BYTE      SCON0
      000000F6H   SFRSYM    DATA     BYTE      PRTDRV
      000000EDH   SFRSYM    DATA     BYTE      P1MAT
      000000E8H.3 SFRSYM    DATA     BIT       ADC0CN0_ADWINT
      00000095H   SFRSYM    DATA     WORD      SBRL1
LX51 LINKER/LOCATER V4.66.30.0                                                        03/29/2016  00:06:41  PAGE 35


      000000B2H   SFRSYM    DATA     BYTE      USB0AEC
      00000093H   SFRSYM    DATA     BYTE      SMOD1
      000000C8H   SFRSYM    DATA     BYTE      SCON1
      000000FBH   SFRSYM    DATA     BYTE      P2MAT
      00000098H.6 SFRSYM    DATA     BIT       TMR4CN0_TF4L
      000000E8H.4 SFRSYM    DATA     BIT       ADC0CN0_ADBUSY
      000000D6H   SFRSYM    DATA     BYTE      SMB0ADM
      000000C5H   SFRSYM    DATA     BYTE      ADC0LTL
      000000F8H.5 SFRSYM    DATA     BIT       SPI0CN0_MODF
      000000B8H.6 SFRSYM    DATA     BIT       IP_PSPI0
      0000009CH   SFRSYM    DATA     BYTE      PCA0CLR
      000000C8H   SFRSYM    DATA     BYTE      TMR2CN0
      00000091H   SFRSYM    DATA     BYTE      TMR3CN0
      000000FDH   SFRSYM    DATA     BYTE      TMR2CN1
      00000098H   SFRSYM    DATA     BYTE      TMR4CN0
      000000FEH   SFRSYM    DATA     BYTE      TMR3CN1
      000000FFH   SFRSYM    DATA     BYTE      TMR4CN1
      000000D7H   SFRSYM    DATA     BYTE      SMB0ADR
      00000088H.4 SFRSYM    DATA     BIT       TCON_TR0
      000000C8H.4 SFRSYM    DATA     BIT       TMR2CN0_TF2CEN
      00000088H.6 SFRSYM    DATA     BIT       TCON_TR1
      000000C2H   SFRSYM    DATA     BYTE      SMB0DAT
      000000CDH   SFRSYM    DATA     BYTE      TMR2H
      000000A1H   SFRSYM    DATA     BYTE      SPI0CFG
      00000095H   SFRSYM    DATA     BYTE      TMR3H
      000000EFH   SFRSYM    DATA     BYTE      HFOCN
      000000D3H   SFRSYM    DATA     BYTE      CRC0CNT
      000000A5H   SFRSYM    DATA     BYTE      TMR4H
      00000098H.4 SFRSYM    DATA     BIT       TMR4CN0_TF4CEN
      000000EFH   SFRSYM    DATA     BYTE      SMB0FCT
      00000096H   SFRSYM    DATA     BYTE      PCA0POL
      000000CCH   SFRSYM    DATA     BYTE      TMR2L
      000000F8H.7 SFRSYM    DATA     BIT       SPI0CN0_SPIF
      000000AEH   SFRSYM    DATA     BYTE      USB0ADR
      00000094H   SFRSYM    DATA     BYTE      TMR3L
      000000DFH   SFRSYM    DATA     BYTE      ADC0PWR
      000000A8H.7 SFRSYM    DATA     BIT       IE_EA
      000000A4H   SFRSYM    DATA     BYTE      TMR4L
      000000AFH   SFRSYM    DATA     BYTE      USB0DAT
      000000C8H.5 SFRSYM    DATA     BIT       TMR2CN0_TF2LEN
      000000F8H.6 SFRSYM    DATA     BIT       SPI0CN0_WCOL
      000000F8H.2 SFRSYM    DATA     BIT       SPI0CN0_NSSMD0
      000000D0H.7 SFRSYM    DATA     BIT       PSW_CY
      0000009DH   SFRSYM    DATA     BYTE      UART1FCN0
      000000A3H   SFRSYM    DATA     BYTE      SPI0DAT
      000000ADH   SFRSYM    DATA     BYTE      I2C0FCN0
      000000F8H.3 SFRSYM    DATA     BIT       SPI0CN0_NSSMD1
      000000BDH   SFRSYM    DATA     WORD      ADC0
      000000D8H   SFRSYM    DATA     BYTE      UART1FCN1
      000000ABH   SFRSYM    DATA     BYTE      I2C0FCN1
      00000098H.5 SFRSYM    DATA     BIT       TMR4CN0_TF4LEN
      000000D0H   SFRSYM    DATA     BYTE      PSW
      000000F7H   SFRSYM    DATA     BYTE      PCA0PWM
      000000F7H   SFRSYM    DATA     BYTE      SPI0FCT
      000000B6H   SFRSYM    DATA     BYTE      REVID
      000000B7H   SFRSYM    DATA     BYTE      FLKEY
      000000B3H   SFRSYM    DATA     BYTE      ADC0AC

      01003022H   BLOCK     CODE     ---       LVL=0
      01003022H   BLOCK     CODE     NEAR LAB  LVL=1
      02000190H   SYMBOL    XDATA    BYTE      SFRPAGE_save
      ---         BLOCKEND  ---      ---       LVL=1
LX51 LINKER/LOCATER V4.66.30.0                                                        03/29/2016  00:06:41  PAGE 36


      01003022H   LINE      CODE     ---       #25
      01003022H   LINE      CODE     ---       #28
      01003028H   LINE      CODE     ---       #29
      0100302BH   LINE      CODE     ---       #30
      0100302EH   LINE      CODE     ---       #31
      01003031H   LINE      CODE     ---       #32
      01003034H   LINE      CODE     ---       #33
      01003037H   LINE      CODE     ---       #34
      0100303AH   LINE      CODE     ---       #35
      0100303DH   LINE      CODE     ---       #36
      01003040H   LINE      CODE     ---       #37
      01003043H   LINE      CODE     ---       #38
      01003046H   LINE      CODE     ---       #39
      01003049H   LINE      CODE     ---       #40
      0100304CH   LINE      CODE     ---       #41
      0100304FH   LINE      CODE     ---       #42
      01003052H   LINE      CODE     ---       #43
      01003055H   LINE      CODE     ---       #44
      01003058H   LINE      CODE     ---       #45
      0100305BH   LINE      CODE     ---       #46
      0100305EH   LINE      CODE     ---       #47
      01003061H   LINE      CODE     ---       #49
      01003067H   LINE      CODE     ---       #52
      ---         BLOCKEND  ---      ---       LVL=0

      01003C41H   BLOCK     CODE     ---       LVL=0
      01003C41H   LINE      CODE     ---       #57
      01003C41H   LINE      CODE     ---       #59
      01003C44H   LINE      CODE     ---       #61
      01003C47H   LINE      CODE     ---       #62
      01003C4AH   LINE      CODE     ---       #65
      ---         BLOCKEND  ---      ---       LVL=0

      01003CBBH   BLOCK     CODE     ---       LVL=0
      01003CBBH   LINE      CODE     ---       #70
      01003CBBH   LINE      CODE     ---       #84
      01003CBEH   LINE      CODE     ---       #85
      01003CC1H   LINE      CODE     ---       #89
      ---         BLOCKEND  ---      ---       LVL=0

      01003A54H   BLOCK     CODE     ---       LVL=0
      01003A54H   LINE      CODE     ---       #94
      01003A54H   LINE      CODE     ---       #114
      01003A57H   LINE      CODE     ---       #115
      01003A5AH   LINE      CODE     ---       #133
      01003A5DH   LINE      CODE     ---       #158
      01003A60H   LINE      CODE     ---       #182
      01003A63H   LINE      CODE     ---       #207
      01003A65H   LINE      CODE     ---       #231
      01003A68H   LINE      CODE     ---       #235
      ---         BLOCKEND  ---      ---       LVL=0

      01003B06H   BLOCK     CODE     ---       LVL=0
      01003B06H   LINE      CODE     ---       #240
      01003B06H   LINE      CODE     ---       #250
      01003B09H   LINE      CODE     ---       #261
      01003B0CH   LINE      CODE     ---       #274
      01003B0FH   LINE      CODE     ---       #286
      01003B12H   LINE      CODE     ---       #299
      01003B14H   LINE      CODE     ---       #311
      01003B17H   LINE      CODE     ---       #314
      ---         BLOCKEND  ---      ---       LVL=0
LX51 LINKER/LOCATER V4.66.30.0                                                        03/29/2016  00:06:41  PAGE 37



      01003C4BH   BLOCK     CODE     ---       LVL=0
      01003C4BH   LINE      CODE     ---       #374
      01003C4BH   LINE      CODE     ---       #388
      01003C4EH   LINE      CODE     ---       #413
      01003C51H   LINE      CODE     ---       #428
      01003C54H   LINE      CODE     ---       #432
      ---         BLOCKEND  ---      ---       LVL=0

      01003CC2H   BLOCK     CODE     ---       LVL=0
      01003CC2H   LINE      CODE     ---       #437
      01003CC2H   LINE      CODE     ---       #444
      01003CC5H   LINE      CODE     ---       #445
      01003CC8H   LINE      CODE     ---       #448
      ---         BLOCKEND  ---      ---       LVL=0

      01003B6AH   BLOCK     CODE     ---       LVL=0
      01003B6AH   LINE      CODE     ---       #453
      01003B6AH   LINE      CODE     ---       #456
      01003B6DH   LINE      CODE     ---       #457
      01003B6FH   LINE      CODE     ---       #458
      01003B71H   LINE      CODE     ---       #459
      01003B71H   LINE      CODE     ---       #474
      01003B74H   LINE      CODE     ---       #475
      01003B77H   LINE      CODE     ---       #476
      01003B77H   LINE      CODE     ---       #480
      ---         BLOCKEND  ---      ---       LVL=0

      01003ABAH   BLOCK     CODE     ---       LVL=0
      01003ABAH   BLOCK     CODE     NEAR LAB  LVL=1
      00000007H   SYMBOL    DATA     BYTE      TCON_save
      ---         BLOCKEND  ---      ---       LVL=1
      01003ABAH   LINE      CODE     ---       #485
      01003ABAH   LINE      CODE     ---       #489
      01003ABCH   LINE      CODE     ---       #491
      01003ABFH   LINE      CODE     ---       #505
      01003AC2H   LINE      CODE     ---       #513
      01003ACCH   LINE      CODE     ---       #517
      ---         BLOCKEND  ---      ---       LVL=0

      01003ACDH   BLOCK     CODE     ---       LVL=0
      01003ACDH   BLOCK     CODE     NEAR LAB  LVL=1
      00000007H   SYMBOL    DATA     BYTE      TMR2CN0_TR2_save
      ---         BLOCKEND  ---      ---       LVL=1
      01003ACDH   LINE      CODE     ---       #522
      01003ACDH   LINE      CODE     ---       #526
      01003AD1H   LINE      CODE     ---       #528
      01003AD4H   LINE      CODE     ---       #547
      01003AD7H   LINE      CODE     ---       #554
      01003ADAH   LINE      CODE     ---       #561
      01003ADDH   LINE      CODE     ---       #566
      01003ADFH   LINE      CODE     ---       #569
      ---         BLOCKEND  ---      ---       LVL=0

      0100002EH   BLOCK     CODE     ---       LVL=0
      0100002EH   BLOCK     CODE     NEAR LAB  LVL=1
      00000007H   SYMBOL    DATA     BYTE      TMR3CN0_TR3_save
      ---         BLOCKEND  ---      ---       LVL=1
      0100002EH   LINE      CODE     ---       #574
      0100002EH   LINE      CODE     ---       #578
      01000032H   LINE      CODE     ---       #580
      01000035H   LINE      CODE     ---       #605
LX51 LINKER/LOCATER V4.66.30.0                                                        03/29/2016  00:06:41  PAGE 38


      01000038H   LINE      CODE     ---       #610
      0100003AH   LINE      CODE     ---       #613
      ---         BLOCKEND  ---      ---       LVL=0

      01003C55H   BLOCK     CODE     ---       LVL=0
      01003C55H   LINE      CODE     ---       #618
      01003C55H   LINE      CODE     ---       #634
      01003C58H   LINE      CODE     ---       #657
      01003C5BH   LINE      CODE     ---       #665
      01003C5EH   LINE      CODE     ---       #668
      ---         BLOCKEND  ---      ---       LVL=0

      01003D05H   BLOCK     CODE     ---       LVL=0
      01003D05H   LINE      CODE     ---       #673
      01003D05H   LINE      CODE     ---       #696
      01003D08H   LINE      CODE     ---       #701
      ---         BLOCKEND  ---      ---       LVL=0

      01003D09H   BLOCK     CODE     ---       LVL=0
      01003D09H   LINE      CODE     ---       #706
      01003D09H   LINE      CODE     ---       #711
      01003D0CH   LINE      CODE     ---       #714
      ---         BLOCKEND  ---      ---       LVL=0

      01003CC9H   BLOCK     CODE     ---       LVL=0
      01003CC9H   LINE      CODE     ---       #719
      01003CC9H   LINE      CODE     ---       #739
      01003CCCH   LINE      CODE     ---       #777
      01003CCFH   LINE      CODE     ---       #788
      ---         BLOCKEND  ---      ---       LVL=0

      01003C87H   BLOCK     CODE     ---       LVL=0
      01003C87H   LINE      CODE     ---       #793
      01003C87H   LINE      CODE     ---       #795
      ---         BLOCKEND  ---      ---       LVL=0

      01003CABH   BLOCK     CODE     ---       LVL=0
      01003CABH   LINE      CODE     ---       #800
      01003CABH   LINE      CODE     ---       #802
      01003CADH   LINE      CODE     ---       #814
      01003CB0H   LINE      CODE     ---       #834
      01003CB2H   LINE      CODE     ---       #837
      ---         BLOCKEND  ---      ---       LVL=0

      01003CD0H   BLOCK     CODE     ---       LVL=0
      01003CD0H   LINE      CODE     ---       #839
      01003CD0H   LINE      CODE     ---       #842
      01003CD3H   LINE      CODE     ---       #864
      01003CD6H   LINE      CODE     ---       #882
      ---         BLOCKEND  ---      ---       LVL=0

      01003CD7H   BLOCK     CODE     ---       LVL=0
      01003CD7H   LINE      CODE     ---       #884
      01003CD7H   LINE      CODE     ---       #887
      01003CDAH   LINE      CODE     ---       #909
      01003CDDH   LINE      CODE     ---       #927
      ---         BLOCKEND  ---      ---       LVL=0

      01003CDEH   BLOCK     CODE     ---       LVL=0
      01003CDEH   LINE      CODE     ---       #929
      01003CDEH   LINE      CODE     ---       #932
      01003CE1H   LINE      CODE     ---       #954
LX51 LINKER/LOCATER V4.66.30.0                                                        03/29/2016  00:06:41  PAGE 39


      01003CE4H   LINE      CODE     ---       #972
      ---         BLOCKEND  ---      ---       LVL=0

      ---         MODULE    ---      ---       INTERRUPTS
      0200036EH   PUBLIC    XDATA    ---       SMB
      00000011H   PUBLIC    DATA     DWORD     _MS_
      00000010H   PUBLIC    DATA     BYTE      SMB_FLAGS
      01003B4BH   PUBLIC    CODE     ---       TIMER3_ISR
      01000A72H   PUBLIC    CODE     ---       SMBUS0_ISR
      010035BAH   PUBLIC    CODE     ---       TIMER2_ISR
      000000A2H   SFRSYM    DATA     BYTE      SPI0CKR
      00000080H   SFRSYM    DATA     BYTE      P0
      000000C8H.6 SFRSYM    DATA     BIT       SCON1_PERR
      000000D0H.2 SFRSYM    DATA     BIT       PSW_OV
      00000090H   SFRSYM    DATA     BYTE      P1
      000000F8H.1 SFRSYM    DATA     BIT       SPI0CN0_TXNF
      00000097H   SFRSYM    DATA     BYTE      WDTCN
      000000A0H   SFRSYM    DATA     BYTE      P2
      000000B0H   SFRSYM    DATA     BYTE      P3
      000000BCH   SFRSYM    DATA     BYTE      ADC0CF
      000000C0H.7 SFRSYM    DATA     BIT       SMB0CN0_MASTER
      000000F9H   SFRSYM    DATA     WORD      PCA0
      000000E6H   SFRSYM    DATA     BYTE      EIE1
      000000C0H.1 SFRSYM    DATA     BIT       SMB0CN0_ACK
      000000B3H   SFRSYM    DATA     BYTE      USB0XCN
      000000CEH   SFRSYM    DATA     BYTE      EIE2
      00000090H   SFRSYM    DATA     BIT       LED_R
      0000008FH   SFRSYM    DATA     BYTE      PSCTL
      000000E4H   SFRSYM    DATA     BYTE      IT01CF
      000000C0H.6 SFRSYM    DATA     BIT       SMB0CN0_TXMODE
      000000ADH   SFRSYM    DATA     BYTE      DERIVID
      000000A7H   SFRSYM    DATA     BYTE      SFRPAGE
      000000A4H   SFRSYM    DATA     BYTE      P0MDOUT
      00000080H.2 SFRSYM    DATA     BIT       U2F_BUTTON
      000000BFH   SFRSYM    DATA     BYTE      USB0CDSTA
      000000A5H   SFRSYM    DATA     BYTE      P1MDOUT
      000000E8H.5 SFRSYM    DATA     BIT       ADC0CN0_ADINT
      000000CBH   SFRSYM    DATA     BYTE      TMR2RLH
      000000A6H   SFRSYM    DATA     BYTE      P2MDOUT
      000000A8H   SFRSYM    DATA     BYTE      IE
      00000093H   SFRSYM    DATA     BYTE      TMR3RLH
      0000009CH   SFRSYM    DATA     BYTE      P3MDOUT
      000000A3H   SFRSYM    DATA     BYTE      TMR4RLH
      000000F3H   SFRSYM    DATA     BYTE      EIP1
      000000F4H   SFRSYM    DATA     BYTE      EIP2
      00000098H.2 SFRSYM    DATA     BIT       SCON0_RB8
      000000CAH   SFRSYM    DATA     BYTE      TMR2RLL
      000000FCH   SFRSYM    DATA     BYTE      PCA0CPH0
      00000092H   SFRSYM    DATA     BYTE      TMR3RLL
      000000EAH   SFRSYM    DATA     BYTE      PCA0CPH1
      00000098H.3 SFRSYM    DATA     BIT       SCON0_TB8
      000000F0H   SFRSYM    DATA     BIT       B_B0
      00000082H   SFRSYM    DATA     WORD      DP
      000000A2H   SFRSYM    DATA     BYTE      TMR4RLL
      000000ECH   SFRSYM    DATA     BYTE      PCA0CPH2
      000000F0H.1 SFRSYM    DATA     BIT       B_B1
      000000C3H   SFRSYM    DATA     WORD      ADC0GT
      000000BDH   SFRSYM    DATA     BYTE      I2C0SLAD
      000000D8H.3 SFRSYM    DATA     BIT       UART1FCN1_RFRQ
      000000F0H.2 SFRSYM    DATA     BIT       B_B2
      000000CFH   SFRSYM    DATA     BYTE      SFRPGCN
      000000FBH   SFRSYM    DATA     BYTE      PCA0CPL0
LX51 LINKER/LOCATER V4.66.30.0                                                        03/29/2016  00:06:41  PAGE 40


      000000F0H.3 SFRSYM    DATA     BIT       B_B3
      000000D9H   SFRSYM    DATA     BYTE      PCA0MD
      000000DAH   SFRSYM    DATA     BYTE      PCA0CPM0
      000000E9H   SFRSYM    DATA     BYTE      PCA0CPL1
      000000D8H.7 SFRSYM    DATA     BIT       UART1FCN1_TFRQ
      000000F0H.4 SFRSYM    DATA     BIT       B_B4
      000000DBH   SFRSYM    DATA     BYTE      PCA0CPM1
      000000EBH   SFRSYM    DATA     BYTE      PCA0CPL2
      000000F0H.5 SFRSYM    DATA     BIT       B_B5
      000000DCH   SFRSYM    DATA     BYTE      PCA0CPM2
      000000B8H   SFRSYM    DATA     BYTE      IP
      000000B9H   SFRSYM    DATA     BYTE      ADC0TK
      000000F0H.6 SFRSYM    DATA     BIT       B_B6
      000000C5H   SFRSYM    DATA     WORD      ADC0LT
      000000D8H.6 SFRSYM    DATA     BIT       UART1FCN1_TXNF
      00000098H.5 SFRSYM    DATA     BIT       SCON0_MCE
      000000F0H.7 SFRSYM    DATA     BIT       B_B7
      000000C3H   SFRSYM    DATA     BYTE      SMB0FCN0
      000000E1H   SFRSYM    DATA     BYTE      XBR0
      000000C4H   SFRSYM    DATA     BYTE      SMB0FCN1
      000000C1H   SFRSYM    DATA     BYTE      SMB0CF
      000000E2H   SFRSYM    DATA     BYTE      XBR1
      000000C1H   SFRSYM    DATA     BYTE      PFE0CN
      000000E7H   SFRSYM    DATA     BYTE      EMI0CN
      000000C0H.5 SFRSYM    DATA     BIT       SMB0CN0_STA
      000000E3H   SFRSYM    DATA     BYTE      XBR2
      000000BBH   SFRSYM    DATA     BYTE      ADC0MX
      000000E0H   SFRSYM    DATA     BIT       ACC_ACC0
      000000D1H   SFRSYM    DATA     BYTE      REF0CN
      0000008EH   SFRSYM    DATA     BYTE      CKCON0
      000000E0H.1 SFRSYM    DATA     BIT       ACC_ACC1
      000000C9H   SFRSYM    DATA     BYTE      REG0CN
      000000DDH   SFRSYM    DATA     BYTE      CRC0IN
      000000A6H   SFRSYM    DATA     BYTE      CKCON1
      000000C8H.2 SFRSYM    DATA     BIT       TMR2CN0_TR2
      000000E0H.2 SFRSYM    DATA     BIT       ACC_ACC2
      000000C6H   SFRSYM    DATA     BYTE      REG1CN
      000000E0H.3 SFRSYM    DATA     BIT       ACC_ACC3
      00000081H   SFRSYM    DATA     BYTE      SP
      0000009DH   SFRSYM    DATA     BYTE      CMP0MD
      000000E0H.4 SFRSYM    DATA     BIT       ACC_ACC4
      000000B1H   SFRSYM    DATA     BYTE      LFO0CN
      000000ABH   SFRSYM    DATA     BYTE      CMP1MD
      000000D8H   SFRSYM    DATA     BIT       PCA0CN0_CCF0
      000000E0H.5 SFRSYM    DATA     BIT       ACC_ACC5
      000000B5H   SFRSYM    DATA     BYTE      USB0CF
      00000098H.2 SFRSYM    DATA     BIT       TMR4CN0_TR4
      000000D8H.1 SFRSYM    DATA     BIT       PCA0CN0_CCF1
      000000E0H.6 SFRSYM    DATA     BIT       ACC_ACC6
      000000CCH   SFRSYM    DATA     WORD      TMR2
      0000009AH   SFRSYM    DATA     BYTE      SPI0FCN0
      000000D8H.2 SFRSYM    DATA     BIT       PCA0CN0_CCF2
      000000E0H.7 SFRSYM    DATA     BIT       ACC_ACC7
      00000094H   SFRSYM    DATA     WORD      TMR3
      0000009BH   SFRSYM    DATA     BYTE      SPI0FCN1
      000000A4H   SFRSYM    DATA     WORD      TMR4
      00000094H   SFRSYM    DATA     BYTE      SBCON1
      000000C0H.3 SFRSYM    DATA     BIT       SMB0CN0_ACKRQ
      000000FFH   SFRSYM    DATA     BYTE      VDM0CN
      000000F1H   SFRSYM    DATA     BYTE      P0MDIN
      00000098H.4 SFRSYM    DATA     BIT       SCON0_REN
      000000ACH   SFRSYM    DATA     BYTE      SMB0TC
LX51 LINKER/LOCATER V4.66.30.0                                                        03/29/2016  00:06:41  PAGE 41


      000000F2H   SFRSYM    DATA     BYTE      P1MDIN
      000000C8H.4 SFRSYM    DATA     BIT       SCON1_REN
      000000F3H   SFRSYM    DATA     BYTE      P2MDIN
      000000C0H.4 SFRSYM    DATA     BIT       SMB0CN0_STO
      000000B6H   SFRSYM    DATA     BYTE      USB0CDCF
      000000F4H   SFRSYM    DATA     BYTE      P3MDIN
      000000B9H   SFRSYM    DATA     BYTE      I2C0STAT
      000000BBH   SFRSYM    DATA     BYTE      I2C0DOUT
      00000096H   SFRSYM    DATA     BYTE      SBRLH1
      000000FEH   SFRSYM    DATA     BYTE      P0MASK
      000000D8H.5 SFRSYM    DATA     BIT       UART1FCN1_TXHOLD
      000000EEH   SFRSYM    DATA     BYTE      P1MASK
      000000FCH   SFRSYM    DATA     BYTE      P2MASK
      000000D0H.3 SFRSYM    DATA     BIT       PSW_RS0
      000000D8H.7 SFRSYM    DATA     BIT       PCA0CN0_CF
      0000009EH   SFRSYM    DATA     BYTE      PCA0CENT
      000000BAH   SFRSYM    DATA     BYTE      I2C0CN0
      000000D2H   SFRSYM    DATA     BYTE      CRC0ST
      000000F8H.4 SFRSYM    DATA     BIT       SPI0CN0_RXOVRN
      000000D0H.4 SFRSYM    DATA     BIT       PSW_RS1
      00000095H   SFRSYM    DATA     BYTE      SBRLL1
      000000C8H.2 SFRSYM    DATA     BIT       SCON1_RBX
      000000C8H   SFRSYM    DATA     BIT       TMR2CN0_T2XCLK0
      000000C8H.1 SFRSYM    DATA     BIT       TMR2CN0_T2XCLK1
      000000C8H.3 SFRSYM    DATA     BIT       SCON1_TBX
      000000E8H.7 SFRSYM    DATA     BIT       ADC0CN0_ADEN
      000000BEH   SFRSYM    DATA     BYTE      USB0CDCN
      00000089H   SFRSYM    DATA     BYTE      TMOD
      00000088H   SFRSYM    DATA     BYTE      TCON
      000000CFH   SFRSYM    DATA     BYTE      CRC0FLIP
      000000D0H   SFRSYM    DATA     BIT       PSW_PARITY
      000000A8H.4 SFRSYM    DATA     BIT       IE_ES0
      0000009FH   SFRSYM    DATA     BYTE      CMP0MX
      00000098H   SFRSYM    DATA     BIT       TMR4CN0_T4XCLK0
      000000A8H.1 SFRSYM    DATA     BIT       IE_ET0
      000000AAH   SFRSYM    DATA     BYTE      CMP1MX
      00000098H.1 SFRSYM    DATA     BIT       TMR4CN0_T4XCLK1
      000000A8H.3 SFRSYM    DATA     BIT       IE_ET1
      000000D4H   SFRSYM    DATA     BYTE      P0SKIP
      000000D8H   SFRSYM    DATA     BIT       UART1FCN1_RIE
      000000A8H.5 SFRSYM    DATA     BIT       IE_ET2
      000000D5H   SFRSYM    DATA     BYTE      P1SKIP
      000000CCH   SFRSYM    DATA     BYTE      P2SKIP
      000000E8H   SFRSYM    DATA     BYTE      ADC0CN0
      000000D8H.4 SFRSYM    DATA     BIT       UART1FCN1_TIE
      000000A8H   SFRSYM    DATA     BIT       IE_EX0
      000000B2H   SFRSYM    DATA     BYTE      ADC0CN1
      000000D8H.6 SFRSYM    DATA     BIT       PCA0CN0_CR
      000000A8H.2 SFRSYM    DATA     BIT       IE_EX1
      000000C8H.7 SFRSYM    DATA     BIT       SCON1_OVR
      00000098H.7 SFRSYM    DATA     BIT       SCON0_SMODE
      000000B5H   SFRSYM    DATA     BYTE      DEVICEID
      000000A9H   SFRSYM    DATA     BYTE      CLKSEL
      000000F8H   SFRSYM    DATA     BIT       SPI0CN0_SPIEN
      000000F0H   SFRSYM    DATA     BYTE      B
      000000BEH   SFRSYM    DATA     BYTE      ADC0H
      000000E8H.6 SFRSYM    DATA     BIT       ADC0CN0_ADBMEN
      000000CAH   SFRSYM    DATA     WORD      TMR2RL
      000000BDH   SFRSYM    DATA     BYTE      ADC0L
      00000092H   SFRSYM    DATA     WORD      TMR3RL
      000000A2H   SFRSYM    DATA     WORD      TMR4RL
      000000D8H   SFRSYM    DATA     BYTE      PCA0CN0
LX51 LINKER/LOCATER V4.66.30.0                                                        03/29/2016  00:06:41  PAGE 42


      000000E0H   SFRSYM    DATA     BYTE      ACC
      000000FBH   SFRSYM    DATA     WORD      PCA0CP0
      000000E9H   SFRSYM    DATA     WORD      PCA0CP1
      000000EBH   SFRSYM    DATA     WORD      PCA0CP2
      000000BCH   SFRSYM    DATA     BYTE      I2C0DIN
      000000CEH   SFRSYM    DATA     BYTE      CRC0CN0
      0000008CH   SFRSYM    DATA     BYTE      TH0
      00000086H   SFRSYM    DATA     BYTE      CRC0CN1
      000000B8H.4 SFRSYM    DATA     BIT       IP_PS0
      000000FAH   SFRSYM    DATA     BYTE      UART1FCT
      0000008DH   SFRSYM    DATA     BYTE      TH1
      000000FAH   SFRSYM    DATA     BYTE      PCA0H
      000000F5H   SFRSYM    DATA     BYTE      I2C0FCT
      000000B8H.1 SFRSYM    DATA     BIT       IP_PT0
      000000B8H.3 SFRSYM    DATA     BIT       IP_PT1
      000000C0H.2 SFRSYM    DATA     BIT       SMB0CN0_ARBLOST
      000000B8H.5 SFRSYM    DATA     BIT       IP_PT2
      0000008AH   SFRSYM    DATA     BYTE      TL0
      00000080H.3 SFRSYM    DATA     BIT       U2F_BUTTON_VAL
      000000D0H.5 SFRSYM    DATA     BIT       PSW_F0
      000000A8H.6 SFRSYM    DATA     BIT       IE_ESPI0
      0000008BH   SFRSYM    DATA     BYTE      TL1
      000000F9H   SFRSYM    DATA     BYTE      PCA0L
      000000C0H   SFRSYM    DATA     BIT       SMB0CN0_SI
      000000D0H.1 SFRSYM    DATA     BIT       PSW_F1
      00000080H   SFRSYM    DATA     BIT       P0_B0
      000000B8H   SFRSYM    DATA     BIT       IP_PX0
      00000090H   SFRSYM    DATA     BIT       P1_B0
      00000080H.1 SFRSYM    DATA     BIT       P0_B1
      000000B8H.2 SFRSYM    DATA     BIT       IP_PX1
      0000009EH   SFRSYM    DATA     BYTE      UART1LIN
      0000009BH   SFRSYM    DATA     BYTE      CMP0CN0
      00000088H.1 SFRSYM    DATA     BIT       TCON_IE0
      000000A0H   SFRSYM    DATA     BIT       P2_B0
      00000090H.1 SFRSYM    DATA     BIT       P1_B1
      00000080H.2 SFRSYM    DATA     BIT       P0_B2
      000000BFH   SFRSYM    DATA     BYTE      CMP1CN0
      00000099H   SFRSYM    DATA     BYTE      CMP0CN1
      00000088H.3 SFRSYM    DATA     BIT       TCON_IE1
      000000B0H   SFRSYM    DATA     BIT       P3_B0
      000000A0H.1 SFRSYM    DATA     BIT       P2_B1
      00000090H.2 SFRSYM    DATA     BIT       P1_B2
      00000080H.3 SFRSYM    DATA     BIT       P0_B3
      000000C0H   SFRSYM    DATA     BYTE      SMB0CN0
      000000ACH   SFRSYM    DATA     BYTE      CMP1CN1
      000000B0H.1 SFRSYM    DATA     BIT       P3_B1
      000000A0H.2 SFRSYM    DATA     BIT       P2_B2
      00000090H.3 SFRSYM    DATA     BIT       P1_B3
      00000080H.4 SFRSYM    DATA     BIT       P0_B4
      000000A0H.3 SFRSYM    DATA     BIT       P2_B3
      00000090H.4 SFRSYM    DATA     BIT       P1_B4
      00000080H.5 SFRSYM    DATA     BIT       P0_B5
      000000D8H.1 SFRSYM    DATA     BIT       UART1FCN1_RXTO0
      00000090H.5 SFRSYM    DATA     BIT       P1_B5
      00000080H.6 SFRSYM    DATA     BIT       P0_B6
      000000F5H   SFRSYM    DATA     BYTE      EIP1H
      000000D8H.2 SFRSYM    DATA     BIT       UART1FCN1_RXTO1
      00000090H.6 SFRSYM    DATA     BIT       P1_B6
      00000080H.7 SFRSYM    DATA     BIT       P0_B7
      000000C5H   SFRSYM    DATA     BYTE      SMB0RXLN
      000000F6H   SFRSYM    DATA     BYTE      EIP2H
      00000090H.7 SFRSYM    DATA     BIT       P1_B7
LX51 LINKER/LOCATER V4.66.30.0                                                        03/29/2016  00:06:41  PAGE 43


      00000083H   SFRSYM    DATA     BYTE      DPH
      000000C4H   SFRSYM    DATA     BYTE      ADC0GTH
      000000C8H.7 SFRSYM    DATA     BIT       TMR2CN0_TF2H
      000000C8H.3 SFRSYM    DATA     BIT       TMR2CN0_T2SPLIT
      000000D0H.6 SFRSYM    DATA     BIT       PSW_AC
      000000F8H   SFRSYM    DATA     BYTE      SPI0CN0
      000000C7H   SFRSYM    DATA     BYTE      HFO0CAL
      00000088H.5 SFRSYM    DATA     BIT       TCON_TF0
      00000098H   SFRSYM    DATA     BIT       SCON0_RI
      000000D6H   SFRSYM    DATA     BYTE      HFO1CAL
      00000082H   SFRSYM    DATA     BYTE      DPL
      00000088H.7 SFRSYM    DATA     BIT       TCON_TF1
      000000C8H   SFRSYM    DATA     BIT       SCON1_RI
      00000099H   SFRSYM    DATA     BYTE      SBUF0
      00000087H   SFRSYM    DATA     BYTE      PCON0
      000000F2H   SFRSYM    DATA     BYTE      IPH
      000000C3H   SFRSYM    DATA     BYTE      ADC0GTL
      00000098H.7 SFRSYM    DATA     BIT       TMR4CN0_TF4H
      00000098H.3 SFRSYM    DATA     BIT       TMR4CN0_T4SPLIT
      000000C8H.6 SFRSYM    DATA     BIT       TMR2CN0_TF2L
      00000098H.1 SFRSYM    DATA     BIT       SCON0_TI
      000000E8H   SFRSYM    DATA     BIT       ADC0CN0_ADCM0
      00000092H   SFRSYM    DATA     BYTE      SBUF1
      0000009AH   SFRSYM    DATA     BYTE      PCON1
      000000C6H   SFRSYM    DATA     BYTE      ADC0LTH
      00000088H   SFRSYM    DATA     BIT       TCON_IT0
      000000C8H.1 SFRSYM    DATA     BIT       SCON1_TI
      000000E8H.1 SFRSYM    DATA     BIT       ADC0CN0_ADCM1
      000000EFH   SFRSYM    DATA     BYTE      RSTSRC
      000000FDH   SFRSYM    DATA     BYTE      P0MAT
      000000DEH   SFRSYM    DATA     BYTE      CRC0DAT
      00000088H.2 SFRSYM    DATA     BIT       TCON_IT1
      000000E8H.2 SFRSYM    DATA     BIT       ADC0CN0_ADCM2
      000000D7H   SFRSYM    DATA     BYTE      SFRSTACK
      00000098H   SFRSYM    DATA     BYTE      SCON0
      000000F6H   SFRSYM    DATA     BYTE      PRTDRV
      000000EDH   SFRSYM    DATA     BYTE      P1MAT
      000000E8H.3 SFRSYM    DATA     BIT       ADC0CN0_ADWINT
      00000095H   SFRSYM    DATA     WORD      SBRL1
      000000B2H   SFRSYM    DATA     BYTE      USB0AEC
      00000093H   SFRSYM    DATA     BYTE      SMOD1
      000000C8H   SFRSYM    DATA     BYTE      SCON1
      000000FBH   SFRSYM    DATA     BYTE      P2MAT
      00000098H.6 SFRSYM    DATA     BIT       TMR4CN0_TF4L
      000000E8H.4 SFRSYM    DATA     BIT       ADC0CN0_ADBUSY
      000000D6H   SFRSYM    DATA     BYTE      SMB0ADM
      000000C5H   SFRSYM    DATA     BYTE      ADC0LTL
      000000F8H.5 SFRSYM    DATA     BIT       SPI0CN0_MODF
      000000B8H.6 SFRSYM    DATA     BIT       IP_PSPI0
      0000009CH   SFRSYM    DATA     BYTE      PCA0CLR
      000000C8H   SFRSYM    DATA     BYTE      TMR2CN0
      00000091H   SFRSYM    DATA     BYTE      TMR3CN0
      000000FDH   SFRSYM    DATA     BYTE      TMR2CN1
      00000098H   SFRSYM    DATA     BYTE      TMR4CN0
      000000FEH   SFRSYM    DATA     BYTE      TMR3CN1
      000000FFH   SFRSYM    DATA     BYTE      TMR4CN1
      000000D7H   SFRSYM    DATA     BYTE      SMB0ADR
      00000088H.4 SFRSYM    DATA     BIT       TCON_TR0
      000000C8H.4 SFRSYM    DATA     BIT       TMR2CN0_TF2CEN
      00000088H.6 SFRSYM    DATA     BIT       TCON_TR1
      000000C2H   SFRSYM    DATA     BYTE      SMB0DAT
      000000CDH   SFRSYM    DATA     BYTE      TMR2H
LX51 LINKER/LOCATER V4.66.30.0                                                        03/29/2016  00:06:41  PAGE 44


      000000A1H   SFRSYM    DATA     BYTE      SPI0CFG
      00000095H   SFRSYM    DATA     BYTE      TMR3H
      000000EFH   SFRSYM    DATA     BYTE      HFOCN
      000000D3H   SFRSYM    DATA     BYTE      CRC0CNT
      000000A5H   SFRSYM    DATA     BYTE      TMR4H
      00000098H.4 SFRSYM    DATA     BIT       TMR4CN0_TF4CEN
      000000EFH   SFRSYM    DATA     BYTE      SMB0FCT
      00000096H   SFRSYM    DATA     BYTE      PCA0POL
      000000CCH   SFRSYM    DATA     BYTE      TMR2L
      000000F8H.7 SFRSYM    DATA     BIT       SPI0CN0_SPIF
      000000AEH   SFRSYM    DATA     BYTE      USB0ADR
      00000094H   SFRSYM    DATA     BYTE      TMR3L
      000000DFH   SFRSYM    DATA     BYTE      ADC0PWR
      000000A8H.7 SFRSYM    DATA     BIT       IE_EA
      000000A4H   SFRSYM    DATA     BYTE      TMR4L
      000000AFH   SFRSYM    DATA     BYTE      USB0DAT
      000000C8H.5 SFRSYM    DATA     BIT       TMR2CN0_TF2LEN
      000000F8H.6 SFRSYM    DATA     BIT       SPI0CN0_WCOL
      00000080H.6 SFRSYM    DATA     BIT       LED_B
      000000F8H.2 SFRSYM    DATA     BIT       SPI0CN0_NSSMD0
      000000D0H.7 SFRSYM    DATA     BIT       PSW_CY
      0000009DH   SFRSYM    DATA     BYTE      UART1FCN0
      000000A3H   SFRSYM    DATA     BYTE      SPI0DAT
      000000ADH   SFRSYM    DATA     BYTE      I2C0FCN0
      000000F8H.3 SFRSYM    DATA     BIT       SPI0CN0_NSSMD1
      000000BDH   SFRSYM    DATA     WORD      ADC0
      000000D8H   SFRSYM    DATA     BYTE      UART1FCN1
      000000ABH   SFRSYM    DATA     BYTE      I2C0FCN1
      00000098H.5 SFRSYM    DATA     BIT       TMR4CN0_TF4LEN
      000000D0H   SFRSYM    DATA     BYTE      PSW
      000000F7H   SFRSYM    DATA     BYTE      PCA0PWM
      000000F7H   SFRSYM    DATA     BYTE      SPI0FCT
      000000B6H   SFRSYM    DATA     BYTE      REVID
      00000080H.7 SFRSYM    DATA     BIT       LED_G
      000000B7H   SFRSYM    DATA     BYTE      FLKEY
      000000B3H   SFRSYM    DATA     BYTE      ADC0AC
      01003918H   SYMBOL    CODE     ---       __feed_crc
      01003A69H   SYMBOL    CODE     ---       restart_bus
      010038FDH   SYMBOL    CODE     ---       update_from_packet_length

      01003BE9H   BLOCK     CODE     ---       LVL=0
      ---         BLOCKEND  ---      ---       LVL=0

      010035BAH   BLOCK     CODE     ---       LVL=0
      010035BAH   LINE      CODE     ---       #15
      010035C7H   LINE      CODE     ---       #17
      010035C9H   LINE      CODE     ---       #18
      010035E1H   LINE      CODE     ---       #19
      ---         BLOCKEND  ---      ---       LVL=0

      010038FDH   BLOCK     CODE     ---       LVL=0
      010038FDH   LINE      CODE     ---       #34
      010038FDH   LINE      CODE     ---       #35
      010038FDH   LINE      CODE     ---       #36
      01003911H   LINE      CODE     ---       #37
      01003911H   LINE      CODE     ---       #38
      01003913H   LINE      CODE     ---       #39
      01003914H   LINE      CODE     ---       #41
      01003914H   LINE      CODE     ---       #43
      01003917H   LINE      CODE     ---       #44
      01003917H   LINE      CODE     ---       #45
      ---         BLOCKEND  ---      ---       LVL=0
LX51 LINKER/LOCATER V4.66.30.0                                                        03/29/2016  00:06:41  PAGE 45



      01003918H   BLOCK     CODE     ---       LVL=0
      00000005H   SYMBOL    DATA     BYTE      b
      01003918H   LINE      CODE     ---       #47
      0100391AH   LINE      CODE     ---       #48
      0100391AH   LINE      CODE     ---       #49
      0100391FH   LINE      CODE     ---       #50
      0100391FH   LINE      CODE     ---       #51
      01003932H   LINE      CODE     ---       #52
      01003932H   LINE      CODE     ---       #53
      ---         BLOCKEND  ---      ---       LVL=0

      01003A69H   BLOCK     CODE     ---       LVL=0
      01003A69H   LINE      CODE     ---       #55
      01003A69H   LINE      CODE     ---       #56
      01003A69H   LINE      CODE     ---       #57
      01003A6CH   LINE      CODE     ---       #58
      01003A6FH   LINE      CODE     ---       #59
      01003A71H   LINE      CODE     ---       #60
      01003A73H   LINE      CODE     ---       #61
      01003A75H   LINE      CODE     ---       #62
      01003A78H   LINE      CODE     ---       #63
      01003A7DH   LINE      CODE     ---       #64
      ---         BLOCKEND  ---      ---       LVL=0

      01000A72H   BLOCK     CODE     ---       LVL=0
      01000A8FH   BLOCK     CODE     NEAR LAB  LVL=1
      00000015H   SYMBOL    DATA     BYTE      bus
      01000BD4H   SYMBOL    CODE     ---       fail
      ---         BLOCKEND  ---      ---       LVL=1
      01000A72H   LINE      CODE     ---       #66
      01000A8FH   LINE      CODE     ---       #68
      01000A95H   LINE      CODE     ---       #69
      01000A9BH   LINE      CODE     ---       #70
      01000A9BH   LINE      CODE     ---       #71
      01000A9BH   LINE      CODE     ---       #72
      01000A9BH   LINE      CODE     ---       #74
      01000AAFH   LINE      CODE     ---       #75
      01000AAFH   LINE      CODE     ---       #76
      01000AAFH   LINE      CODE     ---       #77
      01000ABBH   LINE      CODE     ---       #78
      01000ABDH   LINE      CODE     ---       #79
      01000AC0H   LINE      CODE     ---       #81
      01000AC0H   LINE      CODE     ---       #82
      01000AC3H   LINE      CODE     ---       #83
      01000AC3H   LINE      CODE     ---       #86
      01000AC5H   LINE      CODE     ---       #87
      01000AC8H   LINE      CODE     ---       #88
      01000ACBH   LINE      CODE     ---       #89
      01000ACEH   LINE      CODE     ---       #90
      01000AD6H   LINE      CODE     ---       #91
      01000AD6H   LINE      CODE     ---       #93
      01000AD6H   LINE      CODE     ---       #94
      01000AE2H   LINE      CODE     ---       #95
      01000AE2H   LINE      CODE     ---       #98
      01000AEFH   LINE      CODE     ---       #99
      01000AF8H   LINE      CODE     ---       #101
      01000AFAH   LINE      CODE     ---       #102
      01000B0BH   LINE      CODE     ---       #103
      01000B0BH   LINE      CODE     ---       #105
      01000B15H   LINE      CODE     ---       #106
      01000B29H   LINE      CODE     ---       #107
LX51 LINKER/LOCATER V4.66.30.0                                                        03/29/2016  00:06:41  PAGE 46


      01000B2CH   LINE      CODE     ---       #108
      01000B31H   LINE      CODE     ---       #109
      01000B31H   LINE      CODE     ---       #111
      01000B42H   LINE      CODE     ---       #112
      01000B42H   LINE      CODE     ---       #113
      01000B42H   LINE      CODE     ---       #114
      01000B45H   LINE      CODE     ---       #115
      01000B47H   LINE      CODE     ---       #116
      01000B4AH   LINE      CODE     ---       #117
      01000B4AH   LINE      CODE     ---       #118
      01000B50H   LINE      CODE     ---       #119
      01000B53H   LINE      CODE     ---       #120
      01000B55H   LINE      CODE     ---       #121
      01000B55H   LINE      CODE     ---       #122
      01000B55H   LINE      CODE     ---       #124
      01000B55H   LINE      CODE     ---       #126
      01000B57H   LINE      CODE     ---       #127
      01000B5AH   LINE      CODE     ---       #128
      01000B5AH   LINE      CODE     ---       #129
      01000B5AH   LINE      CODE     ---       #132
      01000B5CH   LINE      CODE     ---       #134
      01000B5CH   LINE      CODE     ---       #137
      01000B67H   LINE      CODE     ---       #138
      01000B67H   LINE      CODE     ---       #139
      01000B7AH   LINE      CODE     ---       #143
      01000B7DH   LINE      CODE     ---       #144
      01000B7DH   LINE      CODE     ---       #145
      01000B80H   LINE      CODE     ---       #146
      01000B80H   LINE      CODE     ---       #148
      01000B93H   LINE      CODE     ---       #149
      01000B93H   LINE      CODE     ---       #150
      01000BB2H   LINE      CODE     ---       #151
      01000BB2H   LINE      CODE     ---       #153
      01000BB8H   LINE      CODE     ---       #154
      01000BBAH   LINE      CODE     ---       #155
      01000BBCH   LINE      CODE     ---       #157
      01000BBCH   LINE      CODE     ---       #159
      01000BC1H   LINE      CODE     ---       #160
      01000BC1H   LINE      CODE     ---       #161
      01000BC4H   LINE      CODE     ---       #162
      01000BC4H   LINE      CODE     ---       #163
      01000BC7H   LINE      CODE     ---       #164
      01000BC9H   LINE      CODE     ---       #165
      01000BCBH   LINE      CODE     ---       #166
      01000BD0H   LINE      CODE     ---       #167
      01000BD0H   LINE      CODE     ---       #169
      01000BD0H   LINE      CODE     ---       #171
      01000BD0H   LINE      CODE     ---       #172
      01000BD0H   LINE      CODE     ---       #173
      01000BD0H   LINE      CODE     ---       #175
      01000BD0H   LINE      CODE     ---       #179
      01000BD4H   LINE      CODE     ---       #182
      01000BD4H   LINE      CODE     ---       #183
      01000BE5H   LINE      CODE     ---       #184
      01000BE8H   LINE      CODE     ---       #185
      01000BEAH   LINE      CODE     ---       #186
      ---         BLOCKEND  ---      ---       LVL=0

      01003B4BH   BLOCK     CODE     ---       LVL=0
      01003B4BH   LINE      CODE     ---       #201
      01003B51H   LINE      CODE     ---       #203
      01003B54H   LINE      CODE     ---       #204
LX51 LINKER/LOCATER V4.66.30.0                                                        03/29/2016  00:06:41  PAGE 47


      ---         BLOCKEND  ---      ---       LVL=0

      ---         MODULE    ---      ---       ?C_STARTUP
      01000000H   PUBLIC    CODE     ---       ?C_STARTUP
      000000E0H   SYMBOL    DATA     ---       ACC
      000000F0H   SYMBOL    DATA     ---       B
      00000083H   SYMBOL    DATA     ---       DPH
      00000082H   SYMBOL    DATA     ---       DPL
      00000000H   SYMBOL    NUMBER   ---       IBPSTACK
      00000100H   SYMBOL    NUMBER   ---       IBPSTACKTOP
      00000080H   SYMBOL    NUMBER   ---       IDATALEN
      01002472H   SYMBOL    CODE     ---       IDATALOOP
      00000000H   SYMBOL    NUMBER   ---       PBPSTACK
      00000100H   SYMBOL    NUMBER   ---       PBPSTACKTOP
      00000000H   SYMBOL    NUMBER   ---       PDATALEN
      00000000H   SYMBOL    NUMBER   ---       PDATASTART
      00000000H   SYMBOL    NUMBER   ---       PPAGE
      00000000H   SYMBOL    NUMBER   ---       PPAGEENABLE
      000000A0H   SYMBOL    DATA     ---       PPAGE_SFR
      00000081H   SYMBOL    DATA     ---       SP
      0100246FH   SYMBOL    CODE     ---       STARTUP1
      00000000H   SYMBOL    NUMBER   ---       XBPSTACK
      00000000H   SYMBOL    NUMBER   ---       XBPSTACKTOP
      00000000H   SYMBOL    NUMBER   ---       XDATALEN
      00000000H   SYMBOL    NUMBER   ---       XDATASTART
      01000000H   LINE      CODE     ---       #126
      0100246FH   LINE      CODE     ---       #138
      01002471H   LINE      CODE     ---       #139
      01002472H   LINE      CODE     ---       #140
      01002473H   LINE      CODE     ---       #141
      01002475H   LINE      CODE     ---       #190
      01002478H   LINE      CODE     ---       #201

      ---         MODULE    ---      ---       BSP
      02000212H   PUBLIC    XDATA    BYTE      ?_u2f_printb?BYTE
      0100340AH   PUBLIC    CODE     ---       _u2f_printb
      02000190H   PUBLIC    XDATA    BYTE      ?_u2f_printl?BYTE
      010034E8H   PUBLIC    CODE     ---       _u2f_printl
      02000205H   PUBLIC    XDATA    BYTE      ?_u2f_printd?BYTE
      0100003EH   PUBLIC    CODE     ---       _u2f_printd
      01003CF3H   PUBLIC    CODE     ---       _u2f_putl
      01003BC5H   PUBLIC    CODE     ---       _u2f_putd
      01003C5FH   PUBLIC    CODE     ---       _u2f_putb
      01003320H   PUBLIC    CODE     ---       ___int2str16
      010032E5H   PUBLIC    CODE     ---       ___int2str10
      010037A8H   PUBLIC    CODE     ---       _u2f_prints
      01002E5AH   PUBLIC    CODE     ---       _dump_hex
      0100399AH   PUBLIC    CODE     ---       _putf
      0100295AH   PUBLIC    CODE     ---       _usb_write
      0100322EH   PUBLIC    CODE     ---       _u2f_delay
      000000A2H   SFRSYM    DATA     BYTE      SPI0CKR
      00000080H   SFRSYM    DATA     BYTE      P0
      000000C8H.6 SFRSYM    DATA     BIT       SCON1_PERR
      000000D0H.2 SFRSYM    DATA     BIT       PSW_OV
      00000090H   SFRSYM    DATA     BYTE      P1
      000000F8H.1 SFRSYM    DATA     BIT       SPI0CN0_TXNF
      00000097H   SFRSYM    DATA     BYTE      WDTCN
      000000A0H   SFRSYM    DATA     BYTE      P2
      000000B0H   SFRSYM    DATA     BYTE      P3
      000000BCH   SFRSYM    DATA     BYTE      ADC0CF
      000000C0H.7 SFRSYM    DATA     BIT       SMB0CN0_MASTER
      000000F9H   SFRSYM    DATA     WORD      PCA0
LX51 LINKER/LOCATER V4.66.30.0                                                        03/29/2016  00:06:41  PAGE 48


      000000E6H   SFRSYM    DATA     BYTE      EIE1
      000000C0H.1 SFRSYM    DATA     BIT       SMB0CN0_ACK
      000000B3H   SFRSYM    DATA     BYTE      USB0XCN
      000000CEH   SFRSYM    DATA     BYTE      EIE2
      00000090H   SFRSYM    DATA     BIT       LED_R
      0000008FH   SFRSYM    DATA     BYTE      PSCTL
      000000E4H   SFRSYM    DATA     BYTE      IT01CF
      000000C0H.6 SFRSYM    DATA     BIT       SMB0CN0_TXMODE
      000000ADH   SFRSYM    DATA     BYTE      DERIVID
      000000A7H   SFRSYM    DATA     BYTE      SFRPAGE
      000000A4H   SFRSYM    DATA     BYTE      P0MDOUT
      00000080H.2 SFRSYM    DATA     BIT       U2F_BUTTON
      000000BFH   SFRSYM    DATA     BYTE      USB0CDSTA
      000000A5H   SFRSYM    DATA     BYTE      P1MDOUT
      000000E8H.5 SFRSYM    DATA     BIT       ADC0CN0_ADINT
      000000CBH   SFRSYM    DATA     BYTE      TMR2RLH
      000000A6H   SFRSYM    DATA     BYTE      P2MDOUT
      000000A8H   SFRSYM    DATA     BYTE      IE
      00000093H   SFRSYM    DATA     BYTE      TMR3RLH
      0000009CH   SFRSYM    DATA     BYTE      P3MDOUT
      000000A3H   SFRSYM    DATA     BYTE      TMR4RLH
      000000F3H   SFRSYM    DATA     BYTE      EIP1
      000000F4H   SFRSYM    DATA     BYTE      EIP2
      00000098H.2 SFRSYM    DATA     BIT       SCON0_RB8
      000000CAH   SFRSYM    DATA     BYTE      TMR2RLL
      000000FCH   SFRSYM    DATA     BYTE      PCA0CPH0
      00000092H   SFRSYM    DATA     BYTE      TMR3RLL
      000000EAH   SFRSYM    DATA     BYTE      PCA0CPH1
      00000098H.3 SFRSYM    DATA     BIT       SCON0_TB8
      000000F0H   SFRSYM    DATA     BIT       B_B0
      00000082H   SFRSYM    DATA     WORD      DP
      000000A2H   SFRSYM    DATA     BYTE      TMR4RLL
      000000ECH   SFRSYM    DATA     BYTE      PCA0CPH2
      000000F0H.1 SFRSYM    DATA     BIT       B_B1
      000000C3H   SFRSYM    DATA     WORD      ADC0GT
      000000BDH   SFRSYM    DATA     BYTE      I2C0SLAD
      000000D8H.3 SFRSYM    DATA     BIT       UART1FCN1_RFRQ
      000000F0H.2 SFRSYM    DATA     BIT       B_B2
      000000CFH   SFRSYM    DATA     BYTE      SFRPGCN
      000000FBH   SFRSYM    DATA     BYTE      PCA0CPL0
      000000F0H.3 SFRSYM    DATA     BIT       B_B3
      000000D9H   SFRSYM    DATA     BYTE      PCA0MD
      000000DAH   SFRSYM    DATA     BYTE      PCA0CPM0
      000000E9H   SFRSYM    DATA     BYTE      PCA0CPL1
      000000D8H.7 SFRSYM    DATA     BIT       UART1FCN1_TFRQ
      000000F0H.4 SFRSYM    DATA     BIT       B_B4
      000000DBH   SFRSYM    DATA     BYTE      PCA0CPM1
      000000EBH   SFRSYM    DATA     BYTE      PCA0CPL2
      000000F0H.5 SFRSYM    DATA     BIT       B_B5
      000000DCH   SFRSYM    DATA     BYTE      PCA0CPM2
      000000B8H   SFRSYM    DATA     BYTE      IP
      000000B9H   SFRSYM    DATA     BYTE      ADC0TK
      000000F0H.6 SFRSYM    DATA     BIT       B_B6
      000000C5H   SFRSYM    DATA     WORD      ADC0LT
      000000D8H.6 SFRSYM    DATA     BIT       UART1FCN1_TXNF
      00000098H.5 SFRSYM    DATA     BIT       SCON0_MCE
      000000F0H.7 SFRSYM    DATA     BIT       B_B7
      000000C3H   SFRSYM    DATA     BYTE      SMB0FCN0
      000000E1H   SFRSYM    DATA     BYTE      XBR0
      000000C4H   SFRSYM    DATA     BYTE      SMB0FCN1
      000000C1H   SFRSYM    DATA     BYTE      SMB0CF
      000000E2H   SFRSYM    DATA     BYTE      XBR1
LX51 LINKER/LOCATER V4.66.30.0                                                        03/29/2016  00:06:41  PAGE 49


      000000C1H   SFRSYM    DATA     BYTE      PFE0CN
      000000E7H   SFRSYM    DATA     BYTE      EMI0CN
      000000C0H.5 SFRSYM    DATA     BIT       SMB0CN0_STA
      000000E3H   SFRSYM    DATA     BYTE      XBR2
      000000BBH   SFRSYM    DATA     BYTE      ADC0MX
      000000E0H   SFRSYM    DATA     BIT       ACC_ACC0
      000000D1H   SFRSYM    DATA     BYTE      REF0CN
      0000008EH   SFRSYM    DATA     BYTE      CKCON0
      000000E0H.1 SFRSYM    DATA     BIT       ACC_ACC1
      000000C9H   SFRSYM    DATA     BYTE      REG0CN
      000000DDH   SFRSYM    DATA     BYTE      CRC0IN
      000000A6H   SFRSYM    DATA     BYTE      CKCON1
      000000C8H.2 SFRSYM    DATA     BIT       TMR2CN0_TR2
      000000E0H.2 SFRSYM    DATA     BIT       ACC_ACC2
      000000C6H   SFRSYM    DATA     BYTE      REG1CN
      000000E0H.3 SFRSYM    DATA     BIT       ACC_ACC3
      00000081H   SFRSYM    DATA     BYTE      SP
      0000009DH   SFRSYM    DATA     BYTE      CMP0MD
      000000E0H.4 SFRSYM    DATA     BIT       ACC_ACC4
      000000B1H   SFRSYM    DATA     BYTE      LFO0CN
      000000ABH   SFRSYM    DATA     BYTE      CMP1MD
      000000D8H   SFRSYM    DATA     BIT       PCA0CN0_CCF0
      000000E0H.5 SFRSYM    DATA     BIT       ACC_ACC5
      000000B5H   SFRSYM    DATA     BYTE      USB0CF
      00000098H.2 SFRSYM    DATA     BIT       TMR4CN0_TR4
      000000D8H.1 SFRSYM    DATA     BIT       PCA0CN0_CCF1
      000000E0H.6 SFRSYM    DATA     BIT       ACC_ACC6
      000000CCH   SFRSYM    DATA     WORD      TMR2
      0000009AH   SFRSYM    DATA     BYTE      SPI0FCN0
      000000D8H.2 SFRSYM    DATA     BIT       PCA0CN0_CCF2
      000000E0H.7 SFRSYM    DATA     BIT       ACC_ACC7
      00000094H   SFRSYM    DATA     WORD      TMR3
      0000009BH   SFRSYM    DATA     BYTE      SPI0FCN1
      000000A4H   SFRSYM    DATA     WORD      TMR4
      00000094H   SFRSYM    DATA     BYTE      SBCON1
      000000C0H.3 SFRSYM    DATA     BIT       SMB0CN0_ACKRQ
      000000FFH   SFRSYM    DATA     BYTE      VDM0CN
      000000F1H   SFRSYM    DATA     BYTE      P0MDIN
      00000098H.4 SFRSYM    DATA     BIT       SCON0_REN
      000000ACH   SFRSYM    DATA     BYTE      SMB0TC
      000000F2H   SFRSYM    DATA     BYTE      P1MDIN
      000000C8H.4 SFRSYM    DATA     BIT       SCON1_REN
      000000F3H   SFRSYM    DATA     BYTE      P2MDIN
      000000C0H.4 SFRSYM    DATA     BIT       SMB0CN0_STO
      000000B6H   SFRSYM    DATA     BYTE      USB0CDCF
      000000F4H   SFRSYM    DATA     BYTE      P3MDIN
      000000B9H   SFRSYM    DATA     BYTE      I2C0STAT
      000000BBH   SFRSYM    DATA     BYTE      I2C0DOUT
      00000096H   SFRSYM    DATA     BYTE      SBRLH1
      000000FEH   SFRSYM    DATA     BYTE      P0MASK
      000000D8H.5 SFRSYM    DATA     BIT       UART1FCN1_TXHOLD
      000000EEH   SFRSYM    DATA     BYTE      P1MASK
      000000FCH   SFRSYM    DATA     BYTE      P2MASK
      000000D0H.3 SFRSYM    DATA     BIT       PSW_RS0
      000000D8H.7 SFRSYM    DATA     BIT       PCA0CN0_CF
      0000009EH   SFRSYM    DATA     BYTE      PCA0CENT
      000000BAH   SFRSYM    DATA     BYTE      I2C0CN0
      000000D2H   SFRSYM    DATA     BYTE      CRC0ST
      000000F8H.4 SFRSYM    DATA     BIT       SPI0CN0_RXOVRN
      000000D0H.4 SFRSYM    DATA     BIT       PSW_RS1
      00000095H   SFRSYM    DATA     BYTE      SBRLL1
      000000C8H.2 SFRSYM    DATA     BIT       SCON1_RBX
LX51 LINKER/LOCATER V4.66.30.0                                                        03/29/2016  00:06:41  PAGE 50


      000000C8H   SFRSYM    DATA     BIT       TMR2CN0_T2XCLK0
      000000C8H.1 SFRSYM    DATA     BIT       TMR2CN0_T2XCLK1
      000000C8H.3 SFRSYM    DATA     BIT       SCON1_TBX
      000000E8H.7 SFRSYM    DATA     BIT       ADC0CN0_ADEN
      000000BEH   SFRSYM    DATA     BYTE      USB0CDCN
      00000089H   SFRSYM    DATA     BYTE      TMOD
      00000088H   SFRSYM    DATA     BYTE      TCON
      000000CFH   SFRSYM    DATA     BYTE      CRC0FLIP
      000000D0H   SFRSYM    DATA     BIT       PSW_PARITY
      000000A8H.4 SFRSYM    DATA     BIT       IE_ES0
      0000009FH   SFRSYM    DATA     BYTE      CMP0MX
      00000098H   SFRSYM    DATA     BIT       TMR4CN0_T4XCLK0
      000000A8H.1 SFRSYM    DATA     BIT       IE_ET0
      000000AAH   SFRSYM    DATA     BYTE      CMP1MX
      00000098H.1 SFRSYM    DATA     BIT       TMR4CN0_T4XCLK1
      000000A8H.3 SFRSYM    DATA     BIT       IE_ET1
      000000D4H   SFRSYM    DATA     BYTE      P0SKIP
      000000D8H   SFRSYM    DATA     BIT       UART1FCN1_RIE
      000000A8H.5 SFRSYM    DATA     BIT       IE_ET2
      000000D5H   SFRSYM    DATA     BYTE      P1SKIP
      000000CCH   SFRSYM    DATA     BYTE      P2SKIP
      000000E8H   SFRSYM    DATA     BYTE      ADC0CN0
      000000D8H.4 SFRSYM    DATA     BIT       UART1FCN1_TIE
      000000A8H   SFRSYM    DATA     BIT       IE_EX0
      000000B2H   SFRSYM    DATA     BYTE      ADC0CN1
      000000D8H.6 SFRSYM    DATA     BIT       PCA0CN0_CR
      000000A8H.2 SFRSYM    DATA     BIT       IE_EX1
      000000C8H.7 SFRSYM    DATA     BIT       SCON1_OVR
      00000098H.7 SFRSYM    DATA     BIT       SCON0_SMODE
      000000B5H   SFRSYM    DATA     BYTE      DEVICEID
      000000A9H   SFRSYM    DATA     BYTE      CLKSEL
      000000F8H   SFRSYM    DATA     BIT       SPI0CN0_SPIEN
      000000F0H   SFRSYM    DATA     BYTE      B
      000000BEH   SFRSYM    DATA     BYTE      ADC0H
      000000E8H.6 SFRSYM    DATA     BIT       ADC0CN0_ADBMEN
      000000CAH   SFRSYM    DATA     WORD      TMR2RL
      000000BDH   SFRSYM    DATA     BYTE      ADC0L
      00000092H   SFRSYM    DATA     WORD      TMR3RL
      000000A2H   SFRSYM    DATA     WORD      TMR4RL
      000000D8H   SFRSYM    DATA     BYTE      PCA0CN0
      000000E0H   SFRSYM    DATA     BYTE      ACC
      000000FBH   SFRSYM    DATA     WORD      PCA0CP0
      000000E9H   SFRSYM    DATA     WORD      PCA0CP1
      000000EBH   SFRSYM    DATA     WORD      PCA0CP2
      000000BCH   SFRSYM    DATA     BYTE      I2C0DIN
      000000CEH   SFRSYM    DATA     BYTE      CRC0CN0
      0000008CH   SFRSYM    DATA     BYTE      TH0
      00000086H   SFRSYM    DATA     BYTE      CRC0CN1
      000000B8H.4 SFRSYM    DATA     BIT       IP_PS0
      000000FAH   SFRSYM    DATA     BYTE      UART1FCT
      0000008DH   SFRSYM    DATA     BYTE      TH1
      000000FAH   SFRSYM    DATA     BYTE      PCA0H
      000000F5H   SFRSYM    DATA     BYTE      I2C0FCT
      000000B8H.1 SFRSYM    DATA     BIT       IP_PT0
      000000B8H.3 SFRSYM    DATA     BIT       IP_PT1
      000000C0H.2 SFRSYM    DATA     BIT       SMB0CN0_ARBLOST
      000000B8H.5 SFRSYM    DATA     BIT       IP_PT2
      0000008AH   SFRSYM    DATA     BYTE      TL0
      00000080H.3 SFRSYM    DATA     BIT       U2F_BUTTON_VAL
      000000D0H.5 SFRSYM    DATA     BIT       PSW_F0
      000000A8H.6 SFRSYM    DATA     BIT       IE_ESPI0
      0000008BH   SFRSYM    DATA     BYTE      TL1
LX51 LINKER/LOCATER V4.66.30.0                                                        03/29/2016  00:06:41  PAGE 51


      000000F9H   SFRSYM    DATA     BYTE      PCA0L
      000000C0H   SFRSYM    DATA     BIT       SMB0CN0_SI
      000000D0H.1 SFRSYM    DATA     BIT       PSW_F1
      00000080H   SFRSYM    DATA     BIT       P0_B0
      000000B8H   SFRSYM    DATA     BIT       IP_PX0
      00000090H   SFRSYM    DATA     BIT       P1_B0
      00000080H.1 SFRSYM    DATA     BIT       P0_B1
      000000B8H.2 SFRSYM    DATA     BIT       IP_PX1
      0000009EH   SFRSYM    DATA     BYTE      UART1LIN
      0000009BH   SFRSYM    DATA     BYTE      CMP0CN0
      00000088H.1 SFRSYM    DATA     BIT       TCON_IE0
      000000A0H   SFRSYM    DATA     BIT       P2_B0
      00000090H.1 SFRSYM    DATA     BIT       P1_B1
      00000080H.2 SFRSYM    DATA     BIT       P0_B2
      000000BFH   SFRSYM    DATA     BYTE      CMP1CN0
      00000099H   SFRSYM    DATA     BYTE      CMP0CN1
      00000088H.3 SFRSYM    DATA     BIT       TCON_IE1
      000000B0H   SFRSYM    DATA     BIT       P3_B0
      000000A0H.1 SFRSYM    DATA     BIT       P2_B1
      00000090H.2 SFRSYM    DATA     BIT       P1_B2
      00000080H.3 SFRSYM    DATA     BIT       P0_B3
      000000C0H   SFRSYM    DATA     BYTE      SMB0CN0
      000000ACH   SFRSYM    DATA     BYTE      CMP1CN1
      000000B0H.1 SFRSYM    DATA     BIT       P3_B1
      000000A0H.2 SFRSYM    DATA     BIT       P2_B2
      00000090H.3 SFRSYM    DATA     BIT       P1_B3
      00000080H.4 SFRSYM    DATA     BIT       P0_B4
      000000A0H.3 SFRSYM    DATA     BIT       P2_B3
      00000090H.4 SFRSYM    DATA     BIT       P1_B4
      00000080H.5 SFRSYM    DATA     BIT       P0_B5
      000000D8H.1 SFRSYM    DATA     BIT       UART1FCN1_RXTO0
      00000090H.5 SFRSYM    DATA     BIT       P1_B5
      00000080H.6 SFRSYM    DATA     BIT       P0_B6
      000000F5H   SFRSYM    DATA     BYTE      EIP1H
      000000D8H.2 SFRSYM    DATA     BIT       UART1FCN1_RXTO1
      00000090H.6 SFRSYM    DATA     BIT       P1_B6
      00000080H.7 SFRSYM    DATA     BIT       P0_B7
      000000C5H   SFRSYM    DATA     BYTE      SMB0RXLN
      000000F6H   SFRSYM    DATA     BYTE      EIP2H
      00000090H.7 SFRSYM    DATA     BIT       P1_B7
      00000083H   SFRSYM    DATA     BYTE      DPH
      000000C4H   SFRSYM    DATA     BYTE      ADC0GTH
      000000C8H.7 SFRSYM    DATA     BIT       TMR2CN0_TF2H
      000000C8H.3 SFRSYM    DATA     BIT       TMR2CN0_T2SPLIT
      000000D0H.6 SFRSYM    DATA     BIT       PSW_AC
      000000F8H   SFRSYM    DATA     BYTE      SPI0CN0
      000000C7H   SFRSYM    DATA     BYTE      HFO0CAL
      00000088H.5 SFRSYM    DATA     BIT       TCON_TF0
      00000098H   SFRSYM    DATA     BIT       SCON0_RI
      000000D6H   SFRSYM    DATA     BYTE      HFO1CAL
      00000082H   SFRSYM    DATA     BYTE      DPL
      00000088H.7 SFRSYM    DATA     BIT       TCON_TF1
      000000C8H   SFRSYM    DATA     BIT       SCON1_RI
      00000099H   SFRSYM    DATA     BYTE      SBUF0
      00000087H   SFRSYM    DATA     BYTE      PCON0
      000000F2H   SFRSYM    DATA     BYTE      IPH
      000000C3H   SFRSYM    DATA     BYTE      ADC0GTL
      00000098H.7 SFRSYM    DATA     BIT       TMR4CN0_TF4H
      00000098H.3 SFRSYM    DATA     BIT       TMR4CN0_T4SPLIT
      000000C8H.6 SFRSYM    DATA     BIT       TMR2CN0_TF2L
      00000098H.1 SFRSYM    DATA     BIT       SCON0_TI
      000000E8H   SFRSYM    DATA     BIT       ADC0CN0_ADCM0
LX51 LINKER/LOCATER V4.66.30.0                                                        03/29/2016  00:06:41  PAGE 52


      00000092H   SFRSYM    DATA     BYTE      SBUF1
      0000009AH   SFRSYM    DATA     BYTE      PCON1
      000000C6H   SFRSYM    DATA     BYTE      ADC0LTH
      00000088H   SFRSYM    DATA     BIT       TCON_IT0
      000000C8H.1 SFRSYM    DATA     BIT       SCON1_TI
      000000E8H.1 SFRSYM    DATA     BIT       ADC0CN0_ADCM1
      000000EFH   SFRSYM    DATA     BYTE      RSTSRC
      000000FDH   SFRSYM    DATA     BYTE      P0MAT
      000000DEH   SFRSYM    DATA     BYTE      CRC0DAT
      00000088H.2 SFRSYM    DATA     BIT       TCON_IT1
      000000E8H.2 SFRSYM    DATA     BIT       ADC0CN0_ADCM2
      000000D7H   SFRSYM    DATA     BYTE      SFRSTACK
      00000098H   SFRSYM    DATA     BYTE      SCON0
      000000F6H   SFRSYM    DATA     BYTE      PRTDRV
      000000EDH   SFRSYM    DATA     BYTE      P1MAT
      000000E8H.3 SFRSYM    DATA     BIT       ADC0CN0_ADWINT
      00000095H   SFRSYM    DATA     WORD      SBRL1
      000000B2H   SFRSYM    DATA     BYTE      USB0AEC
      00000093H   SFRSYM    DATA     BYTE      SMOD1
      000000C8H   SFRSYM    DATA     BYTE      SCON1
      000000FBH   SFRSYM    DATA     BYTE      P2MAT
      00000098H.6 SFRSYM    DATA     BIT       TMR4CN0_TF4L
      000000E8H.4 SFRSYM    DATA     BIT       ADC0CN0_ADBUSY
      000000D6H   SFRSYM    DATA     BYTE      SMB0ADM
      000000C5H   SFRSYM    DATA     BYTE      ADC0LTL
      000000F8H.5 SFRSYM    DATA     BIT       SPI0CN0_MODF
      000000B8H.6 SFRSYM    DATA     BIT       IP_PSPI0
      0000009CH   SFRSYM    DATA     BYTE      PCA0CLR
      000000C8H   SFRSYM    DATA     BYTE      TMR2CN0
      00000091H   SFRSYM    DATA     BYTE      TMR3CN0
      000000FDH   SFRSYM    DATA     BYTE      TMR2CN1
      00000098H   SFRSYM    DATA     BYTE      TMR4CN0
      000000FEH   SFRSYM    DATA     BYTE      TMR3CN1
      000000FFH   SFRSYM    DATA     BYTE      TMR4CN1
      000000D7H   SFRSYM    DATA     BYTE      SMB0ADR
      00000088H.4 SFRSYM    DATA     BIT       TCON_TR0
      000000C8H.4 SFRSYM    DATA     BIT       TMR2CN0_TF2CEN
      00000088H.6 SFRSYM    DATA     BIT       TCON_TR1
      000000C2H   SFRSYM    DATA     BYTE      SMB0DAT
      000000CDH   SFRSYM    DATA     BYTE      TMR2H
      000000A1H   SFRSYM    DATA     BYTE      SPI0CFG
      00000095H   SFRSYM    DATA     BYTE      TMR3H
      000000EFH   SFRSYM    DATA     BYTE      HFOCN
      000000D3H   SFRSYM    DATA     BYTE      CRC0CNT
      000000A5H   SFRSYM    DATA     BYTE      TMR4H
      00000098H.4 SFRSYM    DATA     BIT       TMR4CN0_TF4CEN
      000000EFH   SFRSYM    DATA     BYTE      SMB0FCT
      00000096H   SFRSYM    DATA     BYTE      PCA0POL
      000000CCH   SFRSYM    DATA     BYTE      TMR2L
      000000F8H.7 SFRSYM    DATA     BIT       SPI0CN0_SPIF
      000000AEH   SFRSYM    DATA     BYTE      USB0ADR
      00000094H   SFRSYM    DATA     BYTE      TMR3L
      000000DFH   SFRSYM    DATA     BYTE      ADC0PWR
      000000A8H.7 SFRSYM    DATA     BIT       IE_EA
      000000A4H   SFRSYM    DATA     BYTE      TMR4L
      000000AFH   SFRSYM    DATA     BYTE      USB0DAT
      000000C8H.5 SFRSYM    DATA     BIT       TMR2CN0_TF2LEN
      000000F8H.6 SFRSYM    DATA     BIT       SPI0CN0_WCOL
      00000080H.6 SFRSYM    DATA     BIT       LED_B
      000000F8H.2 SFRSYM    DATA     BIT       SPI0CN0_NSSMD0
      000000D0H.7 SFRSYM    DATA     BIT       PSW_CY
      0000009DH   SFRSYM    DATA     BYTE      UART1FCN0
LX51 LINKER/LOCATER V4.66.30.0                                                        03/29/2016  00:06:41  PAGE 53


      000000A3H   SFRSYM    DATA     BYTE      SPI0DAT
      000000ADH   SFRSYM    DATA     BYTE      I2C0FCN0
      000000F8H.3 SFRSYM    DATA     BIT       SPI0CN0_NSSMD1
      000000BDH   SFRSYM    DATA     WORD      ADC0
      000000D8H   SFRSYM    DATA     BYTE      UART1FCN1
      000000ABH   SFRSYM    DATA     BYTE      I2C0FCN1
      00000098H.5 SFRSYM    DATA     BIT       TMR4CN0_TF4LEN
      000000D0H   SFRSYM    DATA     BYTE      PSW
      000000F7H   SFRSYM    DATA     BYTE      PCA0PWM
      000000F7H   SFRSYM    DATA     BYTE      SPI0FCT
      000000B6H   SFRSYM    DATA     BYTE      REVID
      00000080H.7 SFRSYM    DATA     BIT       LED_G
      000000B7H   SFRSYM    DATA     BYTE      FLKEY
      000000B3H   SFRSYM    DATA     BYTE      ADC0AC
      01003AE0H   SYMBOL    CODE     ---       _int2str_reduce_16
      02000383H   SYMBOL    XDATA    ---       __int2str_buf
      01002FDBH   SYMBOL    CODE     ---       _int2str_map_10
      010030EFH   SYMBOL    CODE     ---       _int2str_map_16
      0200038CH   SYMBOL    XDATA    ---       __digits
      010035ECH   SYMBOL    CODE     ---       _int2str_reduce_10

      0100286FH   BLOCK     CODE     ---       LVL=0
      ---         BLOCKEND  ---      ---       LVL=0

      0100322EH   BLOCK     CODE     ---       LVL=0
      02000212H   SYMBOL    XDATA    WORD      ms
      01003236H   BLOCK     CODE     NEAR LAB  LVL=1
      02000214H   SYMBOL    XDATA    DWORD     ms_now
      ---         BLOCKEND  ---      ---       LVL=1
      0100322EH   LINE      CODE     ---       #13
      01003236H   LINE      CODE     ---       #14
      01003242H   LINE      CODE     ---       #15
      0100326AH   LINE      CODE     ---       #16
      0100326AH   LINE      CODE     ---       #17
      ---         BLOCKEND  ---      ---       LVL=0

      0100295AH   BLOCK     CODE     ---       LVL=0
      020001FEH   SYMBOL    XDATA    ---       buf
      02000201H   SYMBOL    XDATA    BYTE      len
      01002965H   BLOCK     CODE     NEAR LAB  LVL=1
      02000202H   SYMBOL    XDATA    INT       ec
      02000204H   SYMBOL    XDATA    BYTE      errors
      ---         BLOCKEND  ---      ---       LVL=1
      0100295AH   LINE      CODE     ---       #19
      01002965H   LINE      CODE     ---       #20
      01002965H   LINE      CODE     ---       #22
      0100296AH   LINE      CODE     ---       #23
      01002993H   LINE      CODE     ---       #24
      01002993H   LINE      CODE     ---       #25
      0100299AH   LINE      CODE     ---       #26
      010029A7H   LINE      CODE     ---       #27
      010029A7H   LINE      CODE     ---       #28
      010029C6H   LINE      CODE     ---       #29
      010029C6H   LINE      CODE     ---       #30
      010029C6H   LINE      CODE     ---       #31
      010029C6H   LINE      CODE     ---       #32
      ---         BLOCKEND  ---      ---       LVL=0

      0100399AH   BLOCK     CODE     ---       LVL=0
      00000007H   SYMBOL    DATA     CHAR      c
      0100399AH   BLOCK     CODE     NEAR LAB  LVL=1
      00000007H   SYMBOL    DATA     BYTE      i
LX51 LINKER/LOCATER V4.66.30.0                                                        03/29/2016  00:06:41  PAGE 54


      ---         BLOCKEND  ---      ---       LVL=1
      0100399AH   LINE      CODE     ---       #37
      0100399AH   LINE      CODE     ---       #38
      0100399AH   LINE      CODE     ---       #40
      0100399CH   LINE      CODE     ---       #41
      010039A3H   LINE      CODE     ---       #42
      010039AAH   LINE      CODE     ---       #43
      010039B1H   LINE      CODE     ---       #44
      ---         BLOCKEND  ---      ---       LVL=0

      01002E5AH   BLOCK     CODE     ---       LVL=0
      0200025CH   SYMBOL    XDATA    ---       hex
      0200025FH   SYMBOL    XDATA    BYTE      len
      01002E65H   BLOCK     CODE     NEAR LAB  LVL=1
      02000260H   SYMBOL    XDATA    BYTE      i
      ---         BLOCKEND  ---      ---       LVL=1
      01002E5AH   LINE      CODE     ---       #47
      01002E65H   LINE      CODE     ---       #48
      01002E65H   LINE      CODE     ---       #50
      01002E74H   LINE      CODE     ---       #51
      01002E74H   LINE      CODE     ---       #52
      01002E84H   LINE      CODE     ---       #53
      01002E84H   LINE      CODE     ---       #54
      01002E89H   LINE      CODE     ---       #55
      01002E89H   LINE      CODE     ---       #56
      01002E9CH   LINE      CODE     ---       #57
      01002EA4H   LINE      CODE     ---       #58
      ---         BLOCKEND  ---      ---       LVL=0

      010037A8H   BLOCK     CODE     ---       LVL=0
      02000261H   SYMBOL    XDATA    ---       d
      010037AEH   BLOCK     CODE     NEAR LAB  LVL=1
      00000018H   SYMBOL    DATA     WORD      i
      ---         BLOCKEND  ---      ---       LVL=1
      010037A8H   LINE      CODE     ---       #62
      010037AEH   LINE      CODE     ---       #63
      010037AEH   LINE      CODE     ---       #65
      010037B9H   LINE      CODE     ---       #66
      010037B9H   LINE      CODE     ---       #68
      010037C6H   LINE      CODE     ---       #70
      010037C8H   LINE      CODE     ---       #71
      ---         BLOCKEND  ---      ---       LVL=0

      010035ECH   BLOCK     CODE     ---       LVL=0
      0200023BH   SYMBOL    XDATA    ---       snum
      0200023EH   SYMBOL    XDATA    DWORD     copy
      010035ECH   LINE      CODE     ---       #73
      010035F8H   LINE      CODE     ---       #74
      010035F8H   LINE      CODE     ---       #76
      010035F8H   LINE      CODE     ---       #77
      01003602H   LINE      CODE     ---       #78
      01003611H   LINE      CODE     ---       #79
      01003619H   LINE      CODE     ---       #80
      ---         BLOCKEND  ---      ---       LVL=0

      01003AE0H   BLOCK     CODE     ---       LVL=0
      00000001H   SYMBOL    DATA     ---       snum
      00000004H   SYMBOL    DATA     DWORD     copy
      01003AE0H   LINE      CODE     ---       #82
      01003AE0H   LINE      CODE     ---       #83
      01003AE0H   LINE      CODE     ---       #85
      01003AE0H   LINE      CODE     ---       #86
LX51 LINKER/LOCATER V4.66.30.0                                                        03/29/2016  00:06:41  PAGE 55


      01003AE7H   LINE      CODE     ---       #87
      01003AECH   LINE      CODE     ---       #88
      01003AF2H   LINE      CODE     ---       #89
      ---         BLOCKEND  ---      ---       LVL=0

      01002FDBH   BLOCK     CODE     ---       LVL=0
      0200023BH   SYMBOL    XDATA    ---       snum
      0200023EH   SYMBOL    XDATA    DWORD     i
      01002FDBH   LINE      CODE     ---       #94
      01002FE7H   LINE      CODE     ---       #95
      01002FE7H   LINE      CODE     ---       #97
      01002FE7H   LINE      CODE     ---       #98
      0100300AH   LINE      CODE     ---       #99
      01003019H   LINE      CODE     ---       #100
      01003021H   LINE      CODE     ---       #101
      ---         BLOCKEND  ---      ---       LVL=0

      010030EFH   BLOCK     CODE     ---       LVL=0
      02000268H   SYMBOL    XDATA    ---       snum
      0200026BH   SYMBOL    XDATA    DWORD     i
      010030EFH   LINE      CODE     ---       #103
      010030FBH   LINE      CODE     ---       #104
      010030FBH   LINE      CODE     ---       #106
      010030FBH   LINE      CODE     ---       #107
      01003116H   LINE      CODE     ---       #108
      01003127H   LINE      CODE     ---       #109
      0100312FH   LINE      CODE     ---       #110
      ---         BLOCKEND  ---      ---       LVL=0

      010032E5H   BLOCK     CODE     ---       LVL=0
      02000234H   SYMBOL    XDATA    LONG      i
      010032E8H   BLOCK     CODE     NEAR LAB  LVL=1
      02000238H   SYMBOL    XDATA    ---       snum
      ---         BLOCKEND  ---      ---       LVL=1
      010032E5H   LINE      CODE     ---       #115
      010032E8H   LINE      CODE     ---       #116
      010032E8H   LINE      CODE     ---       #117
      010032F1H   LINE      CODE     ---       #118
      01003303H   LINE      CODE     ---       #119
      01003309H   LINE      CODE     ---       #120
      01003313H   LINE      CODE     ---       #121
      01003319H   LINE      CODE     ---       #122
      0100331FH   LINE      CODE     ---       #123
      ---         BLOCKEND  ---      ---       LVL=0

      01003320H   BLOCK     CODE     ---       LVL=0
      02000261H   SYMBOL    XDATA    LONG      i
      01003323H   BLOCK     CODE     NEAR LAB  LVL=1
      02000265H   SYMBOL    XDATA    ---       snum
      ---         BLOCKEND  ---      ---       LVL=1
      01003320H   LINE      CODE     ---       #125
      01003323H   LINE      CODE     ---       #126
      01003323H   LINE      CODE     ---       #127
      0100332CH   LINE      CODE     ---       #128
      0100333EH   LINE      CODE     ---       #129
      01003344H   LINE      CODE     ---       #130
      0100334EH   LINE      CODE     ---       #131
      01003354H   LINE      CODE     ---       #132
      0100335AH   LINE      CODE     ---       #133
      ---         BLOCKEND  ---      ---       LVL=0

      01003C5FH   BLOCK     CODE     ---       LVL=0
LX51 LINKER/LOCATER V4.66.30.0                                                        03/29/2016  00:06:41  PAGE 56


      00000007H   SYMBOL    DATA     BYTE      i
      01003C5FH   LINE      CODE     ---       #136
      01003C5FH   LINE      CODE     ---       #137
      01003C5FH   LINE      CODE     ---       #138
      ---         BLOCKEND  ---      ---       LVL=0

      01003BC5H   BLOCK     CODE     ---       LVL=0
      00000006H   SYMBOL    DATA     INT       i
      01003BC5H   LINE      CODE     ---       #141
      01003BC5H   LINE      CODE     ---       #142
      01003BC5H   LINE      CODE     ---       #143
      ---         BLOCKEND  ---      ---       LVL=0
      00000006H   SYMBOL    DATA     WORD      i

      01003CF3H   BLOCK     CODE     ---       LVL=0
      00000004H   SYMBOL    DATA     LONG      i
      01003CF3H   LINE      CODE     ---       #151
      01003CF3H   LINE      CODE     ---       #152
      01003CF3H   LINE      CODE     ---       #153
      ---         BLOCKEND  ---      ---       LVL=0
      00000004H   SYMBOL    DATA     LONG      i

      0100003EH   BLOCK     CODE     ---       LVL=0
      00000001H   SYMBOL    DATA     ---       tag
      02000208H   SYMBOL    XDATA    BYTE      c
      01000043H   BLOCK     CODE     NEAR LAB  LVL=1
      02000209H   SYMBOL    XDATA    ---       ellipsis_40
      02000231H   SYMBOL    XDATA    ---       args
      ---         BLOCKEND  ---      ---       LVL=1
      0100003EH   LINE      CODE     ---       #160
      01000043H   LINE      CODE     ---       #161
      01000043H   LINE      CODE     ---       #163
      01000046H   LINE      CODE     ---       #164
      01000052H   LINE      CODE     ---       #165
      0100005CH   LINE      CODE     ---       #166
      0100005CH   LINE      CODE     ---       #167
      01000065H   LINE      CODE     ---       #168
      0100006BH   LINE      CODE     ---       #169
      0100006DH   LINE      CODE     ---       #170
      ---         BLOCKEND  ---      ---       LVL=0

      010034E8H   BLOCK     CODE     ---       LVL=0
      00000001H   SYMBOL    DATA     ---       tag
      02000193H   SYMBOL    XDATA    BYTE      c
      010034EDH   BLOCK     CODE     NEAR LAB  LVL=1
      02000194H   SYMBOL    XDATA    ---       ellipsis_40
      020001BCH   SYMBOL    XDATA    ---       args
      ---         BLOCKEND  ---      ---       LVL=1
      010034E8H   LINE      CODE     ---       #174
      010034EDH   LINE      CODE     ---       #175
      010034EDH   LINE      CODE     ---       #177
      010034F0H   LINE      CODE     ---       #178
      010034FCH   LINE      CODE     ---       #179
      01003506H   LINE      CODE     ---       #180
      01003506H   LINE      CODE     ---       #181
      0100350FH   LINE      CODE     ---       #182
      01003515H   LINE      CODE     ---       #183
      01003517H   LINE      CODE     ---       #184
      ---         BLOCKEND  ---      ---       LVL=0
      00000001H   SYMBOL    DATA     ---       tag

      0100340AH   BLOCK     CODE     ---       LVL=0
LX51 LINKER/LOCATER V4.66.30.0                                                        03/29/2016  00:06:41  PAGE 57


      00000001H   SYMBOL    DATA     ---       tag
      02000215H   SYMBOL    XDATA    BYTE      c
      0100340FH   BLOCK     CODE     NEAR LAB  LVL=1
      02000216H   SYMBOL    XDATA    ---       ellipsis_40
      0200023EH   SYMBOL    XDATA    ---       args
      ---         BLOCKEND  ---      ---       LVL=1
      0100340AH   LINE      CODE     ---       #202
      0100340FH   LINE      CODE     ---       #203
      0100340FH   LINE      CODE     ---       #205
      01003412H   LINE      CODE     ---       #206
      0100341EH   LINE      CODE     ---       #207
      01003428H   LINE      CODE     ---       #208
      01003428H   LINE      CODE     ---       #209
      01003435H   LINE      CODE     ---       #210
      0100343BH   LINE      CODE     ---       #211
      0100343DH   LINE      CODE     ---       #212
      ---         BLOCKEND  ---      ---       LVL=0
      00000001H   SYMBOL    DATA     ---       tag

      ---         MODULE    ---      ---       CALLBACK
      02000303H   PUBLIC    XDATA    ---       hidmsgbuf
      02000302H   PUBLIC    XDATA    BYTE      tmpBuffer
      02000256H   PUBLIC    XDATA    BYTE      ?_USBD_XferCompleteCb?BYTE
      010036F2H   PUBLIC    CODE     ---       _USBD_XferCompleteCb
      01000DBFH   PUBLIC    CODE     ---       _USBD_SetupCmdCb
      01003D16H   PUBLIC    CODE     ---       USBD_IsSelfPoweredCb
      01003C90H   PUBLIC    CODE     ---       _USBD_DeviceStateChangeCb
      01003D1AH   PUBLIC    CODE     ---       USBD_ResetCb
      000000A2H   SFRSYM    DATA     BYTE      SPI0CKR
      00000080H   SFRSYM    DATA     BYTE      P0
      000000C8H.6 SFRSYM    DATA     BIT       SCON1_PERR
      000000D0H.2 SFRSYM    DATA     BIT       PSW_OV
      00000090H   SFRSYM    DATA     BYTE      P1
      000000F8H.1 SFRSYM    DATA     BIT       SPI0CN0_TXNF
      00000097H   SFRSYM    DATA     BYTE      WDTCN
      000000A0H   SFRSYM    DATA     BYTE      P2
      000000B0H   SFRSYM    DATA     BYTE      P3
      000000BCH   SFRSYM    DATA     BYTE      ADC0CF
      000000C0H.7 SFRSYM    DATA     BIT       SMB0CN0_MASTER
      000000F9H   SFRSYM    DATA     WORD      PCA0
      000000E6H   SFRSYM    DATA     BYTE      EIE1
      000000C0H.1 SFRSYM    DATA     BIT       SMB0CN0_ACK
      000000B3H   SFRSYM    DATA     BYTE      USB0XCN
      000000CEH   SFRSYM    DATA     BYTE      EIE2
      00000090H   SFRSYM    DATA     BIT       LED_R
      0000008FH   SFRSYM    DATA     BYTE      PSCTL
      000000E4H   SFRSYM    DATA     BYTE      IT01CF
      000000C0H.6 SFRSYM    DATA     BIT       SMB0CN0_TXMODE
      000000ADH   SFRSYM    DATA     BYTE      DERIVID
      000000A7H   SFRSYM    DATA     BYTE      SFRPAGE
      000000A4H   SFRSYM    DATA     BYTE      P0MDOUT
      00000080H.2 SFRSYM    DATA     BIT       U2F_BUTTON
      000000BFH   SFRSYM    DATA     BYTE      USB0CDSTA
      000000A5H   SFRSYM    DATA     BYTE      P1MDOUT
      000000E8H.5 SFRSYM    DATA     BIT       ADC0CN0_ADINT
      000000CBH   SFRSYM    DATA     BYTE      TMR2RLH
      000000A6H   SFRSYM    DATA     BYTE      P2MDOUT
      000000A8H   SFRSYM    DATA     BYTE      IE
      00000093H   SFRSYM    DATA     BYTE      TMR3RLH
      0000009CH   SFRSYM    DATA     BYTE      P3MDOUT
      000000A3H   SFRSYM    DATA     BYTE      TMR4RLH
      000000F3H   SFRSYM    DATA     BYTE      EIP1
LX51 LINKER/LOCATER V4.66.30.0                                                        03/29/2016  00:06:41  PAGE 58


      000000F4H   SFRSYM    DATA     BYTE      EIP2
      00000098H.2 SFRSYM    DATA     BIT       SCON0_RB8
      000000CAH   SFRSYM    DATA     BYTE      TMR2RLL
      000000FCH   SFRSYM    DATA     BYTE      PCA0CPH0
      00000092H   SFRSYM    DATA     BYTE      TMR3RLL
      000000EAH   SFRSYM    DATA     BYTE      PCA0CPH1
      00000098H.3 SFRSYM    DATA     BIT       SCON0_TB8
      000000F0H   SFRSYM    DATA     BIT       B_B0
      00000082H   SFRSYM    DATA     WORD      DP
      000000A2H   SFRSYM    DATA     BYTE      TMR4RLL
      000000ECH   SFRSYM    DATA     BYTE      PCA0CPH2
      000000F0H.1 SFRSYM    DATA     BIT       B_B1
      000000C3H   SFRSYM    DATA     WORD      ADC0GT
      000000BDH   SFRSYM    DATA     BYTE      I2C0SLAD
      000000D8H.3 SFRSYM    DATA     BIT       UART1FCN1_RFRQ
      000000F0H.2 SFRSYM    DATA     BIT       B_B2
      000000CFH   SFRSYM    DATA     BYTE      SFRPGCN
      000000FBH   SFRSYM    DATA     BYTE      PCA0CPL0
      000000F0H.3 SFRSYM    DATA     BIT       B_B3
      000000D9H   SFRSYM    DATA     BYTE      PCA0MD
      000000DAH   SFRSYM    DATA     BYTE      PCA0CPM0
      000000E9H   SFRSYM    DATA     BYTE      PCA0CPL1
      000000D8H.7 SFRSYM    DATA     BIT       UART1FCN1_TFRQ
      000000F0H.4 SFRSYM    DATA     BIT       B_B4
      000000DBH   SFRSYM    DATA     BYTE      PCA0CPM1
      000000EBH   SFRSYM    DATA     BYTE      PCA0CPL2
      000000F0H.5 SFRSYM    DATA     BIT       B_B5
      000000DCH   SFRSYM    DATA     BYTE      PCA0CPM2
      000000B8H   SFRSYM    DATA     BYTE      IP
      000000B9H   SFRSYM    DATA     BYTE      ADC0TK
      000000F0H.6 SFRSYM    DATA     BIT       B_B6
      000000C5H   SFRSYM    DATA     WORD      ADC0LT
      000000D8H.6 SFRSYM    DATA     BIT       UART1FCN1_TXNF
      00000098H.5 SFRSYM    DATA     BIT       SCON0_MCE
      000000F0H.7 SFRSYM    DATA     BIT       B_B7
      000000C3H   SFRSYM    DATA     BYTE      SMB0FCN0
      000000E1H   SFRSYM    DATA     BYTE      XBR0
      000000C4H   SFRSYM    DATA     BYTE      SMB0FCN1
      000000C1H   SFRSYM    DATA     BYTE      SMB0CF
      000000E2H   SFRSYM    DATA     BYTE      XBR1
      000000C1H   SFRSYM    DATA     BYTE      PFE0CN
      000000E7H   SFRSYM    DATA     BYTE      EMI0CN
      000000C0H.5 SFRSYM    DATA     BIT       SMB0CN0_STA
      000000E3H   SFRSYM    DATA     BYTE      XBR2
      000000BBH   SFRSYM    DATA     BYTE      ADC0MX
      000000E0H   SFRSYM    DATA     BIT       ACC_ACC0
      000000D1H   SFRSYM    DATA     BYTE      REF0CN
      0000008EH   SFRSYM    DATA     BYTE      CKCON0
      000000E0H.1 SFRSYM    DATA     BIT       ACC_ACC1
      000000C9H   SFRSYM    DATA     BYTE      REG0CN
      000000DDH   SFRSYM    DATA     BYTE      CRC0IN
      000000A6H   SFRSYM    DATA     BYTE      CKCON1
      000000C8H.2 SFRSYM    DATA     BIT       TMR2CN0_TR2
      000000E0H.2 SFRSYM    DATA     BIT       ACC_ACC2
      000000C6H   SFRSYM    DATA     BYTE      REG1CN
      000000E0H.3 SFRSYM    DATA     BIT       ACC_ACC3
      00000081H   SFRSYM    DATA     BYTE      SP
      0000009DH   SFRSYM    DATA     BYTE      CMP0MD
      000000E0H.4 SFRSYM    DATA     BIT       ACC_ACC4
      000000B1H   SFRSYM    DATA     BYTE      LFO0CN
      000000ABH   SFRSYM    DATA     BYTE      CMP1MD
      000000D8H   SFRSYM    DATA     BIT       PCA0CN0_CCF0
LX51 LINKER/LOCATER V4.66.30.0                                                        03/29/2016  00:06:41  PAGE 59


      000000E0H.5 SFRSYM    DATA     BIT       ACC_ACC5
      000000B5H   SFRSYM    DATA     BYTE      USB0CF
      00000098H.2 SFRSYM    DATA     BIT       TMR4CN0_TR4
      000000D8H.1 SFRSYM    DATA     BIT       PCA0CN0_CCF1
      000000E0H.6 SFRSYM    DATA     BIT       ACC_ACC6
      000000CCH   SFRSYM    DATA     WORD      TMR2
      0000009AH   SFRSYM    DATA     BYTE      SPI0FCN0
      000000D8H.2 SFRSYM    DATA     BIT       PCA0CN0_CCF2
      000000E0H.7 SFRSYM    DATA     BIT       ACC_ACC7
      00000094H   SFRSYM    DATA     WORD      TMR3
      0000009BH   SFRSYM    DATA     BYTE      SPI0FCN1
      000000A4H   SFRSYM    DATA     WORD      TMR4
      00000094H   SFRSYM    DATA     BYTE      SBCON1
      000000C0H.3 SFRSYM    DATA     BIT       SMB0CN0_ACKRQ
      000000FFH   SFRSYM    DATA     BYTE      VDM0CN
      000000F1H   SFRSYM    DATA     BYTE      P0MDIN
      00000098H.4 SFRSYM    DATA     BIT       SCON0_REN
      000000ACH   SFRSYM    DATA     BYTE      SMB0TC
      000000F2H   SFRSYM    DATA     BYTE      P1MDIN
      000000C8H.4 SFRSYM    DATA     BIT       SCON1_REN
      000000F3H   SFRSYM    DATA     BYTE      P2MDIN
      000000C0H.4 SFRSYM    DATA     BIT       SMB0CN0_STO
      000000B6H   SFRSYM    DATA     BYTE      USB0CDCF
      000000F4H   SFRSYM    DATA     BYTE      P3MDIN
      000000B9H   SFRSYM    DATA     BYTE      I2C0STAT
      000000BBH   SFRSYM    DATA     BYTE      I2C0DOUT
      00000096H   SFRSYM    DATA     BYTE      SBRLH1
      000000FEH   SFRSYM    DATA     BYTE      P0MASK
      000000D8H.5 SFRSYM    DATA     BIT       UART1FCN1_TXHOLD
      000000EEH   SFRSYM    DATA     BYTE      P1MASK
      000000FCH   SFRSYM    DATA     BYTE      P2MASK
      000000D0H.3 SFRSYM    DATA     BIT       PSW_RS0
      000000D8H.7 SFRSYM    DATA     BIT       PCA0CN0_CF
      0000009EH   SFRSYM    DATA     BYTE      PCA0CENT
      000000BAH   SFRSYM    DATA     BYTE      I2C0CN0
      000000D2H   SFRSYM    DATA     BYTE      CRC0ST
      000000F8H.4 SFRSYM    DATA     BIT       SPI0CN0_RXOVRN
      000000D0H.4 SFRSYM    DATA     BIT       PSW_RS1
      00000095H   SFRSYM    DATA     BYTE      SBRLL1
      000000C8H.2 SFRSYM    DATA     BIT       SCON1_RBX
      000000C8H   SFRSYM    DATA     BIT       TMR2CN0_T2XCLK0
      000000C8H.1 SFRSYM    DATA     BIT       TMR2CN0_T2XCLK1
      000000C8H.3 SFRSYM    DATA     BIT       SCON1_TBX
      000000E8H.7 SFRSYM    DATA     BIT       ADC0CN0_ADEN
      000000BEH   SFRSYM    DATA     BYTE      USB0CDCN
      00000089H   SFRSYM    DATA     BYTE      TMOD
      00000088H   SFRSYM    DATA     BYTE      TCON
      000000CFH   SFRSYM    DATA     BYTE      CRC0FLIP
      000000D0H   SFRSYM    DATA     BIT       PSW_PARITY
      000000A8H.4 SFRSYM    DATA     BIT       IE_ES0
      0000009FH   SFRSYM    DATA     BYTE      CMP0MX
      00000098H   SFRSYM    DATA     BIT       TMR4CN0_T4XCLK0
      000000A8H.1 SFRSYM    DATA     BIT       IE_ET0
      000000AAH   SFRSYM    DATA     BYTE      CMP1MX
      00000098H.1 SFRSYM    DATA     BIT       TMR4CN0_T4XCLK1
      000000A8H.3 SFRSYM    DATA     BIT       IE_ET1
      000000D4H   SFRSYM    DATA     BYTE      P0SKIP
      000000D8H   SFRSYM    DATA     BIT       UART1FCN1_RIE
      000000A8H.5 SFRSYM    DATA     BIT       IE_ET2
      000000D5H   SFRSYM    DATA     BYTE      P1SKIP
      000000CCH   SFRSYM    DATA     BYTE      P2SKIP
      000000E8H   SFRSYM    DATA     BYTE      ADC0CN0
LX51 LINKER/LOCATER V4.66.30.0                                                        03/29/2016  00:06:41  PAGE 60


      000000D8H.4 SFRSYM    DATA     BIT       UART1FCN1_TIE
      000000A8H   SFRSYM    DATA     BIT       IE_EX0
      000000B2H   SFRSYM    DATA     BYTE      ADC0CN1
      000000D8H.6 SFRSYM    DATA     BIT       PCA0CN0_CR
      000000A8H.2 SFRSYM    DATA     BIT       IE_EX1
      000000C8H.7 SFRSYM    DATA     BIT       SCON1_OVR
      00000098H.7 SFRSYM    DATA     BIT       SCON0_SMODE
      000000B5H   SFRSYM    DATA     BYTE      DEVICEID
      000000A9H   SFRSYM    DATA     BYTE      CLKSEL
      000000F8H   SFRSYM    DATA     BIT       SPI0CN0_SPIEN
      000000F0H   SFRSYM    DATA     BYTE      B
      000000BEH   SFRSYM    DATA     BYTE      ADC0H
      000000E8H.6 SFRSYM    DATA     BIT       ADC0CN0_ADBMEN
      000000CAH   SFRSYM    DATA     WORD      TMR2RL
      000000BDH   SFRSYM    DATA     BYTE      ADC0L
      00000092H   SFRSYM    DATA     WORD      TMR3RL
      000000A2H   SFRSYM    DATA     WORD      TMR4RL
      000000D8H   SFRSYM    DATA     BYTE      PCA0CN0
      000000E0H   SFRSYM    DATA     BYTE      ACC
      000000FBH   SFRSYM    DATA     WORD      PCA0CP0
      000000E9H   SFRSYM    DATA     WORD      PCA0CP1
      000000EBH   SFRSYM    DATA     WORD      PCA0CP2
      000000BCH   SFRSYM    DATA     BYTE      I2C0DIN
      000000CEH   SFRSYM    DATA     BYTE      CRC0CN0
      0000008CH   SFRSYM    DATA     BYTE      TH0
      00000086H   SFRSYM    DATA     BYTE      CRC0CN1
      000000B8H.4 SFRSYM    DATA     BIT       IP_PS0
      000000FAH   SFRSYM    DATA     BYTE      UART1FCT
      0000008DH   SFRSYM    DATA     BYTE      TH1
      000000FAH   SFRSYM    DATA     BYTE      PCA0H
      000000F5H   SFRSYM    DATA     BYTE      I2C0FCT
      000000B8H.1 SFRSYM    DATA     BIT       IP_PT0
      000000B8H.3 SFRSYM    DATA     BIT       IP_PT1
      000000C0H.2 SFRSYM    DATA     BIT       SMB0CN0_ARBLOST
      000000B8H.5 SFRSYM    DATA     BIT       IP_PT2
      0000008AH   SFRSYM    DATA     BYTE      TL0
      00000080H.3 SFRSYM    DATA     BIT       U2F_BUTTON_VAL
      000000D0H.5 SFRSYM    DATA     BIT       PSW_F0
      000000A8H.6 SFRSYM    DATA     BIT       IE_ESPI0
      0000008BH   SFRSYM    DATA     BYTE      TL1
      000000F9H   SFRSYM    DATA     BYTE      PCA0L
      000000C0H   SFRSYM    DATA     BIT       SMB0CN0_SI
      000000D0H.1 SFRSYM    DATA     BIT       PSW_F1
      00000080H   SFRSYM    DATA     BIT       P0_B0
      000000B8H   SFRSYM    DATA     BIT       IP_PX0
      00000090H   SFRSYM    DATA     BIT       P1_B0
      00000080H.1 SFRSYM    DATA     BIT       P0_B1
      000000B8H.2 SFRSYM    DATA     BIT       IP_PX1
      0000009EH   SFRSYM    DATA     BYTE      UART1LIN
      0000009BH   SFRSYM    DATA     BYTE      CMP0CN0
      00000088H.1 SFRSYM    DATA     BIT       TCON_IE0
      000000A0H   SFRSYM    DATA     BIT       P2_B0
      00000090H.1 SFRSYM    DATA     BIT       P1_B1
      00000080H.2 SFRSYM    DATA     BIT       P0_B2
      000000BFH   SFRSYM    DATA     BYTE      CMP1CN0
      00000099H   SFRSYM    DATA     BYTE      CMP0CN1
      00000088H.3 SFRSYM    DATA     BIT       TCON_IE1
      000000B0H   SFRSYM    DATA     BIT       P3_B0
      000000A0H.1 SFRSYM    DATA     BIT       P2_B1
      00000090H.2 SFRSYM    DATA     BIT       P1_B2
      00000080H.3 SFRSYM    DATA     BIT       P0_B3
      000000C0H   SFRSYM    DATA     BYTE      SMB0CN0
LX51 LINKER/LOCATER V4.66.30.0                                                        03/29/2016  00:06:41  PAGE 61


      000000ACH   SFRSYM    DATA     BYTE      CMP1CN1
      000000B0H.1 SFRSYM    DATA     BIT       P3_B1
      000000A0H.2 SFRSYM    DATA     BIT       P2_B2
      00000090H.3 SFRSYM    DATA     BIT       P1_B3
      00000080H.4 SFRSYM    DATA     BIT       P0_B4
      000000A0H.3 SFRSYM    DATA     BIT       P2_B3
      00000090H.4 SFRSYM    DATA     BIT       P1_B4
      00000080H.5 SFRSYM    DATA     BIT       P0_B5
      000000D8H.1 SFRSYM    DATA     BIT       UART1FCN1_RXTO0
      00000090H.5 SFRSYM    DATA     BIT       P1_B5
      00000080H.6 SFRSYM    DATA     BIT       P0_B6
      000000F5H   SFRSYM    DATA     BYTE      EIP1H
      000000D8H.2 SFRSYM    DATA     BIT       UART1FCN1_RXTO1
      00000090H.6 SFRSYM    DATA     BIT       P1_B6
      00000080H.7 SFRSYM    DATA     BIT       P0_B7
      000000C5H   SFRSYM    DATA     BYTE      SMB0RXLN
      000000F6H   SFRSYM    DATA     BYTE      EIP2H
      00000090H.7 SFRSYM    DATA     BIT       P1_B7
      00000083H   SFRSYM    DATA     BYTE      DPH
      000000C4H   SFRSYM    DATA     BYTE      ADC0GTH
      000000C8H.7 SFRSYM    DATA     BIT       TMR2CN0_TF2H
      000000C8H.3 SFRSYM    DATA     BIT       TMR2CN0_T2SPLIT
      000000D0H.6 SFRSYM    DATA     BIT       PSW_AC
      000000F8H   SFRSYM    DATA     BYTE      SPI0CN0
      000000C7H   SFRSYM    DATA     BYTE      HFO0CAL
      00000088H.5 SFRSYM    DATA     BIT       TCON_TF0
      00000098H   SFRSYM    DATA     BIT       SCON0_RI
      000000D6H   SFRSYM    DATA     BYTE      HFO1CAL
      00000082H   SFRSYM    DATA     BYTE      DPL
      00000088H.7 SFRSYM    DATA     BIT       TCON_TF1
      000000C8H   SFRSYM    DATA     BIT       SCON1_RI
      00000099H   SFRSYM    DATA     BYTE      SBUF0
      00000087H   SFRSYM    DATA     BYTE      PCON0
      000000F2H   SFRSYM    DATA     BYTE      IPH
      000000C3H   SFRSYM    DATA     BYTE      ADC0GTL
      00000098H.7 SFRSYM    DATA     BIT       TMR4CN0_TF4H
      00000098H.3 SFRSYM    DATA     BIT       TMR4CN0_T4SPLIT
      000000C8H.6 SFRSYM    DATA     BIT       TMR2CN0_TF2L
      00000098H.1 SFRSYM    DATA     BIT       SCON0_TI
      000000E8H   SFRSYM    DATA     BIT       ADC0CN0_ADCM0
      00000092H   SFRSYM    DATA     BYTE      SBUF1
      0000009AH   SFRSYM    DATA     BYTE      PCON1
      000000C6H   SFRSYM    DATA     BYTE      ADC0LTH
      00000088H   SFRSYM    DATA     BIT       TCON_IT0
      000000C8H.1 SFRSYM    DATA     BIT       SCON1_TI
      000000E8H.1 SFRSYM    DATA     BIT       ADC0CN0_ADCM1
      000000EFH   SFRSYM    DATA     BYTE      RSTSRC
      000000FDH   SFRSYM    DATA     BYTE      P0MAT
      000000DEH   SFRSYM    DATA     BYTE      CRC0DAT
      00000088H.2 SFRSYM    DATA     BIT       TCON_IT1
      000000E8H.2 SFRSYM    DATA     BIT       ADC0CN0_ADCM2
      000000D7H   SFRSYM    DATA     BYTE      SFRSTACK
      00000098H   SFRSYM    DATA     BYTE      SCON0
      000000F6H   SFRSYM    DATA     BYTE      PRTDRV
      000000EDH   SFRSYM    DATA     BYTE      P1MAT
      000000E8H.3 SFRSYM    DATA     BIT       ADC0CN0_ADWINT
      00000095H   SFRSYM    DATA     WORD      SBRL1
      000000B2H   SFRSYM    DATA     BYTE      USB0AEC
      00000093H   SFRSYM    DATA     BYTE      SMOD1
      000000C8H   SFRSYM    DATA     BYTE      SCON1
      000000FBH   SFRSYM    DATA     BYTE      P2MAT
      00000098H.6 SFRSYM    DATA     BIT       TMR4CN0_TF4L
LX51 LINKER/LOCATER V4.66.30.0                                                        03/29/2016  00:06:41  PAGE 62


      000000E8H.4 SFRSYM    DATA     BIT       ADC0CN0_ADBUSY
      000000D6H   SFRSYM    DATA     BYTE      SMB0ADM
      000000C5H   SFRSYM    DATA     BYTE      ADC0LTL
      000000F8H.5 SFRSYM    DATA     BIT       SPI0CN0_MODF
      000000B8H.6 SFRSYM    DATA     BIT       IP_PSPI0
      0000009CH   SFRSYM    DATA     BYTE      PCA0CLR
      000000C8H   SFRSYM    DATA     BYTE      TMR2CN0
      00000091H   SFRSYM    DATA     BYTE      TMR3CN0
      000000FDH   SFRSYM    DATA     BYTE      TMR2CN1
      00000098H   SFRSYM    DATA     BYTE      TMR4CN0
      000000FEH   SFRSYM    DATA     BYTE      TMR3CN1
      000000FFH   SFRSYM    DATA     BYTE      TMR4CN1
      000000D7H   SFRSYM    DATA     BYTE      SMB0ADR
      00000088H.4 SFRSYM    DATA     BIT       TCON_TR0
      000000C8H.4 SFRSYM    DATA     BIT       TMR2CN0_TF2CEN
      00000088H.6 SFRSYM    DATA     BIT       TCON_TR1
      000000C2H   SFRSYM    DATA     BYTE      SMB0DAT
      000000CDH   SFRSYM    DATA     BYTE      TMR2H
      000000A1H   SFRSYM    DATA     BYTE      SPI0CFG
      00000095H   SFRSYM    DATA     BYTE      TMR3H
      000000EFH   SFRSYM    DATA     BYTE      HFOCN
      000000D3H   SFRSYM    DATA     BYTE      CRC0CNT
      000000A5H   SFRSYM    DATA     BYTE      TMR4H
      00000098H.4 SFRSYM    DATA     BIT       TMR4CN0_TF4CEN
      000000EFH   SFRSYM    DATA     BYTE      SMB0FCT
      00000096H   SFRSYM    DATA     BYTE      PCA0POL
      000000CCH   SFRSYM    DATA     BYTE      TMR2L
      000000F8H.7 SFRSYM    DATA     BIT       SPI0CN0_SPIF
      000000AEH   SFRSYM    DATA     BYTE      USB0ADR
      00000094H   SFRSYM    DATA     BYTE      TMR3L
      000000DFH   SFRSYM    DATA     BYTE      ADC0PWR
      000000A8H.7 SFRSYM    DATA     BIT       IE_EA
      000000A4H   SFRSYM    DATA     BYTE      TMR4L
      000000AFH   SFRSYM    DATA     BYTE      USB0DAT
      000000C8H.5 SFRSYM    DATA     BIT       TMR2CN0_TF2LEN
      000000F8H.6 SFRSYM    DATA     BIT       SPI0CN0_WCOL
      00000080H.6 SFRSYM    DATA     BIT       LED_B
      000000F8H.2 SFRSYM    DATA     BIT       SPI0CN0_NSSMD0
      000000D0H.7 SFRSYM    DATA     BIT       PSW_CY
      0000009DH   SFRSYM    DATA     BYTE      UART1FCN0
      000000A3H   SFRSYM    DATA     BYTE      SPI0DAT
      000000ADH   SFRSYM    DATA     BYTE      I2C0FCN0
      000000F8H.3 SFRSYM    DATA     BIT       SPI0CN0_NSSMD1
      000000BDH   SFRSYM    DATA     WORD      ADC0
      000000D8H   SFRSYM    DATA     BYTE      UART1FCN1
      000000ABH   SFRSYM    DATA     BYTE      I2C0FCN1
      00000098H.5 SFRSYM    DATA     BIT       TMR4CN0_TF4LEN
      000000D0H   SFRSYM    DATA     BYTE      PSW
      000000F7H   SFRSYM    DATA     BYTE      PCA0PWM
      000000F7H   SFRSYM    DATA     BYTE      SPI0FCT
      000000B6H   SFRSYM    DATA     BYTE      REVID
      00000080H.7 SFRSYM    DATA     BIT       LED_G
      000000B7H   SFRSYM    DATA     BYTE      FLKEY
      000000B3H   SFRSYM    DATA     BYTE      ADC0AC

      01002EF8H   BLOCK     CODE     ---       LVL=0
      ---         BLOCKEND  ---      ---       LVL=0

      01003D1AH   BLOCK     CODE     ---       LVL=0
      01003D1AH   LINE      CODE     ---       #40
      01003D1AH   LINE      CODE     ---       #42
      ---         BLOCKEND  ---      ---       LVL=0
LX51 LINKER/LOCATER V4.66.30.0                                                        03/29/2016  00:06:41  PAGE 63



      01003C90H   BLOCK     CODE     ---       LVL=0
      02000257H   SYMBOL    XDATA    BYTE      oldState
      02000258H   SYMBOL    XDATA    BYTE      newState
      01003C90H   LINE      CODE     ---       #45
      01003C98H   LINE      CODE     ---       #46
      01003C98H   LINE      CODE     ---       #48
      ---         BLOCKEND  ---      ---       LVL=0

      01003D16H   BLOCK     CODE     ---       LVL=0
      01003D16H   LINE      CODE     ---       #50
      01003D16H   LINE      CODE     ---       #51
      01003D17H   LINE      CODE     ---       #52
      ---         BLOCKEND  ---      ---       LVL=0

      01000DBFH   BLOCK     CODE     ---       LVL=0
      02000253H   SYMBOL    XDATA    ---       setup
      01000DC7H   BLOCK     CODE     NEAR LAB  LVL=1
      02000255H   SYMBOL    XDATA    CHAR      retVal
      ---         BLOCKEND  ---      ---       LVL=1
      01000DBFH   LINE      CODE     ---       #55
      01000DC7H   LINE      CODE     ---       #56
      01000DC7H   LINE      CODE     ---       #58
      01000DCBH   LINE      CODE     ---       #61
      01000DEEH   LINE      CODE     ---       #63
      01000DEEH   LINE      CODE     ---       #67
      01000DF7H   LINE      CODE     ---       #68
      01000DF7H   LINE      CODE     ---       #69
      01000DFEH   LINE      CODE     ---       #70
      01000E13H   LINE      CODE     ---       #71
      01000E13H   LINE      CODE     ---       #72
      01000E2DH   LINE      CODE     ---       #75
      01000E2DH   LINE      CODE     ---       #76
      01000E2FH   LINE      CODE     ---       #78
      01000E2FH   LINE      CODE     ---       #79
      01000E2FH   LINE      CODE     ---       #80
      01000E2FH   LINE      CODE     ---       #81
      01000E39H   LINE      CODE     ---       #82
      01000E4EH   LINE      CODE     ---       #83
      01000E4EH   LINE      CODE     ---       #84
      01000E6FH   LINE      CODE     ---       #86
      01000E6FH   LINE      CODE     ---       #87
      01000E72H   LINE      CODE     ---       #89
      01000E72H   LINE      CODE     ---       #90
      01000E72H   LINE      CODE     ---       #91
      01000E72H   LINE      CODE     ---       #92
      01000E72H   LINE      CODE     ---       #93
      01000E72H   LINE      CODE     ---       #94
      01000E72H   LINE      CODE     ---       #95
      01000E72H   LINE      CODE     ---       #96
      01000EA2H   LINE      CODE     ---       #99
      01000EA2H   LINE      CODE     ---       #101
      01000EB2H   LINE      CODE     ---       #102
      01000EB2H   LINE      CODE     ---       #103
      01000EB2H   LINE      CODE     ---       #105
      01000EB2H   LINE      CODE     ---       #107
      01000EB2H   LINE      CODE     ---       #109
      01000EB2H   LINE      CODE     ---       #111
      01000EB2H   LINE      CODE     ---       #112
      01000EC8H   LINE      CODE     ---       #115
      01000EC8H   LINE      CODE     ---       #116
      01000ECDH   LINE      CODE     ---       #117
LX51 LINKER/LOCATER V4.66.30.0                                                        03/29/2016  00:06:41  PAGE 64


      01000ECDH   LINE      CODE     ---       #118
      01000ECFH   LINE      CODE     ---       #120
      01000ECFH   LINE      CODE     ---       #122
      01000ECFH   LINE      CODE     ---       #123
      01000EE8H   LINE      CODE     ---       #126
      01000EE8H   LINE      CODE     ---       #128
      01000EF0H   LINE      CODE     ---       #129
      01000F05H   LINE      CODE     ---       #130
      01000F0AH   LINE      CODE     ---       #131
      01000F0AH   LINE      CODE     ---       #133
      01000F0AH   LINE      CODE     ---       #134
      01000F0AH   LINE      CODE     ---       #136
      01000F0AH   LINE      CODE     ---       #137
      01000F0AH   LINE      CODE     ---       #139
      01000F0AH   LINE      CODE     ---       #141
      01000F0AH   LINE      CODE     ---       #143
      01000F0FH   LINE      CODE     ---       #144
      ---         BLOCKEND  ---      ---       LVL=0

      010036F2H   BLOCK     CODE     ---       LVL=0
      00000007H   SYMBOL    DATA     BYTE      epAddr
      02000257H   SYMBOL    XDATA    CHAR      status
      02000258H   SYMBOL    XDATA    WORD      xferred
      0200025AH   SYMBOL    XDATA    WORD      remaining
      010036F2H   LINE      CODE     ---       #149
      010036FDH   LINE      CODE     ---       #150
      010036FDH   LINE      CODE     ---       #153
      01003701H   LINE      CODE     ---       #154
      01003701H   LINE      CODE     ---       #155
      0100370CH   LINE      CODE     ---       #157
      01003715H   LINE      CODE     ---       #159
      01003715H   LINE      CODE     ---       #162
      01003718H   LINE      CODE     ---       #163
      ---         BLOCKEND  ---      ---       LVL=0

      ---         MODULE    ---      ---       DESCRIPTORS
      01003F2CH   PUBLIC    CONST    ---       initstruct
      01003EB0H   PUBLIC    CONST    ---       configDesc
      01003E9EH   PUBLIC    CONST    ---       deviceDesc
      01003E7CH   PUBLIC    CONST    ---       ReportDescriptor0
      000000A2H   SFRSYM    DATA     BYTE      SPI0CKR
      00000080H   SFRSYM    DATA     BYTE      P0
      000000C8H.6 SFRSYM    DATA     BIT       SCON1_PERR
      000000D0H.2 SFRSYM    DATA     BIT       PSW_OV
      00000090H   SFRSYM    DATA     BYTE      P1
      000000F8H.1 SFRSYM    DATA     BIT       SPI0CN0_TXNF
      00000097H   SFRSYM    DATA     BYTE      WDTCN
      000000A0H   SFRSYM    DATA     BYTE      P2
      000000B0H   SFRSYM    DATA     BYTE      P3
      000000BCH   SFRSYM    DATA     BYTE      ADC0CF
      000000C0H.7 SFRSYM    DATA     BIT       SMB0CN0_MASTER
      000000F9H   SFRSYM    DATA     WORD      PCA0
      000000E6H   SFRSYM    DATA     BYTE      EIE1
      000000C0H.1 SFRSYM    DATA     BIT       SMB0CN0_ACK
      000000B3H   SFRSYM    DATA     BYTE      USB0XCN
      000000CEH   SFRSYM    DATA     BYTE      EIE2
      0000008FH   SFRSYM    DATA     BYTE      PSCTL
      000000E4H   SFRSYM    DATA     BYTE      IT01CF
      000000C0H.6 SFRSYM    DATA     BIT       SMB0CN0_TXMODE
      000000ADH   SFRSYM    DATA     BYTE      DERIVID
      000000A7H   SFRSYM    DATA     BYTE      SFRPAGE
      000000A4H   SFRSYM    DATA     BYTE      P0MDOUT
LX51 LINKER/LOCATER V4.66.30.0                                                        03/29/2016  00:06:41  PAGE 65


      000000BFH   SFRSYM    DATA     BYTE      USB0CDSTA
      000000A5H   SFRSYM    DATA     BYTE      P1MDOUT
      000000E8H.5 SFRSYM    DATA     BIT       ADC0CN0_ADINT
      000000CBH   SFRSYM    DATA     BYTE      TMR2RLH
      000000A6H   SFRSYM    DATA     BYTE      P2MDOUT
      000000A8H   SFRSYM    DATA     BYTE      IE
      00000093H   SFRSYM    DATA     BYTE      TMR3RLH
      0000009CH   SFRSYM    DATA     BYTE      P3MDOUT
      000000A3H   SFRSYM    DATA     BYTE      TMR4RLH
      000000F3H   SFRSYM    DATA     BYTE      EIP1
      000000F4H   SFRSYM    DATA     BYTE      EIP2
      00000098H.2 SFRSYM    DATA     BIT       SCON0_RB8
      000000CAH   SFRSYM    DATA     BYTE      TMR2RLL
      000000FCH   SFRSYM    DATA     BYTE      PCA0CPH0
      00000092H   SFRSYM    DATA     BYTE      TMR3RLL
      000000EAH   SFRSYM    DATA     BYTE      PCA0CPH1
      00000098H.3 SFRSYM    DATA     BIT       SCON0_TB8
      000000F0H   SFRSYM    DATA     BIT       B_B0
      00000082H   SFRSYM    DATA     WORD      DP
      000000A2H   SFRSYM    DATA     BYTE      TMR4RLL
      000000ECH   SFRSYM    DATA     BYTE      PCA0CPH2
      000000F0H.1 SFRSYM    DATA     BIT       B_B1
      000000C3H   SFRSYM    DATA     WORD      ADC0GT
      000000BDH   SFRSYM    DATA     BYTE      I2C0SLAD
      000000D8H.3 SFRSYM    DATA     BIT       UART1FCN1_RFRQ
      000000F0H.2 SFRSYM    DATA     BIT       B_B2
      000000CFH   SFRSYM    DATA     BYTE      SFRPGCN
      000000FBH   SFRSYM    DATA     BYTE      PCA0CPL0
      000000F0H.3 SFRSYM    DATA     BIT       B_B3
      000000D9H   SFRSYM    DATA     BYTE      PCA0MD
      000000DAH   SFRSYM    DATA     BYTE      PCA0CPM0
      000000E9H   SFRSYM    DATA     BYTE      PCA0CPL1
      000000D8H.7 SFRSYM    DATA     BIT       UART1FCN1_TFRQ
      000000F0H.4 SFRSYM    DATA     BIT       B_B4
      000000DBH   SFRSYM    DATA     BYTE      PCA0CPM1
      000000EBH   SFRSYM    DATA     BYTE      PCA0CPL2
      000000F0H.5 SFRSYM    DATA     BIT       B_B5
      000000DCH   SFRSYM    DATA     BYTE      PCA0CPM2
      000000B8H   SFRSYM    DATA     BYTE      IP
      000000B9H   SFRSYM    DATA     BYTE      ADC0TK
      000000F0H.6 SFRSYM    DATA     BIT       B_B6
      000000C5H   SFRSYM    DATA     WORD      ADC0LT
      000000D8H.6 SFRSYM    DATA     BIT       UART1FCN1_TXNF
      00000098H.5 SFRSYM    DATA     BIT       SCON0_MCE
      000000F0H.7 SFRSYM    DATA     BIT       B_B7
      000000C3H   SFRSYM    DATA     BYTE      SMB0FCN0
      000000E1H   SFRSYM    DATA     BYTE      XBR0
      000000C4H   SFRSYM    DATA     BYTE      SMB0FCN1
      000000C1H   SFRSYM    DATA     BYTE      SMB0CF
      000000E2H   SFRSYM    DATA     BYTE      XBR1
      000000C1H   SFRSYM    DATA     BYTE      PFE0CN
      000000E7H   SFRSYM    DATA     BYTE      EMI0CN
      000000C0H.5 SFRSYM    DATA     BIT       SMB0CN0_STA
      000000E3H   SFRSYM    DATA     BYTE      XBR2
      000000BBH   SFRSYM    DATA     BYTE      ADC0MX
      000000E0H   SFRSYM    DATA     BIT       ACC_ACC0
      000000D1H   SFRSYM    DATA     BYTE      REF0CN
      0000008EH   SFRSYM    DATA     BYTE      CKCON0
      000000E0H.1 SFRSYM    DATA     BIT       ACC_ACC1
      000000C9H   SFRSYM    DATA     BYTE      REG0CN
      000000DDH   SFRSYM    DATA     BYTE      CRC0IN
      000000A6H   SFRSYM    DATA     BYTE      CKCON1
LX51 LINKER/LOCATER V4.66.30.0                                                        03/29/2016  00:06:41  PAGE 66


      000000C8H.2 SFRSYM    DATA     BIT       TMR2CN0_TR2
      000000E0H.2 SFRSYM    DATA     BIT       ACC_ACC2
      000000C6H   SFRSYM    DATA     BYTE      REG1CN
      000000E0H.3 SFRSYM    DATA     BIT       ACC_ACC3
      00000081H   SFRSYM    DATA     BYTE      SP
      0000009DH   SFRSYM    DATA     BYTE      CMP0MD
      000000E0H.4 SFRSYM    DATA     BIT       ACC_ACC4
      000000B1H   SFRSYM    DATA     BYTE      LFO0CN
      000000ABH   SFRSYM    DATA     BYTE      CMP1MD
      000000D8H   SFRSYM    DATA     BIT       PCA0CN0_CCF0
      000000E0H.5 SFRSYM    DATA     BIT       ACC_ACC5
      000000B5H   SFRSYM    DATA     BYTE      USB0CF
      00000098H.2 SFRSYM    DATA     BIT       TMR4CN0_TR4
      000000D8H.1 SFRSYM    DATA     BIT       PCA0CN0_CCF1
      000000E0H.6 SFRSYM    DATA     BIT       ACC_ACC6
      000000CCH   SFRSYM    DATA     WORD      TMR2
      0000009AH   SFRSYM    DATA     BYTE      SPI0FCN0
      000000D8H.2 SFRSYM    DATA     BIT       PCA0CN0_CCF2
      000000E0H.7 SFRSYM    DATA     BIT       ACC_ACC7
      00000094H   SFRSYM    DATA     WORD      TMR3
      0000009BH   SFRSYM    DATA     BYTE      SPI0FCN1
      000000A4H   SFRSYM    DATA     WORD      TMR4
      00000094H   SFRSYM    DATA     BYTE      SBCON1
      000000C0H.3 SFRSYM    DATA     BIT       SMB0CN0_ACKRQ
      000000FFH   SFRSYM    DATA     BYTE      VDM0CN
      000000F1H   SFRSYM    DATA     BYTE      P0MDIN
      00000098H.4 SFRSYM    DATA     BIT       SCON0_REN
      000000ACH   SFRSYM    DATA     BYTE      SMB0TC
      000000F2H   SFRSYM    DATA     BYTE      P1MDIN
      000000C8H.4 SFRSYM    DATA     BIT       SCON1_REN
      000000F3H   SFRSYM    DATA     BYTE      P2MDIN
      000000C0H.4 SFRSYM    DATA     BIT       SMB0CN0_STO
      000000B6H   SFRSYM    DATA     BYTE      USB0CDCF
      000000F4H   SFRSYM    DATA     BYTE      P3MDIN
      000000B9H   SFRSYM    DATA     BYTE      I2C0STAT
      000000BBH   SFRSYM    DATA     BYTE      I2C0DOUT
      00000096H   SFRSYM    DATA     BYTE      SBRLH1
      000000FEH   SFRSYM    DATA     BYTE      P0MASK
      000000D8H.5 SFRSYM    DATA     BIT       UART1FCN1_TXHOLD
      000000EEH   SFRSYM    DATA     BYTE      P1MASK
      000000FCH   SFRSYM    DATA     BYTE      P2MASK
      000000D0H.3 SFRSYM    DATA     BIT       PSW_RS0
      000000D8H.7 SFRSYM    DATA     BIT       PCA0CN0_CF
      0000009EH   SFRSYM    DATA     BYTE      PCA0CENT
      000000BAH   SFRSYM    DATA     BYTE      I2C0CN0
      000000D2H   SFRSYM    DATA     BYTE      CRC0ST
      000000F8H.4 SFRSYM    DATA     BIT       SPI0CN0_RXOVRN
      000000D0H.4 SFRSYM    DATA     BIT       PSW_RS1
      00000095H   SFRSYM    DATA     BYTE      SBRLL1
      000000C8H.2 SFRSYM    DATA     BIT       SCON1_RBX
      000000C8H   SFRSYM    DATA     BIT       TMR2CN0_T2XCLK0
      000000C8H.1 SFRSYM    DATA     BIT       TMR2CN0_T2XCLK1
      000000C8H.3 SFRSYM    DATA     BIT       SCON1_TBX
      000000E8H.7 SFRSYM    DATA     BIT       ADC0CN0_ADEN
      000000BEH   SFRSYM    DATA     BYTE      USB0CDCN
      00000089H   SFRSYM    DATA     BYTE      TMOD
      00000088H   SFRSYM    DATA     BYTE      TCON
      000000CFH   SFRSYM    DATA     BYTE      CRC0FLIP
      000000D0H   SFRSYM    DATA     BIT       PSW_PARITY
      000000A8H.4 SFRSYM    DATA     BIT       IE_ES0
      0000009FH   SFRSYM    DATA     BYTE      CMP0MX
      00000098H   SFRSYM    DATA     BIT       TMR4CN0_T4XCLK0
LX51 LINKER/LOCATER V4.66.30.0                                                        03/29/2016  00:06:41  PAGE 67


      000000A8H.1 SFRSYM    DATA     BIT       IE_ET0
      000000AAH   SFRSYM    DATA     BYTE      CMP1MX
      00000098H.1 SFRSYM    DATA     BIT       TMR4CN0_T4XCLK1
      000000A8H.3 SFRSYM    DATA     BIT       IE_ET1
      000000D4H   SFRSYM    DATA     BYTE      P0SKIP
      000000D8H   SFRSYM    DATA     BIT       UART1FCN1_RIE
      000000A8H.5 SFRSYM    DATA     BIT       IE_ET2
      000000D5H   SFRSYM    DATA     BYTE      P1SKIP
      000000CCH   SFRSYM    DATA     BYTE      P2SKIP
      000000E8H   SFRSYM    DATA     BYTE      ADC0CN0
      000000D8H.4 SFRSYM    DATA     BIT       UART1FCN1_TIE
      000000A8H   SFRSYM    DATA     BIT       IE_EX0
      000000B2H   SFRSYM    DATA     BYTE      ADC0CN1
      000000D8H.6 SFRSYM    DATA     BIT       PCA0CN0_CR
      000000A8H.2 SFRSYM    DATA     BIT       IE_EX1
      000000C8H.7 SFRSYM    DATA     BIT       SCON1_OVR
      00000098H.7 SFRSYM    DATA     BIT       SCON0_SMODE
      000000B5H   SFRSYM    DATA     BYTE      DEVICEID
      000000A9H   SFRSYM    DATA     BYTE      CLKSEL
      000000F8H   SFRSYM    DATA     BIT       SPI0CN0_SPIEN
      000000F0H   SFRSYM    DATA     BYTE      B
      000000BEH   SFRSYM    DATA     BYTE      ADC0H
      000000E8H.6 SFRSYM    DATA     BIT       ADC0CN0_ADBMEN
      000000CAH   SFRSYM    DATA     WORD      TMR2RL
      000000BDH   SFRSYM    DATA     BYTE      ADC0L
      00000092H   SFRSYM    DATA     WORD      TMR3RL
      000000A2H   SFRSYM    DATA     WORD      TMR4RL
      000000D8H   SFRSYM    DATA     BYTE      PCA0CN0
      000000E0H   SFRSYM    DATA     BYTE      ACC
      000000FBH   SFRSYM    DATA     WORD      PCA0CP0
      000000E9H   SFRSYM    DATA     WORD      PCA0CP1
      000000EBH   SFRSYM    DATA     WORD      PCA0CP2
      000000BCH   SFRSYM    DATA     BYTE      I2C0DIN
      000000CEH   SFRSYM    DATA     BYTE      CRC0CN0
      0000008CH   SFRSYM    DATA     BYTE      TH0
      00000086H   SFRSYM    DATA     BYTE      CRC0CN1
      000000B8H.4 SFRSYM    DATA     BIT       IP_PS0
      000000FAH   SFRSYM    DATA     BYTE      UART1FCT
      0000008DH   SFRSYM    DATA     BYTE      TH1
      000000FAH   SFRSYM    DATA     BYTE      PCA0H
      000000F5H   SFRSYM    DATA     BYTE      I2C0FCT
      000000B8H.1 SFRSYM    DATA     BIT       IP_PT0
      000000B8H.3 SFRSYM    DATA     BIT       IP_PT1
      000000C0H.2 SFRSYM    DATA     BIT       SMB0CN0_ARBLOST
      000000B8H.5 SFRSYM    DATA     BIT       IP_PT2
      0000008AH   SFRSYM    DATA     BYTE      TL0
      000000D0H.5 SFRSYM    DATA     BIT       PSW_F0
      000000A8H.6 SFRSYM    DATA     BIT       IE_ESPI0
      0000008BH   SFRSYM    DATA     BYTE      TL1
      000000F9H   SFRSYM    DATA     BYTE      PCA0L
      000000C0H   SFRSYM    DATA     BIT       SMB0CN0_SI
      000000D0H.1 SFRSYM    DATA     BIT       PSW_F1
      00000080H   SFRSYM    DATA     BIT       P0_B0
      000000B8H   SFRSYM    DATA     BIT       IP_PX0
      00000090H   SFRSYM    DATA     BIT       P1_B0
      00000080H.1 SFRSYM    DATA     BIT       P0_B1
      000000B8H.2 SFRSYM    DATA     BIT       IP_PX1
      0000009EH   SFRSYM    DATA     BYTE      UART1LIN
      0000009BH   SFRSYM    DATA     BYTE      CMP0CN0
      00000088H.1 SFRSYM    DATA     BIT       TCON_IE0
      000000A0H   SFRSYM    DATA     BIT       P2_B0
      00000090H.1 SFRSYM    DATA     BIT       P1_B1
LX51 LINKER/LOCATER V4.66.30.0                                                        03/29/2016  00:06:41  PAGE 68


      00000080H.2 SFRSYM    DATA     BIT       P0_B2
      000000BFH   SFRSYM    DATA     BYTE      CMP1CN0
      00000099H   SFRSYM    DATA     BYTE      CMP0CN1
      00000088H.3 SFRSYM    DATA     BIT       TCON_IE1
      000000B0H   SFRSYM    DATA     BIT       P3_B0
      000000A0H.1 SFRSYM    DATA     BIT       P2_B1
      00000090H.2 SFRSYM    DATA     BIT       P1_B2
      00000080H.3 SFRSYM    DATA     BIT       P0_B3
      000000C0H   SFRSYM    DATA     BYTE      SMB0CN0
      000000ACH   SFRSYM    DATA     BYTE      CMP1CN1
      000000B0H.1 SFRSYM    DATA     BIT       P3_B1
      000000A0H.2 SFRSYM    DATA     BIT       P2_B2
      00000090H.3 SFRSYM    DATA     BIT       P1_B3
      00000080H.4 SFRSYM    DATA     BIT       P0_B4
      000000A0H.3 SFRSYM    DATA     BIT       P2_B3
      00000090H.4 SFRSYM    DATA     BIT       P1_B4
      00000080H.5 SFRSYM    DATA     BIT       P0_B5
      000000D8H.1 SFRSYM    DATA     BIT       UART1FCN1_RXTO0
      00000090H.5 SFRSYM    DATA     BIT       P1_B5
      00000080H.6 SFRSYM    DATA     BIT       P0_B6
      000000F5H   SFRSYM    DATA     BYTE      EIP1H
      000000D8H.2 SFRSYM    DATA     BIT       UART1FCN1_RXTO1
      00000090H.6 SFRSYM    DATA     BIT       P1_B6
      00000080H.7 SFRSYM    DATA     BIT       P0_B7
      000000C5H   SFRSYM    DATA     BYTE      SMB0RXLN
      000000F6H   SFRSYM    DATA     BYTE      EIP2H
      00000090H.7 SFRSYM    DATA     BIT       P1_B7
      00000083H   SFRSYM    DATA     BYTE      DPH
      000000C4H   SFRSYM    DATA     BYTE      ADC0GTH
      000000C8H.7 SFRSYM    DATA     BIT       TMR2CN0_TF2H
      000000C8H.3 SFRSYM    DATA     BIT       TMR2CN0_T2SPLIT
      000000D0H.6 SFRSYM    DATA     BIT       PSW_AC
      000000F8H   SFRSYM    DATA     BYTE      SPI0CN0
      000000C7H   SFRSYM    DATA     BYTE      HFO0CAL
      00000088H.5 SFRSYM    DATA     BIT       TCON_TF0
      00000098H   SFRSYM    DATA     BIT       SCON0_RI
      000000D6H   SFRSYM    DATA     BYTE      HFO1CAL
      00000082H   SFRSYM    DATA     BYTE      DPL
      00000088H.7 SFRSYM    DATA     BIT       TCON_TF1
      000000C8H   SFRSYM    DATA     BIT       SCON1_RI
      00000099H   SFRSYM    DATA     BYTE      SBUF0
      00000087H   SFRSYM    DATA     BYTE      PCON0
      000000F2H   SFRSYM    DATA     BYTE      IPH
      000000C3H   SFRSYM    DATA     BYTE      ADC0GTL
      00000098H.7 SFRSYM    DATA     BIT       TMR4CN0_TF4H
      00000098H.3 SFRSYM    DATA     BIT       TMR4CN0_T4SPLIT
      000000C8H.6 SFRSYM    DATA     BIT       TMR2CN0_TF2L
      00000098H.1 SFRSYM    DATA     BIT       SCON0_TI
      000000E8H   SFRSYM    DATA     BIT       ADC0CN0_ADCM0
      00000092H   SFRSYM    DATA     BYTE      SBUF1
      0000009AH   SFRSYM    DATA     BYTE      PCON1
      000000C6H   SFRSYM    DATA     BYTE      ADC0LTH
      00000088H   SFRSYM    DATA     BIT       TCON_IT0
      000000C8H.1 SFRSYM    DATA     BIT       SCON1_TI
      000000E8H.1 SFRSYM    DATA     BIT       ADC0CN0_ADCM1
      000000EFH   SFRSYM    DATA     BYTE      RSTSRC
      000000FDH   SFRSYM    DATA     BYTE      P0MAT
      000000DEH   SFRSYM    DATA     BYTE      CRC0DAT
      00000088H.2 SFRSYM    DATA     BIT       TCON_IT1
      000000E8H.2 SFRSYM    DATA     BIT       ADC0CN0_ADCM2
      000000D7H   SFRSYM    DATA     BYTE      SFRSTACK
      00000098H   SFRSYM    DATA     BYTE      SCON0
LX51 LINKER/LOCATER V4.66.30.0                                                        03/29/2016  00:06:41  PAGE 69


      000000F6H   SFRSYM    DATA     BYTE      PRTDRV
      000000EDH   SFRSYM    DATA     BYTE      P1MAT
      000000E8H.3 SFRSYM    DATA     BIT       ADC0CN0_ADWINT
      00000095H   SFRSYM    DATA     WORD      SBRL1
      000000B2H   SFRSYM    DATA     BYTE      USB0AEC
      00000093H   SFRSYM    DATA     BYTE      SMOD1
      000000C8H   SFRSYM    DATA     BYTE      SCON1
      000000FBH   SFRSYM    DATA     BYTE      P2MAT
      00000098H.6 SFRSYM    DATA     BIT       TMR4CN0_TF4L
      000000E8H.4 SFRSYM    DATA     BIT       ADC0CN0_ADBUSY
      000000D6H   SFRSYM    DATA     BYTE      SMB0ADM
      000000C5H   SFRSYM    DATA     BYTE      ADC0LTL
      000000F8H.5 SFRSYM    DATA     BIT       SPI0CN0_MODF
      000000B8H.6 SFRSYM    DATA     BIT       IP_PSPI0
      0000009CH   SFRSYM    DATA     BYTE      PCA0CLR
      000000C8H   SFRSYM    DATA     BYTE      TMR2CN0
      00000091H   SFRSYM    DATA     BYTE      TMR3CN0
      000000FDH   SFRSYM    DATA     BYTE      TMR2CN1
      00000098H   SFRSYM    DATA     BYTE      TMR4CN0
      000000FEH   SFRSYM    DATA     BYTE      TMR3CN1
      000000FFH   SFRSYM    DATA     BYTE      TMR4CN1
      000000D7H   SFRSYM    DATA     BYTE      SMB0ADR
      00000088H.4 SFRSYM    DATA     BIT       TCON_TR0
      000000C8H.4 SFRSYM    DATA     BIT       TMR2CN0_TF2CEN
      00000088H.6 SFRSYM    DATA     BIT       TCON_TR1
      000000C2H   SFRSYM    DATA     BYTE      SMB0DAT
      000000CDH   SFRSYM    DATA     BYTE      TMR2H
      000000A1H   SFRSYM    DATA     BYTE      SPI0CFG
      00000095H   SFRSYM    DATA     BYTE      TMR3H
      000000EFH   SFRSYM    DATA     BYTE      HFOCN
      000000D3H   SFRSYM    DATA     BYTE      CRC0CNT
      000000A5H   SFRSYM    DATA     BYTE      TMR4H
      00000098H.4 SFRSYM    DATA     BIT       TMR4CN0_TF4CEN
      000000EFH   SFRSYM    DATA     BYTE      SMB0FCT
      00000096H   SFRSYM    DATA     BYTE      PCA0POL
      000000CCH   SFRSYM    DATA     BYTE      TMR2L
      000000F8H.7 SFRSYM    DATA     BIT       SPI0CN0_SPIF
      000000AEH   SFRSYM    DATA     BYTE      USB0ADR
      00000094H   SFRSYM    DATA     BYTE      TMR3L
      000000DFH   SFRSYM    DATA     BYTE      ADC0PWR
      000000A8H.7 SFRSYM    DATA     BIT       IE_EA
      000000A4H   SFRSYM    DATA     BYTE      TMR4L
      000000AFH   SFRSYM    DATA     BYTE      USB0DAT
      000000C8H.5 SFRSYM    DATA     BIT       TMR2CN0_TF2LEN
      000000F8H.6 SFRSYM    DATA     BIT       SPI0CN0_WCOL
      000000F8H.2 SFRSYM    DATA     BIT       SPI0CN0_NSSMD0
      000000D0H.7 SFRSYM    DATA     BIT       PSW_CY
      0000009DH   SFRSYM    DATA     BYTE      UART1FCN0
      000000A3H   SFRSYM    DATA     BYTE      SPI0DAT
      000000ADH   SFRSYM    DATA     BYTE      I2C0FCN0
      000000F8H.3 SFRSYM    DATA     BIT       SPI0CN0_NSSMD1
      000000BDH   SFRSYM    DATA     WORD      ADC0
      000000D8H   SFRSYM    DATA     BYTE      UART1FCN1
      000000ABH   SFRSYM    DATA     BYTE      I2C0FCN1
      00000098H.5 SFRSYM    DATA     BIT       TMR4CN0_TF4LEN
      000000D0H   SFRSYM    DATA     BYTE      PSW
      000000F7H   SFRSYM    DATA     BYTE      PCA0PWM
      000000F7H   SFRSYM    DATA     BYTE      SPI0FCT
      000000B6H   SFRSYM    DATA     BYTE      REVID
      000000B7H   SFRSYM    DATA     BYTE      FLKEY
      000000B3H   SFRSYM    DATA     BYTE      ADC0AC
      01003F0DH   SYMBOL    CONST    ---       int0Desc
LX51 LINKER/LOCATER V4.66.30.0                                                        03/29/2016  00:06:41  PAGE 70


      01003ED9H   SYMBOL    CONST    ---       langDesc
      01003EEDH   SYMBOL    CONST    ---       prodDesc
      01003EDDH   SYMBOL    CONST    ---       mfrDesc
      01003EF9H   SYMBOL    CONST    ---       serDesc
      01003F1DH   SYMBOL    CONST    ---       myUsbStringTable_USEnglish

      ---         MODULE    ---      ---       IDLE
      01003CF9H   PUBLIC    CODE     ---       idleGetRate
      010039B2H   PUBLIC    CODE     ---       _idleTimerSet
      01003786H   PUBLIC    CODE     ---       idleTimerStart
      0200038FH   SYMBOL    XDATA    ---       idle

      01003786H   BLOCK     CODE     ---       LVL=0
      01003786H   LINE      CODE     ---       #19
      01003786H   LINE      CODE     ---       #20
      01003786H   LINE      CODE     ---       #21
      01003790H   LINE      CODE     ---       #22
      01003790H   LINE      CODE     ---       #23
      0100379DH   LINE      CODE     ---       #24
      0100379EH   LINE      CODE     ---       #26
      0100379EH   LINE      CODE     ---       #27
      010037A7H   LINE      CODE     ---       #28
      010037A7H   LINE      CODE     ---       #29
      ---         BLOCKEND  ---      ---       LVL=0

      010039B2H   BLOCK     CODE     ---       LVL=0
      00000007H   SYMBOL    DATA     BYTE      rate
      010039B2H   LINE      CODE     ---       #52
      010039B2H   LINE      CODE     ---       #53
      010039B2H   LINE      CODE     ---       #54
      010039BAH   LINE      CODE     ---       #55
      010039BAH   LINE      CODE     ---       #56
      010039C0H   LINE      CODE     ---       #57
      010039C2H   LINE      CODE     ---       #59
      010039C2H   LINE      CODE     ---       #60
      010039C7H   LINE      CODE     ---       #61
      010039C7H   LINE      CODE     ---       #63
      ---         BLOCKEND  ---      ---       LVL=0

      01003CF9H   BLOCK     CODE     ---       LVL=0
      01003CF9H   LINE      CODE     ---       #74
      01003CF9H   LINE      CODE     ---       #75
      01003CF9H   LINE      CODE     ---       #76
      01003CFEH   LINE      CODE     ---       #77
      ---         BLOCKEND  ---      ---       LVL=0

      ---         MODULE    ---      ---       U2F
      01001E3BH   PUBLIC    CODE     ---       _u2f_request
      000000A2H   SFRSYM    DATA     BYTE      SPI0CKR
      00000080H   SFRSYM    DATA     BYTE      P0
      000000C8H.6 SFRSYM    DATA     BIT       SCON1_PERR
      000000D0H.2 SFRSYM    DATA     BIT       PSW_OV
      00000090H   SFRSYM    DATA     BYTE      P1
      000000F8H.1 SFRSYM    DATA     BIT       SPI0CN0_TXNF
      00000097H   SFRSYM    DATA     BYTE      WDTCN
      000000A0H   SFRSYM    DATA     BYTE      P2
      000000B0H   SFRSYM    DATA     BYTE      P3
      000000BCH   SFRSYM    DATA     BYTE      ADC0CF
      000000C0H.7 SFRSYM    DATA     BIT       SMB0CN0_MASTER
      000000F9H   SFRSYM    DATA     WORD      PCA0
      000000E6H   SFRSYM    DATA     BYTE      EIE1
      000000C0H.1 SFRSYM    DATA     BIT       SMB0CN0_ACK
LX51 LINKER/LOCATER V4.66.30.0                                                        03/29/2016  00:06:41  PAGE 71


      000000B3H   SFRSYM    DATA     BYTE      USB0XCN
      000000CEH   SFRSYM    DATA     BYTE      EIE2
      00000090H   SFRSYM    DATA     BIT       LED_R
      0000008FH   SFRSYM    DATA     BYTE      PSCTL
      000000E4H   SFRSYM    DATA     BYTE      IT01CF
      000000C0H.6 SFRSYM    DATA     BIT       SMB0CN0_TXMODE
      000000ADH   SFRSYM    DATA     BYTE      DERIVID
      000000A7H   SFRSYM    DATA     BYTE      SFRPAGE
      000000A4H   SFRSYM    DATA     BYTE      P0MDOUT
      00000080H.2 SFRSYM    DATA     BIT       U2F_BUTTON
      000000BFH   SFRSYM    DATA     BYTE      USB0CDSTA
      000000A5H   SFRSYM    DATA     BYTE      P1MDOUT
      000000E8H.5 SFRSYM    DATA     BIT       ADC0CN0_ADINT
      000000CBH   SFRSYM    DATA     BYTE      TMR2RLH
      000000A6H   SFRSYM    DATA     BYTE      P2MDOUT
      000000A8H   SFRSYM    DATA     BYTE      IE
      00000093H   SFRSYM    DATA     BYTE      TMR3RLH
      0000009CH   SFRSYM    DATA     BYTE      P3MDOUT
      000000A3H   SFRSYM    DATA     BYTE      TMR4RLH
      000000F3H   SFRSYM    DATA     BYTE      EIP1
      000000F4H   SFRSYM    DATA     BYTE      EIP2
      00000098H.2 SFRSYM    DATA     BIT       SCON0_RB8
      000000CAH   SFRSYM    DATA     BYTE      TMR2RLL
      000000FCH   SFRSYM    DATA     BYTE      PCA0CPH0
      00000092H   SFRSYM    DATA     BYTE      TMR3RLL
      000000EAH   SFRSYM    DATA     BYTE      PCA0CPH1
      00000098H.3 SFRSYM    DATA     BIT       SCON0_TB8
      000000F0H   SFRSYM    DATA     BIT       B_B0
      00000082H   SFRSYM    DATA     WORD      DP
      000000A2H   SFRSYM    DATA     BYTE      TMR4RLL
      000000ECH   SFRSYM    DATA     BYTE      PCA0CPH2
      000000F0H.1 SFRSYM    DATA     BIT       B_B1
      000000C3H   SFRSYM    DATA     WORD      ADC0GT
      000000BDH   SFRSYM    DATA     BYTE      I2C0SLAD
      000000D8H.3 SFRSYM    DATA     BIT       UART1FCN1_RFRQ
      000000F0H.2 SFRSYM    DATA     BIT       B_B2
      000000CFH   SFRSYM    DATA     BYTE      SFRPGCN
      000000FBH   SFRSYM    DATA     BYTE      PCA0CPL0
      000000F0H.3 SFRSYM    DATA     BIT       B_B3
      000000D9H   SFRSYM    DATA     BYTE      PCA0MD
      000000DAH   SFRSYM    DATA     BYTE      PCA0CPM0
      000000E9H   SFRSYM    DATA     BYTE      PCA0CPL1
      000000D8H.7 SFRSYM    DATA     BIT       UART1FCN1_TFRQ
      000000F0H.4 SFRSYM    DATA     BIT       B_B4
      000000DBH   SFRSYM    DATA     BYTE      PCA0CPM1
      000000EBH   SFRSYM    DATA     BYTE      PCA0CPL2
      000000F0H.5 SFRSYM    DATA     BIT       B_B5
      000000DCH   SFRSYM    DATA     BYTE      PCA0CPM2
      000000B8H   SFRSYM    DATA     BYTE      IP
      000000B9H   SFRSYM    DATA     BYTE      ADC0TK
      000000F0H.6 SFRSYM    DATA     BIT       B_B6
      000000C5H   SFRSYM    DATA     WORD      ADC0LT
      000000D8H.6 SFRSYM    DATA     BIT       UART1FCN1_TXNF
      00000098H.5 SFRSYM    DATA     BIT       SCON0_MCE
      000000F0H.7 SFRSYM    DATA     BIT       B_B7
      000000C3H   SFRSYM    DATA     BYTE      SMB0FCN0
      000000E1H   SFRSYM    DATA     BYTE      XBR0
      000000C4H   SFRSYM    DATA     BYTE      SMB0FCN1
      000000C1H   SFRSYM    DATA     BYTE      SMB0CF
      000000E2H   SFRSYM    DATA     BYTE      XBR1
      000000C1H   SFRSYM    DATA     BYTE      PFE0CN
      000000E7H   SFRSYM    DATA     BYTE      EMI0CN
LX51 LINKER/LOCATER V4.66.30.0                                                        03/29/2016  00:06:41  PAGE 72


      000000C0H.5 SFRSYM    DATA     BIT       SMB0CN0_STA
      000000E3H   SFRSYM    DATA     BYTE      XBR2
      000000BBH   SFRSYM    DATA     BYTE      ADC0MX
      000000E0H   SFRSYM    DATA     BIT       ACC_ACC0
      000000D1H   SFRSYM    DATA     BYTE      REF0CN
      0000008EH   SFRSYM    DATA     BYTE      CKCON0
      000000E0H.1 SFRSYM    DATA     BIT       ACC_ACC1
      000000C9H   SFRSYM    DATA     BYTE      REG0CN
      000000DDH   SFRSYM    DATA     BYTE      CRC0IN
      000000A6H   SFRSYM    DATA     BYTE      CKCON1
      000000C8H.2 SFRSYM    DATA     BIT       TMR2CN0_TR2
      000000E0H.2 SFRSYM    DATA     BIT       ACC_ACC2
      000000C6H   SFRSYM    DATA     BYTE      REG1CN
      000000E0H.3 SFRSYM    DATA     BIT       ACC_ACC3
      00000081H   SFRSYM    DATA     BYTE      SP
      0000009DH   SFRSYM    DATA     BYTE      CMP0MD
      000000E0H.4 SFRSYM    DATA     BIT       ACC_ACC4
      000000B1H   SFRSYM    DATA     BYTE      LFO0CN
      000000ABH   SFRSYM    DATA     BYTE      CMP1MD
      000000D8H   SFRSYM    DATA     BIT       PCA0CN0_CCF0
      000000E0H.5 SFRSYM    DATA     BIT       ACC_ACC5
      000000B5H   SFRSYM    DATA     BYTE      USB0CF
      00000098H.2 SFRSYM    DATA     BIT       TMR4CN0_TR4
      000000D8H.1 SFRSYM    DATA     BIT       PCA0CN0_CCF1
      000000E0H.6 SFRSYM    DATA     BIT       ACC_ACC6
      000000CCH   SFRSYM    DATA     WORD      TMR2
      0000009AH   SFRSYM    DATA     BYTE      SPI0FCN0
      000000D8H.2 SFRSYM    DATA     BIT       PCA0CN0_CCF2
      000000E0H.7 SFRSYM    DATA     BIT       ACC_ACC7
      00000094H   SFRSYM    DATA     WORD      TMR3
      0000009BH   SFRSYM    DATA     BYTE      SPI0FCN1
      000000A4H   SFRSYM    DATA     WORD      TMR4
      00000094H   SFRSYM    DATA     BYTE      SBCON1
      000000C0H.3 SFRSYM    DATA     BIT       SMB0CN0_ACKRQ
      000000FFH   SFRSYM    DATA     BYTE      VDM0CN
      000000F1H   SFRSYM    DATA     BYTE      P0MDIN
      00000098H.4 SFRSYM    DATA     BIT       SCON0_REN
      000000ACH   SFRSYM    DATA     BYTE      SMB0TC
      000000F2H   SFRSYM    DATA     BYTE      P1MDIN
      000000C8H.4 SFRSYM    DATA     BIT       SCON1_REN
      000000F3H   SFRSYM    DATA     BYTE      P2MDIN
      000000C0H.4 SFRSYM    DATA     BIT       SMB0CN0_STO
      000000B6H   SFRSYM    DATA     BYTE      USB0CDCF
      000000F4H   SFRSYM    DATA     BYTE      P3MDIN
      000000B9H   SFRSYM    DATA     BYTE      I2C0STAT
      000000BBH   SFRSYM    DATA     BYTE      I2C0DOUT
      00000096H   SFRSYM    DATA     BYTE      SBRLH1
      000000FEH   SFRSYM    DATA     BYTE      P0MASK
      000000D8H.5 SFRSYM    DATA     BIT       UART1FCN1_TXHOLD
      000000EEH   SFRSYM    DATA     BYTE      P1MASK
      000000FCH   SFRSYM    DATA     BYTE      P2MASK
      000000D0H.3 SFRSYM    DATA     BIT       PSW_RS0
      000000D8H.7 SFRSYM    DATA     BIT       PCA0CN0_CF
      0000009EH   SFRSYM    DATA     BYTE      PCA0CENT
      000000BAH   SFRSYM    DATA     BYTE      I2C0CN0
      000000D2H   SFRSYM    DATA     BYTE      CRC0ST
      000000F8H.4 SFRSYM    DATA     BIT       SPI0CN0_RXOVRN
      000000D0H.4 SFRSYM    DATA     BIT       PSW_RS1
      00000095H   SFRSYM    DATA     BYTE      SBRLL1
      000000C8H.2 SFRSYM    DATA     BIT       SCON1_RBX
      000000C8H   SFRSYM    DATA     BIT       TMR2CN0_T2XCLK0
      000000C8H.1 SFRSYM    DATA     BIT       TMR2CN0_T2XCLK1
LX51 LINKER/LOCATER V4.66.30.0                                                        03/29/2016  00:06:41  PAGE 73


      000000C8H.3 SFRSYM    DATA     BIT       SCON1_TBX
      000000E8H.7 SFRSYM    DATA     BIT       ADC0CN0_ADEN
      000000BEH   SFRSYM    DATA     BYTE      USB0CDCN
      00000089H   SFRSYM    DATA     BYTE      TMOD
      00000088H   SFRSYM    DATA     BYTE      TCON
      000000CFH   SFRSYM    DATA     BYTE      CRC0FLIP
      000000D0H   SFRSYM    DATA     BIT       PSW_PARITY
      000000A8H.4 SFRSYM    DATA     BIT       IE_ES0
      0000009FH   SFRSYM    DATA     BYTE      CMP0MX
      00000098H   SFRSYM    DATA     BIT       TMR4CN0_T4XCLK0
      000000A8H.1 SFRSYM    DATA     BIT       IE_ET0
      000000AAH   SFRSYM    DATA     BYTE      CMP1MX
      00000098H.1 SFRSYM    DATA     BIT       TMR4CN0_T4XCLK1
      000000A8H.3 SFRSYM    DATA     BIT       IE_ET1
      000000D4H   SFRSYM    DATA     BYTE      P0SKIP
      000000D8H   SFRSYM    DATA     BIT       UART1FCN1_RIE
      000000A8H.5 SFRSYM    DATA     BIT       IE_ET2
      000000D5H   SFRSYM    DATA     BYTE      P1SKIP
      000000CCH   SFRSYM    DATA     BYTE      P2SKIP
      000000E8H   SFRSYM    DATA     BYTE      ADC0CN0
      000000D8H.4 SFRSYM    DATA     BIT       UART1FCN1_TIE
      000000A8H   SFRSYM    DATA     BIT       IE_EX0
      000000B2H   SFRSYM    DATA     BYTE      ADC0CN1
      000000D8H.6 SFRSYM    DATA     BIT       PCA0CN0_CR
      000000A8H.2 SFRSYM    DATA     BIT       IE_EX1
      000000C8H.7 SFRSYM    DATA     BIT       SCON1_OVR
      00000098H.7 SFRSYM    DATA     BIT       SCON0_SMODE
      000000B5H   SFRSYM    DATA     BYTE      DEVICEID
      000000A9H   SFRSYM    DATA     BYTE      CLKSEL
      000000F8H   SFRSYM    DATA     BIT       SPI0CN0_SPIEN
      000000F0H   SFRSYM    DATA     BYTE      B
      000000BEH   SFRSYM    DATA     BYTE      ADC0H
      000000E8H.6 SFRSYM    DATA     BIT       ADC0CN0_ADBMEN
      000000CAH   SFRSYM    DATA     WORD      TMR2RL
      000000BDH   SFRSYM    DATA     BYTE      ADC0L
      00000092H   SFRSYM    DATA     WORD      TMR3RL
      000000A2H   SFRSYM    DATA     WORD      TMR4RL
      000000D8H   SFRSYM    DATA     BYTE      PCA0CN0
      000000E0H   SFRSYM    DATA     BYTE      ACC
      000000FBH   SFRSYM    DATA     WORD      PCA0CP0
      000000E9H   SFRSYM    DATA     WORD      PCA0CP1
      000000EBH   SFRSYM    DATA     WORD      PCA0CP2
      000000BCH   SFRSYM    DATA     BYTE      I2C0DIN
      000000CEH   SFRSYM    DATA     BYTE      CRC0CN0
      0000008CH   SFRSYM    DATA     BYTE      TH0
      00000086H   SFRSYM    DATA     BYTE      CRC0CN1
      000000B8H.4 SFRSYM    DATA     BIT       IP_PS0
      000000FAH   SFRSYM    DATA     BYTE      UART1FCT
      0000008DH   SFRSYM    DATA     BYTE      TH1
      000000FAH   SFRSYM    DATA     BYTE      PCA0H
      000000F5H   SFRSYM    DATA     BYTE      I2C0FCT
      000000B8H.1 SFRSYM    DATA     BIT       IP_PT0
      000000B8H.3 SFRSYM    DATA     BIT       IP_PT1
      000000C0H.2 SFRSYM    DATA     BIT       SMB0CN0_ARBLOST
      000000B8H.5 SFRSYM    DATA     BIT       IP_PT2
      0000008AH   SFRSYM    DATA     BYTE      TL0
      00000080H.3 SFRSYM    DATA     BIT       U2F_BUTTON_VAL
      000000D0H.5 SFRSYM    DATA     BIT       PSW_F0
      000000A8H.6 SFRSYM    DATA     BIT       IE_ESPI0
      0000008BH   SFRSYM    DATA     BYTE      TL1
      000000F9H   SFRSYM    DATA     BYTE      PCA0L
      000000C0H   SFRSYM    DATA     BIT       SMB0CN0_SI
LX51 LINKER/LOCATER V4.66.30.0                                                        03/29/2016  00:06:41  PAGE 74


      000000D0H.1 SFRSYM    DATA     BIT       PSW_F1
      00000080H   SFRSYM    DATA     BIT       P0_B0
      000000B8H   SFRSYM    DATA     BIT       IP_PX0
      00000090H   SFRSYM    DATA     BIT       P1_B0
      00000080H.1 SFRSYM    DATA     BIT       P0_B1
      000000B8H.2 SFRSYM    DATA     BIT       IP_PX1
      0000009EH   SFRSYM    DATA     BYTE      UART1LIN
      0000009BH   SFRSYM    DATA     BYTE      CMP0CN0
      00000088H.1 SFRSYM    DATA     BIT       TCON_IE0
      000000A0H   SFRSYM    DATA     BIT       P2_B0
      00000090H.1 SFRSYM    DATA     BIT       P1_B1
      00000080H.2 SFRSYM    DATA     BIT       P0_B2
      000000BFH   SFRSYM    DATA     BYTE      CMP1CN0
      00000099H   SFRSYM    DATA     BYTE      CMP0CN1
      00000088H.3 SFRSYM    DATA     BIT       TCON_IE1
      000000B0H   SFRSYM    DATA     BIT       P3_B0
      000000A0H.1 SFRSYM    DATA     BIT       P2_B1
      00000090H.2 SFRSYM    DATA     BIT       P1_B2
      00000080H.3 SFRSYM    DATA     BIT       P0_B3
      000000C0H   SFRSYM    DATA     BYTE      SMB0CN0
      000000ACH   SFRSYM    DATA     BYTE      CMP1CN1
      000000B0H.1 SFRSYM    DATA     BIT       P3_B1
      000000A0H.2 SFRSYM    DATA     BIT       P2_B2
      00000090H.3 SFRSYM    DATA     BIT       P1_B3
      00000080H.4 SFRSYM    DATA     BIT       P0_B4
      000000A0H.3 SFRSYM    DATA     BIT       P2_B3
      00000090H.4 SFRSYM    DATA     BIT       P1_B4
      00000080H.5 SFRSYM    DATA     BIT       P0_B5
      000000D8H.1 SFRSYM    DATA     BIT       UART1FCN1_RXTO0
      00000090H.5 SFRSYM    DATA     BIT       P1_B5
      00000080H.6 SFRSYM    DATA     BIT       P0_B6
      000000F5H   SFRSYM    DATA     BYTE      EIP1H
      000000D8H.2 SFRSYM    DATA     BIT       UART1FCN1_RXTO1
      00000090H.6 SFRSYM    DATA     BIT       P1_B6
      00000080H.7 SFRSYM    DATA     BIT       P0_B7
      000000C5H   SFRSYM    DATA     BYTE      SMB0RXLN
      000000F6H   SFRSYM    DATA     BYTE      EIP2H
      00000090H.7 SFRSYM    DATA     BIT       P1_B7
      00000083H   SFRSYM    DATA     BYTE      DPH
      000000C4H   SFRSYM    DATA     BYTE      ADC0GTH
      000000C8H.7 SFRSYM    DATA     BIT       TMR2CN0_TF2H
      000000C8H.3 SFRSYM    DATA     BIT       TMR2CN0_T2SPLIT
      000000D0H.6 SFRSYM    DATA     BIT       PSW_AC
      000000F8H   SFRSYM    DATA     BYTE      SPI0CN0
      000000C7H   SFRSYM    DATA     BYTE      HFO0CAL
      00000088H.5 SFRSYM    DATA     BIT       TCON_TF0
      00000098H   SFRSYM    DATA     BIT       SCON0_RI
      000000D6H   SFRSYM    DATA     BYTE      HFO1CAL
      00000082H   SFRSYM    DATA     BYTE      DPL
      00000088H.7 SFRSYM    DATA     BIT       TCON_TF1
      000000C8H   SFRSYM    DATA     BIT       SCON1_RI
      00000099H   SFRSYM    DATA     BYTE      SBUF0
      00000087H   SFRSYM    DATA     BYTE      PCON0
      000000F2H   SFRSYM    DATA     BYTE      IPH
      000000C3H   SFRSYM    DATA     BYTE      ADC0GTL
      00000098H.7 SFRSYM    DATA     BIT       TMR4CN0_TF4H
      00000098H.3 SFRSYM    DATA     BIT       TMR4CN0_T4SPLIT
      000000C8H.6 SFRSYM    DATA     BIT       TMR2CN0_TF2L
      00000098H.1 SFRSYM    DATA     BIT       SCON0_TI
      000000E8H   SFRSYM    DATA     BIT       ADC0CN0_ADCM0
      00000092H   SFRSYM    DATA     BYTE      SBUF1
      0000009AH   SFRSYM    DATA     BYTE      PCON1
LX51 LINKER/LOCATER V4.66.30.0                                                        03/29/2016  00:06:41  PAGE 75


      000000C6H   SFRSYM    DATA     BYTE      ADC0LTH
      00000088H   SFRSYM    DATA     BIT       TCON_IT0
      000000C8H.1 SFRSYM    DATA     BIT       SCON1_TI
      000000E8H.1 SFRSYM    DATA     BIT       ADC0CN0_ADCM1
      000000EFH   SFRSYM    DATA     BYTE      RSTSRC
      000000FDH   SFRSYM    DATA     BYTE      P0MAT
      000000DEH   SFRSYM    DATA     BYTE      CRC0DAT
      00000088H.2 SFRSYM    DATA     BIT       TCON_IT1
      000000E8H.2 SFRSYM    DATA     BIT       ADC0CN0_ADCM2
      000000D7H   SFRSYM    DATA     BYTE      SFRSTACK
      00000098H   SFRSYM    DATA     BYTE      SCON0
      000000F6H   SFRSYM    DATA     BYTE      PRTDRV
      000000EDH   SFRSYM    DATA     BYTE      P1MAT
      000000E8H.3 SFRSYM    DATA     BIT       ADC0CN0_ADWINT
      00000095H   SFRSYM    DATA     WORD      SBRL1
      000000B2H   SFRSYM    DATA     BYTE      USB0AEC
      00000093H   SFRSYM    DATA     BYTE      SMOD1
      000000C8H   SFRSYM    DATA     BYTE      SCON1
      000000FBH   SFRSYM    DATA     BYTE      P2MAT
      00000098H.6 SFRSYM    DATA     BIT       TMR4CN0_TF4L
      000000E8H.4 SFRSYM    DATA     BIT       ADC0CN0_ADBUSY
      000000D6H   SFRSYM    DATA     BYTE      SMB0ADM
      000000C5H   SFRSYM    DATA     BYTE      ADC0LTL
      000000F8H.5 SFRSYM    DATA     BIT       SPI0CN0_MODF
      000000B8H.6 SFRSYM    DATA     BIT       IP_PSPI0
      0000009CH   SFRSYM    DATA     BYTE      PCA0CLR
      000000C8H   SFRSYM    DATA     BYTE      TMR2CN0
      00000091H   SFRSYM    DATA     BYTE      TMR3CN0
      000000FDH   SFRSYM    DATA     BYTE      TMR2CN1
      00000098H   SFRSYM    DATA     BYTE      TMR4CN0
      000000FEH   SFRSYM    DATA     BYTE      TMR3CN1
      000000FFH   SFRSYM    DATA     BYTE      TMR4CN1
      000000D7H   SFRSYM    DATA     BYTE      SMB0ADR
      00000088H.4 SFRSYM    DATA     BIT       TCON_TR0
      000000C8H.4 SFRSYM    DATA     BIT       TMR2CN0_TF2CEN
      00000088H.6 SFRSYM    DATA     BIT       TCON_TR1
      000000C2H   SFRSYM    DATA     BYTE      SMB0DAT
      000000CDH   SFRSYM    DATA     BYTE      TMR2H
      000000A1H   SFRSYM    DATA     BYTE      SPI0CFG
      00000095H   SFRSYM    DATA     BYTE      TMR3H
      000000EFH   SFRSYM    DATA     BYTE      HFOCN
      000000D3H   SFRSYM    DATA     BYTE      CRC0CNT
      000000A5H   SFRSYM    DATA     BYTE      TMR4H
      00000098H.4 SFRSYM    DATA     BIT       TMR4CN0_TF4CEN
      000000EFH   SFRSYM    DATA     BYTE      SMB0FCT
      00000096H   SFRSYM    DATA     BYTE      PCA0POL
      000000CCH   SFRSYM    DATA     BYTE      TMR2L
      000000F8H.7 SFRSYM    DATA     BIT       SPI0CN0_SPIF
      000000AEH   SFRSYM    DATA     BYTE      USB0ADR
      00000094H   SFRSYM    DATA     BYTE      TMR3L
      000000DFH   SFRSYM    DATA     BYTE      ADC0PWR
      000000A8H.7 SFRSYM    DATA     BIT       IE_EA
      000000A4H   SFRSYM    DATA     BYTE      TMR4L
      000000AFH   SFRSYM    DATA     BYTE      USB0DAT
      000000C8H.5 SFRSYM    DATA     BIT       TMR2CN0_TF2LEN
      000000F8H.6 SFRSYM    DATA     BIT       SPI0CN0_WCOL
      00000080H.6 SFRSYM    DATA     BIT       LED_B
      000000F8H.2 SFRSYM    DATA     BIT       SPI0CN0_NSSMD0
      000000D0H.7 SFRSYM    DATA     BIT       PSW_CY
      0000009DH   SFRSYM    DATA     BYTE      UART1FCN0
      000000A3H   SFRSYM    DATA     BYTE      SPI0DAT
      000000ADH   SFRSYM    DATA     BYTE      I2C0FCN0
LX51 LINKER/LOCATER V4.66.30.0                                                        03/29/2016  00:06:41  PAGE 76


      000000F8H.3 SFRSYM    DATA     BIT       SPI0CN0_NSSMD1
      000000BDH   SFRSYM    DATA     WORD      ADC0
      000000D8H   SFRSYM    DATA     BYTE      UART1FCN1
      000000ABH   SFRSYM    DATA     BYTE      I2C0FCN1
      00000098H.5 SFRSYM    DATA     BIT       TMR4CN0_TF4LEN
      000000D0H   SFRSYM    DATA     BYTE      PSW
      000000F7H   SFRSYM    DATA     BYTE      PCA0PWM
      000000F7H   SFRSYM    DATA     BYTE      SPI0FCT
      000000B6H   SFRSYM    DATA     BYTE      REVID
      00000080H.7 SFRSYM    DATA     BIT       LED_G
      000000B7H   SFRSYM    DATA     BYTE      FLKEY
      000000B3H   SFRSYM    DATA     BYTE      ADC0AC
      01001CDDH   SYMBOL    CODE     ---       _dump_signature_der
      01002B60H   SYMBOL    CODE     ---       _?ix1000
      01002B62H   SYMBOL    CODE     ---       _?ix1001
      01001027H   SYMBOL    CODE     ---       _u2f_register
      0100382BH   SYMBOL    CODE     ---       _get_signature_length
      01001424H   SYMBOL    CODE     ---       _u2f_authenticate
      01003968H   SYMBOL    CODE     ---       u2f_version

      01000003H   BLOCK     CODE     ---       LVL=0
      ---         BLOCKEND  ---      ---       LVL=0

      01001E3BH   BLOCK     CODE     ---       LVL=0
      020001A1H   SYMBOL    XDATA    ---       req
      01001E41H   BLOCK     CODE     NEAR LAB  LVL=1
      020001A4H   SYMBOL    XDATA    ---       rcode
      ---         BLOCKEND  ---      ---       LVL=1
      01001E3BH   LINE      CODE     ---       #20
      01001E41H   LINE      CODE     ---       #21
      01001E41H   LINE      CODE     ---       #22
      01001E47H   LINE      CODE     ---       #23
      01001E4AH   LINE      CODE     ---       #24
      01001E69H   LINE      CODE     ---       #25
      01001E69H   LINE      CODE     ---       #26
      01001E69H   LINE      CODE     ---       #27
      01001E6DH   LINE      CODE     ---       #28
      01001E73H   LINE      CODE     ---       #29
      01001E75H   LINE      CODE     ---       #30
      01001E75H   LINE      CODE     ---       #31
      01001E79H   LINE      CODE     ---       #32
      01001E98H   LINE      CODE     ---       #33
      01001E9AH   LINE      CODE     ---       #34
      01001E9AH   LINE      CODE     ---       #35
      01001EA3H   LINE      CODE     ---       #36
      01001EB2H   LINE      CODE     ---       #37
      01001EB4H   LINE      CODE     ---       #38
      01001EB4H   LINE      CODE     ---       #39
      01001EBAH   LINE      CODE     ---       #40
      01001EBCH   LINE      CODE     ---       #41
      01001EBCH   LINE      CODE     ---       #42
      01001EC5H   LINE      CODE     ---       #43
      01001EC5H   LINE      CODE     ---       #44
      01001EC5H   LINE      CODE     ---       #45
      01001EC5H   LINE      CODE     ---       #46
      01001EC5H   LINE      CODE     ---       #47
      01001ED2H   LINE      CODE     ---       #48
      01001ED5H   LINE      CODE     ---       #49
      ---         BLOCKEND  ---      ---       LVL=0

      0100382BH   BLOCK     CODE     ---       LVL=0
      00000001H   SYMBOL    DATA     ---       sig
LX51 LINKER/LOCATER V4.66.30.0                                                        03/29/2016  00:06:41  PAGE 77


      0100382BH   LINE      CODE     ---       #51
      0100382BH   LINE      CODE     ---       #52
      0100382BH   LINE      CODE     ---       #53
      01003849H   LINE      CODE     ---       #54
      ---         BLOCKEND  ---      ---       LVL=0

      01001CDDH   BLOCK     CODE     ---       LVL=0
      020001F2H   SYMBOL    XDATA    ---       sig
      01001CE3H   BLOCK     CODE     NEAR LAB  LVL=1
      020001F5H   SYMBOL    XDATA    BYTE      pad_s
      020001F6H   SYMBOL    XDATA    BYTE      pad_r
      020001F7H   SYMBOL    XDATA    ---       i
      ---         BLOCKEND  ---      ---       LVL=1
      01001CDDH   LINE      CODE     ---       #56
      01001CE3H   LINE      CODE     ---       #57
      01001CE3H   LINE      CODE     ---       #58
      01001CF5H   LINE      CODE     ---       #59
      01001D0AH   LINE      CODE     ---       #60
      01001D15H   LINE      CODE     ---       #61
      01001D26H   LINE      CODE     ---       #67
      01001D33H   LINE      CODE     ---       #68
      01001D38H   LINE      CODE     ---       #71
      01001D3CH   LINE      CODE     ---       #72
      01001D44H   LINE      CODE     ---       #73
      01001D44H   LINE      CODE     ---       #76
      01001D4EH   LINE      CODE     ---       #79
      01001D53H   LINE      CODE     ---       #80
      01001D5DH   LINE      CODE     ---       #81
      01001D5DH   LINE      CODE     ---       #84
      01001D68H   LINE      CODE     ---       #85
      ---         BLOCKEND  ---      ---       LVL=0

      01001424H   BLOCK     CODE     ---       LVL=0
      020001A7H   SYMBOL    XDATA    ---       req
      020001AAH   SYMBOL    XDATA    BYTE      control
      0100142FH   BLOCK     CODE     NEAR LAB  LVL=1
      020001ABH   SYMBOL    XDATA    BYTE      up
      020001ACH   SYMBOL    XDATA    DWORD     count
      ---         BLOCKEND  ---      ---       LVL=1
      01001424H   LINE      CODE     ---       #88
      0100142FH   LINE      CODE     ---       #89
      0100142FH   LINE      CODE     ---       #91
      01001435H   LINE      CODE     ---       #93
      01001458H   LINE      CODE     ---       #94
      01001458H   LINE      CODE     ---       #95
      0100145FH   LINE      CODE     ---       #96
      01001461H   LINE      CODE     ---       #97
      01001461H   LINE      CODE     ---       #98
      01001468H   LINE      CODE     ---       #99
      01001468H   LINE      CODE     ---       #100
      01001468H   LINE      CODE     ---       #101
      0100146AH   LINE      CODE     ---       #102
      0100146AH   LINE      CODE     ---       #104
      01001470H   LINE      CODE     ---       #105
      01001470H   LINE      CODE     ---       #106
      01001477H   LINE      CODE     ---       #107
      0100147CH   LINE      CODE     ---       #108
      0100147CH   LINE      CODE     ---       #110
      01001485H   LINE      CODE     ---       #112
      01001488H   LINE      CODE     ---       #113
      01001491H   LINE      CODE     ---       #114
      0100149CH   LINE      CODE     ---       #115
LX51 LINKER/LOCATER V4.66.30.0                                                        03/29/2016  00:06:41  PAGE 78


      010014A7H   LINE      CODE     ---       #116
      010014AFH   LINE      CODE     ---       #118
      010014B2H   LINE      CODE     ---       #120
      010014CBH   LINE      CODE     ---       #121
      010014CBH   LINE      CODE     ---       #122
      010014D0H   LINE      CODE     ---       #123
      010014D0H   LINE      CODE     ---       #125
      010014E0H   LINE      CODE     ---       #127
      010014EDH   LINE      CODE     ---       #128
      010014FAH   LINE      CODE     ---       #129
      01001500H   LINE      CODE     ---       #131
      01001504H   LINE      CODE     ---       #132
      ---         BLOCKEND  ---      ---       LVL=0

      01001027H   BLOCK     CODE     ---       LVL=0
      020001A7H   SYMBOL    XDATA    ---       req
      0100102DH   BLOCK     CODE     NEAR LAB  LVL=1
      020001AAH   SYMBOL    XDATA    ---       i
      020001ACH   SYMBOL    XDATA    ---       key_handle
      020001B0H   SYMBOL    XDATA    ---       pubkey
      020001F0H   SYMBOL    XDATA    WORD      attest_size
      ---         BLOCKEND  ---      ---       LVL=1
      01001027H   LINE      CODE     ---       #134
      0100102DH   LINE      CODE     ---       #135
      0100102DH   LINE      CODE     ---       #136
      01001038H   LINE      CODE     ---       #142
      01001043H   LINE      CODE     ---       #144
      01001049H   LINE      CODE     ---       #145
      01001049H   LINE      CODE     ---       #146
      0100104BH   LINE      CODE     ---       #147
      0100104BH   LINE      CODE     ---       #149
      0100105EH   LINE      CODE     ---       #150
      0100105EH   LINE      CODE     ---       #151
      01001063H   LINE      CODE     ---       #152
      01001063H   LINE      CODE     ---       #154
      01001066H   LINE      CODE     ---       #155
      0100106EH   LINE      CODE     ---       #156
      01001074H   LINE      CODE     ---       #158
      0100107CH   LINE      CODE     ---       #160
      01001087H   LINE      CODE     ---       #161
      01001092H   LINE      CODE     ---       #162
      0100109AH   LINE      CODE     ---       #163
      0100109DH   LINE      CODE     ---       #165
      010010B2H   LINE      CODE     ---       #166
      010010B2H   LINE      CODE     ---       #167
      010010B7H   LINE      CODE     ---       #168
      010010B7H   LINE      CODE     ---       #170
      010010D2H   LINE      CODE     ---       #171
      010010D8H   LINE      CODE     ---       #172
      010010DDH   LINE      CODE     ---       #173
      010010E7H   LINE      CODE     ---       #174
      010010EDH   LINE      CODE     ---       #175
      010010F2H   LINE      CODE     ---       #176
      010010FFH   LINE      CODE     ---       #178
      01001118H   LINE      CODE     ---       #180
      0100111EH   LINE      CODE     ---       #183
      01001122H   LINE      CODE     ---       #184
      ---         BLOCKEND  ---      ---       LVL=0

      01003968H   BLOCK     CODE     ---       LVL=0
      01003968H   BLOCK     CODE     NEAR LAB  LVL=1
      01002B64H   SYMBOL    CODE     ---       version
LX51 LINKER/LOCATER V4.66.30.0                                                        03/29/2016  00:06:41  PAGE 79


      ---         BLOCKEND  ---      ---       LVL=1
      01003968H   LINE      CODE     ---       #186
      01003968H   LINE      CODE     ---       #187
      01003968H   LINE      CODE     ---       #189
      0100396FH   LINE      CODE     ---       #190
      0100397CH   LINE      CODE     ---       #191
      01003980H   LINE      CODE     ---       #192
      ---         BLOCKEND  ---      ---       LVL=0

      ---         MODULE    ---      ---       U2F_HID
      02000006H   PUBLIC    XDATA    ---       CIDS
      01001139H   PUBLIC    CODE     ---       _u2f_hid_request
      010016B9H   PUBLIC    CODE     ---       _u2f_hid_writeback
      01003B18H   PUBLIC    CODE     ---       u2f_hid_flush
      01003C99H   PUBLIC    CODE     ---       _u2f_hid_set_len
      010036CAH   PUBLIC    CODE     ---       u2f_hid_init
      000000A2H   SFRSYM    DATA     BYTE      SPI0CKR
      00000080H   SFRSYM    DATA     BYTE      P0
      000000C8H.6 SFRSYM    DATA     BIT       SCON1_PERR
      000000D0H.2 SFRSYM    DATA     BIT       PSW_OV
      00000090H   SFRSYM    DATA     BYTE      P1
      000000F8H.1 SFRSYM    DATA     BIT       SPI0CN0_TXNF
      00000097H   SFRSYM    DATA     BYTE      WDTCN
      000000A0H   SFRSYM    DATA     BYTE      P2
      000000B0H   SFRSYM    DATA     BYTE      P3
      000000BCH   SFRSYM    DATA     BYTE      ADC0CF
      000000C0H.7 SFRSYM    DATA     BIT       SMB0CN0_MASTER
      000000F9H   SFRSYM    DATA     WORD      PCA0
      000000E6H   SFRSYM    DATA     BYTE      EIE1
      000000C0H.1 SFRSYM    DATA     BIT       SMB0CN0_ACK
      000000B3H   SFRSYM    DATA     BYTE      USB0XCN
      000000CEH   SFRSYM    DATA     BYTE      EIE2
      00000090H   SFRSYM    DATA     BIT       LED_R
      0000008FH   SFRSYM    DATA     BYTE      PSCTL
      000000E4H   SFRSYM    DATA     BYTE      IT01CF
      000000C0H.6 SFRSYM    DATA     BIT       SMB0CN0_TXMODE
      000000ADH   SFRSYM    DATA     BYTE      DERIVID
      000000A7H   SFRSYM    DATA     BYTE      SFRPAGE
      000000A4H   SFRSYM    DATA     BYTE      P0MDOUT
      00000080H.2 SFRSYM    DATA     BIT       U2F_BUTTON
      000000BFH   SFRSYM    DATA     BYTE      USB0CDSTA
      000000A5H   SFRSYM    DATA     BYTE      P1MDOUT
      000000E8H.5 SFRSYM    DATA     BIT       ADC0CN0_ADINT
      000000CBH   SFRSYM    DATA     BYTE      TMR2RLH
      000000A6H   SFRSYM    DATA     BYTE      P2MDOUT
      000000A8H   SFRSYM    DATA     BYTE      IE
      00000093H   SFRSYM    DATA     BYTE      TMR3RLH
      0000009CH   SFRSYM    DATA     BYTE      P3MDOUT
      000000A3H   SFRSYM    DATA     BYTE      TMR4RLH
      000000F3H   SFRSYM    DATA     BYTE      EIP1
      000000F4H   SFRSYM    DATA     BYTE      EIP2
      00000098H.2 SFRSYM    DATA     BIT       SCON0_RB8
      000000CAH   SFRSYM    DATA     BYTE      TMR2RLL
      000000FCH   SFRSYM    DATA     BYTE      PCA0CPH0
      00000092H   SFRSYM    DATA     BYTE      TMR3RLL
      000000EAH   SFRSYM    DATA     BYTE      PCA0CPH1
      00000098H.3 SFRSYM    DATA     BIT       SCON0_TB8
      000000F0H   SFRSYM    DATA     BIT       B_B0
      00000082H   SFRSYM    DATA     WORD      DP
      000000A2H   SFRSYM    DATA     BYTE      TMR4RLL
      000000ECH   SFRSYM    DATA     BYTE      PCA0CPH2
      000000F0H.1 SFRSYM    DATA     BIT       B_B1
LX51 LINKER/LOCATER V4.66.30.0                                                        03/29/2016  00:06:41  PAGE 80


      000000C3H   SFRSYM    DATA     WORD      ADC0GT
      000000BDH   SFRSYM    DATA     BYTE      I2C0SLAD
      000000D8H.3 SFRSYM    DATA     BIT       UART1FCN1_RFRQ
      000000F0H.2 SFRSYM    DATA     BIT       B_B2
      000000CFH   SFRSYM    DATA     BYTE      SFRPGCN
      000000FBH   SFRSYM    DATA     BYTE      PCA0CPL0
      000000F0H.3 SFRSYM    DATA     BIT       B_B3
      000000D9H   SFRSYM    DATA     BYTE      PCA0MD
      000000DAH   SFRSYM    DATA     BYTE      PCA0CPM0
      000000E9H   SFRSYM    DATA     BYTE      PCA0CPL1
      000000D8H.7 SFRSYM    DATA     BIT       UART1FCN1_TFRQ
      000000F0H.4 SFRSYM    DATA     BIT       B_B4
      000000DBH   SFRSYM    DATA     BYTE      PCA0CPM1
      000000EBH   SFRSYM    DATA     BYTE      PCA0CPL2
      000000F0H.5 SFRSYM    DATA     BIT       B_B5
      000000DCH   SFRSYM    DATA     BYTE      PCA0CPM2
      000000B8H   SFRSYM    DATA     BYTE      IP
      000000B9H   SFRSYM    DATA     BYTE      ADC0TK
      000000F0H.6 SFRSYM    DATA     BIT       B_B6
      000000C5H   SFRSYM    DATA     WORD      ADC0LT
      000000D8H.6 SFRSYM    DATA     BIT       UART1FCN1_TXNF
      00000098H.5 SFRSYM    DATA     BIT       SCON0_MCE
      000000F0H.7 SFRSYM    DATA     BIT       B_B7
      000000C3H   SFRSYM    DATA     BYTE      SMB0FCN0
      000000E1H   SFRSYM    DATA     BYTE      XBR0
      000000C4H   SFRSYM    DATA     BYTE      SMB0FCN1
      000000C1H   SFRSYM    DATA     BYTE      SMB0CF
      000000E2H   SFRSYM    DATA     BYTE      XBR1
      000000C1H   SFRSYM    DATA     BYTE      PFE0CN
      000000E7H   SFRSYM    DATA     BYTE      EMI0CN
      000000C0H.5 SFRSYM    DATA     BIT       SMB0CN0_STA
      000000E3H   SFRSYM    DATA     BYTE      XBR2
      000000BBH   SFRSYM    DATA     BYTE      ADC0MX
      000000E0H   SFRSYM    DATA     BIT       ACC_ACC0
      000000D1H   SFRSYM    DATA     BYTE      REF0CN
      0000008EH   SFRSYM    DATA     BYTE      CKCON0
      000000E0H.1 SFRSYM    DATA     BIT       ACC_ACC1
      000000C9H   SFRSYM    DATA     BYTE      REG0CN
      000000DDH   SFRSYM    DATA     BYTE      CRC0IN
      000000A6H   SFRSYM    DATA     BYTE      CKCON1
      000000C8H.2 SFRSYM    DATA     BIT       TMR2CN0_TR2
      000000E0H.2 SFRSYM    DATA     BIT       ACC_ACC2
      000000C6H   SFRSYM    DATA     BYTE      REG1CN
      000000E0H.3 SFRSYM    DATA     BIT       ACC_ACC3
      00000081H   SFRSYM    DATA     BYTE      SP
      0000009DH   SFRSYM    DATA     BYTE      CMP0MD
      000000E0H.4 SFRSYM    DATA     BIT       ACC_ACC4
      000000B1H   SFRSYM    DATA     BYTE      LFO0CN
      000000ABH   SFRSYM    DATA     BYTE      CMP1MD
      000000D8H   SFRSYM    DATA     BIT       PCA0CN0_CCF0
      000000E0H.5 SFRSYM    DATA     BIT       ACC_ACC5
      000000B5H   SFRSYM    DATA     BYTE      USB0CF
      00000098H.2 SFRSYM    DATA     BIT       TMR4CN0_TR4
      000000D8H.1 SFRSYM    DATA     BIT       PCA0CN0_CCF1
      000000E0H.6 SFRSYM    DATA     BIT       ACC_ACC6
      000000CCH   SFRSYM    DATA     WORD      TMR2
      0000009AH   SFRSYM    DATA     BYTE      SPI0FCN0
      000000D8H.2 SFRSYM    DATA     BIT       PCA0CN0_CCF2
      000000E0H.7 SFRSYM    DATA     BIT       ACC_ACC7
      00000094H   SFRSYM    DATA     WORD      TMR3
      0000009BH   SFRSYM    DATA     BYTE      SPI0FCN1
      000000A4H   SFRSYM    DATA     WORD      TMR4
LX51 LINKER/LOCATER V4.66.30.0                                                        03/29/2016  00:06:41  PAGE 81


      00000094H   SFRSYM    DATA     BYTE      SBCON1
      000000C0H.3 SFRSYM    DATA     BIT       SMB0CN0_ACKRQ
      000000FFH   SFRSYM    DATA     BYTE      VDM0CN
      000000F1H   SFRSYM    DATA     BYTE      P0MDIN
      00000098H.4 SFRSYM    DATA     BIT       SCON0_REN
      000000ACH   SFRSYM    DATA     BYTE      SMB0TC
      000000F2H   SFRSYM    DATA     BYTE      P1MDIN
      000000C8H.4 SFRSYM    DATA     BIT       SCON1_REN
      000000F3H   SFRSYM    DATA     BYTE      P2MDIN
      000000C0H.4 SFRSYM    DATA     BIT       SMB0CN0_STO
      000000B6H   SFRSYM    DATA     BYTE      USB0CDCF
      000000F4H   SFRSYM    DATA     BYTE      P3MDIN
      000000B9H   SFRSYM    DATA     BYTE      I2C0STAT
      000000BBH   SFRSYM    DATA     BYTE      I2C0DOUT
      00000096H   SFRSYM    DATA     BYTE      SBRLH1
      000000FEH   SFRSYM    DATA     BYTE      P0MASK
      000000D8H.5 SFRSYM    DATA     BIT       UART1FCN1_TXHOLD
      000000EEH   SFRSYM    DATA     BYTE      P1MASK
      000000FCH   SFRSYM    DATA     BYTE      P2MASK
      000000D0H.3 SFRSYM    DATA     BIT       PSW_RS0
      000000D8H.7 SFRSYM    DATA     BIT       PCA0CN0_CF
      0000009EH   SFRSYM    DATA     BYTE      PCA0CENT
      000000BAH   SFRSYM    DATA     BYTE      I2C0CN0
      000000D2H   SFRSYM    DATA     BYTE      CRC0ST
      000000F8H.4 SFRSYM    DATA     BIT       SPI0CN0_RXOVRN
      000000D0H.4 SFRSYM    DATA     BIT       PSW_RS1
      00000095H   SFRSYM    DATA     BYTE      SBRLL1
      000000C8H.2 SFRSYM    DATA     BIT       SCON1_RBX
      000000C8H   SFRSYM    DATA     BIT       TMR2CN0_T2XCLK0
      000000C8H.1 SFRSYM    DATA     BIT       TMR2CN0_T2XCLK1
      000000C8H.3 SFRSYM    DATA     BIT       SCON1_TBX
      000000E8H.7 SFRSYM    DATA     BIT       ADC0CN0_ADEN
      000000BEH   SFRSYM    DATA     BYTE      USB0CDCN
      00000089H   SFRSYM    DATA     BYTE      TMOD
      00000088H   SFRSYM    DATA     BYTE      TCON
      000000CFH   SFRSYM    DATA     BYTE      CRC0FLIP
      000000D0H   SFRSYM    DATA     BIT       PSW_PARITY
      000000A8H.4 SFRSYM    DATA     BIT       IE_ES0
      0000009FH   SFRSYM    DATA     BYTE      CMP0MX
      00000098H   SFRSYM    DATA     BIT       TMR4CN0_T4XCLK0
      000000A8H.1 SFRSYM    DATA     BIT       IE_ET0
      000000AAH   SFRSYM    DATA     BYTE      CMP1MX
      00000098H.1 SFRSYM    DATA     BIT       TMR4CN0_T4XCLK1
      000000A8H.3 SFRSYM    DATA     BIT       IE_ET1
      000000D4H   SFRSYM    DATA     BYTE      P0SKIP
      000000D8H   SFRSYM    DATA     BIT       UART1FCN1_RIE
      000000A8H.5 SFRSYM    DATA     BIT       IE_ET2
      000000D5H   SFRSYM    DATA     BYTE      P1SKIP
      000000CCH   SFRSYM    DATA     BYTE      P2SKIP
      000000E8H   SFRSYM    DATA     BYTE      ADC0CN0
      000000D8H.4 SFRSYM    DATA     BIT       UART1FCN1_TIE
      000000A8H   SFRSYM    DATA     BIT       IE_EX0
      000000B2H   SFRSYM    DATA     BYTE      ADC0CN1
      000000D8H.6 SFRSYM    DATA     BIT       PCA0CN0_CR
      000000A8H.2 SFRSYM    DATA     BIT       IE_EX1
      000000C8H.7 SFRSYM    DATA     BIT       SCON1_OVR
      00000098H.7 SFRSYM    DATA     BIT       SCON0_SMODE
      000000B5H   SFRSYM    DATA     BYTE      DEVICEID
      000000A9H   SFRSYM    DATA     BYTE      CLKSEL
      000000F8H   SFRSYM    DATA     BIT       SPI0CN0_SPIEN
      000000F0H   SFRSYM    DATA     BYTE      B
      000000BEH   SFRSYM    DATA     BYTE      ADC0H
LX51 LINKER/LOCATER V4.66.30.0                                                        03/29/2016  00:06:41  PAGE 82


      000000E8H.6 SFRSYM    DATA     BIT       ADC0CN0_ADBMEN
      000000CAH   SFRSYM    DATA     WORD      TMR2RL
      000000BDH   SFRSYM    DATA     BYTE      ADC0L
      00000092H   SFRSYM    DATA     WORD      TMR3RL
      000000A2H   SFRSYM    DATA     WORD      TMR4RL
      000000D8H   SFRSYM    DATA     BYTE      PCA0CN0
      000000E0H   SFRSYM    DATA     BYTE      ACC
      000000FBH   SFRSYM    DATA     WORD      PCA0CP0
      000000E9H   SFRSYM    DATA     WORD      PCA0CP1
      000000EBH   SFRSYM    DATA     WORD      PCA0CP2
      000000BCH   SFRSYM    DATA     BYTE      I2C0DIN
      000000CEH   SFRSYM    DATA     BYTE      CRC0CN0
      0000008CH   SFRSYM    DATA     BYTE      TH0
      00000086H   SFRSYM    DATA     BYTE      CRC0CN1
      000000B8H.4 SFRSYM    DATA     BIT       IP_PS0
      000000FAH   SFRSYM    DATA     BYTE      UART1FCT
      0000008DH   SFRSYM    DATA     BYTE      TH1
      000000FAH   SFRSYM    DATA     BYTE      PCA0H
      000000F5H   SFRSYM    DATA     BYTE      I2C0FCT
      000000B8H.1 SFRSYM    DATA     BIT       IP_PT0
      000000B8H.3 SFRSYM    DATA     BIT       IP_PT1
      000000C0H.2 SFRSYM    DATA     BIT       SMB0CN0_ARBLOST
      000000B8H.5 SFRSYM    DATA     BIT       IP_PT2
      0000008AH   SFRSYM    DATA     BYTE      TL0
      00000080H.3 SFRSYM    DATA     BIT       U2F_BUTTON_VAL
      000000D0H.5 SFRSYM    DATA     BIT       PSW_F0
      000000A8H.6 SFRSYM    DATA     BIT       IE_ESPI0
      0000008BH   SFRSYM    DATA     BYTE      TL1
      000000F9H   SFRSYM    DATA     BYTE      PCA0L
      000000C0H   SFRSYM    DATA     BIT       SMB0CN0_SI
      000000D0H.1 SFRSYM    DATA     BIT       PSW_F1
      00000080H   SFRSYM    DATA     BIT       P0_B0
      000000B8H   SFRSYM    DATA     BIT       IP_PX0
      00000090H   SFRSYM    DATA     BIT       P1_B0
      00000080H.1 SFRSYM    DATA     BIT       P0_B1
      000000B8H.2 SFRSYM    DATA     BIT       IP_PX1
      0000009EH   SFRSYM    DATA     BYTE      UART1LIN
      0000009BH   SFRSYM    DATA     BYTE      CMP0CN0
      00000088H.1 SFRSYM    DATA     BIT       TCON_IE0
      000000A0H   SFRSYM    DATA     BIT       P2_B0
      00000090H.1 SFRSYM    DATA     BIT       P1_B1
      00000080H.2 SFRSYM    DATA     BIT       P0_B2
      000000BFH   SFRSYM    DATA     BYTE      CMP1CN0
      00000099H   SFRSYM    DATA     BYTE      CMP0CN1
      00000088H.3 SFRSYM    DATA     BIT       TCON_IE1
      000000B0H   SFRSYM    DATA     BIT       P3_B0
      000000A0H.1 SFRSYM    DATA     BIT       P2_B1
      00000090H.2 SFRSYM    DATA     BIT       P1_B2
      00000080H.3 SFRSYM    DATA     BIT       P0_B3
      000000C0H   SFRSYM    DATA     BYTE      SMB0CN0
      000000ACH   SFRSYM    DATA     BYTE      CMP1CN1
      000000B0H.1 SFRSYM    DATA     BIT       P3_B1
      000000A0H.2 SFRSYM    DATA     BIT       P2_B2
      00000090H.3 SFRSYM    DATA     BIT       P1_B3
      00000080H.4 SFRSYM    DATA     BIT       P0_B4
      000000A0H.3 SFRSYM    DATA     BIT       P2_B3
      00000090H.4 SFRSYM    DATA     BIT       P1_B4
      00000080H.5 SFRSYM    DATA     BIT       P0_B5
      000000D8H.1 SFRSYM    DATA     BIT       UART1FCN1_RXTO0
      00000090H.5 SFRSYM    DATA     BIT       P1_B5
      00000080H.6 SFRSYM    DATA     BIT       P0_B6
      000000F5H   SFRSYM    DATA     BYTE      EIP1H
LX51 LINKER/LOCATER V4.66.30.0                                                        03/29/2016  00:06:41  PAGE 83


      000000D8H.2 SFRSYM    DATA     BIT       UART1FCN1_RXTO1
      00000090H.6 SFRSYM    DATA     BIT       P1_B6
      00000080H.7 SFRSYM    DATA     BIT       P0_B7
      000000C5H   SFRSYM    DATA     BYTE      SMB0RXLN
      000000F6H   SFRSYM    DATA     BYTE      EIP2H
      00000090H.7 SFRSYM    DATA     BIT       P1_B7
      00000083H   SFRSYM    DATA     BYTE      DPH
      000000C4H   SFRSYM    DATA     BYTE      ADC0GTH
      000000C8H.7 SFRSYM    DATA     BIT       TMR2CN0_TF2H
      000000C8H.3 SFRSYM    DATA     BIT       TMR2CN0_T2SPLIT
      000000D0H.6 SFRSYM    DATA     BIT       PSW_AC
      000000F8H   SFRSYM    DATA     BYTE      SPI0CN0
      000000C7H   SFRSYM    DATA     BYTE      HFO0CAL
      00000088H.5 SFRSYM    DATA     BIT       TCON_TF0
      00000098H   SFRSYM    DATA     BIT       SCON0_RI
      000000D6H   SFRSYM    DATA     BYTE      HFO1CAL
      00000082H   SFRSYM    DATA     BYTE      DPL
      00000088H.7 SFRSYM    DATA     BIT       TCON_TF1
      000000C8H   SFRSYM    DATA     BIT       SCON1_RI
      00000099H   SFRSYM    DATA     BYTE      SBUF0
      00000087H   SFRSYM    DATA     BYTE      PCON0
      000000F2H   SFRSYM    DATA     BYTE      IPH
      000000C3H   SFRSYM    DATA     BYTE      ADC0GTL
      00000098H.7 SFRSYM    DATA     BIT       TMR4CN0_TF4H
      00000098H.3 SFRSYM    DATA     BIT       TMR4CN0_T4SPLIT
      000000C8H.6 SFRSYM    DATA     BIT       TMR2CN0_TF2L
      00000098H.1 SFRSYM    DATA     BIT       SCON0_TI
      000000E8H   SFRSYM    DATA     BIT       ADC0CN0_ADCM0
      00000092H   SFRSYM    DATA     BYTE      SBUF1
      0000009AH   SFRSYM    DATA     BYTE      PCON1
      000000C6H   SFRSYM    DATA     BYTE      ADC0LTH
      00000088H   SFRSYM    DATA     BIT       TCON_IT0
      000000C8H.1 SFRSYM    DATA     BIT       SCON1_TI
      000000E8H.1 SFRSYM    DATA     BIT       ADC0CN0_ADCM1
      000000EFH   SFRSYM    DATA     BYTE      RSTSRC
      000000FDH   SFRSYM    DATA     BYTE      P0MAT
      000000DEH   SFRSYM    DATA     BYTE      CRC0DAT
      00000088H.2 SFRSYM    DATA     BIT       TCON_IT1
      000000E8H.2 SFRSYM    DATA     BIT       ADC0CN0_ADCM2
      000000D7H   SFRSYM    DATA     BYTE      SFRSTACK
      00000098H   SFRSYM    DATA     BYTE      SCON0
      000000F6H   SFRSYM    DATA     BYTE      PRTDRV
      000000EDH   SFRSYM    DATA     BYTE      P1MAT
      000000E8H.3 SFRSYM    DATA     BIT       ADC0CN0_ADWINT
      00000095H   SFRSYM    DATA     WORD      SBRL1
      000000B2H   SFRSYM    DATA     BYTE      USB0AEC
      00000093H   SFRSYM    DATA     BYTE      SMOD1
      000000C8H   SFRSYM    DATA     BYTE      SCON1
      000000FBH   SFRSYM    DATA     BYTE      P2MAT
      00000098H.6 SFRSYM    DATA     BIT       TMR4CN0_TF4L
      000000E8H.4 SFRSYM    DATA     BIT       ADC0CN0_ADBUSY
      000000D6H   SFRSYM    DATA     BYTE      SMB0ADM
      000000C5H   SFRSYM    DATA     BYTE      ADC0LTL
      000000F8H.5 SFRSYM    DATA     BIT       SPI0CN0_MODF
      000000B8H.6 SFRSYM    DATA     BIT       IP_PSPI0
      0000009CH   SFRSYM    DATA     BYTE      PCA0CLR
      000000C8H   SFRSYM    DATA     BYTE      TMR2CN0
      00000091H   SFRSYM    DATA     BYTE      TMR3CN0
      000000FDH   SFRSYM    DATA     BYTE      TMR2CN1
      00000098H   SFRSYM    DATA     BYTE      TMR4CN0
      000000FEH   SFRSYM    DATA     BYTE      TMR3CN1
      000000FFH   SFRSYM    DATA     BYTE      TMR4CN1
LX51 LINKER/LOCATER V4.66.30.0                                                        03/29/2016  00:06:41  PAGE 84


      000000D7H   SFRSYM    DATA     BYTE      SMB0ADR
      00000088H.4 SFRSYM    DATA     BIT       TCON_TR0
      000000C8H.4 SFRSYM    DATA     BIT       TMR2CN0_TF2CEN
      00000088H.6 SFRSYM    DATA     BIT       TCON_TR1
      000000C2H   SFRSYM    DATA     BYTE      SMB0DAT
      000000CDH   SFRSYM    DATA     BYTE      TMR2H
      000000A1H   SFRSYM    DATA     BYTE      SPI0CFG
      00000095H   SFRSYM    DATA     BYTE      TMR3H
      000000EFH   SFRSYM    DATA     BYTE      HFOCN
      000000D3H   SFRSYM    DATA     BYTE      CRC0CNT
      000000A5H   SFRSYM    DATA     BYTE      TMR4H
      00000098H.4 SFRSYM    DATA     BIT       TMR4CN0_TF4CEN
      000000EFH   SFRSYM    DATA     BYTE      SMB0FCT
      00000096H   SFRSYM    DATA     BYTE      PCA0POL
      000000CCH   SFRSYM    DATA     BYTE      TMR2L
      000000F8H.7 SFRSYM    DATA     BIT       SPI0CN0_SPIF
      000000AEH   SFRSYM    DATA     BYTE      USB0ADR
      00000094H   SFRSYM    DATA     BYTE      TMR3L
      000000DFH   SFRSYM    DATA     BYTE      ADC0PWR
      000000A8H.7 SFRSYM    DATA     BIT       IE_EA
      000000A4H   SFRSYM    DATA     BYTE      TMR4L
      000000AFH   SFRSYM    DATA     BYTE      USB0DAT
      000000C8H.5 SFRSYM    DATA     BIT       TMR2CN0_TF2LEN
      000000F8H.6 SFRSYM    DATA     BIT       SPI0CN0_WCOL
      00000080H.6 SFRSYM    DATA     BIT       LED_B
      000000F8H.2 SFRSYM    DATA     BIT       SPI0CN0_NSSMD0
      000000D0H.7 SFRSYM    DATA     BIT       PSW_CY
      0000009DH   SFRSYM    DATA     BYTE      UART1FCN0
      000000A3H   SFRSYM    DATA     BYTE      SPI0DAT
      000000ADH   SFRSYM    DATA     BYTE      I2C0FCN0
      000000F8H.3 SFRSYM    DATA     BIT       SPI0CN0_NSSMD1
      000000BDH   SFRSYM    DATA     WORD      ADC0
      000000D8H   SFRSYM    DATA     BYTE      UART1FCN1
      000000ABH   SFRSYM    DATA     BYTE      I2C0FCN1
      00000098H.5 SFRSYM    DATA     BIT       TMR4CN0_TF4LEN
      000000D0H   SFRSYM    DATA     BYTE      PSW
      000000F7H   SFRSYM    DATA     BYTE      PCA0PWM
      000000F7H   SFRSYM    DATA     BYTE      SPI0FCT
      000000B6H   SFRSYM    DATA     BYTE      REVID
      00000080H.7 SFRSYM    DATA     BIT       LED_G
      000000B7H   SFRSYM    DATA     BYTE      FLKEY
      000000B3H   SFRSYM    DATA     BYTE      ADC0AC
      01001AADH   SYMBOL    CODE     ---       get_new_cid
      02000004H   SYMBOL    XDATA    BYTE      _hid_offset
      01003CA2H   SYMBOL    CODE     ---       _refresh_cid
      010039CAH   SYMBOL    CODE     ---       u2f_hid_reset_packet
      02000005H   SYMBOL    XDATA    BYTE      CID_NUM
      01000884H   SYMBOL    CODE     ---       _hid_u2f_parse
      0100335BH   SYMBOL    CODE     ---       _stamp_error
      0200002EH   SYMBOL    XDATA    ---       hid_layer
      02000108H   SYMBOL    XDATA    BYTE      _hid_in_session
      02000109H   SYMBOL    XDATA    BYTE      _hid_seq
      0200010AH   SYMBOL    XDATA    ---       _hid_pkt
      01003396H   SYMBOL    CODE     ---       _del_cid
      01003675H   SYMBOL    CODE     ---       _start_buffering
      01003068H   SYMBOL    CODE     ---       _get_cid
      01002A9CH   SYMBOL    CODE     ---       _buffer_request
      0100351DH   SYMBOL    CODE     ---       _is_cid_free

      01001925H   BLOCK     CODE     ---       LVL=0
      ---         BLOCKEND  ---      ---       LVL=0

LX51 LINKER/LOCATER V4.66.30.0                                                        03/29/2016  00:06:41  PAGE 85


      010036CAH   BLOCK     CODE     ---       LVL=0
      010036CAH   LINE      CODE     ---       #68
      010036CAH   LINE      CODE     ---       #69
      010036CAH   LINE      CODE     ---       #70
      010036D9H   LINE      CODE     ---       #71
      010036E0H   LINE      CODE     ---       #72
      010036E5H   LINE      CODE     ---       #73
      010036E9H   LINE      CODE     ---       #74
      010036EDH   LINE      CODE     ---       #75
      010036F1H   LINE      CODE     ---       #76
      ---         BLOCKEND  ---      ---       LVL=0

      01003C99H   BLOCK     CODE     ---       LVL=0
      00000006H   SYMBOL    DATA     WORD      len
      01003C99H   LINE      CODE     ---       #78
      01003C99H   LINE      CODE     ---       #79
      01003C99H   LINE      CODE     ---       #80
      01003CA1H   LINE      CODE     ---       #81
      ---         BLOCKEND  ---      ---       LVL=0

      010039CAH   BLOCK     CODE     ---       LVL=0
      010039CAH   LINE      CODE     ---       #84
      010039CAH   LINE      CODE     ---       #85
      010039CAH   LINE      CODE     ---       #86
      010039CFH   LINE      CODE     ---       #87
      010039D3H   LINE      CODE     ---       #88
      010039D7H   LINE      CODE     ---       #89
      010039DCH   LINE      CODE     ---       #90
      ---         BLOCKEND  ---      ---       LVL=0

      01003B18H   BLOCK     CODE     ---       LVL=0
      01003B18H   LINE      CODE     ---       #94
      01003B18H   LINE      CODE     ---       #95
      01003B18H   LINE      CODE     ---       #96
      01003B1EH   LINE      CODE     ---       #97
      01003B1EH   LINE      CODE     ---       #98
      01003B26H   LINE      CODE     ---       #99
      01003B26H   LINE      CODE     ---       #100
      ---         BLOCKEND  ---      ---       LVL=0

      010016B9H   BLOCK     CODE     ---       LVL=0
      020001F9H   SYMBOL    XDATA    ---       payload
      020001FCH   SYMBOL    XDATA    WORD      len
      010016C7H   BLOCK     CODE     NEAR LAB  LVL=1
      00000001H   SYMBOL    DATA     ---       r
      ---         BLOCKEND  ---      ---       LVL=1
      010016B9H   LINE      CODE     ---       #104
      010016C7H   LINE      CODE     ---       #105
      010016C7H   LINE      CODE     ---       #106
      010016CAH   LINE      CODE     ---       #107
      010016D0H   LINE      CODE     ---       #108
      010016D6H   LINE      CODE     ---       #109
      010016D6H   LINE      CODE     ---       #110
      010016DFH   LINE      CODE     ---       #111
      010016E6H   LINE      CODE     ---       #112
      010016E6H   LINE      CODE     ---       #113
      010016F0H   LINE      CODE     ---       #114
      01001700H   LINE      CODE     ---       #115
      01001706H   LINE      CODE     ---       #116
      01001708H   LINE      CODE     ---       #118
      01001708H   LINE      CODE     ---       #119
      01001711H   LINE      CODE     ---       #120
LX51 LINKER/LOCATER V4.66.30.0                                                        03/29/2016  00:06:41  PAGE 86


      01001717H   LINE      CODE     ---       #121
      0100171DH   LINE      CODE     ---       #122
      0100171DH   LINE      CODE     ---       #123
      01001722H   LINE      CODE     ---       #125
      01001722H   LINE      CODE     ---       #126
      01001722H   LINE      CODE     ---       #127
      01001722H   LINE      CODE     ---       #128
      01001730H   LINE      CODE     ---       #129
      01001730H   LINE      CODE     ---       #130
      01001751H   LINE      CODE     ---       #131
      0100175BH   LINE      CODE     ---       #132
      01001762H   LINE      CODE     ---       #133
      01001762H   LINE      CODE     ---       #134
      01001764H   LINE      CODE     ---       #135
      0100176AH   LINE      CODE     ---       #137
      01001772H   LINE      CODE     ---       #138
      01001778H   LINE      CODE     ---       #140
      01001783H   LINE      CODE     ---       #141
      01001783H   LINE      CODE     ---       #142
      0100178CH   LINE      CODE     ---       #144
      0100178CH   LINE      CODE     ---       #145
      0100178CH   LINE      CODE     ---       #146
      0100178CH   LINE      CODE     ---       #147
      0100178CH   LINE      CODE     ---       #149
      ---         BLOCKEND  ---      ---       LVL=0

      0100351DH   BLOCK     CODE     ---       LVL=0
      020001A3H   SYMBOL    XDATA    ---       c
      0100351DH   LINE      CODE     ---       #151
      01003523H   LINE      CODE     ---       #152
      01003523H   LINE      CODE     ---       #153
      01003551H   LINE      CODE     ---       #154
      ---         BLOCKEND  ---      ---       LVL=0

      01003CA2H   BLOCK     CODE     ---       LVL=0
      00000001H   SYMBOL    DATA     ---       c
      01003CA2H   LINE      CODE     ---       #156
      01003CA2H   LINE      CODE     ---       #157
      01003CA2H   LINE      CODE     ---       #158
      ---         BLOCKEND  ---      ---       LVL=0

      01001AADH   BLOCK     CODE     ---       LVL=0
      01001AADH   BLOCK     CODE     NEAR LAB  LVL=1
      02000000H   SYMBOL    XDATA    DWORD     base
      020001A1H   SYMBOL    XDATA    INT       i
      01001AF1H   SYMBOL    CODE     ---       newcid
      ---         BLOCKEND  ---      ---       LVL=1
      01001AADH   LINE      CODE     ---       #162
      01001AADH   LINE      CODE     ---       #163
      01001AADH   LINE      CODE     ---       #166
      01001AC3H   LINE      CODE     ---       #167
      01001AC3H   LINE      CODE     ---       #168
      01001AD6H   LINE      CODE     ---       #169
      01001AD6H   LINE      CODE     ---       #170
      01001AD6H   LINE      CODE     ---       #171
      01001AD6H   LINE      CODE     ---       #172
      01001AE2H   LINE      CODE     ---       #173
      01001AE8H   LINE      CODE     ---       #174
      01001AE8H   LINE      CODE     ---       #177
      01001AE8H   LINE      CODE     ---       #178
      01001B25H   LINE      CODE     ---       #179
      01001B50H   LINE      CODE     ---       #181
LX51 LINKER/LOCATER V4.66.30.0                                                        03/29/2016  00:06:41  PAGE 87


      01001B60H   LINE      CODE     ---       #183
      01001B6DH   LINE      CODE     ---       #184
      ---         BLOCKEND  ---      ---       LVL=0

      01003068H   BLOCK     CODE     ---       LVL=0
      02000199H   SYMBOL    XDATA    DWORD     cid
      0100306EH   BLOCK     CODE     NEAR LAB  LVL=1
      0200019DH   SYMBOL    XDATA    BYTE      i
      ---         BLOCKEND  ---      ---       LVL=1
      01003068H   LINE      CODE     ---       #186
      0100306EH   LINE      CODE     ---       #187
      0100306EH   LINE      CODE     ---       #189
      0100307DH   LINE      CODE     ---       #190
      0100307DH   LINE      CODE     ---       #191
      0100308BH   LINE      CODE     ---       #192
      0100308BH   LINE      CODE     ---       #193
      0100309EH   LINE      CODE     ---       #194
      0100309EH   LINE      CODE     ---       #195
      010030A6H   LINE      CODE     ---       #196
      010030ACH   LINE      CODE     ---       #197
      ---         BLOCKEND  ---      ---       LVL=0

      01003396H   BLOCK     CODE     ---       LVL=0
      020001A9H   SYMBOL    XDATA    DWORD     cid
      0100339CH   BLOCK     CODE     NEAR LAB  LVL=1
      020001ADH   SYMBOL    XDATA    BYTE      i
      ---         BLOCKEND  ---      ---       LVL=1
      01003396H   LINE      CODE     ---       #198
      0100339CH   LINE      CODE     ---       #199
      0100339CH   LINE      CODE     ---       #201
      010033ABH   LINE      CODE     ---       #202
      010033ABH   LINE      CODE     ---       #203
      010033B9H   LINE      CODE     ---       #204
      010033B9H   LINE      CODE     ---       #205
      010033C7H   LINE      CODE     ---       #206
      010033C7H   LINE      CODE     ---       #207
      010033CFH   LINE      CODE     ---       #208
      ---         BLOCKEND  ---      ---       LVL=0
      00000004H   SYMBOL    DATA     DWORD     cid

      0100335BH   BLOCK     CODE     ---       LVL=0
      020001A4H   SYMBOL    XDATA    DWORD     cid
      020001A8H   SYMBOL    XDATA    BYTE      err
      01003361H   BLOCK     CODE     NEAR LAB  LVL=1
      00000001H   SYMBOL    DATA     ---       res
      ---         BLOCKEND  ---      ---       LVL=1
      0100335BH   LINE      CODE     ---       #215
      01003361H   LINE      CODE     ---       #216
      01003361H   LINE      CODE     ---       #217
      01003364H   LINE      CODE     ---       #218
      0100336DH   LINE      CODE     ---       #219
      01003375H   LINE      CODE     ---       #220
      0100337FH   LINE      CODE     ---       #221
      01003380H   LINE      CODE     ---       #222
      01003388H   LINE      CODE     ---       #224
      0100338DH   LINE      CODE     ---       #225
      ---         BLOCKEND  ---      ---       LVL=0

      01003675H   BLOCK     CODE     ---       LVL=0
      00000001H   SYMBOL    DATA     ---       req
      01003675H   LINE      CODE     ---       #229
      01003675H   LINE      CODE     ---       #230
LX51 LINKER/LOCATER V4.66.30.0                                                        03/29/2016  00:06:41  PAGE 88


      01003675H   LINE      CODE     ---       #231
      0100367BH   LINE      CODE     ---       #232
      01003684H   LINE      CODE     ---       #233
      01003691H   LINE      CODE     ---       #234
      ---         BLOCKEND  ---      ---       LVL=0

      01002A9CH   BLOCK     CODE     ---       LVL=0
      020001A1H   SYMBOL    XDATA    ---       req
      01002A9CH   LINE      CODE     ---       #237
      01002AA2H   LINE      CODE     ---       #238
      01002AA2H   LINE      CODE     ---       #239
      01002AB9H   LINE      CODE     ---       #240
      01002AB9H   LINE      CODE     ---       #241
      01002AC2H   LINE      CODE     ---       #242
      01002AD1H   LINE      CODE     ---       #243
      01002AD6H   LINE      CODE     ---       #244
      01002AD6H   LINE      CODE     ---       #245
      01002AF9H   LINE      CODE     ---       #246
      01002B03H   LINE      CODE     ---       #247
      ---         BLOCKEND  ---      ---       LVL=0

      01000884H   BLOCK     CODE     ---       LVL=0
      02000199H   SYMBOL    XDATA    ---       req
      0100088AH   BLOCK     CODE     NEAR LAB  LVL=1
      0200019CH   SYMBOL    XDATA    WORD      len
      0200019EH   SYMBOL    XDATA    ---       init_res
      01000A58H   SYMBOL    CODE     ---       fail
      ---         BLOCKEND  ---      ---       LVL=1
      01000884H   LINE      CODE     ---       #249
      0100088AH   LINE      CODE     ---       #250
      0100088AH   LINE      CODE     ---       #252
      01000891H   LINE      CODE     ---       #253
      0100089AH   LINE      CODE     ---       #255
      010008C0H   LINE      CODE     ---       #256
      010008C0H   LINE      CODE     ---       #257
      010008C0H   LINE      CODE     ---       #259
      010008C9H   LINE      CODE     ---       #260
      010008C9H   LINE      CODE     ---       #262
      010008CCH   LINE      CODE     ---       #263
      010008D2H   LINE      CODE     ---       #264
      010008D5H   LINE      CODE     ---       #265
      010008D5H   LINE      CODE     ---       #266
      010008DCH   LINE      CODE     ---       #269
      010008E5H   LINE      CODE     ---       #270
      010008E5H   LINE      CODE     ---       #271
      010008EBH   LINE      CODE     ---       #272
      010008EDH   LINE      CODE     ---       #273
      010008EDH   LINE      CODE     ---       #275
      010008F9H   LINE      CODE     ---       #276
      01000904H   LINE      CODE     ---       #277
      01000906H   LINE      CODE     ---       #278
      0100090DH   LINE      CODE     ---       #279
      01000914H   LINE      CODE     ---       #280
      0100091BH   LINE      CODE     ---       #283
      01000925H   LINE      CODE     ---       #284
      01000932H   LINE      CODE     ---       #285
      01000935H   LINE      CODE     ---       #286
      01000941H   LINE      CODE     ---       #288
      01000941H   LINE      CODE     ---       #289
      01000941H   LINE      CODE     ---       #291
      0100094DH   LINE      CODE     ---       #292
      0100094DH   LINE      CODE     ---       #294
LX51 LINKER/LOCATER V4.66.30.0                                                        03/29/2016  00:06:41  PAGE 89


      01000950H   LINE      CODE     ---       #295
      01000959H   LINE      CODE     ---       #296
      0100095CH   LINE      CODE     ---       #297
      0100095CH   LINE      CODE     ---       #304
      01000966H   LINE      CODE     ---       #305
      01000966H   LINE      CODE     ---       #306
      0100096FH   LINE      CODE     ---       #307
      0100097EH   LINE      CODE     ---       #308
      0100097EH   LINE      CODE     ---       #309
      0100097EH   LINE      CODE     ---       #310
      0100097EH   LINE      CODE     ---       #311
      01000980H   LINE      CODE     ---       #313
      01000980H   LINE      CODE     ---       #314
      01000989H   LINE      CODE     ---       #315
      01000998H   LINE      CODE     ---       #316
      01000998H   LINE      CODE     ---       #317
      010009A1H   LINE      CODE     ---       #318
      010009A1H   LINE      CODE     ---       #319
      010009A1H   LINE      CODE     ---       #322
      010009A1H   LINE      CODE     ---       #323
      010009A1H   LINE      CODE     ---       #327
      010009A7H   LINE      CODE     ---       #328
      010009A7H   LINE      CODE     ---       #329
      010009B0H   LINE      CODE     ---       #330
      010009CAH   LINE      CODE     ---       #331
      010009CCH   LINE      CODE     ---       #333
      010009CCH   LINE      CODE     ---       #334
      010009FAH   LINE      CODE     ---       #335
      010009FAH   LINE      CODE     ---       #337
      01000A0FH   LINE      CODE     ---       #338
      01000A0FH   LINE      CODE     ---       #340
      01000A0FH   LINE      CODE     ---       #342
      01000A16H   LINE      CODE     ---       #343
      01000A16H   LINE      CODE     ---       #345
      01000A1FH   LINE      CODE     ---       #346
      01000A28H   LINE      CODE     ---       #347
      01000A28H   LINE      CODE     ---       #348
      01000A2EH   LINE      CODE     ---       #349
      01000A3AH   LINE      CODE     ---       #350
      01000A3DH   LINE      CODE     ---       #351
      01000A40H   LINE      CODE     ---       #352
      01000A41H   LINE      CODE     ---       #353
      01000A41H   LINE      CODE     ---       #356
      01000A41H   LINE      CODE     ---       #357
      01000A41H   LINE      CODE     ---       #358
      01000A4FH   LINE      CODE     ---       #359
      01000A58H   LINE      CODE     ---       #360
      01000A58H   LINE      CODE     ---       #361
      01000A58H   LINE      CODE     ---       #365
      01000A58H   LINE      CODE     ---       #366
      01000A61H   LINE      CODE     ---       #368
      ---         BLOCKEND  ---      ---       LVL=0

      01001139H   BLOCK     CODE     ---       LVL=0
      02000190H   SYMBOL    XDATA    ---       req
      0100113FH   BLOCK     CODE     NEAR LAB  LVL=1
      02000193H   SYMBOL    XDATA    ---       payload
      02000196H   SYMBOL    XDATA    ---       cid
      ---         BLOCKEND  ---      ---       LVL=1
      01001139H   LINE      CODE     ---       #371
      0100113FH   LINE      CODE     ---       #372
      0100113FH   LINE      CODE     ---       #373
LX51 LINKER/LOCATER V4.66.30.0                                                        03/29/2016  00:06:41  PAGE 90


      01001148H   LINE      CODE     ---       #374
      01001154H   LINE      CODE     ---       #377
      0100115FH   LINE      CODE     ---       #378
      0100115FH   LINE      CODE     ---       #379
      01001168H   LINE      CODE     ---       #380
      0100116AH   LINE      CODE     ---       #381
      01001179H   LINE      CODE     ---       #382
      01001179H   LINE      CODE     ---       #384
      01001179H   LINE      CODE     ---       #390
      01001179H   LINE      CODE     ---       #392
      01001188H   LINE      CODE     ---       #394
      01001190H   LINE      CODE     ---       #395
      01001190H   LINE      CODE     ---       #396
      01001190H   LINE      CODE     ---       #397
      0100119CH   LINE      CODE     ---       #398
      0100119CH   LINE      CODE     ---       #399
      010011A8H   LINE      CODE     ---       #400
      010011A8H   LINE      CODE     ---       #402
      010011B2H   LINE      CODE     ---       #404
      010011B2H   LINE      CODE     ---       #405
      010011B5H   LINE      CODE     ---       #406
      010011BEH   LINE      CODE     ---       #407
      010011C8H   LINE      CODE     ---       #408
      010011CCH   LINE      CODE     ---       #411
      010011CEH   LINE      CODE     ---       #413
      010011CEH   LINE      CODE     ---       #414
      010011DAH   LINE      CODE     ---       #415
      010011E3H   LINE      CODE     ---       #417
      010011E3H   LINE      CODE     ---       #419
      010011E3H   LINE      CODE     ---       #420
      010011E3H   LINE      CODE     ---       #422
      010011EBH   LINE      CODE     ---       #423
      010011EBH   LINE      CODE     ---       #424
      010011EBH   LINE      CODE     ---       #425
      010011EBH   LINE      CODE     ---       #428
      010011EBH   LINE      CODE     ---       #429
      010011F4H   LINE      CODE     ---       #432
      010011F6H   LINE      CODE     ---       #433
      0100120DH   LINE      CODE     ---       #434
      0100120DH   LINE      CODE     ---       #437
      01001213H   LINE      CODE     ---       #438
      01001216H   LINE      CODE     ---       #439
      0100121FH   LINE      CODE     ---       #440
      01001228H   LINE      CODE     ---       #442
      01001228H   LINE      CODE     ---       #444
      01001228H   LINE      CODE     ---       #447
      01001234H   LINE      CODE     ---       #450
      01001234H   LINE      CODE     ---       #451
      01001234H   LINE      CODE     ---       #453
      01001234H   LINE      CODE     ---       #455
      0100123DH   LINE      CODE     ---       #459
      ---         BLOCKEND  ---      ---       LVL=0

      ---         MODULE    ---      ---       USB_0
      01003CE5H   PUBLIC    CODE     ---       USB_GetIntsEnabled
      00000020H.4 PUBLIC    BIT      BIT       ?_USB_ActivateEp?BIT
      010024FBH   PUBLIC    CODE     ---       _USB_ActivateEp
      01003586H   PUBLIC    CODE     ---       _USB_AbortOutEp
      01003CFFH   PUBLIC    CODE     ---       USB_EpOutGetCount
      01003BDDH   PUBLIC    CODE     ---       USB_EpnGetOutPacketReady
      01003BACH   PUBLIC    CODE     ---       USB_EpnOutGetSentStall
      01003552H   PUBLIC    CODE     ---       _USB_AbortInEp
LX51 LINKER/LOCATER V4.66.30.0                                                        03/29/2016  00:06:41  PAGE 91


      01003B9FH   PUBLIC    CODE     ---       USB_EpnInGetSentStall
      01003C2BH   PUBLIC    CODE     ---       USB_Ep0GetCount
      01003B92H   PUBLIC    CODE     ---       USB_Ep0InPacketReady
      01003BD1H   PUBLIC    CODE     ---       USB_Ep0OutPacketReady
      01003B85H   PUBLIC    CODE     ---       USB_Ep0SentStall
      01003B78H   PUBLIC    CODE     ---       USB_GetSetupEnd
      01003C20H   PUBLIC    CODE     ---       USB_GetIndex
      01003C15H   PUBLIC    CODE     ---       USB_GetOutInts
      01003C0AH   PUBLIC    CODE     ---       USB_GetInInts
      01003BFFH   PUBLIC    CODE     ---       USB_GetCommonInts
      01003BF4H   PUBLIC    CODE     ---       _USB_SetIndex
      000000A2H   SFRSYM    DATA     BYTE      SPI0CKR
      00000080H   SFRSYM    DATA     BYTE      P0
      000000C8H.6 SFRSYM    DATA     BIT       SCON1_PERR
      000000D0H.2 SFRSYM    DATA     BIT       PSW_OV
      00000090H   SFRSYM    DATA     BYTE      P1
      000000F8H.1 SFRSYM    DATA     BIT       SPI0CN0_TXNF
      00000097H   SFRSYM    DATA     BYTE      WDTCN
      000000A0H   SFRSYM    DATA     BYTE      P2
      000000B0H   SFRSYM    DATA     BYTE      P3
      000000BCH   SFRSYM    DATA     BYTE      ADC0CF
      000000C0H.7 SFRSYM    DATA     BIT       SMB0CN0_MASTER
      000000F9H   SFRSYM    DATA     WORD      PCA0
      000000E6H   SFRSYM    DATA     BYTE      EIE1
      000000C0H.1 SFRSYM    DATA     BIT       SMB0CN0_ACK
      000000B3H   SFRSYM    DATA     BYTE      USB0XCN
      000000CEH   SFRSYM    DATA     BYTE      EIE2
      0000008FH   SFRSYM    DATA     BYTE      PSCTL
      000000E4H   SFRSYM    DATA     BYTE      IT01CF
      000000C0H.6 SFRSYM    DATA     BIT       SMB0CN0_TXMODE
      000000ADH   SFRSYM    DATA     BYTE      DERIVID
      000000A7H   SFRSYM    DATA     BYTE      SFRPAGE
      000000A4H   SFRSYM    DATA     BYTE      P0MDOUT
      000000BFH   SFRSYM    DATA     BYTE      USB0CDSTA
      000000A5H   SFRSYM    DATA     BYTE      P1MDOUT
      000000E8H.5 SFRSYM    DATA     BIT       ADC0CN0_ADINT
      000000CBH   SFRSYM    DATA     BYTE      TMR2RLH
      000000A6H   SFRSYM    DATA     BYTE      P2MDOUT
      000000A8H   SFRSYM    DATA     BYTE      IE
      00000093H   SFRSYM    DATA     BYTE      TMR3RLH
      0000009CH   SFRSYM    DATA     BYTE      P3MDOUT
      000000A3H   SFRSYM    DATA     BYTE      TMR4RLH
      000000F3H   SFRSYM    DATA     BYTE      EIP1
      000000F4H   SFRSYM    DATA     BYTE      EIP2
      00000098H.2 SFRSYM    DATA     BIT       SCON0_RB8
      000000CAH   SFRSYM    DATA     BYTE      TMR2RLL
      000000FCH   SFRSYM    DATA     BYTE      PCA0CPH0
      00000092H   SFRSYM    DATA     BYTE      TMR3RLL
      000000EAH   SFRSYM    DATA     BYTE      PCA0CPH1
      00000098H.3 SFRSYM    DATA     BIT       SCON0_TB8
      000000F0H   SFRSYM    DATA     BIT       B_B0
      00000082H   SFRSYM    DATA     WORD      DP
      000000A2H   SFRSYM    DATA     BYTE      TMR4RLL
      000000ECH   SFRSYM    DATA     BYTE      PCA0CPH2
      000000F0H.1 SFRSYM    DATA     BIT       B_B1
      000000C3H   SFRSYM    DATA     WORD      ADC0GT
      000000BDH   SFRSYM    DATA     BYTE      I2C0SLAD
      000000D8H.3 SFRSYM    DATA     BIT       UART1FCN1_RFRQ
      000000F0H.2 SFRSYM    DATA     BIT       B_B2
      000000CFH   SFRSYM    DATA     BYTE      SFRPGCN
      000000FBH   SFRSYM    DATA     BYTE      PCA0CPL0
      000000F0H.3 SFRSYM    DATA     BIT       B_B3
LX51 LINKER/LOCATER V4.66.30.0                                                        03/29/2016  00:06:41  PAGE 92


      000000D9H   SFRSYM    DATA     BYTE      PCA0MD
      000000DAH   SFRSYM    DATA     BYTE      PCA0CPM0
      000000E9H   SFRSYM    DATA     BYTE      PCA0CPL1
      000000D8H.7 SFRSYM    DATA     BIT       UART1FCN1_TFRQ
      000000F0H.4 SFRSYM    DATA     BIT       B_B4
      000000DBH   SFRSYM    DATA     BYTE      PCA0CPM1
      000000EBH   SFRSYM    DATA     BYTE      PCA0CPL2
      000000F0H.5 SFRSYM    DATA     BIT       B_B5
      000000DCH   SFRSYM    DATA     BYTE      PCA0CPM2
      000000B8H   SFRSYM    DATA     BYTE      IP
      000000B9H   SFRSYM    DATA     BYTE      ADC0TK
      000000F0H.6 SFRSYM    DATA     BIT       B_B6
      000000C5H   SFRSYM    DATA     WORD      ADC0LT
      000000D8H.6 SFRSYM    DATA     BIT       UART1FCN1_TXNF
      00000098H.5 SFRSYM    DATA     BIT       SCON0_MCE
      000000F0H.7 SFRSYM    DATA     BIT       B_B7
      000000C3H   SFRSYM    DATA     BYTE      SMB0FCN0
      000000E1H   SFRSYM    DATA     BYTE      XBR0
      000000C4H   SFRSYM    DATA     BYTE      SMB0FCN1
      000000C1H   SFRSYM    DATA     BYTE      SMB0CF
      000000E2H   SFRSYM    DATA     BYTE      XBR1
      000000C1H   SFRSYM    DATA     BYTE      PFE0CN
      000000E7H   SFRSYM    DATA     BYTE      EMI0CN
      000000C0H.5 SFRSYM    DATA     BIT       SMB0CN0_STA
      000000E3H   SFRSYM    DATA     BYTE      XBR2
      000000BBH   SFRSYM    DATA     BYTE      ADC0MX
      000000E0H   SFRSYM    DATA     BIT       ACC_ACC0
      000000D1H   SFRSYM    DATA     BYTE      REF0CN
      0000008EH   SFRSYM    DATA     BYTE      CKCON0
      000000E0H.1 SFRSYM    DATA     BIT       ACC_ACC1
      000000C9H   SFRSYM    DATA     BYTE      REG0CN
      000000DDH   SFRSYM    DATA     BYTE      CRC0IN
      000000A6H   SFRSYM    DATA     BYTE      CKCON1
      000000C8H.2 SFRSYM    DATA     BIT       TMR2CN0_TR2
      000000E0H.2 SFRSYM    DATA     BIT       ACC_ACC2
      000000C6H   SFRSYM    DATA     BYTE      REG1CN
      000000E0H.3 SFRSYM    DATA     BIT       ACC_ACC3
      00000081H   SFRSYM    DATA     BYTE      SP
      0000009DH   SFRSYM    DATA     BYTE      CMP0MD
      000000E0H.4 SFRSYM    DATA     BIT       ACC_ACC4
      000000B1H   SFRSYM    DATA     BYTE      LFO0CN
      000000ABH   SFRSYM    DATA     BYTE      CMP1MD
      000000D8H   SFRSYM    DATA     BIT       PCA0CN0_CCF0
      000000E0H.5 SFRSYM    DATA     BIT       ACC_ACC5
      000000B5H   SFRSYM    DATA     BYTE      USB0CF
      00000098H.2 SFRSYM    DATA     BIT       TMR4CN0_TR4
      000000D8H.1 SFRSYM    DATA     BIT       PCA0CN0_CCF1
      000000E0H.6 SFRSYM    DATA     BIT       ACC_ACC6
      000000CCH   SFRSYM    DATA     WORD      TMR2
      0000009AH   SFRSYM    DATA     BYTE      SPI0FCN0
      000000D8H.2 SFRSYM    DATA     BIT       PCA0CN0_CCF2
      000000E0H.7 SFRSYM    DATA     BIT       ACC_ACC7
      00000094H   SFRSYM    DATA     WORD      TMR3
      0000009BH   SFRSYM    DATA     BYTE      SPI0FCN1
      000000A4H   SFRSYM    DATA     WORD      TMR4
      00000094H   SFRSYM    DATA     BYTE      SBCON1
      000000C0H.3 SFRSYM    DATA     BIT       SMB0CN0_ACKRQ
      000000FFH   SFRSYM    DATA     BYTE      VDM0CN
      000000F1H   SFRSYM    DATA     BYTE      P0MDIN
      00000098H.4 SFRSYM    DATA     BIT       SCON0_REN
      000000ACH   SFRSYM    DATA     BYTE      SMB0TC
      000000F2H   SFRSYM    DATA     BYTE      P1MDIN
LX51 LINKER/LOCATER V4.66.30.0                                                        03/29/2016  00:06:41  PAGE 93


      000000C8H.4 SFRSYM    DATA     BIT       SCON1_REN
      000000F3H   SFRSYM    DATA     BYTE      P2MDIN
      000000C0H.4 SFRSYM    DATA     BIT       SMB0CN0_STO
      000000B6H   SFRSYM    DATA     BYTE      USB0CDCF
      000000F4H   SFRSYM    DATA     BYTE      P3MDIN
      000000B9H   SFRSYM    DATA     BYTE      I2C0STAT
      000000BBH   SFRSYM    DATA     BYTE      I2C0DOUT
      00000096H   SFRSYM    DATA     BYTE      SBRLH1
      000000FEH   SFRSYM    DATA     BYTE      P0MASK
      000000D8H.5 SFRSYM    DATA     BIT       UART1FCN1_TXHOLD
      000000EEH   SFRSYM    DATA     BYTE      P1MASK
      000000FCH   SFRSYM    DATA     BYTE      P2MASK
      000000D0H.3 SFRSYM    DATA     BIT       PSW_RS0
      000000D8H.7 SFRSYM    DATA     BIT       PCA0CN0_CF
      0000009EH   SFRSYM    DATA     BYTE      PCA0CENT
      000000BAH   SFRSYM    DATA     BYTE      I2C0CN0
      000000D2H   SFRSYM    DATA     BYTE      CRC0ST
      000000F8H.4 SFRSYM    DATA     BIT       SPI0CN0_RXOVRN
      000000D0H.4 SFRSYM    DATA     BIT       PSW_RS1
      00000095H   SFRSYM    DATA     BYTE      SBRLL1
      000000C8H.2 SFRSYM    DATA     BIT       SCON1_RBX
      000000C8H   SFRSYM    DATA     BIT       TMR2CN0_T2XCLK0
      000000C8H.1 SFRSYM    DATA     BIT       TMR2CN0_T2XCLK1
      000000C8H.3 SFRSYM    DATA     BIT       SCON1_TBX
      000000E8H.7 SFRSYM    DATA     BIT       ADC0CN0_ADEN
      000000BEH   SFRSYM    DATA     BYTE      USB0CDCN
      00000089H   SFRSYM    DATA     BYTE      TMOD
      00000088H   SFRSYM    DATA     BYTE      TCON
      000000CFH   SFRSYM    DATA     BYTE      CRC0FLIP
      000000D0H   SFRSYM    DATA     BIT       PSW_PARITY
      000000A8H.4 SFRSYM    DATA     BIT       IE_ES0
      0000009FH   SFRSYM    DATA     BYTE      CMP0MX
      00000098H   SFRSYM    DATA     BIT       TMR4CN0_T4XCLK0
      000000A8H.1 SFRSYM    DATA     BIT       IE_ET0
      000000AAH   SFRSYM    DATA     BYTE      CMP1MX
      00000098H.1 SFRSYM    DATA     BIT       TMR4CN0_T4XCLK1
      000000A8H.3 SFRSYM    DATA     BIT       IE_ET1
      000000D4H   SFRSYM    DATA     BYTE      P0SKIP
      000000D8H   SFRSYM    DATA     BIT       UART1FCN1_RIE
      000000A8H.5 SFRSYM    DATA     BIT       IE_ET2
      000000D5H   SFRSYM    DATA     BYTE      P1SKIP
      000000CCH   SFRSYM    DATA     BYTE      P2SKIP
      000000E8H   SFRSYM    DATA     BYTE      ADC0CN0
      000000D8H.4 SFRSYM    DATA     BIT       UART1FCN1_TIE
      000000A8H   SFRSYM    DATA     BIT       IE_EX0
      000000B2H   SFRSYM    DATA     BYTE      ADC0CN1
      000000D8H.6 SFRSYM    DATA     BIT       PCA0CN0_CR
      000000A8H.2 SFRSYM    DATA     BIT       IE_EX1
      000000C8H.7 SFRSYM    DATA     BIT       SCON1_OVR
      00000098H.7 SFRSYM    DATA     BIT       SCON0_SMODE
      000000B5H   SFRSYM    DATA     BYTE      DEVICEID
      000000A9H   SFRSYM    DATA     BYTE      CLKSEL
      000000F8H   SFRSYM    DATA     BIT       SPI0CN0_SPIEN
      000000F0H   SFRSYM    DATA     BYTE      B
      000000BEH   SFRSYM    DATA     BYTE      ADC0H
      000000E8H.6 SFRSYM    DATA     BIT       ADC0CN0_ADBMEN
      000000CAH   SFRSYM    DATA     WORD      TMR2RL
      000000BDH   SFRSYM    DATA     BYTE      ADC0L
      00000092H   SFRSYM    DATA     WORD      TMR3RL
      000000A2H   SFRSYM    DATA     WORD      TMR4RL
      000000D8H   SFRSYM    DATA     BYTE      PCA0CN0
      000000E0H   SFRSYM    DATA     BYTE      ACC
LX51 LINKER/LOCATER V4.66.30.0                                                        03/29/2016  00:06:41  PAGE 94


      000000FBH   SFRSYM    DATA     WORD      PCA0CP0
      000000E9H   SFRSYM    DATA     WORD      PCA0CP1
      000000EBH   SFRSYM    DATA     WORD      PCA0CP2
      000000BCH   SFRSYM    DATA     BYTE      I2C0DIN
      000000CEH   SFRSYM    DATA     BYTE      CRC0CN0
      0000008CH   SFRSYM    DATA     BYTE      TH0
      00000086H   SFRSYM    DATA     BYTE      CRC0CN1
      000000B8H.4 SFRSYM    DATA     BIT       IP_PS0
      000000FAH   SFRSYM    DATA     BYTE      UART1FCT
      0000008DH   SFRSYM    DATA     BYTE      TH1
      000000FAH   SFRSYM    DATA     BYTE      PCA0H
      000000F5H   SFRSYM    DATA     BYTE      I2C0FCT
      000000B8H.1 SFRSYM    DATA     BIT       IP_PT0
      000000B8H.3 SFRSYM    DATA     BIT       IP_PT1
      000000C0H.2 SFRSYM    DATA     BIT       SMB0CN0_ARBLOST
      000000B8H.5 SFRSYM    DATA     BIT       IP_PT2
      0000008AH   SFRSYM    DATA     BYTE      TL0
      000000D0H.5 SFRSYM    DATA     BIT       PSW_F0
      000000A8H.6 SFRSYM    DATA     BIT       IE_ESPI0
      0000008BH   SFRSYM    DATA     BYTE      TL1
      000000F9H   SFRSYM    DATA     BYTE      PCA0L
      000000C0H   SFRSYM    DATA     BIT       SMB0CN0_SI
      000000D0H.1 SFRSYM    DATA     BIT       PSW_F1
      00000080H   SFRSYM    DATA     BIT       P0_B0
      000000B8H   SFRSYM    DATA     BIT       IP_PX0
      00000090H   SFRSYM    DATA     BIT       P1_B0
      00000080H.1 SFRSYM    DATA     BIT       P0_B1
      000000B8H.2 SFRSYM    DATA     BIT       IP_PX1
      0000009EH   SFRSYM    DATA     BYTE      UART1LIN
      0000009BH   SFRSYM    DATA     BYTE      CMP0CN0
      00000088H.1 SFRSYM    DATA     BIT       TCON_IE0
      000000A0H   SFRSYM    DATA     BIT       P2_B0
      00000090H.1 SFRSYM    DATA     BIT       P1_B1
      00000080H.2 SFRSYM    DATA     BIT       P0_B2
      000000BFH   SFRSYM    DATA     BYTE      CMP1CN0
      00000099H   SFRSYM    DATA     BYTE      CMP0CN1
      00000088H.3 SFRSYM    DATA     BIT       TCON_IE1
      000000B0H   SFRSYM    DATA     BIT       P3_B0
      000000A0H.1 SFRSYM    DATA     BIT       P2_B1
      00000090H.2 SFRSYM    DATA     BIT       P1_B2
      00000080H.3 SFRSYM    DATA     BIT       P0_B3
      000000C0H   SFRSYM    DATA     BYTE      SMB0CN0
      000000ACH   SFRSYM    DATA     BYTE      CMP1CN1
      000000B0H.1 SFRSYM    DATA     BIT       P3_B1
      000000A0H.2 SFRSYM    DATA     BIT       P2_B2
      00000090H.3 SFRSYM    DATA     BIT       P1_B3
      00000080H.4 SFRSYM    DATA     BIT       P0_B4
      000000A0H.3 SFRSYM    DATA     BIT       P2_B3
      00000090H.4 SFRSYM    DATA     BIT       P1_B4
      00000080H.5 SFRSYM    DATA     BIT       P0_B5
      000000D8H.1 SFRSYM    DATA     BIT       UART1FCN1_RXTO0
      00000090H.5 SFRSYM    DATA     BIT       P1_B5
      00000080H.6 SFRSYM    DATA     BIT       P0_B6
      000000F5H   SFRSYM    DATA     BYTE      EIP1H
      000000D8H.2 SFRSYM    DATA     BIT       UART1FCN1_RXTO1
      00000090H.6 SFRSYM    DATA     BIT       P1_B6
      00000080H.7 SFRSYM    DATA     BIT       P0_B7
      000000C5H   SFRSYM    DATA     BYTE      SMB0RXLN
      000000F6H   SFRSYM    DATA     BYTE      EIP2H
      00000090H.7 SFRSYM    DATA     BIT       P1_B7
      00000083H   SFRSYM    DATA     BYTE      DPH
      000000C4H   SFRSYM    DATA     BYTE      ADC0GTH
LX51 LINKER/LOCATER V4.66.30.0                                                        03/29/2016  00:06:41  PAGE 95


      000000C8H.7 SFRSYM    DATA     BIT       TMR2CN0_TF2H
      000000C8H.3 SFRSYM    DATA     BIT       TMR2CN0_T2SPLIT
      000000D0H.6 SFRSYM    DATA     BIT       PSW_AC
      000000F8H   SFRSYM    DATA     BYTE      SPI0CN0
      000000C7H   SFRSYM    DATA     BYTE      HFO0CAL
      00000088H.5 SFRSYM    DATA     BIT       TCON_TF0
      00000098H   SFRSYM    DATA     BIT       SCON0_RI
      000000D6H   SFRSYM    DATA     BYTE      HFO1CAL
      00000082H   SFRSYM    DATA     BYTE      DPL
      00000088H.7 SFRSYM    DATA     BIT       TCON_TF1
      000000C8H   SFRSYM    DATA     BIT       SCON1_RI
      00000099H   SFRSYM    DATA     BYTE      SBUF0
      00000087H   SFRSYM    DATA     BYTE      PCON0
      000000F2H   SFRSYM    DATA     BYTE      IPH
      000000C3H   SFRSYM    DATA     BYTE      ADC0GTL
      00000098H.7 SFRSYM    DATA     BIT       TMR4CN0_TF4H
      00000098H.3 SFRSYM    DATA     BIT       TMR4CN0_T4SPLIT
      000000C8H.6 SFRSYM    DATA     BIT       TMR2CN0_TF2L
      00000098H.1 SFRSYM    DATA     BIT       SCON0_TI
      000000E8H   SFRSYM    DATA     BIT       ADC0CN0_ADCM0
      00000092H   SFRSYM    DATA     BYTE      SBUF1
      0000009AH   SFRSYM    DATA     BYTE      PCON1
      000000C6H   SFRSYM    DATA     BYTE      ADC0LTH
      00000088H   SFRSYM    DATA     BIT       TCON_IT0
      000000C8H.1 SFRSYM    DATA     BIT       SCON1_TI
      000000E8H.1 SFRSYM    DATA     BIT       ADC0CN0_ADCM1
      000000EFH   SFRSYM    DATA     BYTE      RSTSRC
      000000FDH   SFRSYM    DATA     BYTE      P0MAT
      000000DEH   SFRSYM    DATA     BYTE      CRC0DAT
      00000088H.2 SFRSYM    DATA     BIT       TCON_IT1
      000000E8H.2 SFRSYM    DATA     BIT       ADC0CN0_ADCM2
      000000D7H   SFRSYM    DATA     BYTE      SFRSTACK
      00000098H   SFRSYM    DATA     BYTE      SCON0
      000000F6H   SFRSYM    DATA     BYTE      PRTDRV
      000000EDH   SFRSYM    DATA     BYTE      P1MAT
      000000E8H.3 SFRSYM    DATA     BIT       ADC0CN0_ADWINT
      00000095H   SFRSYM    DATA     WORD      SBRL1
      000000B2H   SFRSYM    DATA     BYTE      USB0AEC
      00000093H   SFRSYM    DATA     BYTE      SMOD1
      000000C8H   SFRSYM    DATA     BYTE      SCON1
      000000FBH   SFRSYM    DATA     BYTE      P2MAT
      00000098H.6 SFRSYM    DATA     BIT       TMR4CN0_TF4L
      000000E8H.4 SFRSYM    DATA     BIT       ADC0CN0_ADBUSY
      000000D6H   SFRSYM    DATA     BYTE      SMB0ADM
      000000C5H   SFRSYM    DATA     BYTE      ADC0LTL
      000000F8H.5 SFRSYM    DATA     BIT       SPI0CN0_MODF
      000000B8H.6 SFRSYM    DATA     BIT       IP_PSPI0
      0000009CH   SFRSYM    DATA     BYTE      PCA0CLR
      000000C8H   SFRSYM    DATA     BYTE      TMR2CN0
      00000091H   SFRSYM    DATA     BYTE      TMR3CN0
      000000FDH   SFRSYM    DATA     BYTE      TMR2CN1
      00000098H   SFRSYM    DATA     BYTE      TMR4CN0
      000000FEH   SFRSYM    DATA     BYTE      TMR3CN1
      000000FFH   SFRSYM    DATA     BYTE      TMR4CN1
      000000D7H   SFRSYM    DATA     BYTE      SMB0ADR
      00000088H.4 SFRSYM    DATA     BIT       TCON_TR0
      000000C8H.4 SFRSYM    DATA     BIT       TMR2CN0_TF2CEN
      00000088H.6 SFRSYM    DATA     BIT       TCON_TR1
      000000C2H   SFRSYM    DATA     BYTE      SMB0DAT
      000000CDH   SFRSYM    DATA     BYTE      TMR2H
      000000A1H   SFRSYM    DATA     BYTE      SPI0CFG
      00000095H   SFRSYM    DATA     BYTE      TMR3H
LX51 LINKER/LOCATER V4.66.30.0                                                        03/29/2016  00:06:41  PAGE 96


      000000EFH   SFRSYM    DATA     BYTE      HFOCN
      000000D3H   SFRSYM    DATA     BYTE      CRC0CNT
      000000A5H   SFRSYM    DATA     BYTE      TMR4H
      00000098H.4 SFRSYM    DATA     BIT       TMR4CN0_TF4CEN
      000000EFH   SFRSYM    DATA     BYTE      SMB0FCT
      00000096H   SFRSYM    DATA     BYTE      PCA0POL
      000000CCH   SFRSYM    DATA     BYTE      TMR2L
      000000F8H.7 SFRSYM    DATA     BIT       SPI0CN0_SPIF
      000000AEH   SFRSYM    DATA     BYTE      USB0ADR
      00000094H   SFRSYM    DATA     BYTE      TMR3L
      000000DFH   SFRSYM    DATA     BYTE      ADC0PWR
      000000A8H.7 SFRSYM    DATA     BIT       IE_EA
      000000A4H   SFRSYM    DATA     BYTE      TMR4L
      000000AFH   SFRSYM    DATA     BYTE      USB0DAT
      000000C8H.5 SFRSYM    DATA     BIT       TMR2CN0_TF2LEN
      000000F8H.6 SFRSYM    DATA     BIT       SPI0CN0_WCOL
      000000F8H.2 SFRSYM    DATA     BIT       SPI0CN0_NSSMD0
      000000D0H.7 SFRSYM    DATA     BIT       PSW_CY
      0000009DH   SFRSYM    DATA     BYTE      UART1FCN0
      000000A3H   SFRSYM    DATA     BYTE      SPI0DAT
      000000ADH   SFRSYM    DATA     BYTE      I2C0FCN0
      000000F8H.3 SFRSYM    DATA     BIT       SPI0CN0_NSSMD1
      000000BDH   SFRSYM    DATA     WORD      ADC0
      000000D8H   SFRSYM    DATA     BYTE      UART1FCN1
      000000ABH   SFRSYM    DATA     BYTE      I2C0FCN1
      00000098H.5 SFRSYM    DATA     BIT       TMR4CN0_TF4LEN
      000000D0H   SFRSYM    DATA     BYTE      PSW
      000000F7H   SFRSYM    DATA     BYTE      PCA0PWM
      000000F7H   SFRSYM    DATA     BYTE      SPI0FCT
      000000B6H   SFRSYM    DATA     BYTE      REVID
      000000B7H   SFRSYM    DATA     BYTE      FLKEY
      000000B3H   SFRSYM    DATA     BYTE      ADC0AC
      01003740H   SYMBOL    CODE     ---       _USB_GetShortRegister

      01003740H   BLOCK     CODE     ---       LVL=0
      00000005H   SYMBOL    DATA     BYTE      regAddr
      01003742H   BLOCK     CODE     NEAR LAB  LVL=1
      00000006H   SYMBOL    DATA     WORD      retVal
      ---         BLOCKEND  ---      ---       LVL=1
      01003740H   LINE      CODE     ---       #25
      01003742H   LINE      CODE     ---       #26
      01003742H   LINE      CODE     ---       #29
      0100374CH   LINE      CODE     ---       #30
      01003752H   LINE      CODE     ---       #31
      0100375DH   LINE      CODE     ---       #32
      01003762H   LINE      CODE     ---       #34
      01003762H   LINE      CODE     ---       #35
      ---         BLOCKEND  ---      ---       LVL=0

      01003BF4H   BLOCK     CODE     ---       LVL=0
      00000007H   SYMBOL    DATA     BYTE      epsel
      01003BF4H   LINE      CODE     ---       #40
      01003BF4H   LINE      CODE     ---       #41
      01003BF4H   LINE      CODE     ---       #42
      01003BFEH   LINE      CODE     ---       #43
      ---         BLOCKEND  ---      ---       LVL=0

      01003BFFH   BLOCK     CODE     ---       LVL=0
      01003BFFH   LINE      CODE     ---       #45
      01003BFFH   LINE      CODE     ---       #46
      01003BFFH   LINE      CODE     ---       #47
      01003C07H   LINE      CODE     ---       #48
LX51 LINKER/LOCATER V4.66.30.0                                                        03/29/2016  00:06:41  PAGE 97


      01003C09H   LINE      CODE     ---       #49
      ---         BLOCKEND  ---      ---       LVL=0

      01003C0AH   BLOCK     CODE     ---       LVL=0
      01003C0AH   LINE      CODE     ---       #51
      01003C0AH   LINE      CODE     ---       #52
      01003C0AH   LINE      CODE     ---       #53
      01003C12H   LINE      CODE     ---       #54
      01003C14H   LINE      CODE     ---       #55
      ---         BLOCKEND  ---      ---       LVL=0

      01003C15H   BLOCK     CODE     ---       LVL=0
      01003C15H   LINE      CODE     ---       #57
      01003C15H   LINE      CODE     ---       #58
      01003C15H   LINE      CODE     ---       #59
      01003C1DH   LINE      CODE     ---       #60
      01003C1FH   LINE      CODE     ---       #61
      ---         BLOCKEND  ---      ---       LVL=0

      01003C20H   BLOCK     CODE     ---       LVL=0
      01003C20H   LINE      CODE     ---       #63
      01003C20H   LINE      CODE     ---       #64
      01003C20H   LINE      CODE     ---       #65
      01003C28H   LINE      CODE     ---       #66
      01003C2AH   LINE      CODE     ---       #67
      ---         BLOCKEND  ---      ---       LVL=0

      01003B78H   BLOCK     CODE     ---       LVL=0
      01003B78H   LINE      CODE     ---       #75
      01003B78H   LINE      CODE     ---       #76
      01003B78H   LINE      CODE     ---       #77
      01003B80H   LINE      CODE     ---       #78
      01003B84H   LINE      CODE     ---       #79
      ---         BLOCKEND  ---      ---       LVL=0

      01003B85H   BLOCK     CODE     ---       LVL=0
      01003B85H   LINE      CODE     ---       #81
      01003B85H   LINE      CODE     ---       #82
      01003B85H   LINE      CODE     ---       #83
      01003B8DH   LINE      CODE     ---       #84
      01003B91H   LINE      CODE     ---       #85
      ---         BLOCKEND  ---      ---       LVL=0

      01003BD1H   BLOCK     CODE     ---       LVL=0
      01003BD1H   LINE      CODE     ---       #87
      01003BD1H   LINE      CODE     ---       #88
      01003BD1H   LINE      CODE     ---       #89
      01003BD9H   LINE      CODE     ---       #90
      01003BDCH   LINE      CODE     ---       #91
      ---         BLOCKEND  ---      ---       LVL=0

      01003B92H   BLOCK     CODE     ---       LVL=0
      01003B92H   LINE      CODE     ---       #93
      01003B92H   LINE      CODE     ---       #94
      01003B92H   LINE      CODE     ---       #95
      01003B9AH   LINE      CODE     ---       #96
      01003B9EH   LINE      CODE     ---       #97
      ---         BLOCKEND  ---      ---       LVL=0

      01003C2BH   BLOCK     CODE     ---       LVL=0
      01003C2BH   LINE      CODE     ---       #99
      01003C2BH   LINE      CODE     ---       #100
LX51 LINKER/LOCATER V4.66.30.0                                                        03/29/2016  00:06:41  PAGE 98


      01003C2BH   LINE      CODE     ---       #101
      01003C33H   LINE      CODE     ---       #102
      01003C35H   LINE      CODE     ---       #103
      ---         BLOCKEND  ---      ---       LVL=0

      01003B9FH   BLOCK     CODE     ---       LVL=0
      01003B9FH   LINE      CODE     ---       #105
      01003B9FH   LINE      CODE     ---       #106
      01003B9FH   LINE      CODE     ---       #107
      01003BA7H   LINE      CODE     ---       #108
      01003BABH   LINE      CODE     ---       #109
      ---         BLOCKEND  ---      ---       LVL=0

      01003552H   BLOCK     CODE     ---       LVL=0
      00000007H   SYMBOL    DATA     BYTE      fifoNum
      01003552H   LINE      CODE     ---       #111
      01003552H   LINE      CODE     ---       #112
      01003552H   LINE      CODE     ---       #113
      01003555H   LINE      CODE     ---       #114
      0100356DH   LINE      CODE     ---       #115
      01003585H   LINE      CODE     ---       #116
      ---         BLOCKEND  ---      ---       LVL=0

      01003BACH   BLOCK     CODE     ---       LVL=0
      01003BACH   LINE      CODE     ---       #118
      01003BACH   LINE      CODE     ---       #119
      01003BACH   LINE      CODE     ---       #120
      01003BB4H   LINE      CODE     ---       #121
      01003BB8H   LINE      CODE     ---       #122
      ---         BLOCKEND  ---      ---       LVL=0

      01003BDDH   BLOCK     CODE     ---       LVL=0
      01003BDDH   LINE      CODE     ---       #124
      01003BDDH   LINE      CODE     ---       #125
      01003BDDH   LINE      CODE     ---       #126
      01003BE5H   LINE      CODE     ---       #127
      01003BE8H   LINE      CODE     ---       #128
      ---         BLOCKEND  ---      ---       LVL=0

      01003CFFH   BLOCK     CODE     ---       LVL=0
      01003CFFH   LINE      CODE     ---       #130
      01003CFFH   LINE      CODE     ---       #131
      01003CFFH   LINE      CODE     ---       #132
      01003D04H   LINE      CODE     ---       #133
      ---         BLOCKEND  ---      ---       LVL=0

      01003586H   BLOCK     CODE     ---       LVL=0
      00000007H   SYMBOL    DATA     BYTE      fifoNum
      01003586H   LINE      CODE     ---       #135
      01003586H   LINE      CODE     ---       #136
      01003586H   LINE      CODE     ---       #137
      01003589H   LINE      CODE     ---       #138
      010035A1H   LINE      CODE     ---       #139
      010035B9H   LINE      CODE     ---       #140
      ---         BLOCKEND  ---      ---       LVL=0

      010024FBH   BLOCK     CODE     ---       LVL=0
      00000006H   SYMBOL    DATA     BYTE      ep
      00000004H   SYMBOL    DATA     WORD      packetSize
      00000020H.4 SYMBOL    BIT      BIT       inDir
      00000020H.5 SYMBOL    BIT      BIT       splitMode
      00000020H.6 SYMBOL    BIT      BIT       isoMode
LX51 LINKER/LOCATER V4.66.30.0                                                        03/29/2016  00:06:41  PAGE 99


      010024FDH   BLOCK     CODE     NEAR LAB  LVL=1
      00000003H   SYMBOL    DATA     BYTE      CSRH_mask
      00000006H   SYMBOL    DATA     WORD      fifoSize
      ---         BLOCKEND  ---      ---       LVL=1
      010024FBH   LINE      CODE     ---       #142
      010024FDH   LINE      CODE     ---       #147
      010024FDH   LINE      CODE     ---       #148
      010024FFH   LINE      CODE     ---       #151
      01002502H   LINE      CODE     ---       #155
      0100252BH   LINE      CODE     ---       #157
      01002532H   LINE      CODE     ---       #158
      01002532H   LINE      CODE     ---       #159
      01002536H   LINE      CODE     ---       #160
      01002536H   LINE      CODE     ---       #162
      01002539H   LINE      CODE     ---       #163
      01002539H   LINE      CODE     ---       #164
      0100253DH   LINE      CODE     ---       #165
      0100253DH   LINE      CODE     ---       #167
      01002540H   LINE      CODE     ---       #168
      01002540H   LINE      CODE     ---       #169
      01002544H   LINE      CODE     ---       #171
      01002547H   LINE      CODE     ---       #172
      01002547H   LINE      CODE     ---       #173
      0100254AH   LINE      CODE     ---       #174
      0100254AH   LINE      CODE     ---       #175
      01002555H   LINE      CODE     ---       #176
      01002561H   LINE      CODE     ---       #179
      01002561H   LINE      CODE     ---       #180
      0100256CH   LINE      CODE     ---       #181
      01002578H   LINE      CODE     ---       #183
      0100257BH   LINE      CODE     ---       #184
      0100257BH   LINE      CODE     ---       #185
      01002586H   LINE      CODE     ---       #186
      01002586H   LINE      CODE     ---       #187
      01002586H   LINE      CODE     ---       #188
      ---         BLOCKEND  ---      ---       LVL=0

      01003CE5H   BLOCK     CODE     ---       LVL=0
      01003CE5H   LINE      CODE     ---       #195
      01003CE5H   LINE      CODE     ---       #196
      01003CE5H   LINE      CODE     ---       #197
      01003CE8H   LINE      CODE     ---       #198
      01003CEBH   LINE      CODE     ---       #199
      ---         BLOCKEND  ---      ---       LVL=0
      00000007H   SYMBOL    DATA     BYTE      clkSelSave

      ---         MODULE    ---      ---       EFM8_USBD
      02000343H   PUBLIC    XDATA    ---       myUsbDevice
      01003171H   PUBLIC    CODE     ---       _USBD_SetUsbState
      00000020H.3 PUBLIC    BIT      BIT       ?_USBD_Write?BIT
      02000256H   PUBLIC    XDATA    BYTE      ?_USBD_Write?BYTE
      0100178DH   PUBLIC    CODE     ---       _USBD_Write
      00000020H.0 PUBLIC    BIT      BIT       ?_USBD_Read?BIT
      02000190H   PUBLIC    XDATA    BYTE      ?_USBD_Read?BYTE
      01001D8CH   PUBLIC    CODE     ---       _USBD_Read
      0100218FH   PUBLIC    CODE     ---       _USBD_Init
      010036A1H   PUBLIC    CODE     ---       _USBD_EpIsBusy
      010039E2H   PUBLIC    CODE     ---       USBD_Connect
      0100260AH   PUBLIC    CODE     ---       _USBD_AbortTransfer
      010034B2H   PUBLIC    CODE     ---       USBD_AbortAllTransfers
      000000A2H   SFRSYM    DATA     BYTE      SPI0CKR
      00000080H   SFRSYM    DATA     BYTE      P0
LX51 LINKER/LOCATER V4.66.30.0                                                        03/29/2016  00:06:41  PAGE 100


      000000C8H.6 SFRSYM    DATA     BIT       SCON1_PERR
      000000D0H.2 SFRSYM    DATA     BIT       PSW_OV
      00000090H   SFRSYM    DATA     BYTE      P1
      000000F8H.1 SFRSYM    DATA     BIT       SPI0CN0_TXNF
      00000097H   SFRSYM    DATA     BYTE      WDTCN
      000000A0H   SFRSYM    DATA     BYTE      P2
      000000B0H   SFRSYM    DATA     BYTE      P3
      000000BCH   SFRSYM    DATA     BYTE      ADC0CF
      000000C0H.7 SFRSYM    DATA     BIT       SMB0CN0_MASTER
      000000F9H   SFRSYM    DATA     WORD      PCA0
      000000E6H   SFRSYM    DATA     BYTE      EIE1
      000000C0H.1 SFRSYM    DATA     BIT       SMB0CN0_ACK
      000000B3H   SFRSYM    DATA     BYTE      USB0XCN
      000000CEH   SFRSYM    DATA     BYTE      EIE2
      0000008FH   SFRSYM    DATA     BYTE      PSCTL
      000000E4H   SFRSYM    DATA     BYTE      IT01CF
      000000C0H.6 SFRSYM    DATA     BIT       SMB0CN0_TXMODE
      000000ADH   SFRSYM    DATA     BYTE      DERIVID
      000000A7H   SFRSYM    DATA     BYTE      SFRPAGE
      000000A4H   SFRSYM    DATA     BYTE      P0MDOUT
      000000BFH   SFRSYM    DATA     BYTE      USB0CDSTA
      000000A5H   SFRSYM    DATA     BYTE      P1MDOUT
      000000E8H.5 SFRSYM    DATA     BIT       ADC0CN0_ADINT
      000000CBH   SFRSYM    DATA     BYTE      TMR2RLH
      000000A6H   SFRSYM    DATA     BYTE      P2MDOUT
      000000A8H   SFRSYM    DATA     BYTE      IE
      00000093H   SFRSYM    DATA     BYTE      TMR3RLH
      0000009CH   SFRSYM    DATA     BYTE      P3MDOUT
      000000A3H   SFRSYM    DATA     BYTE      TMR4RLH
      000000F3H   SFRSYM    DATA     BYTE      EIP1
      000000F4H   SFRSYM    DATA     BYTE      EIP2
      00000098H.2 SFRSYM    DATA     BIT       SCON0_RB8
      000000CAH   SFRSYM    DATA     BYTE      TMR2RLL
      000000FCH   SFRSYM    DATA     BYTE      PCA0CPH0
      00000092H   SFRSYM    DATA     BYTE      TMR3RLL
      000000EAH   SFRSYM    DATA     BYTE      PCA0CPH1
      00000098H.3 SFRSYM    DATA     BIT       SCON0_TB8
      000000F0H   SFRSYM    DATA     BIT       B_B0
      00000082H   SFRSYM    DATA     WORD      DP
      000000A2H   SFRSYM    DATA     BYTE      TMR4RLL
      000000ECH   SFRSYM    DATA     BYTE      PCA0CPH2
      000000F0H.1 SFRSYM    DATA     BIT       B_B1
      000000C3H   SFRSYM    DATA     WORD      ADC0GT
      000000BDH   SFRSYM    DATA     BYTE      I2C0SLAD
      000000D8H.3 SFRSYM    DATA     BIT       UART1FCN1_RFRQ
      000000F0H.2 SFRSYM    DATA     BIT       B_B2
      000000CFH   SFRSYM    DATA     BYTE      SFRPGCN
      000000FBH   SFRSYM    DATA     BYTE      PCA0CPL0
      000000F0H.3 SFRSYM    DATA     BIT       B_B3
      000000D9H   SFRSYM    DATA     BYTE      PCA0MD
      000000DAH   SFRSYM    DATA     BYTE      PCA0CPM0
      000000E9H   SFRSYM    DATA     BYTE      PCA0CPL1
      000000D8H.7 SFRSYM    DATA     BIT       UART1FCN1_TFRQ
      000000F0H.4 SFRSYM    DATA     BIT       B_B4
      000000DBH   SFRSYM    DATA     BYTE      PCA0CPM1
      000000EBH   SFRSYM    DATA     BYTE      PCA0CPL2
      000000F0H.5 SFRSYM    DATA     BIT       B_B5
      000000DCH   SFRSYM    DATA     BYTE      PCA0CPM2
      000000B8H   SFRSYM    DATA     BYTE      IP
      000000B9H   SFRSYM    DATA     BYTE      ADC0TK
      000000F0H.6 SFRSYM    DATA     BIT       B_B6
      000000C5H   SFRSYM    DATA     WORD      ADC0LT
LX51 LINKER/LOCATER V4.66.30.0                                                        03/29/2016  00:06:41  PAGE 101


      000000D8H.6 SFRSYM    DATA     BIT       UART1FCN1_TXNF
      00000098H.5 SFRSYM    DATA     BIT       SCON0_MCE
      000000F0H.7 SFRSYM    DATA     BIT       B_B7
      000000C3H   SFRSYM    DATA     BYTE      SMB0FCN0
      000000E1H   SFRSYM    DATA     BYTE      XBR0
      000000C4H   SFRSYM    DATA     BYTE      SMB0FCN1
      000000C1H   SFRSYM    DATA     BYTE      SMB0CF
      000000E2H   SFRSYM    DATA     BYTE      XBR1
      000000C1H   SFRSYM    DATA     BYTE      PFE0CN
      000000E7H   SFRSYM    DATA     BYTE      EMI0CN
      000000C0H.5 SFRSYM    DATA     BIT       SMB0CN0_STA
      000000E3H   SFRSYM    DATA     BYTE      XBR2
      000000BBH   SFRSYM    DATA     BYTE      ADC0MX
      000000E0H   SFRSYM    DATA     BIT       ACC_ACC0
      000000D1H   SFRSYM    DATA     BYTE      REF0CN
      0000008EH   SFRSYM    DATA     BYTE      CKCON0
      000000E0H.1 SFRSYM    DATA     BIT       ACC_ACC1
      000000C9H   SFRSYM    DATA     BYTE      REG0CN
      000000DDH   SFRSYM    DATA     BYTE      CRC0IN
      000000A6H   SFRSYM    DATA     BYTE      CKCON1
      000000C8H.2 SFRSYM    DATA     BIT       TMR2CN0_TR2
      000000E0H.2 SFRSYM    DATA     BIT       ACC_ACC2
      000000C6H   SFRSYM    DATA     BYTE      REG1CN
      000000E0H.3 SFRSYM    DATA     BIT       ACC_ACC3
      00000081H   SFRSYM    DATA     BYTE      SP
      0000009DH   SFRSYM    DATA     BYTE      CMP0MD
      000000E0H.4 SFRSYM    DATA     BIT       ACC_ACC4
      000000B1H   SFRSYM    DATA     BYTE      LFO0CN
      000000ABH   SFRSYM    DATA     BYTE      CMP1MD
      000000D8H   SFRSYM    DATA     BIT       PCA0CN0_CCF0
      000000E0H.5 SFRSYM    DATA     BIT       ACC_ACC5
      000000B5H   SFRSYM    DATA     BYTE      USB0CF
      00000098H.2 SFRSYM    DATA     BIT       TMR4CN0_TR4
      000000D8H.1 SFRSYM    DATA     BIT       PCA0CN0_CCF1
      000000E0H.6 SFRSYM    DATA     BIT       ACC_ACC6
      000000CCH   SFRSYM    DATA     WORD      TMR2
      0000009AH   SFRSYM    DATA     BYTE      SPI0FCN0
      000000D8H.2 SFRSYM    DATA     BIT       PCA0CN0_CCF2
      000000E0H.7 SFRSYM    DATA     BIT       ACC_ACC7
      00000094H   SFRSYM    DATA     WORD      TMR3
      0000009BH   SFRSYM    DATA     BYTE      SPI0FCN1
      000000A4H   SFRSYM    DATA     WORD      TMR4
      00000094H   SFRSYM    DATA     BYTE      SBCON1
      000000C0H.3 SFRSYM    DATA     BIT       SMB0CN0_ACKRQ
      000000FFH   SFRSYM    DATA     BYTE      VDM0CN
      000000F1H   SFRSYM    DATA     BYTE      P0MDIN
      00000098H.4 SFRSYM    DATA     BIT       SCON0_REN
      000000ACH   SFRSYM    DATA     BYTE      SMB0TC
      000000F2H   SFRSYM    DATA     BYTE      P1MDIN
      000000C8H.4 SFRSYM    DATA     BIT       SCON1_REN
      000000F3H   SFRSYM    DATA     BYTE      P2MDIN
      000000C0H.4 SFRSYM    DATA     BIT       SMB0CN0_STO
      000000B6H   SFRSYM    DATA     BYTE      USB0CDCF
      000000F4H   SFRSYM    DATA     BYTE      P3MDIN
      000000B9H   SFRSYM    DATA     BYTE      I2C0STAT
      000000BBH   SFRSYM    DATA     BYTE      I2C0DOUT
      00000096H   SFRSYM    DATA     BYTE      SBRLH1
      000000FEH   SFRSYM    DATA     BYTE      P0MASK
      000000D8H.5 SFRSYM    DATA     BIT       UART1FCN1_TXHOLD
      000000EEH   SFRSYM    DATA     BYTE      P1MASK
      000000FCH   SFRSYM    DATA     BYTE      P2MASK
      000000D0H.3 SFRSYM    DATA     BIT       PSW_RS0
LX51 LINKER/LOCATER V4.66.30.0                                                        03/29/2016  00:06:41  PAGE 102


      000000D8H.7 SFRSYM    DATA     BIT       PCA0CN0_CF
      0000009EH   SFRSYM    DATA     BYTE      PCA0CENT
      000000BAH   SFRSYM    DATA     BYTE      I2C0CN0
      000000D2H   SFRSYM    DATA     BYTE      CRC0ST
      000000F8H.4 SFRSYM    DATA     BIT       SPI0CN0_RXOVRN
      000000D0H.4 SFRSYM    DATA     BIT       PSW_RS1
      00000095H   SFRSYM    DATA     BYTE      SBRLL1
      000000C8H.2 SFRSYM    DATA     BIT       SCON1_RBX
      000000C8H   SFRSYM    DATA     BIT       TMR2CN0_T2XCLK0
      000000C8H.1 SFRSYM    DATA     BIT       TMR2CN0_T2XCLK1
      000000C8H.3 SFRSYM    DATA     BIT       SCON1_TBX
      000000E8H.7 SFRSYM    DATA     BIT       ADC0CN0_ADEN
      000000BEH   SFRSYM    DATA     BYTE      USB0CDCN
      00000089H   SFRSYM    DATA     BYTE      TMOD
      00000088H   SFRSYM    DATA     BYTE      TCON
      000000CFH   SFRSYM    DATA     BYTE      CRC0FLIP
      000000D0H   SFRSYM    DATA     BIT       PSW_PARITY
      000000A8H.4 SFRSYM    DATA     BIT       IE_ES0
      0000009FH   SFRSYM    DATA     BYTE      CMP0MX
      00000098H   SFRSYM    DATA     BIT       TMR4CN0_T4XCLK0
      000000A8H.1 SFRSYM    DATA     BIT       IE_ET0
      000000AAH   SFRSYM    DATA     BYTE      CMP1MX
      00000098H.1 SFRSYM    DATA     BIT       TMR4CN0_T4XCLK1
      000000A8H.3 SFRSYM    DATA     BIT       IE_ET1
      000000D4H   SFRSYM    DATA     BYTE      P0SKIP
      000000D8H   SFRSYM    DATA     BIT       UART1FCN1_RIE
      000000A8H.5 SFRSYM    DATA     BIT       IE_ET2
      000000D5H   SFRSYM    DATA     BYTE      P1SKIP
      000000CCH   SFRSYM    DATA     BYTE      P2SKIP
      000000E8H   SFRSYM    DATA     BYTE      ADC0CN0
      000000D8H.4 SFRSYM    DATA     BIT       UART1FCN1_TIE
      000000A8H   SFRSYM    DATA     BIT       IE_EX0
      000000B2H   SFRSYM    DATA     BYTE      ADC0CN1
      000000D8H.6 SFRSYM    DATA     BIT       PCA0CN0_CR
      000000A8H.2 SFRSYM    DATA     BIT       IE_EX1
      000000C8H.7 SFRSYM    DATA     BIT       SCON1_OVR
      00000098H.7 SFRSYM    DATA     BIT       SCON0_SMODE
      000000B5H   SFRSYM    DATA     BYTE      DEVICEID
      000000A9H   SFRSYM    DATA     BYTE      CLKSEL
      000000F8H   SFRSYM    DATA     BIT       SPI0CN0_SPIEN
      000000F0H   SFRSYM    DATA     BYTE      B
      000000BEH   SFRSYM    DATA     BYTE      ADC0H
      000000E8H.6 SFRSYM    DATA     BIT       ADC0CN0_ADBMEN
      000000CAH   SFRSYM    DATA     WORD      TMR2RL
      000000BDH   SFRSYM    DATA     BYTE      ADC0L
      00000092H   SFRSYM    DATA     WORD      TMR3RL
      000000A2H   SFRSYM    DATA     WORD      TMR4RL
      000000D8H   SFRSYM    DATA     BYTE      PCA0CN0
      000000E0H   SFRSYM    DATA     BYTE      ACC
      000000FBH   SFRSYM    DATA     WORD      PCA0CP0
      000000E9H   SFRSYM    DATA     WORD      PCA0CP1
      000000EBH   SFRSYM    DATA     WORD      PCA0CP2
      000000BCH   SFRSYM    DATA     BYTE      I2C0DIN
      000000CEH   SFRSYM    DATA     BYTE      CRC0CN0
      0000008CH   SFRSYM    DATA     BYTE      TH0
      00000086H   SFRSYM    DATA     BYTE      CRC0CN1
      000000B8H.4 SFRSYM    DATA     BIT       IP_PS0
      000000FAH   SFRSYM    DATA     BYTE      UART1FCT
      0000008DH   SFRSYM    DATA     BYTE      TH1
      000000FAH   SFRSYM    DATA     BYTE      PCA0H
      000000F5H   SFRSYM    DATA     BYTE      I2C0FCT
      000000B8H.1 SFRSYM    DATA     BIT       IP_PT0
LX51 LINKER/LOCATER V4.66.30.0                                                        03/29/2016  00:06:41  PAGE 103


      000000B8H.3 SFRSYM    DATA     BIT       IP_PT1
      000000C0H.2 SFRSYM    DATA     BIT       SMB0CN0_ARBLOST
      000000B8H.5 SFRSYM    DATA     BIT       IP_PT2
      0000008AH   SFRSYM    DATA     BYTE      TL0
      000000D0H.5 SFRSYM    DATA     BIT       PSW_F0
      000000A8H.6 SFRSYM    DATA     BIT       IE_ESPI0
      0000008BH   SFRSYM    DATA     BYTE      TL1
      000000F9H   SFRSYM    DATA     BYTE      PCA0L
      000000C0H   SFRSYM    DATA     BIT       SMB0CN0_SI
      000000D0H.1 SFRSYM    DATA     BIT       PSW_F1
      00000080H   SFRSYM    DATA     BIT       P0_B0
      000000B8H   SFRSYM    DATA     BIT       IP_PX0
      00000090H   SFRSYM    DATA     BIT       P1_B0
      00000080H.1 SFRSYM    DATA     BIT       P0_B1
      000000B8H.2 SFRSYM    DATA     BIT       IP_PX1
      0000009EH   SFRSYM    DATA     BYTE      UART1LIN
      0000009BH   SFRSYM    DATA     BYTE      CMP0CN0
      00000088H.1 SFRSYM    DATA     BIT       TCON_IE0
      000000A0H   SFRSYM    DATA     BIT       P2_B0
      00000090H.1 SFRSYM    DATA     BIT       P1_B1
      00000080H.2 SFRSYM    DATA     BIT       P0_B2
      000000BFH   SFRSYM    DATA     BYTE      CMP1CN0
      00000099H   SFRSYM    DATA     BYTE      CMP0CN1
      00000088H.3 SFRSYM    DATA     BIT       TCON_IE1
      000000B0H   SFRSYM    DATA     BIT       P3_B0
      000000A0H.1 SFRSYM    DATA     BIT       P2_B1
      00000090H.2 SFRSYM    DATA     BIT       P1_B2
      00000080H.3 SFRSYM    DATA     BIT       P0_B3
      000000C0H   SFRSYM    DATA     BYTE      SMB0CN0
      000000ACH   SFRSYM    DATA     BYTE      CMP1CN1
      000000B0H.1 SFRSYM    DATA     BIT       P3_B1
      000000A0H.2 SFRSYM    DATA     BIT       P2_B2
      00000090H.3 SFRSYM    DATA     BIT       P1_B3
      00000080H.4 SFRSYM    DATA     BIT       P0_B4
      000000A0H.3 SFRSYM    DATA     BIT       P2_B3
      00000090H.4 SFRSYM    DATA     BIT       P1_B4
      00000080H.5 SFRSYM    DATA     BIT       P0_B5
      000000D8H.1 SFRSYM    DATA     BIT       UART1FCN1_RXTO0
      00000090H.5 SFRSYM    DATA     BIT       P1_B5
      00000080H.6 SFRSYM    DATA     BIT       P0_B6
      000000F5H   SFRSYM    DATA     BYTE      EIP1H
      000000D8H.2 SFRSYM    DATA     BIT       UART1FCN1_RXTO1
      00000090H.6 SFRSYM    DATA     BIT       P1_B6
      00000080H.7 SFRSYM    DATA     BIT       P0_B7
      000000C5H   SFRSYM    DATA     BYTE      SMB0RXLN
      000000F6H   SFRSYM    DATA     BYTE      EIP2H
      00000090H.7 SFRSYM    DATA     BIT       P1_B7
      00000083H   SFRSYM    DATA     BYTE      DPH
      000000C4H   SFRSYM    DATA     BYTE      ADC0GTH
      000000C8H.7 SFRSYM    DATA     BIT       TMR2CN0_TF2H
      000000C8H.3 SFRSYM    DATA     BIT       TMR2CN0_T2SPLIT
      000000D0H.6 SFRSYM    DATA     BIT       PSW_AC
      000000F8H   SFRSYM    DATA     BYTE      SPI0CN0
      000000C7H   SFRSYM    DATA     BYTE      HFO0CAL
      00000088H.5 SFRSYM    DATA     BIT       TCON_TF0
      00000098H   SFRSYM    DATA     BIT       SCON0_RI
      000000D6H   SFRSYM    DATA     BYTE      HFO1CAL
      00000082H   SFRSYM    DATA     BYTE      DPL
      00000088H.7 SFRSYM    DATA     BIT       TCON_TF1
      000000C8H   SFRSYM    DATA     BIT       SCON1_RI
      00000099H   SFRSYM    DATA     BYTE      SBUF0
      00000087H   SFRSYM    DATA     BYTE      PCON0
LX51 LINKER/LOCATER V4.66.30.0                                                        03/29/2016  00:06:41  PAGE 104


      000000F2H   SFRSYM    DATA     BYTE      IPH
      000000C3H   SFRSYM    DATA     BYTE      ADC0GTL
      00000098H.7 SFRSYM    DATA     BIT       TMR4CN0_TF4H
      00000098H.3 SFRSYM    DATA     BIT       TMR4CN0_T4SPLIT
      000000C8H.6 SFRSYM    DATA     BIT       TMR2CN0_TF2L
      00000098H.1 SFRSYM    DATA     BIT       SCON0_TI
      000000E8H   SFRSYM    DATA     BIT       ADC0CN0_ADCM0
      00000092H   SFRSYM    DATA     BYTE      SBUF1
      0000009AH   SFRSYM    DATA     BYTE      PCON1
      000000C6H   SFRSYM    DATA     BYTE      ADC0LTH
      00000088H   SFRSYM    DATA     BIT       TCON_IT0
      000000C8H.1 SFRSYM    DATA     BIT       SCON1_TI
      000000E8H.1 SFRSYM    DATA     BIT       ADC0CN0_ADCM1
      000000EFH   SFRSYM    DATA     BYTE      RSTSRC
      000000FDH   SFRSYM    DATA     BYTE      P0MAT
      000000DEH   SFRSYM    DATA     BYTE      CRC0DAT
      00000088H.2 SFRSYM    DATA     BIT       TCON_IT1
      000000E8H.2 SFRSYM    DATA     BIT       ADC0CN0_ADCM2
      000000D7H   SFRSYM    DATA     BYTE      SFRSTACK
      00000098H   SFRSYM    DATA     BYTE      SCON0
      000000F6H   SFRSYM    DATA     BYTE      PRTDRV
      000000EDH   SFRSYM    DATA     BYTE      P1MAT
      000000E8H.3 SFRSYM    DATA     BIT       ADC0CN0_ADWINT
      00000095H   SFRSYM    DATA     WORD      SBRL1
      000000B2H   SFRSYM    DATA     BYTE      USB0AEC
      00000093H   SFRSYM    DATA     BYTE      SMOD1
      000000C8H   SFRSYM    DATA     BYTE      SCON1
      000000FBH   SFRSYM    DATA     BYTE      P2MAT
      00000098H.6 SFRSYM    DATA     BIT       TMR4CN0_TF4L
      000000E8H.4 SFRSYM    DATA     BIT       ADC0CN0_ADBUSY
      000000D6H   SFRSYM    DATA     BYTE      SMB0ADM
      000000C5H   SFRSYM    DATA     BYTE      ADC0LTL
      000000F8H.5 SFRSYM    DATA     BIT       SPI0CN0_MODF
      000000B8H.6 SFRSYM    DATA     BIT       IP_PSPI0
      0000009CH   SFRSYM    DATA     BYTE      PCA0CLR
      000000C8H   SFRSYM    DATA     BYTE      TMR2CN0
      00000091H   SFRSYM    DATA     BYTE      TMR3CN0
      000000FDH   SFRSYM    DATA     BYTE      TMR2CN1
      00000098H   SFRSYM    DATA     BYTE      TMR4CN0
      000000FEH   SFRSYM    DATA     BYTE      TMR3CN1
      000000FFH   SFRSYM    DATA     BYTE      TMR4CN1
      000000D7H   SFRSYM    DATA     BYTE      SMB0ADR
      00000088H.4 SFRSYM    DATA     BIT       TCON_TR0
      000000C8H.4 SFRSYM    DATA     BIT       TMR2CN0_TF2CEN
      00000088H.6 SFRSYM    DATA     BIT       TCON_TR1
      000000C2H   SFRSYM    DATA     BYTE      SMB0DAT
      000000CDH   SFRSYM    DATA     BYTE      TMR2H
      000000A1H   SFRSYM    DATA     BYTE      SPI0CFG
      00000095H   SFRSYM    DATA     BYTE      TMR3H
      000000EFH   SFRSYM    DATA     BYTE      HFOCN
      000000D3H   SFRSYM    DATA     BYTE      CRC0CNT
      000000A5H   SFRSYM    DATA     BYTE      TMR4H
      00000098H.4 SFRSYM    DATA     BIT       TMR4CN0_TF4CEN
      000000EFH   SFRSYM    DATA     BYTE      SMB0FCT
      00000096H   SFRSYM    DATA     BYTE      PCA0POL
      000000CCH   SFRSYM    DATA     BYTE      TMR2L
      000000F8H.7 SFRSYM    DATA     BIT       SPI0CN0_SPIF
      000000AEH   SFRSYM    DATA     BYTE      USB0ADR
      00000094H   SFRSYM    DATA     BYTE      TMR3L
      000000DFH   SFRSYM    DATA     BYTE      ADC0PWR
      000000A8H.7 SFRSYM    DATA     BIT       IE_EA
      000000A4H   SFRSYM    DATA     BYTE      TMR4L
LX51 LINKER/LOCATER V4.66.30.0                                                        03/29/2016  00:06:41  PAGE 105


      000000AFH   SFRSYM    DATA     BYTE      USB0DAT
      000000C8H.5 SFRSYM    DATA     BIT       TMR2CN0_TF2LEN
      000000F8H.6 SFRSYM    DATA     BIT       SPI0CN0_WCOL
      000000F8H.2 SFRSYM    DATA     BIT       SPI0CN0_NSSMD0
      000000D0H.7 SFRSYM    DATA     BIT       PSW_CY
      0000009DH   SFRSYM    DATA     BYTE      UART1FCN0
      000000A3H   SFRSYM    DATA     BYTE      SPI0DAT
      000000ADH   SFRSYM    DATA     BYTE      I2C0FCN0
      000000F8H.3 SFRSYM    DATA     BIT       SPI0CN0_NSSMD1
      000000BDH   SFRSYM    DATA     WORD      ADC0
      000000D8H   SFRSYM    DATA     BYTE      UART1FCN1
      000000ABH   SFRSYM    DATA     BYTE      I2C0FCN1
      00000098H.5 SFRSYM    DATA     BIT       TMR4CN0_TF4LEN
      000000D0H   SFRSYM    DATA     BYTE      PSW
      000000F7H   SFRSYM    DATA     BYTE      PCA0PWM
      000000F7H   SFRSYM    DATA     BYTE      SPI0FCT
      000000B6H   SFRSYM    DATA     BYTE      REVID
      000000B7H   SFRSYM    DATA     BYTE      FLKEY
      000000B3H   SFRSYM    DATA     BYTE      ADC0AC

      010029C7H   BLOCK     CODE     ---       LVL=0
      ---         BLOCKEND  ---      ---       LVL=0

      010034B2H   BLOCK     CODE     ---       LVL=0
      010034B2H   BLOCK     CODE     NEAR LAB  LVL=1
      02000257H   SYMBOL    XDATA    BYTE      i
      00000020H.3 SYMBOL    BIT      BIT       usbIntsEnabled
      02000258H   SYMBOL    XDATA    BYTE      SfrPageSave
      ---         BLOCKEND  ---      ---       LVL=1
      010034B2H   LINE      CODE     ---       #48
      010034B2H   LINE      CODE     ---       #49
      010034B2H   LINE      CODE     ---       #53
      010034B8H   LINE      CODE     ---       #54
      010034C0H   LINE      CODE     ---       #57
      010034D0H   LINE      CODE     ---       #58
      010034D0H   LINE      CODE     ---       #59
      010034D3H   LINE      CODE     ---       #60
      010034DBH   LINE      CODE     ---       #62
      010034E1H   LINE      CODE     ---       #63
      010034E7H   LINE      CODE     ---       #64
      ---         BLOCKEND  ---      ---       LVL=0

      0100260AH   BLOCK     CODE     ---       LVL=0
      02000259H   SYMBOL    XDATA    BYTE      epAddr
      0100260FH   BLOCK     CODE     NEAR LAB  LVL=1
      0200025AH   SYMBOL    XDATA    ---       ep
      0200025CH   SYMBOL    XDATA    BYTE      retVal
      00000020H.4 SYMBOL    BIT      BIT       usbIntsEnabled
      0200025DH   SYMBOL    XDATA    BYTE      SfrPageSave
      ---         BLOCKEND  ---      ---       LVL=1
      0100260AH   LINE      CODE     ---       #66
      0100260FH   LINE      CODE     ---       #67
      0100260FH   LINE      CODE     ---       #69
      01002614H   LINE      CODE     ---       #72
      01002618H   LINE      CODE     ---       #75
      01002624H   LINE      CODE     ---       #76
      01002624H   LINE      CODE     ---       #77
      0100262EH   LINE      CODE     ---       #78
      01002634H   LINE      CODE     ---       #79
      01002636H   LINE      CODE     ---       #81
      01002636H   LINE      CODE     ---       #82
      0100263EH   LINE      CODE     ---       #83
LX51 LINKER/LOCATER V4.66.30.0                                                        03/29/2016  00:06:41  PAGE 106


      01002648H   LINE      CODE     ---       #87
      0100264FH   LINE      CODE     ---       #88
      0100264FH   LINE      CODE     ---       #89
      0100265AH   LINE      CODE     ---       #90
      0100265AH   LINE      CODE     ---       #92
      0100265AH   LINE      CODE     ---       #93
      0100265FH   LINE      CODE     ---       #94
      01002661H   LINE      CODE     ---       #107
      01002661H   LINE      CODE     ---       #108
      01002666H   LINE      CODE     ---       #109
      01002666H   LINE      CODE     ---       #121
      01002666H   LINE      CODE     ---       #124
      0100266FH   LINE      CODE     ---       #125
      01002677H   LINE      CODE     ---       #126
      01002677H   LINE      CODE     ---       #127
      01002677H   LINE      CODE     ---       #129
      0100267DH   LINE      CODE     ---       #130
      01002683H   LINE      CODE     ---       #132
      01002688H   LINE      CODE     ---       #133
      ---         BLOCKEND  ---      ---       LVL=0

      010039E2H   BLOCK     CODE     ---       LVL=0
      010039E2H   BLOCK     CODE     NEAR LAB  LVL=1
      00000007H   SYMBOL    DATA     BYTE      SfrPageSave
      ---         BLOCKEND  ---      ---       LVL=1
      010039E2H   LINE      CODE     ---       #135
      010039E2H   LINE      CODE     ---       #136
      010039E2H   LINE      CODE     ---       #137
      010039E4H   LINE      CODE     ---       #138
      010039EAH   LINE      CODE     ---       #139
      010039F0H   LINE      CODE     ---       #140
      010039F6H   LINE      CODE     ---       #141
      010039F8H   LINE      CODE     ---       #142
      ---         BLOCKEND  ---      ---       LVL=0
      00000007H   SYMBOL    DATA     BYTE      SfrPageSave

      010036A1H   BLOCK     CODE     ---       LVL=0
      02000190H   SYMBOL    XDATA    BYTE      epAddr
      010036A6H   BLOCK     CODE     NEAR LAB  LVL=1
      00000082H   SYMBOL    DATA     ---       ep
      ---         BLOCKEND  ---      ---       LVL=1
      010036A1H   LINE      CODE     ---       #151
      010036A6H   LINE      CODE     ---       #152
      010036A6H   LINE      CODE     ---       #156
      010036ABH   LINE      CODE     ---       #157
      010036ABH   LINE      CODE     ---       #158
      010036B5H   LINE      CODE     ---       #159
      010036B7H   LINE      CODE     ---       #160
      010036B7H   LINE      CODE     ---       #162
      010036BFH   LINE      CODE     ---       #164
      010036C6H   LINE      CODE     ---       #165
      010036C6H   LINE      CODE     ---       #166
      010036C8H   LINE      CODE     ---       #167
      010036C8H   LINE      CODE     ---       #169
      010036C9H   LINE      CODE     ---       #170
      ---         BLOCKEND  ---      ---       LVL=0

      0100218FH   BLOCK     CODE     ---       LVL=0
      02000191H   SYMBOL    XDATA    ---       p
      01002195H   BLOCK     CODE     NEAR LAB  LVL=1
      00000007H   SYMBOL    DATA     BYTE      i
      02000194H   SYMBOL    XDATA    BYTE      SfrPageSave
LX51 LINKER/LOCATER V4.66.30.0                                                        03/29/2016  00:06:41  PAGE 107


      ---         BLOCKEND  ---      ---       LVL=1
      0100218FH   LINE      CODE     ---       #177
      01002195H   LINE      CODE     ---       #178
      01002195H   LINE      CODE     ---       #181
      0100219BH   LINE      CODE     ---       #182
      0100219EH   LINE      CODE     ---       #187
      010021A1H   LINE      CODE     ---       #191
      010021A3H   LINE      CODE     ---       #192
      010021A3H   LINE      CODE     ---       #193
      010021AFH   LINE      CODE     ---       #194
      010021B4H   LINE      CODE     ---       #197
      010021BDH   LINE      CODE     ---       #198
      010021C9H   LINE      CODE     ---       #199
      010021D5H   LINE      CODE     ---       #200
      010021E2H   LINE      CODE     ---       #204
      010021E5H   LINE      CODE     ---       #205
      010021EBH   LINE      CODE     ---       #213
      010021F1H   LINE      CODE     ---       #218
      010021FCH   LINE      CODE     ---       #219
      01002207H   LINE      CODE     ---       #220
      0100220AH   LINE      CODE     ---       #225
      01002210H   LINE      CODE     ---       #239
      01002213H   LINE      CODE     ---       #242
      01002219H   LINE      CODE     ---       #243
      01002224H   LINE      CODE     ---       #245
      01002226H   LINE      CODE     ---       #246
      ---         BLOCKEND  ---      ---       LVL=0

      01001D8CH   BLOCK     CODE     ---       LVL=0
      02000190H   SYMBOL    XDATA    BYTE      epAddr
      02000191H   SYMBOL    XDATA    ---       dat
      02000194H   SYMBOL    XDATA    WORD      byteCount
      00000020H.0 SYMBOL    BIT      BIT       callback
      01001D95H   BLOCK     CODE     NEAR LAB  LVL=1
      00000020H.1 SYMBOL    BIT      BIT       usbIntsEnabled
      02000196H   SYMBOL    XDATA    ---       ep
      02000198H   SYMBOL    XDATA    BYTE      SfrPageSave
      ---         BLOCKEND  ---      ---       LVL=1
      01001D8CH   LINE      CODE     ---       #248
      01001D95H   LINE      CODE     ---       #252
      01001D95H   LINE      CODE     ---       #256
      01001D9BH   LINE      CODE     ---       #259
      01001DA7H   LINE      CODE     ---       #260
      01001DA7H   LINE      CODE     ---       #261
      01001DA7H   LINE      CODE     ---       #263
      01001DA7H   LINE      CODE     ---       #271
      01001DA7H   LINE      CODE     ---       #273
      01001DA7H   LINE      CODE     ---       #281
      01001DA7H   LINE      CODE     ---       #282
      01001DB1H   LINE      CODE     ---       #283
      01001DB4H   LINE      CODE     ---       #284
      01001DB4H   LINE      CODE     ---       #287
      01001DC3H   LINE      CODE     ---       #288
      01001DC3H   LINE      CODE     ---       #289
      01001DC6H   LINE      CODE     ---       #290
      01001DC6H   LINE      CODE     ---       #292
      01001DC9H   LINE      CODE     ---       #296
      01001DD1H   LINE      CODE     ---       #297
      01001DD1H   LINE      CODE     ---       #298
      01001DD7H   LINE      CODE     ---       #299
      01001DD7H   LINE      CODE     ---       #300
      01001DD9H   LINE      CODE     ---       #301
LX51 LINKER/LOCATER V4.66.30.0                                                        03/29/2016  00:06:41  PAGE 108


      01001DD9H   LINE      CODE     ---       #303
      01001DD9H   LINE      CODE     ---       #304
      01001DDAH   LINE      CODE     ---       #305
      01001DDAH   LINE      CODE     ---       #306
      01001DDAH   LINE      CODE     ---       #308
      01001DE2H   LINE      CODE     ---       #310
      01001DEEH   LINE      CODE     ---       #311
      01001E01H   LINE      CODE     ---       #312
      01001E0AH   LINE      CODE     ---       #313
      01001E1CH   LINE      CODE     ---       #314
      01001E2CH   LINE      CODE     ---       #324
      01001E32H   LINE      CODE     ---       #325
      01001E38H   LINE      CODE     ---       #327
      01001E3AH   LINE      CODE     ---       #328
      ---         BLOCKEND  ---      ---       LVL=0
      00000007H   SYMBOL    DATA     BYTE      i

      0100178DH   BLOCK     CODE     ---       LVL=0
      02000256H   SYMBOL    XDATA    BYTE      epAddr
      02000257H   SYMBOL    XDATA    ---       dat
      0200025AH   SYMBOL    XDATA    WORD      byteCount
      00000020H.3 SYMBOL    BIT      BIT       callback
      01001796H   BLOCK     CODE     NEAR LAB  LVL=1
      00000020H.4 SYMBOL    BIT      BIT       usbIntsEnabled
      0200025CH   SYMBOL    XDATA    ---       ep
      0200025EH   SYMBOL    XDATA    BYTE      SfrPageSave
      ---         BLOCKEND  ---      ---       LVL=1
      0100178DH   LINE      CODE     ---       #601
      01001796H   LINE      CODE     ---       #605
      01001796H   LINE      CODE     ---       #609
      0100179CH   LINE      CODE     ---       #612
      010017A7H   LINE      CODE     ---       #613
      010017A7H   LINE      CODE     ---       #614
      010017A7H   LINE      CODE     ---       #616
      010017A7H   LINE      CODE     ---       #624
      010017A7H   LINE      CODE     ---       #626
      010017A7H   LINE      CODE     ---       #634
      010017A7H   LINE      CODE     ---       #635
      010017B1H   LINE      CODE     ---       #636
      010017B4H   LINE      CODE     ---       #637
      010017B4H   LINE      CODE     ---       #641
      010017C3H   LINE      CODE     ---       #642
      010017C3H   LINE      CODE     ---       #643
      010017C6H   LINE      CODE     ---       #644
      010017C6H   LINE      CODE     ---       #646
      010017C9H   LINE      CODE     ---       #650
      010017D1H   LINE      CODE     ---       #651
      010017D1H   LINE      CODE     ---       #652
      010017D7H   LINE      CODE     ---       #653
      010017D7H   LINE      CODE     ---       #654
      010017D9H   LINE      CODE     ---       #655
      010017D9H   LINE      CODE     ---       #657
      010017D9H   LINE      CODE     ---       #658
      010017DAH   LINE      CODE     ---       #659
      010017DAH   LINE      CODE     ---       #660
      010017DAH   LINE      CODE     ---       #662
      010017E2H   LINE      CODE     ---       #664
      010017EEH   LINE      CODE     ---       #665
      01001802H   LINE      CODE     ---       #666
      0100180BH   LINE      CODE     ---       #667
      0100181DH   LINE      CODE     ---       #669
      01001827H   LINE      CODE     ---       #670
LX51 LINKER/LOCATER V4.66.30.0                                                        03/29/2016  00:06:41  PAGE 109


      01001827H   LINE      CODE     ---       #673
      01001827H   LINE      CODE     ---       #674
      0100182EH   LINE      CODE     ---       #675
      01001830H   LINE      CODE     ---       #680
      01001830H   LINE      CODE     ---       #681
      01001850H   LINE      CODE     ---       #685
      01001850H   LINE      CODE     ---       #708
      01001850H   LINE      CODE     ---       #710
      01001856H   LINE      CODE     ---       #711
      0100185CH   LINE      CODE     ---       #713
      0100185EH   LINE      CODE     ---       #714
      ---         BLOCKEND  ---      ---       LVL=0

      01003171H   BLOCK     CODE     ---       LVL=0
      02000255H   SYMBOL    XDATA    BYTE      newState
      01003176H   BLOCK     CODE     NEAR LAB  LVL=1
      02000256H   SYMBOL    XDATA    BYTE      currentState
      ---         BLOCKEND  ---      ---       LVL=1
      01003171H   LINE      CODE     ---       #719
      01003176H   LINE      CODE     ---       #720
      01003176H   LINE      CODE     ---       #726
      0100317EH   LINE      CODE     ---       #730
      0100318BH   LINE      CODE     ---       #732
      0100318BH   LINE      CODE     ---       #733
      0100318EH   LINE      CODE     ---       #741
      0100318EH   LINE      CODE     ---       #742
      01003196H   LINE      CODE     ---       #743
      01003196H   LINE      CODE     ---       #744
      0100319CH   LINE      CODE     ---       #745
      0100319CH   LINE      CODE     ---       #747
      010031A5H   LINE      CODE     ---       #750
      010031ADH   LINE      CODE     ---       #751
      010031ADH   LINE      CODE     ---       #752
      010031B0H   LINE      CODE     ---       #753
      010031B0H   LINE      CODE     ---       #755
      ---         BLOCKEND  ---      ---       LVL=0

      ---         MODULE    ---      ---       EFM8_USBDCH9
      01003F36H   PUBLIC    CONST    ---       txZero
      0100277FH   PUBLIC    CODE     ---       USBDCH9_SetupCmd
      000000A2H   SFRSYM    DATA     BYTE      SPI0CKR
      00000080H   SFRSYM    DATA     BYTE      P0
      000000C8H.6 SFRSYM    DATA     BIT       SCON1_PERR
      000000D0H.2 SFRSYM    DATA     BIT       PSW_OV
      00000090H   SFRSYM    DATA     BYTE      P1
      000000F8H.1 SFRSYM    DATA     BIT       SPI0CN0_TXNF
      00000097H   SFRSYM    DATA     BYTE      WDTCN
      000000A0H   SFRSYM    DATA     BYTE      P2
      000000B0H   SFRSYM    DATA     BYTE      P3
      000000BCH   SFRSYM    DATA     BYTE      ADC0CF
      000000C0H.7 SFRSYM    DATA     BIT       SMB0CN0_MASTER
      000000F9H   SFRSYM    DATA     WORD      PCA0
      000000E6H   SFRSYM    DATA     BYTE      EIE1
      000000C0H.1 SFRSYM    DATA     BIT       SMB0CN0_ACK
      000000B3H   SFRSYM    DATA     BYTE      USB0XCN
      000000CEH   SFRSYM    DATA     BYTE      EIE2
      0000008FH   SFRSYM    DATA     BYTE      PSCTL
      000000E4H   SFRSYM    DATA     BYTE      IT01CF
      000000C0H.6 SFRSYM    DATA     BIT       SMB0CN0_TXMODE
      000000ADH   SFRSYM    DATA     BYTE      DERIVID
      000000A7H   SFRSYM    DATA     BYTE      SFRPAGE
      000000A4H   SFRSYM    DATA     BYTE      P0MDOUT
LX51 LINKER/LOCATER V4.66.30.0                                                        03/29/2016  00:06:41  PAGE 110


      000000BFH   SFRSYM    DATA     BYTE      USB0CDSTA
      000000A5H   SFRSYM    DATA     BYTE      P1MDOUT
      000000E8H.5 SFRSYM    DATA     BIT       ADC0CN0_ADINT
      000000CBH   SFRSYM    DATA     BYTE      TMR2RLH
      000000A6H   SFRSYM    DATA     BYTE      P2MDOUT
      000000A8H   SFRSYM    DATA     BYTE      IE
      00000093H   SFRSYM    DATA     BYTE      TMR3RLH
      0000009CH   SFRSYM    DATA     BYTE      P3MDOUT
      000000A3H   SFRSYM    DATA     BYTE      TMR4RLH
      000000F3H   SFRSYM    DATA     BYTE      EIP1
      000000F4H   SFRSYM    DATA     BYTE      EIP2
      00000098H.2 SFRSYM    DATA     BIT       SCON0_RB8
      000000CAH   SFRSYM    DATA     BYTE      TMR2RLL
      000000FCH   SFRSYM    DATA     BYTE      PCA0CPH0
      00000092H   SFRSYM    DATA     BYTE      TMR3RLL
      000000EAH   SFRSYM    DATA     BYTE      PCA0CPH1
      00000098H.3 SFRSYM    DATA     BIT       SCON0_TB8
      000000F0H   SFRSYM    DATA     BIT       B_B0
      00000082H   SFRSYM    DATA     WORD      DP
      000000A2H   SFRSYM    DATA     BYTE      TMR4RLL
      000000ECH   SFRSYM    DATA     BYTE      PCA0CPH2
      000000F0H.1 SFRSYM    DATA     BIT       B_B1
      000000C3H   SFRSYM    DATA     WORD      ADC0GT
      000000BDH   SFRSYM    DATA     BYTE      I2C0SLAD
      000000D8H.3 SFRSYM    DATA     BIT       UART1FCN1_RFRQ
      000000F0H.2 SFRSYM    DATA     BIT       B_B2
      000000CFH   SFRSYM    DATA     BYTE      SFRPGCN
      000000FBH   SFRSYM    DATA     BYTE      PCA0CPL0
      000000F0H.3 SFRSYM    DATA     BIT       B_B3
      000000D9H   SFRSYM    DATA     BYTE      PCA0MD
      000000DAH   SFRSYM    DATA     BYTE      PCA0CPM0
      000000E9H   SFRSYM    DATA     BYTE      PCA0CPL1
      000000D8H.7 SFRSYM    DATA     BIT       UART1FCN1_TFRQ
      000000F0H.4 SFRSYM    DATA     BIT       B_B4
      000000DBH   SFRSYM    DATA     BYTE      PCA0CPM1
      000000EBH   SFRSYM    DATA     BYTE      PCA0CPL2
      000000F0H.5 SFRSYM    DATA     BIT       B_B5
      000000DCH   SFRSYM    DATA     BYTE      PCA0CPM2
      000000B8H   SFRSYM    DATA     BYTE      IP
      000000B9H   SFRSYM    DATA     BYTE      ADC0TK
      000000F0H.6 SFRSYM    DATA     BIT       B_B6
      000000C5H   SFRSYM    DATA     WORD      ADC0LT
      000000D8H.6 SFRSYM    DATA     BIT       UART1FCN1_TXNF
      00000098H.5 SFRSYM    DATA     BIT       SCON0_MCE
      000000F0H.7 SFRSYM    DATA     BIT       B_B7
      000000C3H   SFRSYM    DATA     BYTE      SMB0FCN0
      000000E1H   SFRSYM    DATA     BYTE      XBR0
      000000C4H   SFRSYM    DATA     BYTE      SMB0FCN1
      000000C1H   SFRSYM    DATA     BYTE      SMB0CF
      000000E2H   SFRSYM    DATA     BYTE      XBR1
      000000C1H   SFRSYM    DATA     BYTE      PFE0CN
      000000E7H   SFRSYM    DATA     BYTE      EMI0CN
      000000C0H.5 SFRSYM    DATA     BIT       SMB0CN0_STA
      000000E3H   SFRSYM    DATA     BYTE      XBR2
      000000BBH   SFRSYM    DATA     BYTE      ADC0MX
      000000E0H   SFRSYM    DATA     BIT       ACC_ACC0
      000000D1H   SFRSYM    DATA     BYTE      REF0CN
      0000008EH   SFRSYM    DATA     BYTE      CKCON0
      000000E0H.1 SFRSYM    DATA     BIT       ACC_ACC1
      000000C9H   SFRSYM    DATA     BYTE      REG0CN
      000000DDH   SFRSYM    DATA     BYTE      CRC0IN
      000000A6H   SFRSYM    DATA     BYTE      CKCON1
LX51 LINKER/LOCATER V4.66.30.0                                                        03/29/2016  00:06:41  PAGE 111


      000000C8H.2 SFRSYM    DATA     BIT       TMR2CN0_TR2
      000000E0H.2 SFRSYM    DATA     BIT       ACC_ACC2
      000000C6H   SFRSYM    DATA     BYTE      REG1CN
      000000E0H.3 SFRSYM    DATA     BIT       ACC_ACC3
      00000081H   SFRSYM    DATA     BYTE      SP
      0000009DH   SFRSYM    DATA     BYTE      CMP0MD
      000000E0H.4 SFRSYM    DATA     BIT       ACC_ACC4
      000000B1H   SFRSYM    DATA     BYTE      LFO0CN
      000000ABH   SFRSYM    DATA     BYTE      CMP1MD
      000000D8H   SFRSYM    DATA     BIT       PCA0CN0_CCF0
      000000E0H.5 SFRSYM    DATA     BIT       ACC_ACC5
      000000B5H   SFRSYM    DATA     BYTE      USB0CF
      00000098H.2 SFRSYM    DATA     BIT       TMR4CN0_TR4
      000000D8H.1 SFRSYM    DATA     BIT       PCA0CN0_CCF1
      000000E0H.6 SFRSYM    DATA     BIT       ACC_ACC6
      000000CCH   SFRSYM    DATA     WORD      TMR2
      0000009AH   SFRSYM    DATA     BYTE      SPI0FCN0
      000000D8H.2 SFRSYM    DATA     BIT       PCA0CN0_CCF2
      000000E0H.7 SFRSYM    DATA     BIT       ACC_ACC7
      00000094H   SFRSYM    DATA     WORD      TMR3
      0000009BH   SFRSYM    DATA     BYTE      SPI0FCN1
      000000A4H   SFRSYM    DATA     WORD      TMR4
      00000094H   SFRSYM    DATA     BYTE      SBCON1
      000000C0H.3 SFRSYM    DATA     BIT       SMB0CN0_ACKRQ
      000000FFH   SFRSYM    DATA     BYTE      VDM0CN
      000000F1H   SFRSYM    DATA     BYTE      P0MDIN
      00000098H.4 SFRSYM    DATA     BIT       SCON0_REN
      000000ACH   SFRSYM    DATA     BYTE      SMB0TC
      000000F2H   SFRSYM    DATA     BYTE      P1MDIN
      000000C8H.4 SFRSYM    DATA     BIT       SCON1_REN
      000000F3H   SFRSYM    DATA     BYTE      P2MDIN
      000000C0H.4 SFRSYM    DATA     BIT       SMB0CN0_STO
      000000B6H   SFRSYM    DATA     BYTE      USB0CDCF
      000000F4H   SFRSYM    DATA     BYTE      P3MDIN
      000000B9H   SFRSYM    DATA     BYTE      I2C0STAT
      000000BBH   SFRSYM    DATA     BYTE      I2C0DOUT
      00000096H   SFRSYM    DATA     BYTE      SBRLH1
      000000FEH   SFRSYM    DATA     BYTE      P0MASK
      000000D8H.5 SFRSYM    DATA     BIT       UART1FCN1_TXHOLD
      000000EEH   SFRSYM    DATA     BYTE      P1MASK
      000000FCH   SFRSYM    DATA     BYTE      P2MASK
      000000D0H.3 SFRSYM    DATA     BIT       PSW_RS0
      000000D8H.7 SFRSYM    DATA     BIT       PCA0CN0_CF
      0000009EH   SFRSYM    DATA     BYTE      PCA0CENT
      000000BAH   SFRSYM    DATA     BYTE      I2C0CN0
      000000D2H   SFRSYM    DATA     BYTE      CRC0ST
      000000F8H.4 SFRSYM    DATA     BIT       SPI0CN0_RXOVRN
      000000D0H.4 SFRSYM    DATA     BIT       PSW_RS1
      00000095H   SFRSYM    DATA     BYTE      SBRLL1
      000000C8H.2 SFRSYM    DATA     BIT       SCON1_RBX
      000000C8H   SFRSYM    DATA     BIT       TMR2CN0_T2XCLK0
      000000C8H.1 SFRSYM    DATA     BIT       TMR2CN0_T2XCLK1
      000000C8H.3 SFRSYM    DATA     BIT       SCON1_TBX
      000000E8H.7 SFRSYM    DATA     BIT       ADC0CN0_ADEN
      000000BEH   SFRSYM    DATA     BYTE      USB0CDCN
      00000089H   SFRSYM    DATA     BYTE      TMOD
      00000088H   SFRSYM    DATA     BYTE      TCON
      000000CFH   SFRSYM    DATA     BYTE      CRC0FLIP
      000000D0H   SFRSYM    DATA     BIT       PSW_PARITY
      000000A8H.4 SFRSYM    DATA     BIT       IE_ES0
      0000009FH   SFRSYM    DATA     BYTE      CMP0MX
      00000098H   SFRSYM    DATA     BIT       TMR4CN0_T4XCLK0
LX51 LINKER/LOCATER V4.66.30.0                                                        03/29/2016  00:06:41  PAGE 112


      000000A8H.1 SFRSYM    DATA     BIT       IE_ET0
      000000AAH   SFRSYM    DATA     BYTE      CMP1MX
      00000098H.1 SFRSYM    DATA     BIT       TMR4CN0_T4XCLK1
      000000A8H.3 SFRSYM    DATA     BIT       IE_ET1
      000000D4H   SFRSYM    DATA     BYTE      P0SKIP
      000000D8H   SFRSYM    DATA     BIT       UART1FCN1_RIE
      000000A8H.5 SFRSYM    DATA     BIT       IE_ET2
      000000D5H   SFRSYM    DATA     BYTE      P1SKIP
      000000CCH   SFRSYM    DATA     BYTE      P2SKIP
      000000E8H   SFRSYM    DATA     BYTE      ADC0CN0
      000000D8H.4 SFRSYM    DATA     BIT       UART1FCN1_TIE
      000000A8H   SFRSYM    DATA     BIT       IE_EX0
      000000B2H   SFRSYM    DATA     BYTE      ADC0CN1
      000000D8H.6 SFRSYM    DATA     BIT       PCA0CN0_CR
      000000A8H.2 SFRSYM    DATA     BIT       IE_EX1
      000000C8H.7 SFRSYM    DATA     BIT       SCON1_OVR
      00000098H.7 SFRSYM    DATA     BIT       SCON0_SMODE
      000000B5H   SFRSYM    DATA     BYTE      DEVICEID
      000000A9H   SFRSYM    DATA     BYTE      CLKSEL
      000000F8H   SFRSYM    DATA     BIT       SPI0CN0_SPIEN
      000000F0H   SFRSYM    DATA     BYTE      B
      000000BEH   SFRSYM    DATA     BYTE      ADC0H
      000000E8H.6 SFRSYM    DATA     BIT       ADC0CN0_ADBMEN
      000000CAH   SFRSYM    DATA     WORD      TMR2RL
      000000BDH   SFRSYM    DATA     BYTE      ADC0L
      00000092H   SFRSYM    DATA     WORD      TMR3RL
      000000A2H   SFRSYM    DATA     WORD      TMR4RL
      000000D8H   SFRSYM    DATA     BYTE      PCA0CN0
      000000E0H   SFRSYM    DATA     BYTE      ACC
      000000FBH   SFRSYM    DATA     WORD      PCA0CP0
      000000E9H   SFRSYM    DATA     WORD      PCA0CP1
      000000EBH   SFRSYM    DATA     WORD      PCA0CP2
      000000BCH   SFRSYM    DATA     BYTE      I2C0DIN
      000000CEH   SFRSYM    DATA     BYTE      CRC0CN0
      0000008CH   SFRSYM    DATA     BYTE      TH0
      00000086H   SFRSYM    DATA     BYTE      CRC0CN1
      000000B8H.4 SFRSYM    DATA     BIT       IP_PS0
      000000FAH   SFRSYM    DATA     BYTE      UART1FCT
      0000008DH   SFRSYM    DATA     BYTE      TH1
      000000FAH   SFRSYM    DATA     BYTE      PCA0H
      000000F5H   SFRSYM    DATA     BYTE      I2C0FCT
      000000B8H.1 SFRSYM    DATA     BIT       IP_PT0
      000000B8H.3 SFRSYM    DATA     BIT       IP_PT1
      000000C0H.2 SFRSYM    DATA     BIT       SMB0CN0_ARBLOST
      000000B8H.5 SFRSYM    DATA     BIT       IP_PT2
      0000008AH   SFRSYM    DATA     BYTE      TL0
      000000D0H.5 SFRSYM    DATA     BIT       PSW_F0
      000000A8H.6 SFRSYM    DATA     BIT       IE_ESPI0
      0000008BH   SFRSYM    DATA     BYTE      TL1
      000000F9H   SFRSYM    DATA     BYTE      PCA0L
      000000C0H   SFRSYM    DATA     BIT       SMB0CN0_SI
      000000D0H.1 SFRSYM    DATA     BIT       PSW_F1
      00000080H   SFRSYM    DATA     BIT       P0_B0
      000000B8H   SFRSYM    DATA     BIT       IP_PX0
      00000090H   SFRSYM    DATA     BIT       P1_B0
      00000080H.1 SFRSYM    DATA     BIT       P0_B1
      000000B8H.2 SFRSYM    DATA     BIT       IP_PX1
      0000009EH   SFRSYM    DATA     BYTE      UART1LIN
      0000009BH   SFRSYM    DATA     BYTE      CMP0CN0
      00000088H.1 SFRSYM    DATA     BIT       TCON_IE0
      000000A0H   SFRSYM    DATA     BIT       P2_B0
      00000090H.1 SFRSYM    DATA     BIT       P1_B1
LX51 LINKER/LOCATER V4.66.30.0                                                        03/29/2016  00:06:41  PAGE 113


      00000080H.2 SFRSYM    DATA     BIT       P0_B2
      000000BFH   SFRSYM    DATA     BYTE      CMP1CN0
      00000099H   SFRSYM    DATA     BYTE      CMP0CN1
      00000088H.3 SFRSYM    DATA     BIT       TCON_IE1
      000000B0H   SFRSYM    DATA     BIT       P3_B0
      000000A0H.1 SFRSYM    DATA     BIT       P2_B1
      00000090H.2 SFRSYM    DATA     BIT       P1_B2
      00000080H.3 SFRSYM    DATA     BIT       P0_B3
      000000C0H   SFRSYM    DATA     BYTE      SMB0CN0
      000000ACH   SFRSYM    DATA     BYTE      CMP1CN1
      000000B0H.1 SFRSYM    DATA     BIT       P3_B1
      000000A0H.2 SFRSYM    DATA     BIT       P2_B2
      00000090H.3 SFRSYM    DATA     BIT       P1_B3
      00000080H.4 SFRSYM    DATA     BIT       P0_B4
      000000A0H.3 SFRSYM    DATA     BIT       P2_B3
      00000090H.4 SFRSYM    DATA     BIT       P1_B4
      00000080H.5 SFRSYM    DATA     BIT       P0_B5
      000000D8H.1 SFRSYM    DATA     BIT       UART1FCN1_RXTO0
      00000090H.5 SFRSYM    DATA     BIT       P1_B5
      00000080H.6 SFRSYM    DATA     BIT       P0_B6
      000000F5H   SFRSYM    DATA     BYTE      EIP1H
      000000D8H.2 SFRSYM    DATA     BIT       UART1FCN1_RXTO1
      00000090H.6 SFRSYM    DATA     BIT       P1_B6
      00000080H.7 SFRSYM    DATA     BIT       P0_B7
      000000C5H   SFRSYM    DATA     BYTE      SMB0RXLN
      000000F6H   SFRSYM    DATA     BYTE      EIP2H
      00000090H.7 SFRSYM    DATA     BIT       P1_B7
      00000083H   SFRSYM    DATA     BYTE      DPH
      000000C4H   SFRSYM    DATA     BYTE      ADC0GTH
      000000C8H.7 SFRSYM    DATA     BIT       TMR2CN0_TF2H
      000000C8H.3 SFRSYM    DATA     BIT       TMR2CN0_T2SPLIT
      000000D0H.6 SFRSYM    DATA     BIT       PSW_AC
      000000F8H   SFRSYM    DATA     BYTE      SPI0CN0
      000000C7H   SFRSYM    DATA     BYTE      HFO0CAL
      00000088H.5 SFRSYM    DATA     BIT       TCON_TF0
      00000098H   SFRSYM    DATA     BIT       SCON0_RI
      000000D6H   SFRSYM    DATA     BYTE      HFO1CAL
      00000082H   SFRSYM    DATA     BYTE      DPL
      00000088H.7 SFRSYM    DATA     BIT       TCON_TF1
      000000C8H   SFRSYM    DATA     BIT       SCON1_RI
      00000099H   SFRSYM    DATA     BYTE      SBUF0
      00000087H   SFRSYM    DATA     BYTE      PCON0
      000000F2H   SFRSYM    DATA     BYTE      IPH
      000000C3H   SFRSYM    DATA     BYTE      ADC0GTL
      00000098H.7 SFRSYM    DATA     BIT       TMR4CN0_TF4H
      00000098H.3 SFRSYM    DATA     BIT       TMR4CN0_T4SPLIT
      000000C8H.6 SFRSYM    DATA     BIT       TMR2CN0_TF2L
      00000098H.1 SFRSYM    DATA     BIT       SCON0_TI
      000000E8H   SFRSYM    DATA     BIT       ADC0CN0_ADCM0
      00000092H   SFRSYM    DATA     BYTE      SBUF1
      0000009AH   SFRSYM    DATA     BYTE      PCON1
      000000C6H   SFRSYM    DATA     BYTE      ADC0LTH
      00000088H   SFRSYM    DATA     BIT       TCON_IT0
      000000C8H.1 SFRSYM    DATA     BIT       SCON1_TI
      000000E8H.1 SFRSYM    DATA     BIT       ADC0CN0_ADCM1
      000000EFH   SFRSYM    DATA     BYTE      RSTSRC
      000000FDH   SFRSYM    DATA     BYTE      P0MAT
      000000DEH   SFRSYM    DATA     BYTE      CRC0DAT
      00000088H.2 SFRSYM    DATA     BIT       TCON_IT1
      000000E8H.2 SFRSYM    DATA     BIT       ADC0CN0_ADCM2
      000000D7H   SFRSYM    DATA     BYTE      SFRSTACK
      00000098H   SFRSYM    DATA     BYTE      SCON0
LX51 LINKER/LOCATER V4.66.30.0                                                        03/29/2016  00:06:41  PAGE 114


      000000F6H   SFRSYM    DATA     BYTE      PRTDRV
      000000EDH   SFRSYM    DATA     BYTE      P1MAT
      000000E8H.3 SFRSYM    DATA     BIT       ADC0CN0_ADWINT
      00000095H   SFRSYM    DATA     WORD      SBRL1
      000000B2H   SFRSYM    DATA     BYTE      USB0AEC
      00000093H   SFRSYM    DATA     BYTE      SMOD1
      000000C8H   SFRSYM    DATA     BYTE      SCON1
      000000FBH   SFRSYM    DATA     BYTE      P2MAT
      00000098H.6 SFRSYM    DATA     BIT       TMR4CN0_TF4L
      000000E8H.4 SFRSYM    DATA     BIT       ADC0CN0_ADBUSY
      000000D6H   SFRSYM    DATA     BYTE      SMB0ADM
      000000C5H   SFRSYM    DATA     BYTE      ADC0LTL
      000000F8H.5 SFRSYM    DATA     BIT       SPI0CN0_MODF
      000000B8H.6 SFRSYM    DATA     BIT       IP_PSPI0
      0000009CH   SFRSYM    DATA     BYTE      PCA0CLR
      000000C8H   SFRSYM    DATA     BYTE      TMR2CN0
      00000091H   SFRSYM    DATA     BYTE      TMR3CN0
      000000FDH   SFRSYM    DATA     BYTE      TMR2CN1
      00000098H   SFRSYM    DATA     BYTE      TMR4CN0
      000000FEH   SFRSYM    DATA     BYTE      TMR3CN1
      000000FFH   SFRSYM    DATA     BYTE      TMR4CN1
      000000D7H   SFRSYM    DATA     BYTE      SMB0ADR
      00000088H.4 SFRSYM    DATA     BIT       TCON_TR0
      000000C8H.4 SFRSYM    DATA     BIT       TMR2CN0_TF2CEN
      00000088H.6 SFRSYM    DATA     BIT       TCON_TR1
      000000C2H   SFRSYM    DATA     BYTE      SMB0DAT
      000000CDH   SFRSYM    DATA     BYTE      TMR2H
      000000A1H   SFRSYM    DATA     BYTE      SPI0CFG
      00000095H   SFRSYM    DATA     BYTE      TMR3H
      000000EFH   SFRSYM    DATA     BYTE      HFOCN
      000000D3H   SFRSYM    DATA     BYTE      CRC0CNT
      000000A5H   SFRSYM    DATA     BYTE      TMR4H
      00000098H.4 SFRSYM    DATA     BIT       TMR4CN0_TF4CEN
      000000EFH   SFRSYM    DATA     BYTE      SMB0FCT
      00000096H   SFRSYM    DATA     BYTE      PCA0POL
      000000CCH   SFRSYM    DATA     BYTE      TMR2L
      000000F8H.7 SFRSYM    DATA     BIT       SPI0CN0_SPIF
      000000AEH   SFRSYM    DATA     BYTE      USB0ADR
      00000094H   SFRSYM    DATA     BYTE      TMR3L
      000000DFH   SFRSYM    DATA     BYTE      ADC0PWR
      000000A8H.7 SFRSYM    DATA     BIT       IE_EA
      000000A4H   SFRSYM    DATA     BYTE      TMR4L
      000000AFH   SFRSYM    DATA     BYTE      USB0DAT
      000000C8H.5 SFRSYM    DATA     BIT       TMR2CN0_TF2LEN
      000000F8H.6 SFRSYM    DATA     BIT       SPI0CN0_WCOL
      000000F8H.2 SFRSYM    DATA     BIT       SPI0CN0_NSSMD0
      000000D0H.7 SFRSYM    DATA     BIT       PSW_CY
      0000009DH   SFRSYM    DATA     BYTE      UART1FCN0
      000000A3H   SFRSYM    DATA     BYTE      SPI0DAT
      000000ADH   SFRSYM    DATA     BYTE      I2C0FCN0
      000000F8H.3 SFRSYM    DATA     BIT       SPI0CN0_NSSMD1
      000000BDH   SFRSYM    DATA     WORD      ADC0
      000000D8H   SFRSYM    DATA     BYTE      UART1FCN1
      000000ABH   SFRSYM    DATA     BYTE      I2C0FCN1
      00000098H.5 SFRSYM    DATA     BIT       TMR4CN0_TF4LEN
      000000D0H   SFRSYM    DATA     BYTE      PSW
      000000F7H   SFRSYM    DATA     BYTE      PCA0PWM
      000000F7H   SFRSYM    DATA     BYTE      SPI0FCT
      000000B6H   SFRSYM    DATA     BYTE      REVID
      000000B7H   SFRSYM    DATA     BYTE      FLKEY
      000000B3H   SFRSYM    DATA     BYTE      ADC0AC
      0100234CH   SYMBOL    CODE     ---       SetFeature
LX51 LINKER/LOCATER V4.66.30.0                                                        03/29/2016  00:06:41  PAGE 115


      01002E06H   SYMBOL    CODE     ---       GetConfiguration
      010038A7H   SYMBOL    CODE     ---       USBD_ActivateAllEps
      01001C2BH   SYMBOL    CODE     ---       SetConfiguration
      0100185FH   SYMBOL    CODE     ---       GetStatus
      0100384AH   SYMBOL    CODE     ---       _EP0_Write
      010030ADH   SYMBOL    CODE     ---       GetInterface
      01002040H   SYMBOL    CODE     ---       ClearFeature
      0100347BH   SYMBOL    CODE     ---       SetInterface
      01000F10H   SYMBOL    CODE     ---       GetDescriptor
      02000392H   SYMBOL    XDATA    WORD      pStatus
      010027F7H   SYMBOL    CODE     ---       SetAddress

      01002B6BH   BLOCK     CODE     ---       LVL=0
      ---         BLOCKEND  ---      ---       LVL=0

      0100277FH   BLOCK     CODE     ---       LVL=0
      0100277FH   BLOCK     CODE     NEAR LAB  LVL=1
      02000253H   SYMBOL    XDATA    CHAR      status
      ---         BLOCKEND  ---      ---       LVL=1
      0100277FH   LINE      CODE     ---       #48
      0100277FH   LINE      CODE     ---       #49
      0100277FH   LINE      CODE     ---       #50
      01002784H   LINE      CODE     ---       #52
      010027AAH   LINE      CODE     ---       #53
      010027AAH   LINE      CODE     ---       #54
      010027AAH   LINE      CODE     ---       #55
      010027ADH   LINE      CODE     ---       #56
      010027AFH   LINE      CODE     ---       #58
      010027AFH   LINE      CODE     ---       #59
      010027B2H   LINE      CODE     ---       #60
      010027B4H   LINE      CODE     ---       #62
      010027B4H   LINE      CODE     ---       #63
      010027B7H   LINE      CODE     ---       #64
      010027B9H   LINE      CODE     ---       #66
      010027B9H   LINE      CODE     ---       #67
      010027BCH   LINE      CODE     ---       #68
      010027BEH   LINE      CODE     ---       #70
      010027BEH   LINE      CODE     ---       #71
      010027C1H   LINE      CODE     ---       #72
      010027C3H   LINE      CODE     ---       #74
      010027C3H   LINE      CODE     ---       #75
      010027C6H   LINE      CODE     ---       #76
      010027C8H   LINE      CODE     ---       #78
      010027C8H   LINE      CODE     ---       #79
      010027CBH   LINE      CODE     ---       #80
      010027CDH   LINE      CODE     ---       #82
      010027CDH   LINE      CODE     ---       #83
      010027D0H   LINE      CODE     ---       #84
      010027D2H   LINE      CODE     ---       #86
      010027D2H   LINE      CODE     ---       #87
      010027DAH   LINE      CODE     ---       #88
      010027DCH   LINE      CODE     ---       #90
      010027DCH   LINE      CODE     ---       #91
      010027E2H   LINE      CODE     ---       #92
      010027E2H   LINE      CODE     ---       #93
      010027E2H   LINE      CODE     ---       #96
      010027E7H   LINE      CODE     ---       #99
      010027EEH   LINE      CODE     ---       #100
      010027EEH   LINE      CODE     ---       #101
      010027F1H   LINE      CODE     ---       #102
      010027F1H   LINE      CODE     ---       #104
      010027F6H   LINE      CODE     ---       #105
LX51 LINKER/LOCATER V4.66.30.0                                                        03/29/2016  00:06:41  PAGE 116


      ---         BLOCKEND  ---      ---       LVL=0

      01002040H   BLOCK     CODE     ---       LVL=0
      01002040H   BLOCK     CODE     NEAR LAB  LVL=1
      02000254H   SYMBOL    XDATA    CHAR      retVal
      ---         BLOCKEND  ---      ---       LVL=1
      01002040H   LINE      CODE     ---       #114
      01002040H   LINE      CODE     ---       #115
      01002040H   LINE      CODE     ---       #116
      01002043H   LINE      CODE     ---       #118
      0100204FH   LINE      CODE     ---       #119
      0100204FH   LINE      CODE     ---       #120
      01002059H   LINE      CODE     ---       #121
      01002059H   LINE      CODE     ---       #134
      01002059H   LINE      CODE     ---       #135
      01002066H   LINE      CODE     ---       #136
      01002066H   LINE      CODE     ---       #139
      01002074H   LINE      CODE     ---       #141
      01002074H   LINE      CODE     ---       #142
      01002079H   LINE      CODE     ---       #143
      0100207BH   LINE      CODE     ---       #144
      01002089H   LINE      CODE     ---       #146
      01002089H   LINE      CODE     ---       #147
      0100208CH   LINE      CODE     ---       #148
      01002092H   LINE      CODE     ---       #151
      01002099H   LINE      CODE     ---       #152
      01002099H   LINE      CODE     ---       #153
      010020A4H   LINE      CODE     ---       #154
      010020A4H   LINE      CODE     ---       #157
      010020ABH   LINE      CODE     ---       #158
      010020ABH   LINE      CODE     ---       #159
      010020C3H   LINE      CODE     ---       #160
      010020C3H   LINE      CODE     ---       #163
      010020CFH   LINE      CODE     ---       #164
      010020CFH   LINE      CODE     ---       #166
      010020CFH   LINE      CODE     ---       #167
      010020D7H   LINE      CODE     ---       #168
      010020D7H   LINE      CODE     ---       #169
      010020D7H   LINE      CODE     ---       #170
      010020D7H   LINE      CODE     ---       #171
      010020D9H   LINE      CODE     ---       #190
      010020D9H   LINE      CODE     ---       #191
      010020E1H   LINE      CODE     ---       #192
      010020E1H   LINE      CODE     ---       #193
      010020E4H   LINE      CODE     ---       #194
      010020E4H   LINE      CODE     ---       #195
      010020E4H   LINE      CODE     ---       #213
      010020E4H   LINE      CODE     ---       #214
      010020E4H   LINE      CODE     ---       #215
      010020E4H   LINE      CODE     ---       #216
      010020E4H   LINE      CODE     ---       #217
      010020E4H   LINE      CODE     ---       #218
      010020E9H   LINE      CODE     ---       #219
      ---         BLOCKEND  ---      ---       LVL=0

      01002E06H   BLOCK     CODE     ---       LVL=0
      01002E06H   BLOCK     CODE     NEAR LAB  LVL=1
      00000007H   SYMBOL    DATA     CHAR      retVal
      ---         BLOCKEND  ---      ---       LVL=1
      01002E06H   LINE      CODE     ---       #229
      01002E06H   LINE      CODE     ---       #230
      01002E06H   LINE      CODE     ---       #231
LX51 LINKER/LOCATER V4.66.30.0                                                        03/29/2016  00:06:41  PAGE 117


      01002E08H   LINE      CODE     ---       #233
      01002E34H   LINE      CODE     ---       #238
      01002E34H   LINE      CODE     ---       #239
      01002E3BH   LINE      CODE     ---       #240
      01002E3BH   LINE      CODE     ---       #241
      01002E41H   LINE      CODE     ---       #242
      01002E41H   LINE      CODE     ---       #243
      01002E43H   LINE      CODE     ---       #244
      01002E4AH   LINE      CODE     ---       #245
      01002E4AH   LINE      CODE     ---       #246
      01002E57H   LINE      CODE     ---       #247
      01002E59H   LINE      CODE     ---       #248
      01002E59H   LINE      CODE     ---       #249
      01002E59H   LINE      CODE     ---       #250
      01002E59H   LINE      CODE     ---       #251
      ---         BLOCKEND  ---      ---       LVL=0

      01000F10H   BLOCK     CODE     ---       LVL=0
      01000F10H   BLOCK     CODE     NEAR LAB  LVL=1
      02000254H   SYMBOL    XDATA    BYTE      index
      00000004H   SYMBOL    DATA     WORD      length
      02000255H   SYMBOL    XDATA    ---       dat
      02000258H   SYMBOL    XDATA    CHAR      retVal
      ---         BLOCKEND  ---      ---       LVL=1
      01000F10H   LINE      CODE     ---       #261
      01000F10H   LINE      CODE     ---       #262
      01000F10H   LINE      CODE     ---       #269
      01000F13H   LINE      CODE     ---       #271
      01000F19H   LINE      CODE     ---       #273
      01000F24H   LINE      CODE     ---       #275
      01000F24H   LINE      CODE     ---       #276
      01000F2FH   LINE      CODE     ---       #278
      01000F46H   LINE      CODE     ---       #279
      01000F46H   LINE      CODE     ---       #280
      01000F46H   LINE      CODE     ---       #281
      01000F4FH   LINE      CODE     ---       #282
      01000F4FH   LINE      CODE     ---       #283
      01000F4FH   LINE      CODE     ---       #284
      01000F4FH   LINE      CODE     ---       #285
      01000F55H   LINE      CODE     ---       #286
      01000F61H   LINE      CODE     ---       #287
      01000F64H   LINE      CODE     ---       #289
      01000F64H   LINE      CODE     ---       #290
      01000F6DH   LINE      CODE     ---       #291
      01000F6DH   LINE      CODE     ---       #292
      01000F6DH   LINE      CODE     ---       #293
      01000F6DH   LINE      CODE     ---       #294
      01000F73H   LINE      CODE     ---       #295
      01000F87H   LINE      CODE     ---       #296
      01000F89H   LINE      CODE     ---       #298
      01000F89H   LINE      CODE     ---       #301
      01000FA3H   LINE      CODE     ---       #305
      01000FA6H   LINE      CODE     ---       #306
      01000FA6H   LINE      CODE     ---       #307
      01000FA9H   LINE      CODE     ---       #308
      01000FB0H   LINE      CODE     ---       #309
      01000FB2H   LINE      CODE     ---       #312
      01000FC3H   LINE      CODE     ---       #313
      01000FC3H   LINE      CODE     ---       #315
      01000FD0H   LINE      CODE     ---       #316
      01000FD0H   LINE      CODE     ---       #317
      01000FDDH   LINE      CODE     ---       #318
LX51 LINKER/LOCATER V4.66.30.0                                                        03/29/2016  00:06:41  PAGE 118


      01000FECH   LINE      CODE     ---       #319
      01000FF6H   LINE      CODE     ---       #320
      01000FFDH   LINE      CODE     ---       #321
      01000FFDH   LINE      CODE     ---       #322
      01000FFDH   LINE      CODE     ---       #364
      01000FFDH   LINE      CODE     ---       #368
      01001001H   LINE      CODE     ---       #369
      01001001H   LINE      CODE     ---       #370
      0100100FH   LINE      CODE     ---       #371
      0100100FH   LINE      CODE     ---       #372
      01001013H   LINE      CODE     ---       #373
      01001013H   LINE      CODE     ---       #375
      0100101CH   LINE      CODE     ---       #377
      01001021H   LINE      CODE     ---       #378
      01001021H   LINE      CODE     ---       #379
      01001021H   LINE      CODE     ---       #381
      01001026H   LINE      CODE     ---       #382
      ---         BLOCKEND  ---      ---       LVL=0

      010030ADH   BLOCK     CODE     ---       LVL=0
      010030ADH   BLOCK     CODE     NEAR LAB  LVL=1
      00000006H   SYMBOL    DATA     WORD      interface
      00000005H   SYMBOL    DATA     CHAR      retVal
      ---         BLOCKEND  ---      ---       LVL=1
      010030ADH   LINE      CODE     ---       #391
      010030ADH   LINE      CODE     ---       #392
      010030ADH   LINE      CODE     ---       #393
      010030B1H   LINE      CODE     ---       #394
      010030B3H   LINE      CODE     ---       #399
      010030D6H   LINE      CODE     ---       #401
      010030D6H   LINE      CODE     ---       #402
      010030DDH   LINE      CODE     ---       #403
      010030DDH   LINE      CODE     ---       #409
      010030EAH   LINE      CODE     ---       #411
      010030ECH   LINE      CODE     ---       #412
      010030ECH   LINE      CODE     ---       #413
      010030ECH   LINE      CODE     ---       #414
      010030EEH   LINE      CODE     ---       #415
      ---         BLOCKEND  ---      ---       LVL=0

      0100185FH   BLOCK     CODE     ---       LVL=0
      0100185FH   BLOCK     CODE     NEAR LAB  LVL=1
      02000254H   SYMBOL    XDATA    CHAR      retVal
      ---         BLOCKEND  ---      ---       LVL=1
      0100185FH   LINE      CODE     ---       #424
      0100185FH   LINE      CODE     ---       #425
      0100185FH   LINE      CODE     ---       #426
      01001862H   LINE      CODE     ---       #428
      01001890H   LINE      CODE     ---       #432
      01001890H   LINE      CODE     ---       #433
      01001897H   LINE      CODE     ---       #435
      010018A4H   LINE      CODE     ---       #436
      010018A4H   LINE      CODE     ---       #437
      010018A4H   LINE      CODE     ---       #438
      010018AEH   LINE      CODE     ---       #439
      010018AEH   LINE      CODE     ---       #450
      010018B3H   LINE      CODE     ---       #451
      010018B3H   LINE      CODE     ---       #452
      010018BDH   LINE      CODE     ---       #453
      010018BDH   LINE      CODE     ---       #458
      010018BDH   LINE      CODE     ---       #459
      010018BDH   LINE      CODE     ---       #460
LX51 LINKER/LOCATER V4.66.30.0                                                        03/29/2016  00:06:41  PAGE 119


      010018BFH   LINE      CODE     ---       #462
      010018BFH   LINE      CODE     ---       #463
      010018CEH   LINE      CODE     ---       #464
      010018CEH   LINE      CODE     ---       #465
      010018CEH   LINE      CODE     ---       #466
      010018CEH   LINE      CODE     ---       #467
      010018D0H   LINE      CODE     ---       #470
      010018D0H   LINE      CODE     ---       #473
      010018E0H   LINE      CODE     ---       #475
      010018E0H   LINE      CODE     ---       #476
      010018E0H   LINE      CODE     ---       #477
      010018E2H   LINE      CODE     ---       #478
      010018E9H   LINE      CODE     ---       #479
      010018E9H   LINE      CODE     ---       #480
      010018F2H   LINE      CODE     ---       #481
      010018F2H   LINE      CODE     ---       #483
      010018F2H   LINE      CODE     ---       #484
      010018F9H   LINE      CODE     ---       #485
      010018F9H   LINE      CODE     ---       #486
      010018FCH   LINE      CODE     ---       #487
      010018FCH   LINE      CODE     ---       #488
      010018FCH   LINE      CODE     ---       #489
      010018FEH   LINE      CODE     ---       #510
      010018FEH   LINE      CODE     ---       #511
      01001905H   LINE      CODE     ---       #512
      01001905H   LINE      CODE     ---       #513
      01001908H   LINE      CODE     ---       #514
      01001908H   LINE      CODE     ---       #515
      0100190DH   LINE      CODE     ---       #516
      0100190DH   LINE      CODE     ---       #536
      0100190DH   LINE      CODE     ---       #537
      0100190DH   LINE      CODE     ---       #538
      0100190DH   LINE      CODE     ---       #539
      0100190DH   LINE      CODE     ---       #542
      01001913H   LINE      CODE     ---       #543
      01001913H   LINE      CODE     ---       #544
      0100191FH   LINE      CODE     ---       #545
      0100191FH   LINE      CODE     ---       #546
      0100191FH   LINE      CODE     ---       #548
      01001924H   LINE      CODE     ---       #549
      ---         BLOCKEND  ---      ---       LVL=0

      010027F7H   BLOCK     CODE     ---       LVL=0
      010027F7H   BLOCK     CODE     NEAR LAB  LVL=1
      02000254H   SYMBOL    XDATA    CHAR      retVal
      ---         BLOCKEND  ---      ---       LVL=1
      010027F7H   LINE      CODE     ---       #557
      010027F7H   LINE      CODE     ---       #558
      010027F7H   LINE      CODE     ---       #559
      010027FDH   LINE      CODE     ---       #561
      01002826H   LINE      CODE     ---       #565
      01002826H   LINE      CODE     ---       #568
      0100282DH   LINE      CODE     ---       #569
      0100282DH   LINE      CODE     ---       #570
      01002831H   LINE      CODE     ---       #571
      01002831H   LINE      CODE     ---       #572
      01002836H   LINE      CODE     ---       #573
      01002836H   LINE      CODE     ---       #574
      01002836H   LINE      CODE     ---       #575
      01002838H   LINE      CODE     ---       #578
      0100283FH   LINE      CODE     ---       #579
      0100283FH   LINE      CODE     ---       #580
LX51 LINKER/LOCATER V4.66.30.0                                                        03/29/2016  00:06:41  PAGE 120


      01002849H   LINE      CODE     ---       #581
      01002849H   LINE      CODE     ---       #582
      0100284EH   LINE      CODE     ---       #583
      0100284EH   LINE      CODE     ---       #584
      01002853H   LINE      CODE     ---       #585
      01002853H   LINE      CODE     ---       #588
      01002859H   LINE      CODE     ---       #589
      01002859H   LINE      CODE     ---       #590
      01002869H   LINE      CODE     ---       #591
      01002869H   LINE      CODE     ---       #592
      01002869H   LINE      CODE     ---       #594
      0100286EH   LINE      CODE     ---       #595
      ---         BLOCKEND  ---      ---       LVL=0

      01001C2BH   BLOCK     CODE     ---       LVL=0
      01001C2BH   BLOCK     CODE     NEAR LAB  LVL=1
      02000254H   SYMBOL    XDATA    CHAR      retVal
      ---         BLOCKEND  ---      ---       LVL=1
      01001C2BH   LINE      CODE     ---       #603
      01001C2BH   LINE      CODE     ---       #604
      01001C2BH   LINE      CODE     ---       #605
      01001C31H   LINE      CODE     ---       #607
      01001C5EH   LINE      CODE     ---       #611
      01001C5EH   LINE      CODE     ---       #614
      01001C66H   LINE      CODE     ---       #615
      01001C66H   LINE      CODE     ---       #616
      01001C79H   LINE      CODE     ---       #618
      01001C79H   LINE      CODE     ---       #619
      01001C7CH   LINE      CODE     ---       #620
      01001C8CH   LINE      CODE     ---       #621
      01001C8CH   LINE      CODE     ---       #622
      01001C91H   LINE      CODE     ---       #623
      01001C96H   LINE      CODE     ---       #624
      01001C96H   LINE      CODE     ---       #625
      01001C96H   LINE      CODE     ---       #626
      01001C96H   LINE      CODE     ---       #627
      01001C98H   LINE      CODE     ---       #630
      01001C9DH   LINE      CODE     ---       #631
      01001C9DH   LINE      CODE     ---       #632
      01001CB6H   LINE      CODE     ---       #634
      01001CB6H   LINE      CODE     ---       #635
      01001CB9H   LINE      CODE     ---       #636
      01001CC3H   LINE      CODE     ---       #637
      01001CC3H   LINE      CODE     ---       #638
      01001CC8H   LINE      CODE     ---       #639
      01001CCBH   LINE      CODE     ---       #640
      01001CCDH   LINE      CODE     ---       #642
      01001CCDH   LINE      CODE     ---       #644
      01001CD2H   LINE      CODE     ---       #645
      01001CD2H   LINE      CODE     ---       #646
      01001CD7H   LINE      CODE     ---       #647
      01001CD7H   LINE      CODE     ---       #648
      01001CD7H   LINE      CODE     ---       #649
      01001CD7H   LINE      CODE     ---       #651
      01001CDCH   LINE      CODE     ---       #652
      ---         BLOCKEND  ---      ---       LVL=0

      0100234CH   BLOCK     CODE     ---       LVL=0
      0100234CH   BLOCK     CODE     NEAR LAB  LVL=1
      02000254H   SYMBOL    XDATA    CHAR      retVal
      ---         BLOCKEND  ---      ---       LVL=1
      0100234CH   LINE      CODE     ---       #660
LX51 LINKER/LOCATER V4.66.30.0                                                        03/29/2016  00:06:41  PAGE 121


      0100234CH   LINE      CODE     ---       #661
      0100234CH   LINE      CODE     ---       #662
      0100234FH   LINE      CODE     ---       #664
      0100235BH   LINE      CODE     ---       #665
      0100235BH   LINE      CODE     ---       #666
      01002362H   LINE      CODE     ---       #667
      01002362H   LINE      CODE     ---       #679
      01002362H   LINE      CODE     ---       #682
      01002370H   LINE      CODE     ---       #684
      01002370H   LINE      CODE     ---       #685
      01002375H   LINE      CODE     ---       #686
      01002377H   LINE      CODE     ---       #687
      0100238FH   LINE      CODE     ---       #690
      0100238FH   LINE      CODE     ---       #691
      01002392H   LINE      CODE     ---       #692
      01002398H   LINE      CODE     ---       #696
      0100239FH   LINE      CODE     ---       #697
      0100239FH   LINE      CODE     ---       #698
      010023AAH   LINE      CODE     ---       #699
      010023AAH   LINE      CODE     ---       #702
      010023B1H   LINE      CODE     ---       #703
      010023B1H   LINE      CODE     ---       #704
      010023C1H   LINE      CODE     ---       #705
      010023C1H   LINE      CODE     ---       #709
      010023CDH   LINE      CODE     ---       #710
      010023CDH   LINE      CODE     ---       #712
      010023CDH   LINE      CODE     ---       #713
      010023D0H   LINE      CODE     ---       #714
      010023D2H   LINE      CODE     ---       #727
      010023D2H   LINE      CODE     ---       #728
      010023D8H   LINE      CODE     ---       #729
      010023D8H   LINE      CODE     ---       #741
      010023D8H   LINE      CODE     ---       #742
      010023D8H   LINE      CODE     ---       #743
      010023D8H   LINE      CODE     ---       #744
      010023D8H   LINE      CODE     ---       #746
      010023DDH   LINE      CODE     ---       #747
      ---         BLOCKEND  ---      ---       LVL=0

      0100347BH   BLOCK     CODE     ---       LVL=0
      0100347BH   BLOCK     CODE     NEAR LAB  LVL=1
      00000007H   SYMBOL    DATA     CHAR      retVal
      00000006H   SYMBOL    DATA     BYTE      interface
      00000005H   SYMBOL    DATA     BYTE      altSetting
      ---         BLOCKEND  ---      ---       LVL=1
      0100347BH   LINE      CODE     ---       #755
      0100347BH   LINE      CODE     ---       #756
      0100347BH   LINE      CODE     ---       #757
      0100347DH   LINE      CODE     ---       #758
      01003483H   LINE      CODE     ---       #759
      01003489H   LINE      CODE     ---       #761
      010034AAH   LINE      CODE     ---       #768
      010034AAH   LINE      CODE     ---       #778
      010034AFH   LINE      CODE     ---       #780
      010034B1H   LINE      CODE     ---       #782
      010034B1H   LINE      CODE     ---       #784
      010034B1H   LINE      CODE     ---       #785
      ---         BLOCKEND  ---      ---       LVL=0

      010038A7H   BLOCK     CODE     ---       LVL=0
      00000020H.3 SYMBOL    BIT      BIT       forceIdle
      010038A7H   LINE      CODE     ---       #796
LX51 LINKER/LOCATER V4.66.30.0                                                        03/29/2016  00:06:41  PAGE 122


      010038A7H   LINE      CODE     ---       #797
      010038A7H   LINE      CODE     ---       #798
      010038AAH   LINE      CODE     ---       #799
      010038AAH   LINE      CODE     ---       #801
      010038B0H   LINE      CODE     ---       #810
      010038B4H   LINE      CODE     ---       #818
      010038B4H   LINE      CODE     ---       #821
      010038BCH   LINE      CODE     ---       #842
      ---         BLOCKEND  ---      ---       LVL=0

      0100384AH   BLOCK     CODE     ---       LVL=0
      00000001H   SYMBOL    DATA     ---       dat
      00000004H   SYMBOL    DATA     WORD      numBytes
      0100384AH   LINE      CODE     ---       #871
      0100384AH   LINE      CODE     ---       #872
      0100384AH   LINE      CODE     ---       #873
      01003851H   LINE      CODE     ---       #874
      01003851H   LINE      CODE     ---       #875
      01003857H   LINE      CODE     ---       #876
      01003861H   LINE      CODE     ---       #877
      01003865H   LINE      CODE     ---       #878
      01003868H   LINE      CODE     ---       #879
      01003868H   LINE      CODE     ---       #880
      ---         BLOCKEND  ---      ---       LVL=0

      ---         MODULE    ---      ---       EFM8_USBDEP
      00000020H.5 PUBLIC    BIT      BIT       ?_USB_WriteFIFO?BIT
      010028E5H   PUBLIC    CODE     ---       _USB_WriteFIFO
      01002C32H   PUBLIC    CODE     ---       _USB_ReadFIFO
      01001338H   PUBLIC    CODE     ---       handleUsbOut1Int
      010020EAH   PUBLIC    CODE     ---       handleUsbIn1Int
      000000A2H   SFRSYM    DATA     BYTE      SPI0CKR
      00000080H   SFRSYM    DATA     BYTE      P0
      000000C8H.6 SFRSYM    DATA     BIT       SCON1_PERR
      000000D0H.2 SFRSYM    DATA     BIT       PSW_OV
      00000090H   SFRSYM    DATA     BYTE      P1
      000000F8H.1 SFRSYM    DATA     BIT       SPI0CN0_TXNF
      00000097H   SFRSYM    DATA     BYTE      WDTCN
      000000A0H   SFRSYM    DATA     BYTE      P2
      000000B0H   SFRSYM    DATA     BYTE      P3
      000000BCH   SFRSYM    DATA     BYTE      ADC0CF
      000000C0H.7 SFRSYM    DATA     BIT       SMB0CN0_MASTER
      000000F9H   SFRSYM    DATA     WORD      PCA0
      000000E6H   SFRSYM    DATA     BYTE      EIE1
      000000C0H.1 SFRSYM    DATA     BIT       SMB0CN0_ACK
      000000B3H   SFRSYM    DATA     BYTE      USB0XCN
      000000CEH   SFRSYM    DATA     BYTE      EIE2
      0000008FH   SFRSYM    DATA     BYTE      PSCTL
      000000E4H   SFRSYM    DATA     BYTE      IT01CF
      000000C0H.6 SFRSYM    DATA     BIT       SMB0CN0_TXMODE
      000000ADH   SFRSYM    DATA     BYTE      DERIVID
      000000A7H   SFRSYM    DATA     BYTE      SFRPAGE
      000000A4H   SFRSYM    DATA     BYTE      P0MDOUT
      000000BFH   SFRSYM    DATA     BYTE      USB0CDSTA
      000000A5H   SFRSYM    DATA     BYTE      P1MDOUT
      000000E8H.5 SFRSYM    DATA     BIT       ADC0CN0_ADINT
      000000CBH   SFRSYM    DATA     BYTE      TMR2RLH
      000000A6H   SFRSYM    DATA     BYTE      P2MDOUT
      000000A8H   SFRSYM    DATA     BYTE      IE
      00000093H   SFRSYM    DATA     BYTE      TMR3RLH
      0000009CH   SFRSYM    DATA     BYTE      P3MDOUT
      000000A3H   SFRSYM    DATA     BYTE      TMR4RLH
LX51 LINKER/LOCATER V4.66.30.0                                                        03/29/2016  00:06:41  PAGE 123


      000000F3H   SFRSYM    DATA     BYTE      EIP1
      000000F4H   SFRSYM    DATA     BYTE      EIP2
      00000098H.2 SFRSYM    DATA     BIT       SCON0_RB8
      000000CAH   SFRSYM    DATA     BYTE      TMR2RLL
      000000FCH   SFRSYM    DATA     BYTE      PCA0CPH0
      00000092H   SFRSYM    DATA     BYTE      TMR3RLL
      000000EAH   SFRSYM    DATA     BYTE      PCA0CPH1
      00000098H.3 SFRSYM    DATA     BIT       SCON0_TB8
      000000F0H   SFRSYM    DATA     BIT       B_B0
      00000082H   SFRSYM    DATA     WORD      DP
      000000A2H   SFRSYM    DATA     BYTE      TMR4RLL
      000000ECH   SFRSYM    DATA     BYTE      PCA0CPH2
      000000F0H.1 SFRSYM    DATA     BIT       B_B1
      000000C3H   SFRSYM    DATA     WORD      ADC0GT
      000000BDH   SFRSYM    DATA     BYTE      I2C0SLAD
      000000D8H.3 SFRSYM    DATA     BIT       UART1FCN1_RFRQ
      000000F0H.2 SFRSYM    DATA     BIT       B_B2
      000000CFH   SFRSYM    DATA     BYTE      SFRPGCN
      000000FBH   SFRSYM    DATA     BYTE      PCA0CPL0
      000000F0H.3 SFRSYM    DATA     BIT       B_B3
      000000D9H   SFRSYM    DATA     BYTE      PCA0MD
      000000DAH   SFRSYM    DATA     BYTE      PCA0CPM0
      000000E9H   SFRSYM    DATA     BYTE      PCA0CPL1
      000000D8H.7 SFRSYM    DATA     BIT       UART1FCN1_TFRQ
      000000F0H.4 SFRSYM    DATA     BIT       B_B4
      000000DBH   SFRSYM    DATA     BYTE      PCA0CPM1
      000000EBH   SFRSYM    DATA     BYTE      PCA0CPL2
      000000F0H.5 SFRSYM    DATA     BIT       B_B5
      000000DCH   SFRSYM    DATA     BYTE      PCA0CPM2
      000000B8H   SFRSYM    DATA     BYTE      IP
      000000B9H   SFRSYM    DATA     BYTE      ADC0TK
      000000F0H.6 SFRSYM    DATA     BIT       B_B6
      000000C5H   SFRSYM    DATA     WORD      ADC0LT
      000000D8H.6 SFRSYM    DATA     BIT       UART1FCN1_TXNF
      00000098H.5 SFRSYM    DATA     BIT       SCON0_MCE
      000000F0H.7 SFRSYM    DATA     BIT       B_B7
      000000C3H   SFRSYM    DATA     BYTE      SMB0FCN0
      000000E1H   SFRSYM    DATA     BYTE      XBR0
      000000C4H   SFRSYM    DATA     BYTE      SMB0FCN1
      000000C1H   SFRSYM    DATA     BYTE      SMB0CF
      000000E2H   SFRSYM    DATA     BYTE      XBR1
      000000C1H   SFRSYM    DATA     BYTE      PFE0CN
      000000E7H   SFRSYM    DATA     BYTE      EMI0CN
      000000C0H.5 SFRSYM    DATA     BIT       SMB0CN0_STA
      000000E3H   SFRSYM    DATA     BYTE      XBR2
      000000BBH   SFRSYM    DATA     BYTE      ADC0MX
      000000E0H   SFRSYM    DATA     BIT       ACC_ACC0
      000000D1H   SFRSYM    DATA     BYTE      REF0CN
      0000008EH   SFRSYM    DATA     BYTE      CKCON0
      000000E0H.1 SFRSYM    DATA     BIT       ACC_ACC1
      000000C9H   SFRSYM    DATA     BYTE      REG0CN
      000000DDH   SFRSYM    DATA     BYTE      CRC0IN
      000000A6H   SFRSYM    DATA     BYTE      CKCON1
      000000C8H.2 SFRSYM    DATA     BIT       TMR2CN0_TR2
      000000E0H.2 SFRSYM    DATA     BIT       ACC_ACC2
      000000C6H   SFRSYM    DATA     BYTE      REG1CN
      000000E0H.3 SFRSYM    DATA     BIT       ACC_ACC3
      00000081H   SFRSYM    DATA     BYTE      SP
      0000009DH   SFRSYM    DATA     BYTE      CMP0MD
      000000E0H.4 SFRSYM    DATA     BIT       ACC_ACC4
      000000B1H   SFRSYM    DATA     BYTE      LFO0CN
      000000ABH   SFRSYM    DATA     BYTE      CMP1MD
LX51 LINKER/LOCATER V4.66.30.0                                                        03/29/2016  00:06:41  PAGE 124


      000000D8H   SFRSYM    DATA     BIT       PCA0CN0_CCF0
      000000E0H.5 SFRSYM    DATA     BIT       ACC_ACC5
      000000B5H   SFRSYM    DATA     BYTE      USB0CF
      00000098H.2 SFRSYM    DATA     BIT       TMR4CN0_TR4
      000000D8H.1 SFRSYM    DATA     BIT       PCA0CN0_CCF1
      000000E0H.6 SFRSYM    DATA     BIT       ACC_ACC6
      000000CCH   SFRSYM    DATA     WORD      TMR2
      0000009AH   SFRSYM    DATA     BYTE      SPI0FCN0
      000000D8H.2 SFRSYM    DATA     BIT       PCA0CN0_CCF2
      000000E0H.7 SFRSYM    DATA     BIT       ACC_ACC7
      00000094H   SFRSYM    DATA     WORD      TMR3
      0000009BH   SFRSYM    DATA     BYTE      SPI0FCN1
      000000A4H   SFRSYM    DATA     WORD      TMR4
      00000094H   SFRSYM    DATA     BYTE      SBCON1
      000000C0H.3 SFRSYM    DATA     BIT       SMB0CN0_ACKRQ
      000000FFH   SFRSYM    DATA     BYTE      VDM0CN
      000000F1H   SFRSYM    DATA     BYTE      P0MDIN
      00000098H.4 SFRSYM    DATA     BIT       SCON0_REN
      000000ACH   SFRSYM    DATA     BYTE      SMB0TC
      000000F2H   SFRSYM    DATA     BYTE      P1MDIN
      000000C8H.4 SFRSYM    DATA     BIT       SCON1_REN
      000000F3H   SFRSYM    DATA     BYTE      P2MDIN
      000000C0H.4 SFRSYM    DATA     BIT       SMB0CN0_STO
      000000B6H   SFRSYM    DATA     BYTE      USB0CDCF
      000000F4H   SFRSYM    DATA     BYTE      P3MDIN
      000000B9H   SFRSYM    DATA     BYTE      I2C0STAT
      000000BBH   SFRSYM    DATA     BYTE      I2C0DOUT
      00000096H   SFRSYM    DATA     BYTE      SBRLH1
      000000FEH   SFRSYM    DATA     BYTE      P0MASK
      000000D8H.5 SFRSYM    DATA     BIT       UART1FCN1_TXHOLD
      000000EEH   SFRSYM    DATA     BYTE      P1MASK
      000000FCH   SFRSYM    DATA     BYTE      P2MASK
      000000D0H.3 SFRSYM    DATA     BIT       PSW_RS0
      000000D8H.7 SFRSYM    DATA     BIT       PCA0CN0_CF
      0000009EH   SFRSYM    DATA     BYTE      PCA0CENT
      000000BAH   SFRSYM    DATA     BYTE      I2C0CN0
      000000D2H   SFRSYM    DATA     BYTE      CRC0ST
      000000F8H.4 SFRSYM    DATA     BIT       SPI0CN0_RXOVRN
      000000D0H.4 SFRSYM    DATA     BIT       PSW_RS1
      00000095H   SFRSYM    DATA     BYTE      SBRLL1
      000000C8H.2 SFRSYM    DATA     BIT       SCON1_RBX
      000000C8H   SFRSYM    DATA     BIT       TMR2CN0_T2XCLK0
      000000C8H.1 SFRSYM    DATA     BIT       TMR2CN0_T2XCLK1
      000000C8H.3 SFRSYM    DATA     BIT       SCON1_TBX
      000000E8H.7 SFRSYM    DATA     BIT       ADC0CN0_ADEN
      000000BEH   SFRSYM    DATA     BYTE      USB0CDCN
      00000089H   SFRSYM    DATA     BYTE      TMOD
      00000088H   SFRSYM    DATA     BYTE      TCON
      000000CFH   SFRSYM    DATA     BYTE      CRC0FLIP
      000000D0H   SFRSYM    DATA     BIT       PSW_PARITY
      000000A8H.4 SFRSYM    DATA     BIT       IE_ES0
      0000009FH   SFRSYM    DATA     BYTE      CMP0MX
      00000098H   SFRSYM    DATA     BIT       TMR4CN0_T4XCLK0
      000000A8H.1 SFRSYM    DATA     BIT       IE_ET0
      000000AAH   SFRSYM    DATA     BYTE      CMP1MX
      00000098H.1 SFRSYM    DATA     BIT       TMR4CN0_T4XCLK1
      000000A8H.3 SFRSYM    DATA     BIT       IE_ET1
      000000D4H   SFRSYM    DATA     BYTE      P0SKIP
      000000D8H   SFRSYM    DATA     BIT       UART1FCN1_RIE
      000000A8H.5 SFRSYM    DATA     BIT       IE_ET2
      000000D5H   SFRSYM    DATA     BYTE      P1SKIP
      000000CCH   SFRSYM    DATA     BYTE      P2SKIP
LX51 LINKER/LOCATER V4.66.30.0                                                        03/29/2016  00:06:41  PAGE 125


      000000E8H   SFRSYM    DATA     BYTE      ADC0CN0
      000000D8H.4 SFRSYM    DATA     BIT       UART1FCN1_TIE
      000000A8H   SFRSYM    DATA     BIT       IE_EX0
      000000B2H   SFRSYM    DATA     BYTE      ADC0CN1
      000000D8H.6 SFRSYM    DATA     BIT       PCA0CN0_CR
      000000A8H.2 SFRSYM    DATA     BIT       IE_EX1
      000000C8H.7 SFRSYM    DATA     BIT       SCON1_OVR
      00000098H.7 SFRSYM    DATA     BIT       SCON0_SMODE
      000000B5H   SFRSYM    DATA     BYTE      DEVICEID
      000000A9H   SFRSYM    DATA     BYTE      CLKSEL
      000000F8H   SFRSYM    DATA     BIT       SPI0CN0_SPIEN
      000000F0H   SFRSYM    DATA     BYTE      B
      000000BEH   SFRSYM    DATA     BYTE      ADC0H
      000000E8H.6 SFRSYM    DATA     BIT       ADC0CN0_ADBMEN
      000000CAH   SFRSYM    DATA     WORD      TMR2RL
      000000BDH   SFRSYM    DATA     BYTE      ADC0L
      00000092H   SFRSYM    DATA     WORD      TMR3RL
      000000A2H   SFRSYM    DATA     WORD      TMR4RL
      000000D8H   SFRSYM    DATA     BYTE      PCA0CN0
      000000E0H   SFRSYM    DATA     BYTE      ACC
      000000FBH   SFRSYM    DATA     WORD      PCA0CP0
      000000E9H   SFRSYM    DATA     WORD      PCA0CP1
      000000EBH   SFRSYM    DATA     WORD      PCA0CP2
      000000BCH   SFRSYM    DATA     BYTE      I2C0DIN
      000000CEH   SFRSYM    DATA     BYTE      CRC0CN0
      0000008CH   SFRSYM    DATA     BYTE      TH0
      00000086H   SFRSYM    DATA     BYTE      CRC0CN1
      000000B8H.4 SFRSYM    DATA     BIT       IP_PS0
      000000FAH   SFRSYM    DATA     BYTE      UART1FCT
      0000008DH   SFRSYM    DATA     BYTE      TH1
      000000FAH   SFRSYM    DATA     BYTE      PCA0H
      000000F5H   SFRSYM    DATA     BYTE      I2C0FCT
      000000B8H.1 SFRSYM    DATA     BIT       IP_PT0
      000000B8H.3 SFRSYM    DATA     BIT       IP_PT1
      000000C0H.2 SFRSYM    DATA     BIT       SMB0CN0_ARBLOST
      000000B8H.5 SFRSYM    DATA     BIT       IP_PT2
      0000008AH   SFRSYM    DATA     BYTE      TL0
      000000D0H.5 SFRSYM    DATA     BIT       PSW_F0
      000000A8H.6 SFRSYM    DATA     BIT       IE_ESPI0
      0000008BH   SFRSYM    DATA     BYTE      TL1
      000000F9H   SFRSYM    DATA     BYTE      PCA0L
      000000C0H   SFRSYM    DATA     BIT       SMB0CN0_SI
      000000D0H.1 SFRSYM    DATA     BIT       PSW_F1
      00000080H   SFRSYM    DATA     BIT       P0_B0
      000000B8H   SFRSYM    DATA     BIT       IP_PX0
      00000090H   SFRSYM    DATA     BIT       P1_B0
      00000080H.1 SFRSYM    DATA     BIT       P0_B1
      000000B8H.2 SFRSYM    DATA     BIT       IP_PX1
      0000009EH   SFRSYM    DATA     BYTE      UART1LIN
      0000009BH   SFRSYM    DATA     BYTE      CMP0CN0
      00000088H.1 SFRSYM    DATA     BIT       TCON_IE0
      000000A0H   SFRSYM    DATA     BIT       P2_B0
      00000090H.1 SFRSYM    DATA     BIT       P1_B1
      00000080H.2 SFRSYM    DATA     BIT       P0_B2
      000000BFH   SFRSYM    DATA     BYTE      CMP1CN0
      00000099H   SFRSYM    DATA     BYTE      CMP0CN1
      00000088H.3 SFRSYM    DATA     BIT       TCON_IE1
      000000B0H   SFRSYM    DATA     BIT       P3_B0
      000000A0H.1 SFRSYM    DATA     BIT       P2_B1
      00000090H.2 SFRSYM    DATA     BIT       P1_B2
      00000080H.3 SFRSYM    DATA     BIT       P0_B3
      000000C0H   SFRSYM    DATA     BYTE      SMB0CN0
LX51 LINKER/LOCATER V4.66.30.0                                                        03/29/2016  00:06:41  PAGE 126


      000000ACH   SFRSYM    DATA     BYTE      CMP1CN1
      000000B0H.1 SFRSYM    DATA     BIT       P3_B1
      000000A0H.2 SFRSYM    DATA     BIT       P2_B2
      00000090H.3 SFRSYM    DATA     BIT       P1_B3
      00000080H.4 SFRSYM    DATA     BIT       P0_B4
      000000A0H.3 SFRSYM    DATA     BIT       P2_B3
      00000090H.4 SFRSYM    DATA     BIT       P1_B4
      00000080H.5 SFRSYM    DATA     BIT       P0_B5
      000000D8H.1 SFRSYM    DATA     BIT       UART1FCN1_RXTO0
      00000090H.5 SFRSYM    DATA     BIT       P1_B5
      00000080H.6 SFRSYM    DATA     BIT       P0_B6
      000000F5H   SFRSYM    DATA     BYTE      EIP1H
      000000D8H.2 SFRSYM    DATA     BIT       UART1FCN1_RXTO1
      00000090H.6 SFRSYM    DATA     BIT       P1_B6
      00000080H.7 SFRSYM    DATA     BIT       P0_B7
      000000C5H   SFRSYM    DATA     BYTE      SMB0RXLN
      000000F6H   SFRSYM    DATA     BYTE      EIP2H
      00000090H.7 SFRSYM    DATA     BIT       P1_B7
      00000083H   SFRSYM    DATA     BYTE      DPH
      000000C4H   SFRSYM    DATA     BYTE      ADC0GTH
      000000C8H.7 SFRSYM    DATA     BIT       TMR2CN0_TF2H
      000000C8H.3 SFRSYM    DATA     BIT       TMR2CN0_T2SPLIT
      000000D0H.6 SFRSYM    DATA     BIT       PSW_AC
      000000F8H   SFRSYM    DATA     BYTE      SPI0CN0
      000000C7H   SFRSYM    DATA     BYTE      HFO0CAL
      00000088H.5 SFRSYM    DATA     BIT       TCON_TF0
      00000098H   SFRSYM    DATA     BIT       SCON0_RI
      000000D6H   SFRSYM    DATA     BYTE      HFO1CAL
      00000082H   SFRSYM    DATA     BYTE      DPL
      00000088H.7 SFRSYM    DATA     BIT       TCON_TF1
      000000C8H   SFRSYM    DATA     BIT       SCON1_RI
      00000099H   SFRSYM    DATA     BYTE      SBUF0
      00000087H   SFRSYM    DATA     BYTE      PCON0
      000000F2H   SFRSYM    DATA     BYTE      IPH
      000000C3H   SFRSYM    DATA     BYTE      ADC0GTL
      00000098H.7 SFRSYM    DATA     BIT       TMR4CN0_TF4H
      00000098H.3 SFRSYM    DATA     BIT       TMR4CN0_T4SPLIT
      000000C8H.6 SFRSYM    DATA     BIT       TMR2CN0_TF2L
      00000098H.1 SFRSYM    DATA     BIT       SCON0_TI
      000000E8H   SFRSYM    DATA     BIT       ADC0CN0_ADCM0
      00000092H   SFRSYM    DATA     BYTE      SBUF1
      0000009AH   SFRSYM    DATA     BYTE      PCON1
      000000C6H   SFRSYM    DATA     BYTE      ADC0LTH
      00000088H   SFRSYM    DATA     BIT       TCON_IT0
      000000C8H.1 SFRSYM    DATA     BIT       SCON1_TI
      000000E8H.1 SFRSYM    DATA     BIT       ADC0CN0_ADCM1
      000000EFH   SFRSYM    DATA     BYTE      RSTSRC
      000000FDH   SFRSYM    DATA     BYTE      P0MAT
      000000DEH   SFRSYM    DATA     BYTE      CRC0DAT
      00000088H.2 SFRSYM    DATA     BIT       TCON_IT1
      000000E8H.2 SFRSYM    DATA     BIT       ADC0CN0_ADCM2
      000000D7H   SFRSYM    DATA     BYTE      SFRSTACK
      00000098H   SFRSYM    DATA     BYTE      SCON0
      000000F6H   SFRSYM    DATA     BYTE      PRTDRV
      000000EDH   SFRSYM    DATA     BYTE      P1MAT
      000000E8H.3 SFRSYM    DATA     BIT       ADC0CN0_ADWINT
      00000095H   SFRSYM    DATA     WORD      SBRL1
      000000B2H   SFRSYM    DATA     BYTE      USB0AEC
      00000093H   SFRSYM    DATA     BYTE      SMOD1
      000000C8H   SFRSYM    DATA     BYTE      SCON1
      000000FBH   SFRSYM    DATA     BYTE      P2MAT
      00000098H.6 SFRSYM    DATA     BIT       TMR4CN0_TF4L
LX51 LINKER/LOCATER V4.66.30.0                                                        03/29/2016  00:06:41  PAGE 127


      000000E8H.4 SFRSYM    DATA     BIT       ADC0CN0_ADBUSY
      000000D6H   SFRSYM    DATA     BYTE      SMB0ADM
      000000C5H   SFRSYM    DATA     BYTE      ADC0LTL
      000000F8H.5 SFRSYM    DATA     BIT       SPI0CN0_MODF
      000000B8H.6 SFRSYM    DATA     BIT       IP_PSPI0
      0000009CH   SFRSYM    DATA     BYTE      PCA0CLR
      000000C8H   SFRSYM    DATA     BYTE      TMR2CN0
      00000091H   SFRSYM    DATA     BYTE      TMR3CN0
      000000FDH   SFRSYM    DATA     BYTE      TMR2CN1
      00000098H   SFRSYM    DATA     BYTE      TMR4CN0
      000000FEH   SFRSYM    DATA     BYTE      TMR3CN1
      000000FFH   SFRSYM    DATA     BYTE      TMR4CN1
      000000D7H   SFRSYM    DATA     BYTE      SMB0ADR
      00000088H.4 SFRSYM    DATA     BIT       TCON_TR0
      000000C8H.4 SFRSYM    DATA     BIT       TMR2CN0_TF2CEN
      00000088H.6 SFRSYM    DATA     BIT       TCON_TR1
      000000C2H   SFRSYM    DATA     BYTE      SMB0DAT
      000000CDH   SFRSYM    DATA     BYTE      TMR2H
      000000A1H   SFRSYM    DATA     BYTE      SPI0CFG
      00000095H   SFRSYM    DATA     BYTE      TMR3H
      000000EFH   SFRSYM    DATA     BYTE      HFOCN
      000000D3H   SFRSYM    DATA     BYTE      CRC0CNT
      000000A5H   SFRSYM    DATA     BYTE      TMR4H
      00000098H.4 SFRSYM    DATA     BIT       TMR4CN0_TF4CEN
      000000EFH   SFRSYM    DATA     BYTE      SMB0FCT
      00000096H   SFRSYM    DATA     BYTE      PCA0POL
      000000CCH   SFRSYM    DATA     BYTE      TMR2L
      000000F8H.7 SFRSYM    DATA     BIT       SPI0CN0_SPIF
      000000AEH   SFRSYM    DATA     BYTE      USB0ADR
      00000094H   SFRSYM    DATA     BYTE      TMR3L
      000000DFH   SFRSYM    DATA     BYTE      ADC0PWR
      000000A8H.7 SFRSYM    DATA     BIT       IE_EA
      000000A4H   SFRSYM    DATA     BYTE      TMR4L
      000000AFH   SFRSYM    DATA     BYTE      USB0DAT
      000000C8H.5 SFRSYM    DATA     BIT       TMR2CN0_TF2LEN
      000000F8H.6 SFRSYM    DATA     BIT       SPI0CN0_WCOL
      000000F8H.2 SFRSYM    DATA     BIT       SPI0CN0_NSSMD0
      000000D0H.7 SFRSYM    DATA     BIT       PSW_CY
      0000009DH   SFRSYM    DATA     BYTE      UART1FCN0
      000000A3H   SFRSYM    DATA     BYTE      SPI0DAT
      000000ADH   SFRSYM    DATA     BYTE      I2C0FCN0
      000000F8H.3 SFRSYM    DATA     BIT       SPI0CN0_NSSMD1
      000000BDH   SFRSYM    DATA     WORD      ADC0
      000000D8H   SFRSYM    DATA     BYTE      UART1FCN1
      000000ABH   SFRSYM    DATA     BYTE      I2C0FCN1
      00000098H.5 SFRSYM    DATA     BIT       TMR4CN0_TF4LEN
      000000D0H   SFRSYM    DATA     BYTE      PSW
      000000F7H   SFRSYM    DATA     BYTE      PCA0PWM
      000000F7H   SFRSYM    DATA     BYTE      SPI0FCT
      000000B6H   SFRSYM    DATA     BYTE      REVID
      000000B7H   SFRSYM    DATA     BYTE      FLKEY
      000000B3H   SFRSYM    DATA     BYTE      ADC0AC
      010038C4H   SYMBOL    CODE     ---       _USB_ReadFIFO_Idata
      01003869H   SYMBOL    CODE     ---       _USB_ReadFIFO_Pdata
      010037C9H   SYMBOL    CODE     ---       _USB_ReadFIFO_Xdata
      01003A7EH   SYMBOL    CODE     ---       _USB_WriteFIFO_Idata
      01003A92H   SYMBOL    CODE     ---       _USB_WriteFIFO_Pdata
      01003A3EH   SYMBOL    CODE     ---       _USB_WriteFIFO_Xdata
      010039F9H   SYMBOL    CODE     ---       _USB_WriteFIFO_Code

      01003763H   BLOCK     CODE     ---       LVL=0
      ---         BLOCKEND  ---      ---       LVL=0
LX51 LINKER/LOCATER V4.66.30.0                                                        03/29/2016  00:06:41  PAGE 128



      010020EAH   BLOCK     CODE     ---       LVL=0
      010020EAH   BLOCK     CODE     NEAR LAB  LVL=1
      02000253H   SYMBOL    XDATA    BYTE      xferred
      00000020H.3 SYMBOL    BIT      BIT       callback
      ---         BLOCKEND  ---      ---       LVL=1
      010020EAH   LINE      CODE     ---       #121
      010020EAH   LINE      CODE     ---       #122
      010020EAH   LINE      CODE     ---       #126
      010020EFH   LINE      CODE     ---       #128
      010020F4H   LINE      CODE     ---       #129
      010020F4H   LINE      CODE     ---       #130
      01002104H   LINE      CODE     ---       #132
      0100210FH   LINE      CODE     ---       #133
      0100210FH   LINE      CODE     ---       #134
      01002122H   LINE      CODE     ---       #136
      01002131H   LINE      CODE     ---       #137
      0100213AH   LINE      CODE     ---       #139
      01002141H   LINE      CODE     ---       #142
      0100214BH   LINE      CODE     ---       #143
      0100214BH   LINE      CODE     ---       #144
      0100216BH   LINE      CODE     ---       #150
      0100216DH   LINE      CODE     ---       #152
      0100216DH   LINE      CODE     ---       #153
      01002174H   LINE      CODE     ---       #154
      0100217AH   LINE      CODE     ---       #155
      0100217AH   LINE      CODE     ---       #157
      0100217DH   LINE      CODE     ---       #158
      0100217DH   LINE      CODE     ---       #159
      0100218EH   LINE      CODE     ---       #160
      0100218EH   LINE      CODE     ---       #162
      0100218EH   LINE      CODE     ---       #163
      ---         BLOCKEND  ---      ---       LVL=0

      01001338H   BLOCK     CODE     ---       LVL=0
      01001338H   BLOCK     CODE     NEAR LAB  LVL=1
      02000253H   SYMBOL    XDATA    BYTE      count
      02000254H   SYMBOL    XDATA    CHAR      status
      00000020H.3 SYMBOL    BIT      BIT       xferComplete
      ---         BLOCKEND  ---      ---       LVL=1
      01001338H   LINE      CODE     ---       #317
      01001338H   LINE      CODE     ---       #318
      01001338H   LINE      CODE     ---       #322
      0100133AH   LINE      CODE     ---       #324
      0100133FH   LINE      CODE     ---       #326
      01001344H   LINE      CODE     ---       #327
      01001344H   LINE      CODE     ---       #328
      01001359H   LINE      CODE     ---       #330
      01001361H   LINE      CODE     ---       #331
      01001361H   LINE      CODE     ---       #332
      01001369H   LINE      CODE     ---       #335
      01001371H   LINE      CODE     ---       #336
      01001371H   LINE      CODE     ---       #337
      01001376H   LINE      CODE     ---       #338
      0100137CH   LINE      CODE     ---       #339
      0100137FH   LINE      CODE     ---       #341
      01001393H   LINE      CODE     ---       #342
      01001393H   LINE      CODE     ---       #343
      01001399H   LINE      CODE     ---       #344
      0100139EH   LINE      CODE     ---       #345
      010013A4H   LINE      CODE     ---       #346
      010013A6H   LINE      CODE     ---       #348
LX51 LINKER/LOCATER V4.66.30.0                                                        03/29/2016  00:06:41  PAGE 129


      010013A6H   LINE      CODE     ---       #349
      010013B1H   LINE      CODE     ---       #351
      010013B8H   LINE      CODE     ---       #352
      010013CDH   LINE      CODE     ---       #353
      010013D6H   LINE      CODE     ---       #355
      010013E5H   LINE      CODE     ---       #356
      010013E5H   LINE      CODE     ---       #357
      010013EBH   LINE      CODE     ---       #358
      010013EDH   LINE      CODE     ---       #359
      010013EDH   LINE      CODE     ---       #360
      010013F2H   LINE      CODE     ---       #361
      01001402H   LINE      CODE     ---       #362
      01001402H   LINE      CODE     ---       #363
      01001409H   LINE      CODE     ---       #364
      01001409H   LINE      CODE     ---       #365
      0100140CH   LINE      CODE     ---       #366
      0100140CH   LINE      CODE     ---       #367
      0100140FH   LINE      CODE     ---       #368
      0100140FH   LINE      CODE     ---       #369
      01001423H   LINE      CODE     ---       #370
      01001423H   LINE      CODE     ---       #371
      01001423H   LINE      CODE     ---       #372
      ---         BLOCKEND  ---      ---       LVL=0

      01002C32H   BLOCK     CODE     ---       LVL=0
      02000255H   SYMBOL    XDATA    BYTE      fifoNum
      02000256H   SYMBOL    XDATA    BYTE      numBytes
      02000257H   SYMBOL    XDATA    ---       dat
      01002C32H   LINE      CODE     ---       #556
      01002C42H   LINE      CODE     ---       #557
      01002C42H   LINE      CODE     ---       #558
      01002C47H   LINE      CODE     ---       #559
      01002C47H   LINE      CODE     ---       #560
      01002C55H   LINE      CODE     ---       #567
      01002C64H   LINE      CODE     ---       #568
      01002C64H   LINE      CODE     ---       #569
      01002C64H   LINE      CODE     ---       #570
      01002C71H   LINE      CODE     ---       #571
      01002C71H   LINE      CODE     ---       #582
      01002C71H   LINE      CODE     ---       #583
      01002C83H   LINE      CODE     ---       #584
      01002C83H   LINE      CODE     ---       #590
      01002C83H   LINE      CODE     ---       #591
      01002C93H   LINE      CODE     ---       #592
      01002C93H   LINE      CODE     ---       #595
      01002C93H   LINE      CODE     ---       #596
      01002C93H   LINE      CODE     ---       #597
      01002C93H   LINE      CODE     ---       #604
      01002C93H   LINE      CODE     ---       #605
      ---         BLOCKEND  ---      ---       LVL=0

      010028E5H   BLOCK     CODE     ---       LVL=0
      0200025FH   SYMBOL    XDATA    BYTE      fifoNum
      02000260H   SYMBOL    XDATA    BYTE      numBytes
      02000261H   SYMBOL    XDATA    ---       dat
      00000020H.5 SYMBOL    BIT      BIT       txPacket
      010028E5H   LINE      CODE     ---       #621
      010028F1H   LINE      CODE     ---       #622
      010028F1H   LINE      CODE     ---       #623
      010028FEH   LINE      CODE     ---       #630
      0100290FH   LINE      CODE     ---       #631
      0100290FH   LINE      CODE     ---       #632
LX51 LINKER/LOCATER V4.66.30.0                                                        03/29/2016  00:06:41  PAGE 130


      0100290FH   LINE      CODE     ---       #633
      01002917H   LINE      CODE     ---       #634
      01002919H   LINE      CODE     ---       #645
      01002919H   LINE      CODE     ---       #646
      01002923H   LINE      CODE     ---       #647
      01002925H   LINE      CODE     ---       #653
      01002925H   LINE      CODE     ---       #654
      0100292DH   LINE      CODE     ---       #655
      0100292FH   LINE      CODE     ---       #658
      0100292FH   LINE      CODE     ---       #659
      01002939H   LINE      CODE     ---       #660
      01002939H   LINE      CODE     ---       #662
      01002939H   LINE      CODE     ---       #663
      01002939H   LINE      CODE     ---       #664
      01002939H   LINE      CODE     ---       #672
      01002946H   LINE      CODE     ---       #673
      01002946H   LINE      CODE     ---       #674
      01002949H   LINE      CODE     ---       #675
      01002959H   LINE      CODE     ---       #676
      01002959H   LINE      CODE     ---       #677
      ---         BLOCKEND  ---      ---       LVL=0

      010038C4H   BLOCK     CODE     ---       LVL=0
      00000007H   SYMBOL    DATA     BYTE      numBytes
      00000000H   SYMBOL    DATA     ---       dat
      00000003H   SYMBOL    DATA     BYTE      fifoNum
      010038C4H   LINE      CODE     ---       #696
      010038C6H   LINE      CODE     ---       #697
      010038C6H   LINE      CODE     ---       #698
      010038CAH   LINE      CODE     ---       #699
      010038CAH   LINE      CODE     ---       #700
      010038D1H   LINE      CODE     ---       #701
      010038D2H   LINE      CODE     ---       #702
      010038D4H   LINE      CODE     ---       #703
      010038E0H   LINE      CODE     ---       #704
      ---         BLOCKEND  ---      ---       LVL=0

      01003A7EH   BLOCK     CODE     ---       LVL=0
      00000007H   SYMBOL    DATA     BYTE      numBytes
      00000000H   SYMBOL    DATA     ---       dat
      01003A7EH   LINE      CODE     ---       #715
      01003A80H   LINE      CODE     ---       #716
      01003A80H   LINE      CODE     ---       #717
      01003A86H   LINE      CODE     ---       #718
      01003A86H   LINE      CODE     ---       #719
      01003A8EH   LINE      CODE     ---       #720
      01003A8FH   LINE      CODE     ---       #721
      01003A91H   LINE      CODE     ---       #722
      ---         BLOCKEND  ---      ---       LVL=0

      010037C9H   BLOCK     CODE     ---       LVL=0
      00000007H   SYMBOL    DATA     BYTE      numBytes
      00000082H   SYMBOL    DATA     ---       dat
      00000003H   SYMBOL    DATA     BYTE      fifoNum
      010037C9H   LINE      CODE     ---       #733
      010037CDH   LINE      CODE     ---       #734
      010037CDH   LINE      CODE     ---       #735
      010037D1H   LINE      CODE     ---       #736
      010037D1H   LINE      CODE     ---       #737
      010037D9H   LINE      CODE     ---       #738
      010037DAH   LINE      CODE     ---       #739
      010037DCH   LINE      CODE     ---       #740
LX51 LINKER/LOCATER V4.66.30.0                                                        03/29/2016  00:06:41  PAGE 131


      010037E9H   LINE      CODE     ---       #741
      ---         BLOCKEND  ---      ---       LVL=0

      01003A3EH   BLOCK     CODE     ---       LVL=0
      00000007H   SYMBOL    DATA     BYTE      numBytes
      00000082H   SYMBOL    DATA     ---       dat
      01003A3EH   LINE      CODE     ---       #752
      01003A42H   LINE      CODE     ---       #753
      01003A42H   LINE      CODE     ---       #754
      01003A48H   LINE      CODE     ---       #755
      01003A48H   LINE      CODE     ---       #756
      01003A50H   LINE      CODE     ---       #757
      01003A51H   LINE      CODE     ---       #758
      01003A53H   LINE      CODE     ---       #759
      ---         BLOCKEND  ---      ---       LVL=0

      01003869H   BLOCK     CODE     ---       LVL=0
      00000007H   SYMBOL    DATA     BYTE      numBytes
      00000000H   SYMBOL    DATA     ---       dat
      00000003H   SYMBOL    DATA     BYTE      fifoNum
      01003869H   LINE      CODE     ---       #771
      0100386BH   LINE      CODE     ---       #772
      0100386BH   LINE      CODE     ---       #773
      0100386FH   LINE      CODE     ---       #774
      0100386FH   LINE      CODE     ---       #775
      01003877H   LINE      CODE     ---       #776
      01003878H   LINE      CODE     ---       #777
      0100387AH   LINE      CODE     ---       #778
      01003887H   LINE      CODE     ---       #779
      ---         BLOCKEND  ---      ---       LVL=0

      01003A92H   BLOCK     CODE     ---       LVL=0
      00000007H   SYMBOL    DATA     BYTE      numBytes
      00000000H   SYMBOL    DATA     ---       dat
      01003A92H   LINE      CODE     ---       #790
      01003A94H   LINE      CODE     ---       #791
      01003A94H   LINE      CODE     ---       #792
      01003A9AH   LINE      CODE     ---       #793
      01003A9AH   LINE      CODE     ---       #794
      01003AA2H   LINE      CODE     ---       #795
      01003AA3H   LINE      CODE     ---       #796
      01003AA5H   LINE      CODE     ---       #797
      ---         BLOCKEND  ---      ---       LVL=0

      010039F9H   BLOCK     CODE     ---       LVL=0
      00000007H   SYMBOL    DATA     BYTE      numBytes
      00000082H   SYMBOL    DATA     ---       dat
      010039F9H   LINE      CODE     ---       #849
      010039FDH   LINE      CODE     ---       #850
      010039FDH   LINE      CODE     ---       #851
      01003A03H   LINE      CODE     ---       #852
      01003A03H   LINE      CODE     ---       #853
      01003A0CH   LINE      CODE     ---       #854
      01003A0DH   LINE      CODE     ---       #855
      01003A0FH   LINE      CODE     ---       #856
      ---         BLOCKEND  ---      ---       LVL=0

      ---         MODULE    ---      ---       EFM8_USBDINT
      01003D1BH   PUBLIC    CODE     ---       forceModuleLoad_usbint
      01003A10H   PUBLIC    CODE     ---       SendEp0Stall
      01002227H   PUBLIC    CODE     ---       handleUsbEp0Rx
      010015E1H   PUBLIC    CODE     ---       usbIrqHandler
LX51 LINKER/LOCATER V4.66.30.0                                                        03/29/2016  00:06:41  PAGE 132


      000000A2H   SFRSYM    DATA     BYTE      SPI0CKR
      00000080H   SFRSYM    DATA     BYTE      P0
      000000C8H.6 SFRSYM    DATA     BIT       SCON1_PERR
      000000D0H.2 SFRSYM    DATA     BIT       PSW_OV
      00000090H   SFRSYM    DATA     BYTE      P1
      000000F8H.1 SFRSYM    DATA     BIT       SPI0CN0_TXNF
      00000097H   SFRSYM    DATA     BYTE      WDTCN
      000000A0H   SFRSYM    DATA     BYTE      P2
      000000B0H   SFRSYM    DATA     BYTE      P3
      000000BCH   SFRSYM    DATA     BYTE      ADC0CF
      000000C0H.7 SFRSYM    DATA     BIT       SMB0CN0_MASTER
      000000F9H   SFRSYM    DATA     WORD      PCA0
      000000E6H   SFRSYM    DATA     BYTE      EIE1
      000000C0H.1 SFRSYM    DATA     BIT       SMB0CN0_ACK
      000000B3H   SFRSYM    DATA     BYTE      USB0XCN
      000000CEH   SFRSYM    DATA     BYTE      EIE2
      0000008FH   SFRSYM    DATA     BYTE      PSCTL
      000000E4H   SFRSYM    DATA     BYTE      IT01CF
      000000C0H.6 SFRSYM    DATA     BIT       SMB0CN0_TXMODE
      000000ADH   SFRSYM    DATA     BYTE      DERIVID
      000000A7H   SFRSYM    DATA     BYTE      SFRPAGE
      000000A4H   SFRSYM    DATA     BYTE      P0MDOUT
      000000BFH   SFRSYM    DATA     BYTE      USB0CDSTA
      000000A5H   SFRSYM    DATA     BYTE      P1MDOUT
      000000E8H.5 SFRSYM    DATA     BIT       ADC0CN0_ADINT
      000000CBH   SFRSYM    DATA     BYTE      TMR2RLH
      000000A6H   SFRSYM    DATA     BYTE      P2MDOUT
      000000A8H   SFRSYM    DATA     BYTE      IE
      00000093H   SFRSYM    DATA     BYTE      TMR3RLH
      0000009CH   SFRSYM    DATA     BYTE      P3MDOUT
      000000A3H   SFRSYM    DATA     BYTE      TMR4RLH
      000000F3H   SFRSYM    DATA     BYTE      EIP1
      000000F4H   SFRSYM    DATA     BYTE      EIP2
      00000098H.2 SFRSYM    DATA     BIT       SCON0_RB8
      000000CAH   SFRSYM    DATA     BYTE      TMR2RLL
      000000FCH   SFRSYM    DATA     BYTE      PCA0CPH0
      00000092H   SFRSYM    DATA     BYTE      TMR3RLL
      000000EAH   SFRSYM    DATA     BYTE      PCA0CPH1
      00000098H.3 SFRSYM    DATA     BIT       SCON0_TB8
      000000F0H   SFRSYM    DATA     BIT       B_B0
      00000082H   SFRSYM    DATA     WORD      DP
      000000A2H   SFRSYM    DATA     BYTE      TMR4RLL
      000000ECH   SFRSYM    DATA     BYTE      PCA0CPH2
      000000F0H.1 SFRSYM    DATA     BIT       B_B1
      000000C3H   SFRSYM    DATA     WORD      ADC0GT
      000000BDH   SFRSYM    DATA     BYTE      I2C0SLAD
      000000D8H.3 SFRSYM    DATA     BIT       UART1FCN1_RFRQ
      000000F0H.2 SFRSYM    DATA     BIT       B_B2
      000000CFH   SFRSYM    DATA     BYTE      SFRPGCN
      000000FBH   SFRSYM    DATA     BYTE      PCA0CPL0
      000000F0H.3 SFRSYM    DATA     BIT       B_B3
      000000D9H   SFRSYM    DATA     BYTE      PCA0MD
      000000DAH   SFRSYM    DATA     BYTE      PCA0CPM0
      000000E9H   SFRSYM    DATA     BYTE      PCA0CPL1
      000000D8H.7 SFRSYM    DATA     BIT       UART1FCN1_TFRQ
      000000F0H.4 SFRSYM    DATA     BIT       B_B4
      000000DBH   SFRSYM    DATA     BYTE      PCA0CPM1
      000000EBH   SFRSYM    DATA     BYTE      PCA0CPL2
      000000F0H.5 SFRSYM    DATA     BIT       B_B5
      000000DCH   SFRSYM    DATA     BYTE      PCA0CPM2
      000000B8H   SFRSYM    DATA     BYTE      IP
      000000B9H   SFRSYM    DATA     BYTE      ADC0TK
LX51 LINKER/LOCATER V4.66.30.0                                                        03/29/2016  00:06:41  PAGE 133


      000000F0H.6 SFRSYM    DATA     BIT       B_B6
      000000C5H   SFRSYM    DATA     WORD      ADC0LT
      000000D8H.6 SFRSYM    DATA     BIT       UART1FCN1_TXNF
      00000098H.5 SFRSYM    DATA     BIT       SCON0_MCE
      000000F0H.7 SFRSYM    DATA     BIT       B_B7
      000000C3H   SFRSYM    DATA     BYTE      SMB0FCN0
      000000E1H   SFRSYM    DATA     BYTE      XBR0
      000000C4H   SFRSYM    DATA     BYTE      SMB0FCN1
      000000C1H   SFRSYM    DATA     BYTE      SMB0CF
      000000E2H   SFRSYM    DATA     BYTE      XBR1
      000000C1H   SFRSYM    DATA     BYTE      PFE0CN
      000000E7H   SFRSYM    DATA     BYTE      EMI0CN
      000000C0H.5 SFRSYM    DATA     BIT       SMB0CN0_STA
      000000E3H   SFRSYM    DATA     BYTE      XBR2
      000000BBH   SFRSYM    DATA     BYTE      ADC0MX
      000000E0H   SFRSYM    DATA     BIT       ACC_ACC0
      000000D1H   SFRSYM    DATA     BYTE      REF0CN
      0000008EH   SFRSYM    DATA     BYTE      CKCON0
      000000E0H.1 SFRSYM    DATA     BIT       ACC_ACC1
      000000C9H   SFRSYM    DATA     BYTE      REG0CN
      000000DDH   SFRSYM    DATA     BYTE      CRC0IN
      000000A6H   SFRSYM    DATA     BYTE      CKCON1
      000000C8H.2 SFRSYM    DATA     BIT       TMR2CN0_TR2
      000000E0H.2 SFRSYM    DATA     BIT       ACC_ACC2
      000000C6H   SFRSYM    DATA     BYTE      REG1CN
      000000E0H.3 SFRSYM    DATA     BIT       ACC_ACC3
      00000081H   SFRSYM    DATA     BYTE      SP
      0000009DH   SFRSYM    DATA     BYTE      CMP0MD
      000000E0H.4 SFRSYM    DATA     BIT       ACC_ACC4
      000000B1H   SFRSYM    DATA     BYTE      LFO0CN
      000000ABH   SFRSYM    DATA     BYTE      CMP1MD
      000000D8H   SFRSYM    DATA     BIT       PCA0CN0_CCF0
      000000E0H.5 SFRSYM    DATA     BIT       ACC_ACC5
      000000B5H   SFRSYM    DATA     BYTE      USB0CF
      00000098H.2 SFRSYM    DATA     BIT       TMR4CN0_TR4
      000000D8H.1 SFRSYM    DATA     BIT       PCA0CN0_CCF1
      000000E0H.6 SFRSYM    DATA     BIT       ACC_ACC6
      000000CCH   SFRSYM    DATA     WORD      TMR2
      0000009AH   SFRSYM    DATA     BYTE      SPI0FCN0
      000000D8H.2 SFRSYM    DATA     BIT       PCA0CN0_CCF2
      000000E0H.7 SFRSYM    DATA     BIT       ACC_ACC7
      00000094H   SFRSYM    DATA     WORD      TMR3
      0000009BH   SFRSYM    DATA     BYTE      SPI0FCN1
      000000A4H   SFRSYM    DATA     WORD      TMR4
      00000094H   SFRSYM    DATA     BYTE      SBCON1
      000000C0H.3 SFRSYM    DATA     BIT       SMB0CN0_ACKRQ
      000000FFH   SFRSYM    DATA     BYTE      VDM0CN
      000000F1H   SFRSYM    DATA     BYTE      P0MDIN
      00000098H.4 SFRSYM    DATA     BIT       SCON0_REN
      000000ACH   SFRSYM    DATA     BYTE      SMB0TC
      000000F2H   SFRSYM    DATA     BYTE      P1MDIN
      000000C8H.4 SFRSYM    DATA     BIT       SCON1_REN
      000000F3H   SFRSYM    DATA     BYTE      P2MDIN
      000000C0H.4 SFRSYM    DATA     BIT       SMB0CN0_STO
      000000B6H   SFRSYM    DATA     BYTE      USB0CDCF
      000000F4H   SFRSYM    DATA     BYTE      P3MDIN
      000000B9H   SFRSYM    DATA     BYTE      I2C0STAT
      000000BBH   SFRSYM    DATA     BYTE      I2C0DOUT
      00000096H   SFRSYM    DATA     BYTE      SBRLH1
      000000FEH   SFRSYM    DATA     BYTE      P0MASK
      000000D8H.5 SFRSYM    DATA     BIT       UART1FCN1_TXHOLD
      000000EEH   SFRSYM    DATA     BYTE      P1MASK
LX51 LINKER/LOCATER V4.66.30.0                                                        03/29/2016  00:06:41  PAGE 134


      000000FCH   SFRSYM    DATA     BYTE      P2MASK
      000000D0H.3 SFRSYM    DATA     BIT       PSW_RS0
      000000D8H.7 SFRSYM    DATA     BIT       PCA0CN0_CF
      0000009EH   SFRSYM    DATA     BYTE      PCA0CENT
      000000BAH   SFRSYM    DATA     BYTE      I2C0CN0
      000000D2H   SFRSYM    DATA     BYTE      CRC0ST
      000000F8H.4 SFRSYM    DATA     BIT       SPI0CN0_RXOVRN
      000000D0H.4 SFRSYM    DATA     BIT       PSW_RS1
      00000095H   SFRSYM    DATA     BYTE      SBRLL1
      000000C8H.2 SFRSYM    DATA     BIT       SCON1_RBX
      000000C8H   SFRSYM    DATA     BIT       TMR2CN0_T2XCLK0
      000000C8H.1 SFRSYM    DATA     BIT       TMR2CN0_T2XCLK1
      000000C8H.3 SFRSYM    DATA     BIT       SCON1_TBX
      000000E8H.7 SFRSYM    DATA     BIT       ADC0CN0_ADEN
      000000BEH   SFRSYM    DATA     BYTE      USB0CDCN
      00000089H   SFRSYM    DATA     BYTE      TMOD
      00000088H   SFRSYM    DATA     BYTE      TCON
      000000CFH   SFRSYM    DATA     BYTE      CRC0FLIP
      000000D0H   SFRSYM    DATA     BIT       PSW_PARITY
      000000A8H.4 SFRSYM    DATA     BIT       IE_ES0
      0000009FH   SFRSYM    DATA     BYTE      CMP0MX
      00000098H   SFRSYM    DATA     BIT       TMR4CN0_T4XCLK0
      000000A8H.1 SFRSYM    DATA     BIT       IE_ET0
      000000AAH   SFRSYM    DATA     BYTE      CMP1MX
      00000098H.1 SFRSYM    DATA     BIT       TMR4CN0_T4XCLK1
      000000A8H.3 SFRSYM    DATA     BIT       IE_ET1
      000000D4H   SFRSYM    DATA     BYTE      P0SKIP
      000000D8H   SFRSYM    DATA     BIT       UART1FCN1_RIE
      000000A8H.5 SFRSYM    DATA     BIT       IE_ET2
      000000D5H   SFRSYM    DATA     BYTE      P1SKIP
      000000CCH   SFRSYM    DATA     BYTE      P2SKIP
      000000E8H   SFRSYM    DATA     BYTE      ADC0CN0
      000000D8H.4 SFRSYM    DATA     BIT       UART1FCN1_TIE
      000000A8H   SFRSYM    DATA     BIT       IE_EX0
      000000B2H   SFRSYM    DATA     BYTE      ADC0CN1
      000000D8H.6 SFRSYM    DATA     BIT       PCA0CN0_CR
      000000A8H.2 SFRSYM    DATA     BIT       IE_EX1
      000000C8H.7 SFRSYM    DATA     BIT       SCON1_OVR
      00000098H.7 SFRSYM    DATA     BIT       SCON0_SMODE
      000000B5H   SFRSYM    DATA     BYTE      DEVICEID
      000000A9H   SFRSYM    DATA     BYTE      CLKSEL
      000000F8H   SFRSYM    DATA     BIT       SPI0CN0_SPIEN
      000000F0H   SFRSYM    DATA     BYTE      B
      000000BEH   SFRSYM    DATA     BYTE      ADC0H
      000000E8H.6 SFRSYM    DATA     BIT       ADC0CN0_ADBMEN
      000000CAH   SFRSYM    DATA     WORD      TMR2RL
      000000BDH   SFRSYM    DATA     BYTE      ADC0L
      00000092H   SFRSYM    DATA     WORD      TMR3RL
      000000A2H   SFRSYM    DATA     WORD      TMR4RL
      000000D8H   SFRSYM    DATA     BYTE      PCA0CN0
      000000E0H   SFRSYM    DATA     BYTE      ACC
      000000FBH   SFRSYM    DATA     WORD      PCA0CP0
      000000E9H   SFRSYM    DATA     WORD      PCA0CP1
      000000EBH   SFRSYM    DATA     WORD      PCA0CP2
      000000BCH   SFRSYM    DATA     BYTE      I2C0DIN
      000000CEH   SFRSYM    DATA     BYTE      CRC0CN0
      0000008CH   SFRSYM    DATA     BYTE      TH0
      00000086H   SFRSYM    DATA     BYTE      CRC0CN1
      000000B8H.4 SFRSYM    DATA     BIT       IP_PS0
      000000FAH   SFRSYM    DATA     BYTE      UART1FCT
      0000008DH   SFRSYM    DATA     BYTE      TH1
      000000FAH   SFRSYM    DATA     BYTE      PCA0H
LX51 LINKER/LOCATER V4.66.30.0                                                        03/29/2016  00:06:41  PAGE 135


      000000F5H   SFRSYM    DATA     BYTE      I2C0FCT
      000000B8H.1 SFRSYM    DATA     BIT       IP_PT0
      000000B8H.3 SFRSYM    DATA     BIT       IP_PT1
      000000C0H.2 SFRSYM    DATA     BIT       SMB0CN0_ARBLOST
      000000B8H.5 SFRSYM    DATA     BIT       IP_PT2
      0000008AH   SFRSYM    DATA     BYTE      TL0
      000000D0H.5 SFRSYM    DATA     BIT       PSW_F0
      000000A8H.6 SFRSYM    DATA     BIT       IE_ESPI0
      0000008BH   SFRSYM    DATA     BYTE      TL1
      000000F9H   SFRSYM    DATA     BYTE      PCA0L
      000000C0H   SFRSYM    DATA     BIT       SMB0CN0_SI
      000000D0H.1 SFRSYM    DATA     BIT       PSW_F1
      00000080H   SFRSYM    DATA     BIT       P0_B0
      000000B8H   SFRSYM    DATA     BIT       IP_PX0
      00000090H   SFRSYM    DATA     BIT       P1_B0
      00000080H.1 SFRSYM    DATA     BIT       P0_B1
      000000B8H.2 SFRSYM    DATA     BIT       IP_PX1
      0000009EH   SFRSYM    DATA     BYTE      UART1LIN
      0000009BH   SFRSYM    DATA     BYTE      CMP0CN0
      00000088H.1 SFRSYM    DATA     BIT       TCON_IE0
      000000A0H   SFRSYM    DATA     BIT       P2_B0
      00000090H.1 SFRSYM    DATA     BIT       P1_B1
      00000080H.2 SFRSYM    DATA     BIT       P0_B2
      000000BFH   SFRSYM    DATA     BYTE      CMP1CN0
      00000099H   SFRSYM    DATA     BYTE      CMP0CN1
      00000088H.3 SFRSYM    DATA     BIT       TCON_IE1
      000000B0H   SFRSYM    DATA     BIT       P3_B0
      000000A0H.1 SFRSYM    DATA     BIT       P2_B1
      00000090H.2 SFRSYM    DATA     BIT       P1_B2
      00000080H.3 SFRSYM    DATA     BIT       P0_B3
      000000C0H   SFRSYM    DATA     BYTE      SMB0CN0
      000000ACH   SFRSYM    DATA     BYTE      CMP1CN1
      000000B0H.1 SFRSYM    DATA     BIT       P3_B1
      000000A0H.2 SFRSYM    DATA     BIT       P2_B2
      00000090H.3 SFRSYM    DATA     BIT       P1_B3
      00000080H.4 SFRSYM    DATA     BIT       P0_B4
      000000A0H.3 SFRSYM    DATA     BIT       P2_B3
      00000090H.4 SFRSYM    DATA     BIT       P1_B4
      00000080H.5 SFRSYM    DATA     BIT       P0_B5
      000000D8H.1 SFRSYM    DATA     BIT       UART1FCN1_RXTO0
      00000090H.5 SFRSYM    DATA     BIT       P1_B5
      00000080H.6 SFRSYM    DATA     BIT       P0_B6
      000000F5H   SFRSYM    DATA     BYTE      EIP1H
      000000D8H.2 SFRSYM    DATA     BIT       UART1FCN1_RXTO1
      00000090H.6 SFRSYM    DATA     BIT       P1_B6
      00000080H.7 SFRSYM    DATA     BIT       P0_B7
      000000C5H   SFRSYM    DATA     BYTE      SMB0RXLN
      000000F6H   SFRSYM    DATA     BYTE      EIP2H
      00000090H.7 SFRSYM    DATA     BIT       P1_B7
      00000083H   SFRSYM    DATA     BYTE      DPH
      000000C4H   SFRSYM    DATA     BYTE      ADC0GTH
      000000C8H.7 SFRSYM    DATA     BIT       TMR2CN0_TF2H
      000000C8H.3 SFRSYM    DATA     BIT       TMR2CN0_T2SPLIT
      000000D0H.6 SFRSYM    DATA     BIT       PSW_AC
      000000F8H   SFRSYM    DATA     BYTE      SPI0CN0
      000000C7H   SFRSYM    DATA     BYTE      HFO0CAL
      00000088H.5 SFRSYM    DATA     BIT       TCON_TF0
      00000098H   SFRSYM    DATA     BIT       SCON0_RI
      000000D6H   SFRSYM    DATA     BYTE      HFO1CAL
      00000082H   SFRSYM    DATA     BYTE      DPL
      00000088H.7 SFRSYM    DATA     BIT       TCON_TF1
      000000C8H   SFRSYM    DATA     BIT       SCON1_RI
LX51 LINKER/LOCATER V4.66.30.0                                                        03/29/2016  00:06:41  PAGE 136


      00000099H   SFRSYM    DATA     BYTE      SBUF0
      00000087H   SFRSYM    DATA     BYTE      PCON0
      000000F2H   SFRSYM    DATA     BYTE      IPH
      000000C3H   SFRSYM    DATA     BYTE      ADC0GTL
      00000098H.7 SFRSYM    DATA     BIT       TMR4CN0_TF4H
      00000098H.3 SFRSYM    DATA     BIT       TMR4CN0_T4SPLIT
      000000C8H.6 SFRSYM    DATA     BIT       TMR2CN0_TF2L
      00000098H.1 SFRSYM    DATA     BIT       SCON0_TI
      000000E8H   SFRSYM    DATA     BIT       ADC0CN0_ADCM0
      00000092H   SFRSYM    DATA     BYTE      SBUF1
      0000009AH   SFRSYM    DATA     BYTE      PCON1
      000000C6H   SFRSYM    DATA     BYTE      ADC0LTH
      00000088H   SFRSYM    DATA     BIT       TCON_IT0
      000000C8H.1 SFRSYM    DATA     BIT       SCON1_TI
      000000E8H.1 SFRSYM    DATA     BIT       ADC0CN0_ADCM1
      000000EFH   SFRSYM    DATA     BYTE      RSTSRC
      000000FDH   SFRSYM    DATA     BYTE      P0MAT
      000000DEH   SFRSYM    DATA     BYTE      CRC0DAT
      00000088H.2 SFRSYM    DATA     BIT       TCON_IT1
      000000E8H.2 SFRSYM    DATA     BIT       ADC0CN0_ADCM2
      000000D7H   SFRSYM    DATA     BYTE      SFRSTACK
      00000098H   SFRSYM    DATA     BYTE      SCON0
      000000F6H   SFRSYM    DATA     BYTE      PRTDRV
      000000EDH   SFRSYM    DATA     BYTE      P1MAT
      000000E8H.3 SFRSYM    DATA     BIT       ADC0CN0_ADWINT
      00000095H   SFRSYM    DATA     WORD      SBRL1
      000000B2H   SFRSYM    DATA     BYTE      USB0AEC
      00000093H   SFRSYM    DATA     BYTE      SMOD1
      000000C8H   SFRSYM    DATA     BYTE      SCON1
      000000FBH   SFRSYM    DATA     BYTE      P2MAT
      00000098H.6 SFRSYM    DATA     BIT       TMR4CN0_TF4L
      000000E8H.4 SFRSYM    DATA     BIT       ADC0CN0_ADBUSY
      000000D6H   SFRSYM    DATA     BYTE      SMB0ADM
      000000C5H   SFRSYM    DATA     BYTE      ADC0LTL
      000000F8H.5 SFRSYM    DATA     BIT       SPI0CN0_MODF
      000000B8H.6 SFRSYM    DATA     BIT       IP_PSPI0
      0000009CH   SFRSYM    DATA     BYTE      PCA0CLR
      000000C8H   SFRSYM    DATA     BYTE      TMR2CN0
      00000091H   SFRSYM    DATA     BYTE      TMR3CN0
      000000FDH   SFRSYM    DATA     BYTE      TMR2CN1
      00000098H   SFRSYM    DATA     BYTE      TMR4CN0
      000000FEH   SFRSYM    DATA     BYTE      TMR3CN1
      000000FFH   SFRSYM    DATA     BYTE      TMR4CN1
      000000D7H   SFRSYM    DATA     BYTE      SMB0ADR
      00000088H.4 SFRSYM    DATA     BIT       TCON_TR0
      000000C8H.4 SFRSYM    DATA     BIT       TMR2CN0_TF2CEN
      00000088H.6 SFRSYM    DATA     BIT       TCON_TR1
      000000C2H   SFRSYM    DATA     BYTE      SMB0DAT
      000000CDH   SFRSYM    DATA     BYTE      TMR2H
      000000A1H   SFRSYM    DATA     BYTE      SPI0CFG
      00000095H   SFRSYM    DATA     BYTE      TMR3H
      000000EFH   SFRSYM    DATA     BYTE      HFOCN
      000000D3H   SFRSYM    DATA     BYTE      CRC0CNT
      000000A5H   SFRSYM    DATA     BYTE      TMR4H
      00000098H.4 SFRSYM    DATA     BIT       TMR4CN0_TF4CEN
      000000EFH   SFRSYM    DATA     BYTE      SMB0FCT
      00000096H   SFRSYM    DATA     BYTE      PCA0POL
      000000CCH   SFRSYM    DATA     BYTE      TMR2L
      000000F8H.7 SFRSYM    DATA     BIT       SPI0CN0_SPIF
      000000AEH   SFRSYM    DATA     BYTE      USB0ADR
      00000094H   SFRSYM    DATA     BYTE      TMR3L
      000000DFH   SFRSYM    DATA     BYTE      ADC0PWR
LX51 LINKER/LOCATER V4.66.30.0                                                        03/29/2016  00:06:41  PAGE 137


      000000A8H.7 SFRSYM    DATA     BIT       IE_EA
      000000A4H   SFRSYM    DATA     BYTE      TMR4L
      000000AFH   SFRSYM    DATA     BYTE      USB0DAT
      000000C8H.5 SFRSYM    DATA     BIT       TMR2CN0_TF2LEN
      000000F8H.6 SFRSYM    DATA     BIT       SPI0CN0_WCOL
      000000F8H.2 SFRSYM    DATA     BIT       SPI0CN0_NSSMD0
      000000D0H.7 SFRSYM    DATA     BIT       PSW_CY
      0000009DH   SFRSYM    DATA     BYTE      UART1FCN0
      000000A3H   SFRSYM    DATA     BYTE      SPI0DAT
      000000ADH   SFRSYM    DATA     BYTE      I2C0FCN0
      000000F8H.3 SFRSYM    DATA     BIT       SPI0CN0_NSSMD1
      000000BDH   SFRSYM    DATA     WORD      ADC0
      000000D8H   SFRSYM    DATA     BYTE      UART1FCN1
      000000ABH   SFRSYM    DATA     BYTE      I2C0FCN1
      00000098H.5 SFRSYM    DATA     BIT       TMR4CN0_TF4LEN
      000000D0H   SFRSYM    DATA     BYTE      PSW
      000000F7H   SFRSYM    DATA     BYTE      PCA0PWM
      000000F7H   SFRSYM    DATA     BYTE      SPI0FCT
      000000B6H   SFRSYM    DATA     BYTE      REVID
      000000B7H   SFRSYM    DATA     BYTE      FLKEY
      000000B3H   SFRSYM    DATA     BYTE      ADC0AC
      01002DAFH   SYMBOL    CODE     ---       USB_ReadFIFOSetup
      01001EE8H   SYMBOL    CODE     ---       handleUsbEp0Int
      01003B5BH   SYMBOL    CODE     ---       handleUsbSuspendInt
      01003CB3H   SYMBOL    CODE     ---       handleUsbResumeInt
      01002227H   SYMBOL    CODE     ---       handleUsbEp0Rx
      0100123EH   SYMBOL    CODE     ---       handleUsbEp0Tx
      010032A8H   SYMBOL    CODE     ---       handleUsbResetInt

      01002D55H   BLOCK     CODE     ---       LVL=0
      ---         BLOCKEND  ---      ---       LVL=0

      010015E1H   BLOCK     CODE     ---       LVL=0
      010015FEH   BLOCK     CODE     NEAR LAB  LVL=1
      0200024FH   SYMBOL    XDATA    BYTE      statusCommon
      02000250H   SYMBOL    XDATA    BYTE      statusIn
      02000251H   SYMBOL    XDATA    BYTE      statusOut
      02000252H   SYMBOL    XDATA    BYTE      indexSave
      ---         BLOCKEND  ---      ---       LVL=1
      010015E1H   LINE      CODE     ---       #61
      010015FEH   LINE      CODE     ---       #74
      01001606H   LINE      CODE     ---       #75
      0100160EH   LINE      CODE     ---       #76
      01001616H   LINE      CODE     ---       #86
      0100161EH   LINE      CODE     ---       #89
      01001626H   LINE      CODE     ---       #90
      01001626H   LINE      CODE     ---       #97
      01001641H   LINE      CODE     ---       #99
      01001641H   LINE      CODE     ---       #100
      01001648H   LINE      CODE     ---       #101
      01001648H   LINE      CODE     ---       #105
      01001656H   LINE      CODE     ---       #106
      01001656H   LINE      CODE     ---       #107
      0100165DH   LINE      CODE     ---       #108
      0100165DH   LINE      CODE     ---       #128
      0100165DH   LINE      CODE     ---       #130
      01001661H   LINE      CODE     ---       #131
      01001661H   LINE      CODE     ---       #132
      01001664H   LINE      CODE     ---       #141
      01001664H   LINE      CODE     ---       #143
      0100166BH   LINE      CODE     ---       #144
      0100166BH   LINE      CODE     ---       #145
LX51 LINKER/LOCATER V4.66.30.0                                                        03/29/2016  00:06:41  PAGE 138


      0100166EH   LINE      CODE     ---       #146
      0100166EH   LINE      CODE     ---       #148
      01001675H   LINE      CODE     ---       #149
      01001675H   LINE      CODE     ---       #150
      01001678H   LINE      CODE     ---       #151
      01001678H   LINE      CODE     ---       #175
      0100167FH   LINE      CODE     ---       #176
      0100167FH   LINE      CODE     ---       #177
      01001682H   LINE      CODE     ---       #178
      01001682H   LINE      CODE     ---       #189
      01001689H   LINE      CODE     ---       #190
      01001689H   LINE      CODE     ---       #191
      0100168CH   LINE      CODE     ---       #192
      0100168CH   LINE      CODE     ---       #196
      01001693H   LINE      CODE     ---       #197
      01001693H   LINE      CODE     ---       #198
      01001696H   LINE      CODE     ---       #199
      01001696H   LINE      CODE     ---       #202
      0100169EH   LINE      CODE     ---       #208
      ---         BLOCKEND  ---      ---       LVL=0

      01001EE8H   BLOCK     CODE     ---       LVL=0
      01001EE8H   LINE      CODE     ---       #213
      01001EE8H   LINE      CODE     ---       #214
      01001EE8H   LINE      CODE     ---       #215
      01001EEDH   LINE      CODE     ---       #217
      01001EF7H   LINE      CODE     ---       #218
      01001EF7H   LINE      CODE     ---       #219
      01001F02H   LINE      CODE     ---       #220
      01001F0DH   LINE      CODE     ---       #221
      01001F10H   LINE      CODE     ---       #222
      01001F13H   LINE      CODE     ---       #223
      01001F13H   LINE      CODE     ---       #224
      01001F18H   LINE      CODE     ---       #225
      01001F18H   LINE      CODE     ---       #226
      01001F20H   LINE      CODE     ---       #227
      01001F20H   LINE      CODE     ---       #228
      01001F20H   LINE      CODE     ---       #229
      01001F22H   LINE      CODE     ---       #230
      01001F2AH   LINE      CODE     ---       #231
      01001F2AH   LINE      CODE     ---       #232
      01001F2EH   LINE      CODE     ---       #233
      01001F31H   LINE      CODE     ---       #237
      01001F3BH   LINE      CODE     ---       #238
      01001F3BH   LINE      CODE     ---       #240
      01001F46H   LINE      CODE     ---       #241
      01001F46H   LINE      CODE     ---       #242
      01001F49H   LINE      CODE     ---       #243
      01001F4BH   LINE      CODE     ---       #245
      01001F4BH   LINE      CODE     ---       #246
      01001F4EH   LINE      CODE     ---       #247
      01001F4EH   LINE      CODE     ---       #249
      01001F50H   LINE      CODE     ---       #251
      01001F50H   LINE      CODE     ---       #254
      01001F69H   LINE      CODE     ---       #258
      01001F69H   LINE      CODE     ---       #259
      01001F70H   LINE      CODE     ---       #260
      01001F70H   LINE      CODE     ---       #261
      01001F70H   LINE      CODE     ---       #263
      01001F72H   LINE      CODE     ---       #264
      01001F79H   LINE      CODE     ---       #265
      01001F79H   LINE      CODE     ---       #266
LX51 LINKER/LOCATER V4.66.30.0                                                        03/29/2016  00:06:41  PAGE 139


      01001F7CH   LINE      CODE     ---       #267
      01001F7EH   LINE      CODE     ---       #269
      01001F7EH   LINE      CODE     ---       #270
      01001F85H   LINE      CODE     ---       #271
      01001F85H   LINE      CODE     ---       #272
      01001F85H   LINE      CODE     ---       #273
      01001F91H   LINE      CODE     ---       #274
      01001F91H   LINE      CODE     ---       #275
      01001F94H   LINE      CODE     ---       #276
      01001F94H   LINE      CODE     ---       #277
      ---         BLOCKEND  ---      ---       LVL=0

      01002DAFH   BLOCK     CODE     ---       LVL=0
      01002DAFH   BLOCK     CODE     NEAR LAB  LVL=1
      02000253H   SYMBOL    XDATA    ---       ptr
      ---         BLOCKEND  ---      ---       LVL=1
      01002DAFH   LINE      CODE     ---       #282
      01002DAFH   LINE      CODE     ---       #283
      01002DAFH   LINE      CODE     ---       #284
      01002DBBH   LINE      CODE     ---       #286
      01002DC7H   LINE      CODE     ---       #288
      01002DD2H   LINE      CODE     ---       #291
      01002DEEH   LINE      CODE     ---       #292
      01002DFAH   LINE      CODE     ---       #293
      01002E05H   LINE      CODE     ---       #294
      ---         BLOCKEND  ---      ---       LVL=0

      010032A8H   BLOCK     CODE     ---       LVL=0
      010032A8H   LINE      CODE     ---       #301
      010032A8H   LINE      CODE     ---       #302
      010032A8H   LINE      CODE     ---       #304
      010032ABH   LINE      CODE     ---       #308
      010032B1H   LINE      CODE     ---       #317
      010032B5H   LINE      CODE     ---       #332
      010032C0H   LINE      CODE     ---       #339
      010032CBH   LINE      CODE     ---       #340
      010032D6H   LINE      CODE     ---       #345
      010032D9H   LINE      CODE     ---       #346
      010032D9H   LINE      CODE     ---       #347
      010032DBH   LINE      CODE     ---       #348
      010032DDH   LINE      CODE     ---       #350
      010032DDH   LINE      CODE     ---       #351
      010032E2H   LINE      CODE     ---       #352
      010032E2H   LINE      CODE     ---       #359
      ---         BLOCKEND  ---      ---       LVL=0

      01003B5BH   BLOCK     CODE     ---       LVL=0
      01003B5BH   LINE      CODE     ---       #369
      01003B5BH   LINE      CODE     ---       #370
      01003B5BH   LINE      CODE     ---       #371
      01003B64H   LINE      CODE     ---       #372
      01003B64H   LINE      CODE     ---       #373
      01003B69H   LINE      CODE     ---       #378
      01003B69H   LINE      CODE     ---       #379
      ---         BLOCKEND  ---      ---       LVL=0

      01003CB3H   BLOCK     CODE     ---       LVL=0
      01003CB3H   LINE      CODE     ---       #385
      01003CB3H   LINE      CODE     ---       #386
      01003CB3H   LINE      CODE     ---       #387
      ---         BLOCKEND  ---      ---       LVL=0

LX51 LINKER/LOCATER V4.66.30.0                                                        03/29/2016  00:06:41  PAGE 140


      0100123EH   BLOCK     CODE     ---       LVL=0
      0100123EH   BLOCK     CODE     NEAR LAB  LVL=1
      02000253H   SYMBOL    XDATA    BYTE      count
      02000254H   SYMBOL    XDATA    BYTE      count_snapshot
      02000255H   SYMBOL    XDATA    BYTE      i
      00000020H.3 SYMBOL    BIT      BIT       callback
      ---         BLOCKEND  ---      ---       LVL=1
      0100123EH   LINE      CODE     ---       #393
      0100123EH   LINE      CODE     ---       #394
      0100123EH   LINE      CODE     ---       #396
      01001245H   LINE      CODE     ---       #400
      0100125EH   LINE      CODE     ---       #404
      01001260H   LINE      CODE     ---       #410
      0100126BH   LINE      CODE     ---       #411
      0100126BH   LINE      CODE     ---       #416
      0100126FH   LINE      CODE     ---       #417
      0100126FH   LINE      CODE     ---       #418
      0100127CH   LINE      CODE     ---       #419
      01001282H   LINE      CODE     ---       #420
      01001289H   LINE      CODE     ---       #421
      01001290H   LINE      CODE     ---       #422
      01001290H   LINE      CODE     ---       #425
      010012A4H   LINE      CODE     ---       #426
      010012A4H   LINE      CODE     ---       #427
      010012AAH   LINE      CODE     ---       #428
      010012B0H   LINE      CODE     ---       #429
      010012B9H   LINE      CODE     ---       #430
      010012C1H   LINE      CODE     ---       #431
      010012C1H   LINE      CODE     ---       #435
      010012C1H   LINE      CODE     ---       #436
      010012CEH   LINE      CODE     ---       #437
      010012DCH   LINE      CODE     ---       #438
      010012DCH   LINE      CODE     ---       #440
      010012E3H   LINE      CODE     ---       #441
      010012F3H   LINE      CODE     ---       #447
      010012FBH   LINE      CODE     ---       #448
      010012FBH   LINE      CODE     ---       #449
      01001306H   LINE      CODE     ---       #450
      01001309H   LINE      CODE     ---       #451
      0100130EH   LINE      CODE     ---       #452
      01001312H   LINE      CODE     ---       #453
      01001314H   LINE      CODE     ---       #455
      01001314H   LINE      CODE     ---       #458
      0100131FH   LINE      CODE     ---       #459
      0100131FH   LINE      CODE     ---       #461
      01001322H   LINE      CODE     ---       #462
      01001322H   LINE      CODE     ---       #463
      0100132DH   LINE      CODE     ---       #464
      0100132DH   LINE      CODE     ---       #465
      ---         BLOCKEND  ---      ---       LVL=0

      01002227H   BLOCK     CODE     ---       LVL=0
      01002227H   BLOCK     CODE     NEAR LAB  LVL=1
      02000253H   SYMBOL    XDATA    BYTE      count
      02000254H   SYMBOL    XDATA    CHAR      status
      00000020H.3 SYMBOL    BIT      BIT       callback
      ---         BLOCKEND  ---      ---       LVL=1
      01002227H   LINE      CODE     ---       #470
      01002227H   LINE      CODE     ---       #471
      01002227H   LINE      CODE     ---       #474
      0100222EH   LINE      CODE     ---       #477
      01002236H   LINE      CODE     ---       #481
LX51 LINKER/LOCATER V4.66.30.0                                                        03/29/2016  00:06:41  PAGE 141


      01002244H   LINE      CODE     ---       #482
      01002244H   LINE      CODE     ---       #483
      01002247H   LINE      CODE     ---       #484
      0100224CH   LINE      CODE     ---       #485
      01002252H   LINE      CODE     ---       #486
      01002254H   LINE      CODE     ---       #488
      01002254H   LINE      CODE     ---       #489
      0100225FH   LINE      CODE     ---       #490
      01002270H   LINE      CODE     ---       #491
      01002279H   LINE      CODE     ---       #492
      0100227EH   LINE      CODE     ---       #498
      01002287H   LINE      CODE     ---       #499
      01002287H   LINE      CODE     ---       #500
      01002292H   LINE      CODE     ---       #501
      01002295H   LINE      CODE     ---       #502
      0100229AH   LINE      CODE     ---       #503
      0100229CH   LINE      CODE     ---       #505
      0100229CH   LINE      CODE     ---       #507
      010022A7H   LINE      CODE     ---       #508
      010022A7H   LINE      CODE     ---       #509
      010022A7H   LINE      CODE     ---       #512
      010022AAH   LINE      CODE     ---       #513
      010022AAH   LINE      CODE     ---       #514
      010022B9H   LINE      CODE     ---       #515
      010022B9H   LINE      CODE     ---       #516
      ---         BLOCKEND  ---      ---       LVL=0

      01003A10H   BLOCK     CODE     ---       LVL=0
      01003A10H   LINE      CODE     ---       #522
      01003A10H   LINE      CODE     ---       #523
      01003A10H   LINE      CODE     ---       #524
      01003A15H   LINE      CODE     ---       #525
      01003A1BH   LINE      CODE     ---       #526
      01003A26H   LINE      CODE     ---       #527
      ---         BLOCKEND  ---      ---       LVL=0

      01003D1BH   BLOCK     CODE     ---       LVL=0
      01003D1BH   LINE      CODE     ---       #533
      ---         BLOCKEND  ---      ---       LVL=0

      ---         MODULE    ---      ---       ASSERT
      01003D18H   PUBLIC    CODE     ---       _slab_Assert

      01003D18H   BLOCK     CODE     ---       LVL=0
      02000000H   SYMBOL    XDATA    ---       file
      02000003H   SYMBOL    XDATA    INT       line
      01003D18H   LINE      CODE     ---       #8
      01003D18H   LINE      CODE     ---       #9
      01003D18H   LINE      CODE     ---       #10
      01003D18H   LINE      CODE     ---       #11
      01003D18H   LINE      CODE     ---       #13
      ---         BLOCKEND  ---      ---       LVL=0

      ---         MODULE    ---      ---       TESTS
      000000A2H   SFRSYM    DATA     BYTE      SPI0CKR
      00000080H   SFRSYM    DATA     BYTE      P0
      000000C8H.6 SFRSYM    DATA     BIT       SCON1_PERR
      000000D0H.2 SFRSYM    DATA     BIT       PSW_OV
      00000090H   SFRSYM    DATA     BYTE      P1
      000000F8H.1 SFRSYM    DATA     BIT       SPI0CN0_TXNF
      00000097H   SFRSYM    DATA     BYTE      WDTCN
      000000A0H   SFRSYM    DATA     BYTE      P2
LX51 LINKER/LOCATER V4.66.30.0                                                        03/29/2016  00:06:41  PAGE 142


      000000B0H   SFRSYM    DATA     BYTE      P3
      000000BCH   SFRSYM    DATA     BYTE      ADC0CF
      000000C0H.7 SFRSYM    DATA     BIT       SMB0CN0_MASTER
      000000F9H   SFRSYM    DATA     WORD      PCA0
      000000E6H   SFRSYM    DATA     BYTE      EIE1
      000000C0H.1 SFRSYM    DATA     BIT       SMB0CN0_ACK
      000000B3H   SFRSYM    DATA     BYTE      USB0XCN
      000000CEH   SFRSYM    DATA     BYTE      EIE2
      00000090H   SFRSYM    DATA     BIT       LED_R
      0000008FH   SFRSYM    DATA     BYTE      PSCTL
      000000E4H   SFRSYM    DATA     BYTE      IT01CF
      000000C0H.6 SFRSYM    DATA     BIT       SMB0CN0_TXMODE
      000000ADH   SFRSYM    DATA     BYTE      DERIVID
      000000A7H   SFRSYM    DATA     BYTE      SFRPAGE
      000000A4H   SFRSYM    DATA     BYTE      P0MDOUT
      00000080H.2 SFRSYM    DATA     BIT       U2F_BUTTON
      000000BFH   SFRSYM    DATA     BYTE      USB0CDSTA
      000000A5H   SFRSYM    DATA     BYTE      P1MDOUT
      000000E8H.5 SFRSYM    DATA     BIT       ADC0CN0_ADINT
      000000CBH   SFRSYM    DATA     BYTE      TMR2RLH
      000000A6H   SFRSYM    DATA     BYTE      P2MDOUT
      000000A8H   SFRSYM    DATA     BYTE      IE
      00000093H   SFRSYM    DATA     BYTE      TMR3RLH
      0000009CH   SFRSYM    DATA     BYTE      P3MDOUT
      000000A3H   SFRSYM    DATA     BYTE      TMR4RLH
      000000F3H   SFRSYM    DATA     BYTE      EIP1
      000000F4H   SFRSYM    DATA     BYTE      EIP2
      00000098H.2 SFRSYM    DATA     BIT       SCON0_RB8
      000000CAH   SFRSYM    DATA     BYTE      TMR2RLL
      000000FCH   SFRSYM    DATA     BYTE      PCA0CPH0
      00000092H   SFRSYM    DATA     BYTE      TMR3RLL
      000000EAH   SFRSYM    DATA     BYTE      PCA0CPH1
      00000098H.3 SFRSYM    DATA     BIT       SCON0_TB8
      000000F0H   SFRSYM    DATA     BIT       B_B0
      00000082H   SFRSYM    DATA     WORD      DP
      000000A2H   SFRSYM    DATA     BYTE      TMR4RLL
      000000ECH   SFRSYM    DATA     BYTE      PCA0CPH2
      000000F0H.1 SFRSYM    DATA     BIT       B_B1
      000000C3H   SFRSYM    DATA     WORD      ADC0GT
      000000BDH   SFRSYM    DATA     BYTE      I2C0SLAD
      000000D8H.3 SFRSYM    DATA     BIT       UART1FCN1_RFRQ
      000000F0H.2 SFRSYM    DATA     BIT       B_B2
      000000CFH   SFRSYM    DATA     BYTE      SFRPGCN
      000000FBH   SFRSYM    DATA     BYTE      PCA0CPL0
      000000F0H.3 SFRSYM    DATA     BIT       B_B3
      000000D9H   SFRSYM    DATA     BYTE      PCA0MD
      000000DAH   SFRSYM    DATA     BYTE      PCA0CPM0
      000000E9H   SFRSYM    DATA     BYTE      PCA0CPL1
      000000D8H.7 SFRSYM    DATA     BIT       UART1FCN1_TFRQ
      000000F0H.4 SFRSYM    DATA     BIT       B_B4
      000000DBH   SFRSYM    DATA     BYTE      PCA0CPM1
      000000EBH   SFRSYM    DATA     BYTE      PCA0CPL2
      000000F0H.5 SFRSYM    DATA     BIT       B_B5
      000000DCH   SFRSYM    DATA     BYTE      PCA0CPM2
      000000B8H   SFRSYM    DATA     BYTE      IP
      000000B9H   SFRSYM    DATA     BYTE      ADC0TK
      000000F0H.6 SFRSYM    DATA     BIT       B_B6
      000000C5H   SFRSYM    DATA     WORD      ADC0LT
      000000D8H.6 SFRSYM    DATA     BIT       UART1FCN1_TXNF
      00000098H.5 SFRSYM    DATA     BIT       SCON0_MCE
      000000F0H.7 SFRSYM    DATA     BIT       B_B7
      000000C3H   SFRSYM    DATA     BYTE      SMB0FCN0
LX51 LINKER/LOCATER V4.66.30.0                                                        03/29/2016  00:06:41  PAGE 143


      000000E1H   SFRSYM    DATA     BYTE      XBR0
      000000C4H   SFRSYM    DATA     BYTE      SMB0FCN1
      000000C1H   SFRSYM    DATA     BYTE      SMB0CF
      000000E2H   SFRSYM    DATA     BYTE      XBR1
      000000C1H   SFRSYM    DATA     BYTE      PFE0CN
      000000E7H   SFRSYM    DATA     BYTE      EMI0CN
      000000C0H.5 SFRSYM    DATA     BIT       SMB0CN0_STA
      000000E3H   SFRSYM    DATA     BYTE      XBR2
      000000BBH   SFRSYM    DATA     BYTE      ADC0MX
      000000E0H   SFRSYM    DATA     BIT       ACC_ACC0
      000000D1H   SFRSYM    DATA     BYTE      REF0CN
      0000008EH   SFRSYM    DATA     BYTE      CKCON0
      000000E0H.1 SFRSYM    DATA     BIT       ACC_ACC1
      000000C9H   SFRSYM    DATA     BYTE      REG0CN
      000000DDH   SFRSYM    DATA     BYTE      CRC0IN
      000000A6H   SFRSYM    DATA     BYTE      CKCON1
      000000C8H.2 SFRSYM    DATA     BIT       TMR2CN0_TR2
      000000E0H.2 SFRSYM    DATA     BIT       ACC_ACC2
      000000C6H   SFRSYM    DATA     BYTE      REG1CN
      000000E0H.3 SFRSYM    DATA     BIT       ACC_ACC3
      00000081H   SFRSYM    DATA     BYTE      SP
      0000009DH   SFRSYM    DATA     BYTE      CMP0MD
      000000E0H.4 SFRSYM    DATA     BIT       ACC_ACC4
      000000B1H   SFRSYM    DATA     BYTE      LFO0CN
      000000ABH   SFRSYM    DATA     BYTE      CMP1MD
      000000D8H   SFRSYM    DATA     BIT       PCA0CN0_CCF0
      000000E0H.5 SFRSYM    DATA     BIT       ACC_ACC5
      000000B5H   SFRSYM    DATA     BYTE      USB0CF
      00000098H.2 SFRSYM    DATA     BIT       TMR4CN0_TR4
      000000D8H.1 SFRSYM    DATA     BIT       PCA0CN0_CCF1
      000000E0H.6 SFRSYM    DATA     BIT       ACC_ACC6
      000000CCH   SFRSYM    DATA     WORD      TMR2
      0000009AH   SFRSYM    DATA     BYTE      SPI0FCN0
      000000D8H.2 SFRSYM    DATA     BIT       PCA0CN0_CCF2
      000000E0H.7 SFRSYM    DATA     BIT       ACC_ACC7
      00000094H   SFRSYM    DATA     WORD      TMR3
      0000009BH   SFRSYM    DATA     BYTE      SPI0FCN1
      000000A4H   SFRSYM    DATA     WORD      TMR4
      00000094H   SFRSYM    DATA     BYTE      SBCON1
      000000C0H.3 SFRSYM    DATA     BIT       SMB0CN0_ACKRQ
      000000FFH   SFRSYM    DATA     BYTE      VDM0CN
      000000F1H   SFRSYM    DATA     BYTE      P0MDIN
      00000098H.4 SFRSYM    DATA     BIT       SCON0_REN
      000000ACH   SFRSYM    DATA     BYTE      SMB0TC
      000000F2H   SFRSYM    DATA     BYTE      P1MDIN
      000000C8H.4 SFRSYM    DATA     BIT       SCON1_REN
      000000F3H   SFRSYM    DATA     BYTE      P2MDIN
      000000C0H.4 SFRSYM    DATA     BIT       SMB0CN0_STO
      000000B6H   SFRSYM    DATA     BYTE      USB0CDCF
      000000F4H   SFRSYM    DATA     BYTE      P3MDIN
      000000B9H   SFRSYM    DATA     BYTE      I2C0STAT
      000000BBH   SFRSYM    DATA     BYTE      I2C0DOUT
      00000096H   SFRSYM    DATA     BYTE      SBRLH1
      000000FEH   SFRSYM    DATA     BYTE      P0MASK
      000000D8H.5 SFRSYM    DATA     BIT       UART1FCN1_TXHOLD
      000000EEH   SFRSYM    DATA     BYTE      P1MASK
      000000FCH   SFRSYM    DATA     BYTE      P2MASK
      000000D0H.3 SFRSYM    DATA     BIT       PSW_RS0
      000000D8H.7 SFRSYM    DATA     BIT       PCA0CN0_CF
      0000009EH   SFRSYM    DATA     BYTE      PCA0CENT
      000000BAH   SFRSYM    DATA     BYTE      I2C0CN0
      000000D2H   SFRSYM    DATA     BYTE      CRC0ST
LX51 LINKER/LOCATER V4.66.30.0                                                        03/29/2016  00:06:41  PAGE 144


      000000F8H.4 SFRSYM    DATA     BIT       SPI0CN0_RXOVRN
      000000D0H.4 SFRSYM    DATA     BIT       PSW_RS1
      00000095H   SFRSYM    DATA     BYTE      SBRLL1
      000000C8H.2 SFRSYM    DATA     BIT       SCON1_RBX
      000000C8H   SFRSYM    DATA     BIT       TMR2CN0_T2XCLK0
      000000C8H.1 SFRSYM    DATA     BIT       TMR2CN0_T2XCLK1
      000000C8H.3 SFRSYM    DATA     BIT       SCON1_TBX
      000000E8H.7 SFRSYM    DATA     BIT       ADC0CN0_ADEN
      000000BEH   SFRSYM    DATA     BYTE      USB0CDCN
      00000089H   SFRSYM    DATA     BYTE      TMOD
      00000088H   SFRSYM    DATA     BYTE      TCON
      000000CFH   SFRSYM    DATA     BYTE      CRC0FLIP
      000000D0H   SFRSYM    DATA     BIT       PSW_PARITY
      000000A8H.4 SFRSYM    DATA     BIT       IE_ES0
      0000009FH   SFRSYM    DATA     BYTE      CMP0MX
      00000098H   SFRSYM    DATA     BIT       TMR4CN0_T4XCLK0
      000000A8H.1 SFRSYM    DATA     BIT       IE_ET0
      000000AAH   SFRSYM    DATA     BYTE      CMP1MX
      00000098H.1 SFRSYM    DATA     BIT       TMR4CN0_T4XCLK1
      000000A8H.3 SFRSYM    DATA     BIT       IE_ET1
      000000D4H   SFRSYM    DATA     BYTE      P0SKIP
      000000D8H   SFRSYM    DATA     BIT       UART1FCN1_RIE
      000000A8H.5 SFRSYM    DATA     BIT       IE_ET2
      000000D5H   SFRSYM    DATA     BYTE      P1SKIP
      000000CCH   SFRSYM    DATA     BYTE      P2SKIP
      000000E8H   SFRSYM    DATA     BYTE      ADC0CN0
      000000D8H.4 SFRSYM    DATA     BIT       UART1FCN1_TIE
      000000A8H   SFRSYM    DATA     BIT       IE_EX0
      000000B2H   SFRSYM    DATA     BYTE      ADC0CN1
      000000D8H.6 SFRSYM    DATA     BIT       PCA0CN0_CR
      000000A8H.2 SFRSYM    DATA     BIT       IE_EX1
      000000C8H.7 SFRSYM    DATA     BIT       SCON1_OVR
      00000098H.7 SFRSYM    DATA     BIT       SCON0_SMODE
      000000B5H   SFRSYM    DATA     BYTE      DEVICEID
      000000A9H   SFRSYM    DATA     BYTE      CLKSEL
      000000F8H   SFRSYM    DATA     BIT       SPI0CN0_SPIEN
      000000F0H   SFRSYM    DATA     BYTE      B
      000000BEH   SFRSYM    DATA     BYTE      ADC0H
      000000E8H.6 SFRSYM    DATA     BIT       ADC0CN0_ADBMEN
      000000CAH   SFRSYM    DATA     WORD      TMR2RL
      000000BDH   SFRSYM    DATA     BYTE      ADC0L
      00000092H   SFRSYM    DATA     WORD      TMR3RL
      000000A2H   SFRSYM    DATA     WORD      TMR4RL
      000000D8H   SFRSYM    DATA     BYTE      PCA0CN0
      000000E0H   SFRSYM    DATA     BYTE      ACC
      000000FBH   SFRSYM    DATA     WORD      PCA0CP0
      000000E9H   SFRSYM    DATA     WORD      PCA0CP1
      000000EBH   SFRSYM    DATA     WORD      PCA0CP2
      000000BCH   SFRSYM    DATA     BYTE      I2C0DIN
      000000CEH   SFRSYM    DATA     BYTE      CRC0CN0
      0000008CH   SFRSYM    DATA     BYTE      TH0
      00000086H   SFRSYM    DATA     BYTE      CRC0CN1
      000000B8H.4 SFRSYM    DATA     BIT       IP_PS0
      000000FAH   SFRSYM    DATA     BYTE      UART1FCT
      0000008DH   SFRSYM    DATA     BYTE      TH1
      000000FAH   SFRSYM    DATA     BYTE      PCA0H
      000000F5H   SFRSYM    DATA     BYTE      I2C0FCT
      000000B8H.1 SFRSYM    DATA     BIT       IP_PT0
      000000B8H.3 SFRSYM    DATA     BIT       IP_PT1
      000000C0H.2 SFRSYM    DATA     BIT       SMB0CN0_ARBLOST
      000000B8H.5 SFRSYM    DATA     BIT       IP_PT2
      0000008AH   SFRSYM    DATA     BYTE      TL0
LX51 LINKER/LOCATER V4.66.30.0                                                        03/29/2016  00:06:41  PAGE 145


      00000080H.3 SFRSYM    DATA     BIT       U2F_BUTTON_VAL
      000000D0H.5 SFRSYM    DATA     BIT       PSW_F0
      000000A8H.6 SFRSYM    DATA     BIT       IE_ESPI0
      0000008BH   SFRSYM    DATA     BYTE      TL1
      000000F9H   SFRSYM    DATA     BYTE      PCA0L
      000000C0H   SFRSYM    DATA     BIT       SMB0CN0_SI
      000000D0H.1 SFRSYM    DATA     BIT       PSW_F1
      00000080H   SFRSYM    DATA     BIT       P0_B0
      000000B8H   SFRSYM    DATA     BIT       IP_PX0
      00000090H   SFRSYM    DATA     BIT       P1_B0
      00000080H.1 SFRSYM    DATA     BIT       P0_B1
      000000B8H.2 SFRSYM    DATA     BIT       IP_PX1
      0000009EH   SFRSYM    DATA     BYTE      UART1LIN
      0000009BH   SFRSYM    DATA     BYTE      CMP0CN0
      00000088H.1 SFRSYM    DATA     BIT       TCON_IE0
      000000A0H   SFRSYM    DATA     BIT       P2_B0
      00000090H.1 SFRSYM    DATA     BIT       P1_B1
      00000080H.2 SFRSYM    DATA     BIT       P0_B2
      000000BFH   SFRSYM    DATA     BYTE      CMP1CN0
      00000099H   SFRSYM    DATA     BYTE      CMP0CN1
      00000088H.3 SFRSYM    DATA     BIT       TCON_IE1
      000000B0H   SFRSYM    DATA     BIT       P3_B0
      000000A0H.1 SFRSYM    DATA     BIT       P2_B1
      00000090H.2 SFRSYM    DATA     BIT       P1_B2
      00000080H.3 SFRSYM    DATA     BIT       P0_B3
      000000C0H   SFRSYM    DATA     BYTE      SMB0CN0
      000000ACH   SFRSYM    DATA     BYTE      CMP1CN1
      000000B0H.1 SFRSYM    DATA     BIT       P3_B1
      000000A0H.2 SFRSYM    DATA     BIT       P2_B2
      00000090H.3 SFRSYM    DATA     BIT       P1_B3
      00000080H.4 SFRSYM    DATA     BIT       P0_B4
      000000A0H.3 SFRSYM    DATA     BIT       P2_B3
      00000090H.4 SFRSYM    DATA     BIT       P1_B4
      00000080H.5 SFRSYM    DATA     BIT       P0_B5
      000000D8H.1 SFRSYM    DATA     BIT       UART1FCN1_RXTO0
      00000090H.5 SFRSYM    DATA     BIT       P1_B5
      00000080H.6 SFRSYM    DATA     BIT       P0_B6
      000000F5H   SFRSYM    DATA     BYTE      EIP1H
      000000D8H.2 SFRSYM    DATA     BIT       UART1FCN1_RXTO1
      00000090H.6 SFRSYM    DATA     BIT       P1_B6
      00000080H.7 SFRSYM    DATA     BIT       P0_B7
      000000C5H   SFRSYM    DATA     BYTE      SMB0RXLN
      000000F6H   SFRSYM    DATA     BYTE      EIP2H
      00000090H.7 SFRSYM    DATA     BIT       P1_B7
      00000083H   SFRSYM    DATA     BYTE      DPH
      000000C4H   SFRSYM    DATA     BYTE      ADC0GTH
      000000C8H.7 SFRSYM    DATA     BIT       TMR2CN0_TF2H
      000000C8H.3 SFRSYM    DATA     BIT       TMR2CN0_T2SPLIT
      000000D0H.6 SFRSYM    DATA     BIT       PSW_AC
      000000F8H   SFRSYM    DATA     BYTE      SPI0CN0
      000000C7H   SFRSYM    DATA     BYTE      HFO0CAL
      00000088H.5 SFRSYM    DATA     BIT       TCON_TF0
      00000098H   SFRSYM    DATA     BIT       SCON0_RI
      000000D6H   SFRSYM    DATA     BYTE      HFO1CAL
      00000082H   SFRSYM    DATA     BYTE      DPL
      00000088H.7 SFRSYM    DATA     BIT       TCON_TF1
      000000C8H   SFRSYM    DATA     BIT       SCON1_RI
      00000099H   SFRSYM    DATA     BYTE      SBUF0
      00000087H   SFRSYM    DATA     BYTE      PCON0
      000000F2H   SFRSYM    DATA     BYTE      IPH
      000000C3H   SFRSYM    DATA     BYTE      ADC0GTL
      00000098H.7 SFRSYM    DATA     BIT       TMR4CN0_TF4H
LX51 LINKER/LOCATER V4.66.30.0                                                        03/29/2016  00:06:41  PAGE 146


      00000098H.3 SFRSYM    DATA     BIT       TMR4CN0_T4SPLIT
      000000C8H.6 SFRSYM    DATA     BIT       TMR2CN0_TF2L
      00000098H.1 SFRSYM    DATA     BIT       SCON0_TI
      000000E8H   SFRSYM    DATA     BIT       ADC0CN0_ADCM0
      00000092H   SFRSYM    DATA     BYTE      SBUF1
      0000009AH   SFRSYM    DATA     BYTE      PCON1
      000000C6H   SFRSYM    DATA     BYTE      ADC0LTH
      00000088H   SFRSYM    DATA     BIT       TCON_IT0
      000000C8H.1 SFRSYM    DATA     BIT       SCON1_TI
      000000E8H.1 SFRSYM    DATA     BIT       ADC0CN0_ADCM1
      000000EFH   SFRSYM    DATA     BYTE      RSTSRC
      000000FDH   SFRSYM    DATA     BYTE      P0MAT
      000000DEH   SFRSYM    DATA     BYTE      CRC0DAT
      00000088H.2 SFRSYM    DATA     BIT       TCON_IT1
      000000E8H.2 SFRSYM    DATA     BIT       ADC0CN0_ADCM2
      000000D7H   SFRSYM    DATA     BYTE      SFRSTACK
      00000098H   SFRSYM    DATA     BYTE      SCON0
      000000F6H   SFRSYM    DATA     BYTE      PRTDRV
      000000EDH   SFRSYM    DATA     BYTE      P1MAT
      000000E8H.3 SFRSYM    DATA     BIT       ADC0CN0_ADWINT
      00000095H   SFRSYM    DATA     WORD      SBRL1
      000000B2H   SFRSYM    DATA     BYTE      USB0AEC
      00000093H   SFRSYM    DATA     BYTE      SMOD1
      000000C8H   SFRSYM    DATA     BYTE      SCON1
      000000FBH   SFRSYM    DATA     BYTE      P2MAT
      00000098H.6 SFRSYM    DATA     BIT       TMR4CN0_TF4L
      000000E8H.4 SFRSYM    DATA     BIT       ADC0CN0_ADBUSY
      000000D6H   SFRSYM    DATA     BYTE      SMB0ADM
      000000C5H   SFRSYM    DATA     BYTE      ADC0LTL
      000000F8H.5 SFRSYM    DATA     BIT       SPI0CN0_MODF
      000000B8H.6 SFRSYM    DATA     BIT       IP_PSPI0
      0000009CH   SFRSYM    DATA     BYTE      PCA0CLR
      000000C8H   SFRSYM    DATA     BYTE      TMR2CN0
      00000091H   SFRSYM    DATA     BYTE      TMR3CN0
      000000FDH   SFRSYM    DATA     BYTE      TMR2CN1
      00000098H   SFRSYM    DATA     BYTE      TMR4CN0
      000000FEH   SFRSYM    DATA     BYTE      TMR3CN1
      000000FFH   SFRSYM    DATA     BYTE      TMR4CN1
      000000D7H   SFRSYM    DATA     BYTE      SMB0ADR
      00000088H.4 SFRSYM    DATA     BIT       TCON_TR0
      000000C8H.4 SFRSYM    DATA     BIT       TMR2CN0_TF2CEN
      00000088H.6 SFRSYM    DATA     BIT       TCON_TR1
      000000C2H   SFRSYM    DATA     BYTE      SMB0DAT
      000000CDH   SFRSYM    DATA     BYTE      TMR2H
      000000A1H   SFRSYM    DATA     BYTE      SPI0CFG
      00000095H   SFRSYM    DATA     BYTE      TMR3H
      000000EFH   SFRSYM    DATA     BYTE      HFOCN
      000000D3H   SFRSYM    DATA     BYTE      CRC0CNT
      000000A5H   SFRSYM    DATA     BYTE      TMR4H
      00000098H.4 SFRSYM    DATA     BIT       TMR4CN0_TF4CEN
      000000EFH   SFRSYM    DATA     BYTE      SMB0FCT
      00000096H   SFRSYM    DATA     BYTE      PCA0POL
      000000CCH   SFRSYM    DATA     BYTE      TMR2L
      000000F8H.7 SFRSYM    DATA     BIT       SPI0CN0_SPIF
      000000AEH   SFRSYM    DATA     BYTE      USB0ADR
      00000094H   SFRSYM    DATA     BYTE      TMR3L
      000000DFH   SFRSYM    DATA     BYTE      ADC0PWR
      000000A8H.7 SFRSYM    DATA     BIT       IE_EA
      000000A4H   SFRSYM    DATA     BYTE      TMR4L
      000000AFH   SFRSYM    DATA     BYTE      USB0DAT
      000000C8H.5 SFRSYM    DATA     BIT       TMR2CN0_TF2LEN
      000000F8H.6 SFRSYM    DATA     BIT       SPI0CN0_WCOL
LX51 LINKER/LOCATER V4.66.30.0                                                        03/29/2016  00:06:41  PAGE 147


      00000080H.6 SFRSYM    DATA     BIT       LED_B
      000000F8H.2 SFRSYM    DATA     BIT       SPI0CN0_NSSMD0
      000000D0H.7 SFRSYM    DATA     BIT       PSW_CY
      0000009DH   SFRSYM    DATA     BYTE      UART1FCN0
      000000A3H   SFRSYM    DATA     BYTE      SPI0DAT
      000000ADH   SFRSYM    DATA     BYTE      I2C0FCN0
      000000F8H.3 SFRSYM    DATA     BIT       SPI0CN0_NSSMD1
      000000BDH   SFRSYM    DATA     WORD      ADC0
      000000D8H   SFRSYM    DATA     BYTE      UART1FCN1
      000000ABH   SFRSYM    DATA     BYTE      I2C0FCN1
      00000098H.5 SFRSYM    DATA     BIT       TMR4CN0_TF4LEN
      000000D0H   SFRSYM    DATA     BYTE      PSW
      000000F7H   SFRSYM    DATA     BYTE      PCA0PWM
      000000F7H   SFRSYM    DATA     BYTE      SPI0FCT
      000000B6H   SFRSYM    DATA     BYTE      REVID
      00000080H.7 SFRSYM    DATA     BIT       LED_G
      000000B7H   SFRSYM    DATA     BYTE      FLKEY
      000000B3H   SFRSYM    DATA     BYTE      ADC0AC

      ---         MODULE    ---      ---       ATECC508A
      02000202H   PUBLIC    XDATA    BYTE      ?_atecc_send_recv?BYTE
      01001505H   PUBLIC    CODE     ---       _atecc_send_recv
      02000212H   PUBLIC    XDATA    BYTE      ?_atecc_recv?BYTE
      01001B6EH   PUBLIC    CODE     ---       _atecc_recv
      01003B29H   PUBLIC    CODE     ---       atecc_wake
      01003C69H   PUBLIC    CODE     ---       atecc_idle
      02000212H   PUBLIC    XDATA    BYTE      ?_atecc_send?BYTE
      01002EAAH   PUBLIC    CODE     ---       _atecc_send
      000000A2H   SFRSYM    DATA     BYTE      SPI0CKR
      00000080H   SFRSYM    DATA     BYTE      P0
      000000C8H.6 SFRSYM    DATA     BIT       SCON1_PERR
      000000D0H.2 SFRSYM    DATA     BIT       PSW_OV
      00000090H   SFRSYM    DATA     BYTE      P1
      000000F8H.1 SFRSYM    DATA     BIT       SPI0CN0_TXNF
      00000097H   SFRSYM    DATA     BYTE      WDTCN
      000000A0H   SFRSYM    DATA     BYTE      P2
      000000B0H   SFRSYM    DATA     BYTE      P3
      000000BCH   SFRSYM    DATA     BYTE      ADC0CF
      000000C0H.7 SFRSYM    DATA     BIT       SMB0CN0_MASTER
      000000F9H   SFRSYM    DATA     WORD      PCA0
      000000E6H   SFRSYM    DATA     BYTE      EIE1
      000000C0H.1 SFRSYM    DATA     BIT       SMB0CN0_ACK
      000000B3H   SFRSYM    DATA     BYTE      USB0XCN
      000000CEH   SFRSYM    DATA     BYTE      EIE2
      00000090H   SFRSYM    DATA     BIT       LED_R
      0000008FH   SFRSYM    DATA     BYTE      PSCTL
      000000E4H   SFRSYM    DATA     BYTE      IT01CF
      000000C0H.6 SFRSYM    DATA     BIT       SMB0CN0_TXMODE
      000000ADH   SFRSYM    DATA     BYTE      DERIVID
      000000A7H   SFRSYM    DATA     BYTE      SFRPAGE
      000000A4H   SFRSYM    DATA     BYTE      P0MDOUT
      00000080H.2 SFRSYM    DATA     BIT       U2F_BUTTON
      000000BFH   SFRSYM    DATA     BYTE      USB0CDSTA
      000000A5H   SFRSYM    DATA     BYTE      P1MDOUT
      000000E8H.5 SFRSYM    DATA     BIT       ADC0CN0_ADINT
      000000CBH   SFRSYM    DATA     BYTE      TMR2RLH
      000000A6H   SFRSYM    DATA     BYTE      P2MDOUT
      000000A8H   SFRSYM    DATA     BYTE      IE
      00000093H   SFRSYM    DATA     BYTE      TMR3RLH
      0000009CH   SFRSYM    DATA     BYTE      P3MDOUT
      000000A3H   SFRSYM    DATA     BYTE      TMR4RLH
      000000F3H   SFRSYM    DATA     BYTE      EIP1
LX51 LINKER/LOCATER V4.66.30.0                                                        03/29/2016  00:06:41  PAGE 148


      000000F4H   SFRSYM    DATA     BYTE      EIP2
      00000098H.2 SFRSYM    DATA     BIT       SCON0_RB8
      000000CAH   SFRSYM    DATA     BYTE      TMR2RLL
      000000FCH   SFRSYM    DATA     BYTE      PCA0CPH0
      00000092H   SFRSYM    DATA     BYTE      TMR3RLL
      000000EAH   SFRSYM    DATA     BYTE      PCA0CPH1
      00000098H.3 SFRSYM    DATA     BIT       SCON0_TB8
      000000F0H   SFRSYM    DATA     BIT       B_B0
      00000082H   SFRSYM    DATA     WORD      DP
      000000A2H   SFRSYM    DATA     BYTE      TMR4RLL
      000000ECH   SFRSYM    DATA     BYTE      PCA0CPH2
      000000F0H.1 SFRSYM    DATA     BIT       B_B1
      000000C3H   SFRSYM    DATA     WORD      ADC0GT
      000000BDH   SFRSYM    DATA     BYTE      I2C0SLAD
      000000D8H.3 SFRSYM    DATA     BIT       UART1FCN1_RFRQ
      000000F0H.2 SFRSYM    DATA     BIT       B_B2
      000000CFH   SFRSYM    DATA     BYTE      SFRPGCN
      000000FBH   SFRSYM    DATA     BYTE      PCA0CPL0
      000000F0H.3 SFRSYM    DATA     BIT       B_B3
      000000D9H   SFRSYM    DATA     BYTE      PCA0MD
      000000DAH   SFRSYM    DATA     BYTE      PCA0CPM0
      000000E9H   SFRSYM    DATA     BYTE      PCA0CPL1
      000000D8H.7 SFRSYM    DATA     BIT       UART1FCN1_TFRQ
      000000F0H.4 SFRSYM    DATA     BIT       B_B4
      000000DBH   SFRSYM    DATA     BYTE      PCA0CPM1
      000000EBH   SFRSYM    DATA     BYTE      PCA0CPL2
      000000F0H.5 SFRSYM    DATA     BIT       B_B5
      000000DCH   SFRSYM    DATA     BYTE      PCA0CPM2
      000000B8H   SFRSYM    DATA     BYTE      IP
      000000B9H   SFRSYM    DATA     BYTE      ADC0TK
      000000F0H.6 SFRSYM    DATA     BIT       B_B6
      000000C5H   SFRSYM    DATA     WORD      ADC0LT
      000000D8H.6 SFRSYM    DATA     BIT       UART1FCN1_TXNF
      00000098H.5 SFRSYM    DATA     BIT       SCON0_MCE
      000000F0H.7 SFRSYM    DATA     BIT       B_B7
      000000C3H   SFRSYM    DATA     BYTE      SMB0FCN0
      000000E1H   SFRSYM    DATA     BYTE      XBR0
      000000C4H   SFRSYM    DATA     BYTE      SMB0FCN1
      000000C1H   SFRSYM    DATA     BYTE      SMB0CF
      000000E2H   SFRSYM    DATA     BYTE      XBR1
      000000C1H   SFRSYM    DATA     BYTE      PFE0CN
      000000E7H   SFRSYM    DATA     BYTE      EMI0CN
      000000C0H.5 SFRSYM    DATA     BIT       SMB0CN0_STA
      000000E3H   SFRSYM    DATA     BYTE      XBR2
      000000BBH   SFRSYM    DATA     BYTE      ADC0MX
      000000E0H   SFRSYM    DATA     BIT       ACC_ACC0
      000000D1H   SFRSYM    DATA     BYTE      REF0CN
      0000008EH   SFRSYM    DATA     BYTE      CKCON0
      000000E0H.1 SFRSYM    DATA     BIT       ACC_ACC1
      000000C9H   SFRSYM    DATA     BYTE      REG0CN
      000000DDH   SFRSYM    DATA     BYTE      CRC0IN
      000000A6H   SFRSYM    DATA     BYTE      CKCON1
      000000C8H.2 SFRSYM    DATA     BIT       TMR2CN0_TR2
      000000E0H.2 SFRSYM    DATA     BIT       ACC_ACC2
      000000C6H   SFRSYM    DATA     BYTE      REG1CN
      000000E0H.3 SFRSYM    DATA     BIT       ACC_ACC3
      00000081H   SFRSYM    DATA     BYTE      SP
      0000009DH   SFRSYM    DATA     BYTE      CMP0MD
      000000E0H.4 SFRSYM    DATA     BIT       ACC_ACC4
      000000B1H   SFRSYM    DATA     BYTE      LFO0CN
      000000ABH   SFRSYM    DATA     BYTE      CMP1MD
      000000D8H   SFRSYM    DATA     BIT       PCA0CN0_CCF0
LX51 LINKER/LOCATER V4.66.30.0                                                        03/29/2016  00:06:41  PAGE 149


      000000E0H.5 SFRSYM    DATA     BIT       ACC_ACC5
      000000B5H   SFRSYM    DATA     BYTE      USB0CF
      00000098H.2 SFRSYM    DATA     BIT       TMR4CN0_TR4
      000000D8H.1 SFRSYM    DATA     BIT       PCA0CN0_CCF1
      000000E0H.6 SFRSYM    DATA     BIT       ACC_ACC6
      000000CCH   SFRSYM    DATA     WORD      TMR2
      0000009AH   SFRSYM    DATA     BYTE      SPI0FCN0
      000000D8H.2 SFRSYM    DATA     BIT       PCA0CN0_CCF2
      000000E0H.7 SFRSYM    DATA     BIT       ACC_ACC7
      00000094H   SFRSYM    DATA     WORD      TMR3
      0000009BH   SFRSYM    DATA     BYTE      SPI0FCN1
      000000A4H   SFRSYM    DATA     WORD      TMR4
      00000094H   SFRSYM    DATA     BYTE      SBCON1
      000000C0H.3 SFRSYM    DATA     BIT       SMB0CN0_ACKRQ
      000000FFH   SFRSYM    DATA     BYTE      VDM0CN
      000000F1H   SFRSYM    DATA     BYTE      P0MDIN
      00000098H.4 SFRSYM    DATA     BIT       SCON0_REN
      000000ACH   SFRSYM    DATA     BYTE      SMB0TC
      000000F2H   SFRSYM    DATA     BYTE      P1MDIN
      000000C8H.4 SFRSYM    DATA     BIT       SCON1_REN
      000000F3H   SFRSYM    DATA     BYTE      P2MDIN
      000000C0H.4 SFRSYM    DATA     BIT       SMB0CN0_STO
      000000B6H   SFRSYM    DATA     BYTE      USB0CDCF
      000000F4H   SFRSYM    DATA     BYTE      P3MDIN
      000000B9H   SFRSYM    DATA     BYTE      I2C0STAT
      000000BBH   SFRSYM    DATA     BYTE      I2C0DOUT
      00000096H   SFRSYM    DATA     BYTE      SBRLH1
      000000FEH   SFRSYM    DATA     BYTE      P0MASK
      000000D8H.5 SFRSYM    DATA     BIT       UART1FCN1_TXHOLD
      000000EEH   SFRSYM    DATA     BYTE      P1MASK
      000000FCH   SFRSYM    DATA     BYTE      P2MASK
      000000D0H.3 SFRSYM    DATA     BIT       PSW_RS0
      000000D8H.7 SFRSYM    DATA     BIT       PCA0CN0_CF
      0000009EH   SFRSYM    DATA     BYTE      PCA0CENT
      000000BAH   SFRSYM    DATA     BYTE      I2C0CN0
      000000D2H   SFRSYM    DATA     BYTE      CRC0ST
      000000F8H.4 SFRSYM    DATA     BIT       SPI0CN0_RXOVRN
      000000D0H.4 SFRSYM    DATA     BIT       PSW_RS1
      00000095H   SFRSYM    DATA     BYTE      SBRLL1
      000000C8H.2 SFRSYM    DATA     BIT       SCON1_RBX
      000000C8H   SFRSYM    DATA     BIT       TMR2CN0_T2XCLK0
      000000C8H.1 SFRSYM    DATA     BIT       TMR2CN0_T2XCLK1
      000000C8H.3 SFRSYM    DATA     BIT       SCON1_TBX
      000000E8H.7 SFRSYM    DATA     BIT       ADC0CN0_ADEN
      000000BEH   SFRSYM    DATA     BYTE      USB0CDCN
      00000089H   SFRSYM    DATA     BYTE      TMOD
      00000088H   SFRSYM    DATA     BYTE      TCON
      000000CFH   SFRSYM    DATA     BYTE      CRC0FLIP
      000000D0H   SFRSYM    DATA     BIT       PSW_PARITY
      000000A8H.4 SFRSYM    DATA     BIT       IE_ES0
      0000009FH   SFRSYM    DATA     BYTE      CMP0MX
      00000098H   SFRSYM    DATA     BIT       TMR4CN0_T4XCLK0
      000000A8H.1 SFRSYM    DATA     BIT       IE_ET0
      000000AAH   SFRSYM    DATA     BYTE      CMP1MX
      00000098H.1 SFRSYM    DATA     BIT       TMR4CN0_T4XCLK1
      000000A8H.3 SFRSYM    DATA     BIT       IE_ET1
      000000D4H   SFRSYM    DATA     BYTE      P0SKIP
      000000D8H   SFRSYM    DATA     BIT       UART1FCN1_RIE
      000000A8H.5 SFRSYM    DATA     BIT       IE_ET2
      000000D5H   SFRSYM    DATA     BYTE      P1SKIP
      000000CCH   SFRSYM    DATA     BYTE      P2SKIP
      000000E8H   SFRSYM    DATA     BYTE      ADC0CN0
LX51 LINKER/LOCATER V4.66.30.0                                                        03/29/2016  00:06:41  PAGE 150


      000000D8H.4 SFRSYM    DATA     BIT       UART1FCN1_TIE
      000000A8H   SFRSYM    DATA     BIT       IE_EX0
      000000B2H   SFRSYM    DATA     BYTE      ADC0CN1
      000000D8H.6 SFRSYM    DATA     BIT       PCA0CN0_CR
      000000A8H.2 SFRSYM    DATA     BIT       IE_EX1
      000000C8H.7 SFRSYM    DATA     BIT       SCON1_OVR
      00000098H.7 SFRSYM    DATA     BIT       SCON0_SMODE
      000000B5H   SFRSYM    DATA     BYTE      DEVICEID
      000000A9H   SFRSYM    DATA     BYTE      CLKSEL
      000000F8H   SFRSYM    DATA     BIT       SPI0CN0_SPIEN
      000000F0H   SFRSYM    DATA     BYTE      B
      000000BEH   SFRSYM    DATA     BYTE      ADC0H
      000000E8H.6 SFRSYM    DATA     BIT       ADC0CN0_ADBMEN
      000000CAH   SFRSYM    DATA     WORD      TMR2RL
      000000BDH   SFRSYM    DATA     BYTE      ADC0L
      00000092H   SFRSYM    DATA     WORD      TMR3RL
      000000A2H   SFRSYM    DATA     WORD      TMR4RL
      000000D8H   SFRSYM    DATA     BYTE      PCA0CN0
      000000E0H   SFRSYM    DATA     BYTE      ACC
      000000FBH   SFRSYM    DATA     WORD      PCA0CP0
      000000E9H   SFRSYM    DATA     WORD      PCA0CP1
      000000EBH   SFRSYM    DATA     WORD      PCA0CP2
      000000BCH   SFRSYM    DATA     BYTE      I2C0DIN
      000000CEH   SFRSYM    DATA     BYTE      CRC0CN0
      0000008CH   SFRSYM    DATA     BYTE      TH0
      00000086H   SFRSYM    DATA     BYTE      CRC0CN1
      000000B8H.4 SFRSYM    DATA     BIT       IP_PS0
      000000FAH   SFRSYM    DATA     BYTE      UART1FCT
      0000008DH   SFRSYM    DATA     BYTE      TH1
      000000FAH   SFRSYM    DATA     BYTE      PCA0H
      000000F5H   SFRSYM    DATA     BYTE      I2C0FCT
      000000B8H.1 SFRSYM    DATA     BIT       IP_PT0
      000000B8H.3 SFRSYM    DATA     BIT       IP_PT1
      000000C0H.2 SFRSYM    DATA     BIT       SMB0CN0_ARBLOST
      000000B8H.5 SFRSYM    DATA     BIT       IP_PT2
      0000008AH   SFRSYM    DATA     BYTE      TL0
      00000080H.3 SFRSYM    DATA     BIT       U2F_BUTTON_VAL
      000000D0H.5 SFRSYM    DATA     BIT       PSW_F0
      000000A8H.6 SFRSYM    DATA     BIT       IE_ESPI0
      0000008BH   SFRSYM    DATA     BYTE      TL1
      000000F9H   SFRSYM    DATA     BYTE      PCA0L
      000000C0H   SFRSYM    DATA     BIT       SMB0CN0_SI
      000000D0H.1 SFRSYM    DATA     BIT       PSW_F1
      00000080H   SFRSYM    DATA     BIT       P0_B0
      000000B8H   SFRSYM    DATA     BIT       IP_PX0
      00000090H   SFRSYM    DATA     BIT       P1_B0
      00000080H.1 SFRSYM    DATA     BIT       P0_B1
      000000B8H.2 SFRSYM    DATA     BIT       IP_PX1
      0000009EH   SFRSYM    DATA     BYTE      UART1LIN
      0000009BH   SFRSYM    DATA     BYTE      CMP0CN0
      00000088H.1 SFRSYM    DATA     BIT       TCON_IE0
      000000A0H   SFRSYM    DATA     BIT       P2_B0
      00000090H.1 SFRSYM    DATA     BIT       P1_B1
      00000080H.2 SFRSYM    DATA     BIT       P0_B2
      000000BFH   SFRSYM    DATA     BYTE      CMP1CN0
      00000099H   SFRSYM    DATA     BYTE      CMP0CN1
      00000088H.3 SFRSYM    DATA     BIT       TCON_IE1
      000000B0H   SFRSYM    DATA     BIT       P3_B0
      000000A0H.1 SFRSYM    DATA     BIT       P2_B1
      00000090H.2 SFRSYM    DATA     BIT       P1_B2
      00000080H.3 SFRSYM    DATA     BIT       P0_B3
      000000C0H   SFRSYM    DATA     BYTE      SMB0CN0
LX51 LINKER/LOCATER V4.66.30.0                                                        03/29/2016  00:06:41  PAGE 151


      000000ACH   SFRSYM    DATA     BYTE      CMP1CN1
      000000B0H.1 SFRSYM    DATA     BIT       P3_B1
      000000A0H.2 SFRSYM    DATA     BIT       P2_B2
      00000090H.3 SFRSYM    DATA     BIT       P1_B3
      00000080H.4 SFRSYM    DATA     BIT       P0_B4
      000000A0H.3 SFRSYM    DATA     BIT       P2_B3
      00000090H.4 SFRSYM    DATA     BIT       P1_B4
      00000080H.5 SFRSYM    DATA     BIT       P0_B5
      000000D8H.1 SFRSYM    DATA     BIT       UART1FCN1_RXTO0
      00000090H.5 SFRSYM    DATA     BIT       P1_B5
      00000080H.6 SFRSYM    DATA     BIT       P0_B6
      000000F5H   SFRSYM    DATA     BYTE      EIP1H
      000000D8H.2 SFRSYM    DATA     BIT       UART1FCN1_RXTO1
      00000090H.6 SFRSYM    DATA     BIT       P1_B6
      00000080H.7 SFRSYM    DATA     BIT       P0_B7
      000000C5H   SFRSYM    DATA     BYTE      SMB0RXLN
      000000F6H   SFRSYM    DATA     BYTE      EIP2H
      00000090H.7 SFRSYM    DATA     BIT       P1_B7
      00000083H   SFRSYM    DATA     BYTE      DPH
      000000C4H   SFRSYM    DATA     BYTE      ADC0GTH
      000000C8H.7 SFRSYM    DATA     BIT       TMR2CN0_TF2H
      000000C8H.3 SFRSYM    DATA     BIT       TMR2CN0_T2SPLIT
      000000D0H.6 SFRSYM    DATA     BIT       PSW_AC
      000000F8H   SFRSYM    DATA     BYTE      SPI0CN0
      000000C7H   SFRSYM    DATA     BYTE      HFO0CAL
      00000088H.5 SFRSYM    DATA     BIT       TCON_TF0
      00000098H   SFRSYM    DATA     BIT       SCON0_RI
      000000D6H   SFRSYM    DATA     BYTE      HFO1CAL
      00000082H   SFRSYM    DATA     BYTE      DPL
      00000088H.7 SFRSYM    DATA     BIT       TCON_TF1
      000000C8H   SFRSYM    DATA     BIT       SCON1_RI
      00000099H   SFRSYM    DATA     BYTE      SBUF0
      00000087H   SFRSYM    DATA     BYTE      PCON0
      000000F2H   SFRSYM    DATA     BYTE      IPH
      000000C3H   SFRSYM    DATA     BYTE      ADC0GTL
      00000098H.7 SFRSYM    DATA     BIT       TMR4CN0_TF4H
      00000098H.3 SFRSYM    DATA     BIT       TMR4CN0_T4SPLIT
      000000C8H.6 SFRSYM    DATA     BIT       TMR2CN0_TF2L
      00000098H.1 SFRSYM    DATA     BIT       SCON0_TI
      000000E8H   SFRSYM    DATA     BIT       ADC0CN0_ADCM0
      00000092H   SFRSYM    DATA     BYTE      SBUF1
      0000009AH   SFRSYM    DATA     BYTE      PCON1
      000000C6H   SFRSYM    DATA     BYTE      ADC0LTH
      00000088H   SFRSYM    DATA     BIT       TCON_IT0
      000000C8H.1 SFRSYM    DATA     BIT       SCON1_TI
      000000E8H.1 SFRSYM    DATA     BIT       ADC0CN0_ADCM1
      000000EFH   SFRSYM    DATA     BYTE      RSTSRC
      000000FDH   SFRSYM    DATA     BYTE      P0MAT
      000000DEH   SFRSYM    DATA     BYTE      CRC0DAT
      00000088H.2 SFRSYM    DATA     BIT       TCON_IT1
      000000E8H.2 SFRSYM    DATA     BIT       ADC0CN0_ADCM2
      000000D7H   SFRSYM    DATA     BYTE      SFRSTACK
      00000098H   SFRSYM    DATA     BYTE      SCON0
      000000F6H   SFRSYM    DATA     BYTE      PRTDRV
      000000EDH   SFRSYM    DATA     BYTE      P1MAT
      000000E8H.3 SFRSYM    DATA     BIT       ADC0CN0_ADWINT
      00000095H   SFRSYM    DATA     WORD      SBRL1
      000000B2H   SFRSYM    DATA     BYTE      USB0AEC
      00000093H   SFRSYM    DATA     BYTE      SMOD1
      000000C8H   SFRSYM    DATA     BYTE      SCON1
      000000FBH   SFRSYM    DATA     BYTE      P2MAT
      00000098H.6 SFRSYM    DATA     BIT       TMR4CN0_TF4L
LX51 LINKER/LOCATER V4.66.30.0                                                        03/29/2016  00:06:41  PAGE 152


      000000E8H.4 SFRSYM    DATA     BIT       ADC0CN0_ADBUSY
      000000D6H   SFRSYM    DATA     BYTE      SMB0ADM
      000000C5H   SFRSYM    DATA     BYTE      ADC0LTL
      000000F8H.5 SFRSYM    DATA     BIT       SPI0CN0_MODF
      000000B8H.6 SFRSYM    DATA     BIT       IP_PSPI0
      0000009CH   SFRSYM    DATA     BYTE      PCA0CLR
      000000C8H   SFRSYM    DATA     BYTE      TMR2CN0
      00000091H   SFRSYM    DATA     BYTE      TMR3CN0
      000000FDH   SFRSYM    DATA     BYTE      TMR2CN1
      00000098H   SFRSYM    DATA     BYTE      TMR4CN0
      000000FEH   SFRSYM    DATA     BYTE      TMR3CN1
      000000FFH   SFRSYM    DATA     BYTE      TMR4CN1
      000000D7H   SFRSYM    DATA     BYTE      SMB0ADR
      00000088H.4 SFRSYM    DATA     BIT       TCON_TR0
      000000C8H.4 SFRSYM    DATA     BIT       TMR2CN0_TF2CEN
      00000088H.6 SFRSYM    DATA     BIT       TCON_TR1
      000000C2H   SFRSYM    DATA     BYTE      SMB0DAT
      000000CDH   SFRSYM    DATA     BYTE      TMR2H
      000000A1H   SFRSYM    DATA     BYTE      SPI0CFG
      00000095H   SFRSYM    DATA     BYTE      TMR3H
      000000EFH   SFRSYM    DATA     BYTE      HFOCN
      000000D3H   SFRSYM    DATA     BYTE      CRC0CNT
      000000A5H   SFRSYM    DATA     BYTE      TMR4H
      00000098H.4 SFRSYM    DATA     BIT       TMR4CN0_TF4CEN
      000000EFH   SFRSYM    DATA     BYTE      SMB0FCT
      00000096H   SFRSYM    DATA     BYTE      PCA0POL
      000000CCH   SFRSYM    DATA     BYTE      TMR2L
      000000F8H.7 SFRSYM    DATA     BIT       SPI0CN0_SPIF
      000000AEH   SFRSYM    DATA     BYTE      USB0ADR
      00000094H   SFRSYM    DATA     BYTE      TMR3L
      000000DFH   SFRSYM    DATA     BYTE      ADC0PWR
      000000A8H.7 SFRSYM    DATA     BIT       IE_EA
      000000A4H   SFRSYM    DATA     BYTE      TMR4L
      000000AFH   SFRSYM    DATA     BYTE      USB0DAT
      000000C8H.5 SFRSYM    DATA     BIT       TMR2CN0_TF2LEN
      000000F8H.6 SFRSYM    DATA     BIT       SPI0CN0_WCOL
      00000080H.6 SFRSYM    DATA     BIT       LED_B
      000000F8H.2 SFRSYM    DATA     BIT       SPI0CN0_NSSMD0
      000000D0H.7 SFRSYM    DATA     BIT       PSW_CY
      0000009DH   SFRSYM    DATA     BYTE      UART1FCN0
      000000A3H   SFRSYM    DATA     BYTE      SPI0DAT
      000000ADH   SFRSYM    DATA     BYTE      I2C0FCN0
      000000F8H.3 SFRSYM    DATA     BIT       SPI0CN0_NSSMD1
      000000BDH   SFRSYM    DATA     WORD      ADC0
      000000D8H   SFRSYM    DATA     BYTE      UART1FCN1
      000000ABH   SFRSYM    DATA     BYTE      I2C0FCN1
      00000098H.5 SFRSYM    DATA     BIT       TMR4CN0_TF4LEN
      000000D0H   SFRSYM    DATA     BYTE      PSW
      000000F7H   SFRSYM    DATA     BYTE      PCA0PWM
      000000F7H   SFRSYM    DATA     BYTE      SPI0FCT
      000000B6H   SFRSYM    DATA     BYTE      REVID
      00000080H.7 SFRSYM    DATA     BIT       LED_G
      000000B7H   SFRSYM    DATA     BYTE      FLKEY
      000000B3H   SFRSYM    DATA     BYTE      ADC0AC
      010037EAH   SYMBOL    CODE     ---       _delay_cmd

      01003443H   BLOCK     CODE     ---       LVL=0
      ---         BLOCKEND  ---      ---       LVL=0

      01002EAAH   BLOCK     CODE     ---       LVL=0
      00000007H   SYMBOL    DATA     BYTE      cmd
      00000005H   SYMBOL    DATA     BYTE      p1
LX51 LINKER/LOCATER V4.66.30.0                                                        03/29/2016  00:06:41  PAGE 153


      02000214H   SYMBOL    XDATA    WORD      p2
      02000216H   SYMBOL    XDATA    ---       buf
      02000219H   SYMBOL    XDATA    BYTE      len
      01002EB2H   BLOCK     CODE     NEAR LAB  LVL=1
      00000008H   SYMBOL    DATA     ---       params
      ---         BLOCKEND  ---      ---       LVL=1
      01002EAAH   LINE      CODE     ---       #18
      01002EB2H   LINE      CODE     ---       #20
      01002EB2H   LINE      CODE     ---       #22
      01002EB5H   LINE      CODE     ---       #23
      01002EBDH   LINE      CODE     ---       #24
      01002EBFH   LINE      CODE     ---       #25
      01002EC3H   LINE      CODE     ---       #26
      01002EC9H   LINE      CODE     ---       #27
      01002ECFH   LINE      CODE     ---       #29
      01002ED2H   LINE      CODE     ---       #30
      01002EE0H   LINE      CODE     ---       #31
      01002EEEH   LINE      CODE     ---       #32
      01002EF5H   LINE      CODE     ---       #33
      01002EF5H   LINE      CODE     ---       #34
      01002EF7H   LINE      CODE     ---       #35
      01002EF7H   LINE      CODE     ---       #36
      01002EF7H   LINE      CODE     ---       #37
      ---         BLOCKEND  ---      ---       LVL=0

      01003C69H   BLOCK     CODE     ---       LVL=0
      01003C69H   BLOCK     CODE     NEAR LAB  LVL=1
      0000000EH   SYMBOL    DATA     BYTE      params
      ---         BLOCKEND  ---      ---       LVL=1
      01003C69H   LINE      CODE     ---       #39
      01003C69H   LINE      CODE     ---       #40
      01003C69H   LINE      CODE     ---       #42
      ---         BLOCKEND  ---      ---       LVL=0
      0000000FH   SYMBOL    DATA     BYTE      params

      01003B29H   BLOCK     CODE     ---       LVL=0
      01003B29H   BLOCK     CODE     NEAR LAB  LVL=1
      02000394H   SYMBOL    XDATA    ---       params
      ---         BLOCKEND  ---      ---       LVL=1
      01003B29H   LINE      CODE     ---       #51
      01003B29H   LINE      CODE     ---       #52
      01003B29H   LINE      CODE     ---       #54
      ---         BLOCKEND  ---      ---       LVL=0

      01001B6EH   BLOCK     CODE     ---       LVL=0
      02000212H   SYMBOL    XDATA    ---       buf
      02000215H   SYMBOL    XDATA    BYTE      buflen
      02000216H   SYMBOL    XDATA    ---       res
      01001B79H   BLOCK     CODE     NEAR LAB  LVL=1
      02000219H   SYMBOL    XDATA    BYTE      pkt_len
      01001C28H   SYMBOL    CODE     VOID      fail
      ---         BLOCKEND  ---      ---       LVL=1
      01001B6EH   LINE      CODE     ---       #59
      01001B79H   LINE      CODE     ---       #60
      01001B79H   LINE      CODE     ---       #62
      01001B7CH   LINE      CODE     ---       #63
      01001B91H   LINE      CODE     ---       #64
      01001B96H   LINE      CODE     ---       #65
      01001B96H   LINE      CODE     ---       #66
      01001B99H   LINE      CODE     ---       #67
      01001B99H   LINE      CODE     ---       #69
      01001B9EH   LINE      CODE     ---       #70
LX51 LINKER/LOCATER V4.66.30.0                                                        03/29/2016  00:06:41  PAGE 154


      01001B9EH   LINE      CODE     ---       #71
      01001BA3H   LINE      CODE     ---       #72
      01001BA3H   LINE      CODE     ---       #74
      01001BB7H   LINE      CODE     ---       #75
      01001BB7H   LINE      CODE     ---       #76
      01001BDAH   LINE      CODE     ---       #77
      01001BDAH   LINE      CODE     ---       #78
      01001BDAH   LINE      CODE     ---       #79
      01001BDAH   LINE      CODE     ---       #80
      01001BDAH   LINE      CODE     ---       #82
      01001BDAH   LINE      CODE     ---       #83
      01001BDAH   LINE      CODE     ---       #84
      01001BDAH   LINE      CODE     ---       #86
      01001BEDH   LINE      CODE     ---       #87
      01001BEDH   LINE      CODE     ---       #88
      01001BF0H   LINE      CODE     ---       #89
      01001BF3H   LINE      CODE     ---       #90
      01001BF3H   LINE      CODE     ---       #92
      01001BFBH   LINE      CODE     ---       #93
      01001BFBH   LINE      CODE     ---       #94
      01001C09H   LINE      CODE     ---       #95
      01001C22H   LINE      CODE     ---       #96
      01001C22H   LINE      CODE     ---       #97
      01001C28H   LINE      CODE     ---       #99
      01001C28H   LINE      CODE     ---       #100
      01001C2AH   LINE      CODE     ---       #101
      ---         BLOCKEND  ---      ---       LVL=0

      010037EAH   BLOCK     CODE     ---       LVL=0
      00000007H   SYMBOL    DATA     BYTE      cmd
      010037EAH   BLOCK     CODE     NEAR LAB  LVL=1
      00000006H   SYMBOL    DATA     BYTE      d
      ---         BLOCKEND  ---      ---       LVL=1
      010037EAH   LINE      CODE     ---       #103
      010037EAH   LINE      CODE     ---       #104
      010037EAH   LINE      CODE     ---       #105
      010037EAH   LINE      CODE     ---       #106
      010037F6H   LINE      CODE     ---       #107
      010037F6H   LINE      CODE     ---       #108
      010037F6H   LINE      CODE     ---       #109
      010037F8H   LINE      CODE     ---       #110
      010037FAH   LINE      CODE     ---       #111
      010037FAH   LINE      CODE     ---       #112
      010037FCH   LINE      CODE     ---       #113
      010037FEH   LINE      CODE     ---       #114
      010037FEH   LINE      CODE     ---       #115
      01003800H   LINE      CODE     ---       #116
      01003802H   LINE      CODE     ---       #117
      01003802H   LINE      CODE     ---       #118
      01003804H   LINE      CODE     ---       #119
      01003804H   LINE      CODE     ---       #120
      01003804H   LINE      CODE     ---       #121
      ---         BLOCKEND  ---      ---       LVL=0

      01001505H   BLOCK     CODE     ---       LVL=0
      02000202H   SYMBOL    XDATA    BYTE      cmd
      02000203H   SYMBOL    XDATA    BYTE      p1
      02000204H   SYMBOL    XDATA    WORD      p2
      02000206H   SYMBOL    XDATA    ---       tx
      02000209H   SYMBOL    XDATA    BYTE      txlen
      0200020AH   SYMBOL    XDATA    ---       rx
      0200020DH   SYMBOL    XDATA    BYTE      rxlen
LX51 LINKER/LOCATER V4.66.30.0                                                        03/29/2016  00:06:41  PAGE 155


      0200020EH   SYMBOL    XDATA    ---       res
      01001513H   BLOCK     CODE     NEAR LAB  LVL=1
      02000211H   SYMBOL    XDATA    BYTE      errors
      0100151BH   SYMBOL    CODE     VOID      resend
      ---         BLOCKEND  ---      ---       LVL=1
      01001505H   LINE      CODE     ---       #124
      01001513H   LINE      CODE     ---       #127
      01001513H   LINE      CODE     ---       #128
      01001518H   LINE      CODE     ---       #129
      0100151BH   LINE      CODE     ---       #130
      0100151BH   LINE      CODE     ---       #131
      01001545H   LINE      CODE     ---       #132
      01001545H   LINE      CODE     ---       #133
      0100154CH   LINE      CODE     ---       #134
      01001552H   LINE      CODE     ---       #135
      01001558H   LINE      CODE     ---       #136
      01001558H   LINE      CODE     ---       #137
      0100155BH   LINE      CODE     ---       #138
      0100155BH   LINE      CODE     ---       #139
      0100155BH   LINE      CODE     ---       #140
      01001577H   LINE      CODE     ---       #141
      01001577H   LINE      CODE     ---       #142
      0100157DH   LINE      CODE     ---       #143
      01001583H   LINE      CODE     ---       #144
      01001583H   LINE      CODE     ---       #145
      01001594H   LINE      CODE     ---       #146
      01001597H   LINE      CODE     ---       #147
      01001597H   LINE      CODE     ---       #148
      010015BDH   LINE      CODE     ---       #149
      010015BDH   LINE      CODE     ---       #150
      010015BDH   LINE      CODE     ---       #151
      010015C5H   LINE      CODE     ---       #152
      010015C7H   LINE      CODE     ---       #153
      010015C7H   LINE      CODE     ---       #154
      010015CFH   LINE      CODE     ---       #155
      010015CFH   LINE      CODE     ---       #156
      010015CFH   LINE      CODE     ---       #157
      010015CFH   LINE      CODE     ---       #158
      010015CFH   LINE      CODE     ---       #159
      010015D2H   LINE      CODE     ---       #160
      010015D2H   LINE      CODE     ---       #161
      010015D2H   LINE      CODE     ---       #162
      010015D9H   LINE      CODE     ---       #163
      010015DBH   LINE      CODE     ---       #164
      010015DBH   LINE      CODE     ---       #166
      010015DBH   LINE      CODE     ---       #167
      010015DEH   LINE      CODE     ---       #168
      010015E0H   LINE      CODE     ---       #169
      ---         BLOCKEND  ---      ---       LVL=0

      ---         MODULE    ---      ---       EEPROM
      02000201H   PUBLIC    XDATA    BYTE      ?__eeprom_write?BYTE
      01002F92H   PUBLIC    CODE     ---       __eeprom_write
      02000202H   PUBLIC    XDATA    BYTE      ?_eeprom_read?BYTE
      010033D0H   PUBLIC    CODE     ---       _eeprom_read
      01003130H   PUBLIC    CODE     ---       eeprom_init
      000000A2H   SFRSYM    DATA     BYTE      SPI0CKR
      00000080H   SFRSYM    DATA     BYTE      P0
      000000C8H.6 SFRSYM    DATA     BIT       SCON1_PERR
      000000D0H.2 SFRSYM    DATA     BIT       PSW_OV
      00000090H   SFRSYM    DATA     BYTE      P1
      000000F8H.1 SFRSYM    DATA     BIT       SPI0CN0_TXNF
LX51 LINKER/LOCATER V4.66.30.0                                                        03/29/2016  00:06:41  PAGE 156


      00000097H   SFRSYM    DATA     BYTE      WDTCN
      000000A0H   SFRSYM    DATA     BYTE      P2
      000000B0H   SFRSYM    DATA     BYTE      P3
      000000BCH   SFRSYM    DATA     BYTE      ADC0CF
      000000C0H.7 SFRSYM    DATA     BIT       SMB0CN0_MASTER
      000000F9H   SFRSYM    DATA     WORD      PCA0
      000000E6H   SFRSYM    DATA     BYTE      EIE1
      000000C0H.1 SFRSYM    DATA     BIT       SMB0CN0_ACK
      000000B3H   SFRSYM    DATA     BYTE      USB0XCN
      000000CEH   SFRSYM    DATA     BYTE      EIE2
      0000008FH   SFRSYM    DATA     BYTE      PSCTL
      000000E4H   SFRSYM    DATA     BYTE      IT01CF
      000000C0H.6 SFRSYM    DATA     BIT       SMB0CN0_TXMODE
      000000ADH   SFRSYM    DATA     BYTE      DERIVID
      000000A7H   SFRSYM    DATA     BYTE      SFRPAGE
      000000A4H   SFRSYM    DATA     BYTE      P0MDOUT
      000000BFH   SFRSYM    DATA     BYTE      USB0CDSTA
      000000A5H   SFRSYM    DATA     BYTE      P1MDOUT
      000000E8H.5 SFRSYM    DATA     BIT       ADC0CN0_ADINT
      000000CBH   SFRSYM    DATA     BYTE      TMR2RLH
      000000A6H   SFRSYM    DATA     BYTE      P2MDOUT
      000000A8H   SFRSYM    DATA     BYTE      IE
      00000093H   SFRSYM    DATA     BYTE      TMR3RLH
      0000009CH   SFRSYM    DATA     BYTE      P3MDOUT
      000000A3H   SFRSYM    DATA     BYTE      TMR4RLH
      000000F3H   SFRSYM    DATA     BYTE      EIP1
      000000F4H   SFRSYM    DATA     BYTE      EIP2
      00000098H.2 SFRSYM    DATA     BIT       SCON0_RB8
      000000CAH   SFRSYM    DATA     BYTE      TMR2RLL
      000000FCH   SFRSYM    DATA     BYTE      PCA0CPH0
      00000092H   SFRSYM    DATA     BYTE      TMR3RLL
      000000EAH   SFRSYM    DATA     BYTE      PCA0CPH1
      00000098H.3 SFRSYM    DATA     BIT       SCON0_TB8
      000000F0H   SFRSYM    DATA     BIT       B_B0
      00000082H   SFRSYM    DATA     WORD      DP
      000000A2H   SFRSYM    DATA     BYTE      TMR4RLL
      000000ECH   SFRSYM    DATA     BYTE      PCA0CPH2
      000000F0H.1 SFRSYM    DATA     BIT       B_B1
      000000C3H   SFRSYM    DATA     WORD      ADC0GT
      000000BDH   SFRSYM    DATA     BYTE      I2C0SLAD
      000000D8H.3 SFRSYM    DATA     BIT       UART1FCN1_RFRQ
      000000F0H.2 SFRSYM    DATA     BIT       B_B2
      000000CFH   SFRSYM    DATA     BYTE      SFRPGCN
      000000FBH   SFRSYM    DATA     BYTE      PCA0CPL0
      000000F0H.3 SFRSYM    DATA     BIT       B_B3
      000000D9H   SFRSYM    DATA     BYTE      PCA0MD
      000000DAH   SFRSYM    DATA     BYTE      PCA0CPM0
      000000E9H   SFRSYM    DATA     BYTE      PCA0CPL1
      000000D8H.7 SFRSYM    DATA     BIT       UART1FCN1_TFRQ
      000000F0H.4 SFRSYM    DATA     BIT       B_B4
      000000DBH   SFRSYM    DATA     BYTE      PCA0CPM1
      000000EBH   SFRSYM    DATA     BYTE      PCA0CPL2
      000000F0H.5 SFRSYM    DATA     BIT       B_B5
      000000DCH   SFRSYM    DATA     BYTE      PCA0CPM2
      000000B8H   SFRSYM    DATA     BYTE      IP
      000000B9H   SFRSYM    DATA     BYTE      ADC0TK
      000000F0H.6 SFRSYM    DATA     BIT       B_B6
      000000C5H   SFRSYM    DATA     WORD      ADC0LT
      000000D8H.6 SFRSYM    DATA     BIT       UART1FCN1_TXNF
      00000098H.5 SFRSYM    DATA     BIT       SCON0_MCE
      000000F0H.7 SFRSYM    DATA     BIT       B_B7
      000000C3H   SFRSYM    DATA     BYTE      SMB0FCN0
LX51 LINKER/LOCATER V4.66.30.0                                                        03/29/2016  00:06:41  PAGE 157


      000000E1H   SFRSYM    DATA     BYTE      XBR0
      000000C4H   SFRSYM    DATA     BYTE      SMB0FCN1
      000000C1H   SFRSYM    DATA     BYTE      SMB0CF
      000000E2H   SFRSYM    DATA     BYTE      XBR1
      000000C1H   SFRSYM    DATA     BYTE      PFE0CN
      000000E7H   SFRSYM    DATA     BYTE      EMI0CN
      000000C0H.5 SFRSYM    DATA     BIT       SMB0CN0_STA
      000000E3H   SFRSYM    DATA     BYTE      XBR2
      000000BBH   SFRSYM    DATA     BYTE      ADC0MX
      000000E0H   SFRSYM    DATA     BIT       ACC_ACC0
      000000D1H   SFRSYM    DATA     BYTE      REF0CN
      0000008EH   SFRSYM    DATA     BYTE      CKCON0
      000000E0H.1 SFRSYM    DATA     BIT       ACC_ACC1
      000000C9H   SFRSYM    DATA     BYTE      REG0CN
      000000DDH   SFRSYM    DATA     BYTE      CRC0IN
      000000A6H   SFRSYM    DATA     BYTE      CKCON1
      000000C8H.2 SFRSYM    DATA     BIT       TMR2CN0_TR2
      000000E0H.2 SFRSYM    DATA     BIT       ACC_ACC2
      000000C6H   SFRSYM    DATA     BYTE      REG1CN
      000000E0H.3 SFRSYM    DATA     BIT       ACC_ACC3
      00000081H   SFRSYM    DATA     BYTE      SP
      0000009DH   SFRSYM    DATA     BYTE      CMP0MD
      000000E0H.4 SFRSYM    DATA     BIT       ACC_ACC4
      000000B1H   SFRSYM    DATA     BYTE      LFO0CN
      000000ABH   SFRSYM    DATA     BYTE      CMP1MD
      000000D8H   SFRSYM    DATA     BIT       PCA0CN0_CCF0
      000000E0H.5 SFRSYM    DATA     BIT       ACC_ACC5
      000000B5H   SFRSYM    DATA     BYTE      USB0CF
      00000098H.2 SFRSYM    DATA     BIT       TMR4CN0_TR4
      000000D8H.1 SFRSYM    DATA     BIT       PCA0CN0_CCF1
      000000E0H.6 SFRSYM    DATA     BIT       ACC_ACC6
      000000CCH   SFRSYM    DATA     WORD      TMR2
      0000009AH   SFRSYM    DATA     BYTE      SPI0FCN0
      000000D8H.2 SFRSYM    DATA     BIT       PCA0CN0_CCF2
      000000E0H.7 SFRSYM    DATA     BIT       ACC_ACC7
      00000094H   SFRSYM    DATA     WORD      TMR3
      0000009BH   SFRSYM    DATA     BYTE      SPI0FCN1
      000000A4H   SFRSYM    DATA     WORD      TMR4
      00000094H   SFRSYM    DATA     BYTE      SBCON1
      000000C0H.3 SFRSYM    DATA     BIT       SMB0CN0_ACKRQ
      000000FFH   SFRSYM    DATA     BYTE      VDM0CN
      000000F1H   SFRSYM    DATA     BYTE      P0MDIN
      00000098H.4 SFRSYM    DATA     BIT       SCON0_REN
      000000ACH   SFRSYM    DATA     BYTE      SMB0TC
      000000F2H   SFRSYM    DATA     BYTE      P1MDIN
      000000C8H.4 SFRSYM    DATA     BIT       SCON1_REN
      000000F3H   SFRSYM    DATA     BYTE      P2MDIN
      000000C0H.4 SFRSYM    DATA     BIT       SMB0CN0_STO
      000000B6H   SFRSYM    DATA     BYTE      USB0CDCF
      000000F4H   SFRSYM    DATA     BYTE      P3MDIN
      000000B9H   SFRSYM    DATA     BYTE      I2C0STAT
      000000BBH   SFRSYM    DATA     BYTE      I2C0DOUT
      00000096H   SFRSYM    DATA     BYTE      SBRLH1
      000000FEH   SFRSYM    DATA     BYTE      P0MASK
      000000D8H.5 SFRSYM    DATA     BIT       UART1FCN1_TXHOLD
      000000EEH   SFRSYM    DATA     BYTE      P1MASK
      000000FCH   SFRSYM    DATA     BYTE      P2MASK
      000000D0H.3 SFRSYM    DATA     BIT       PSW_RS0
      000000D8H.7 SFRSYM    DATA     BIT       PCA0CN0_CF
      0000009EH   SFRSYM    DATA     BYTE      PCA0CENT
      000000BAH   SFRSYM    DATA     BYTE      I2C0CN0
      000000D2H   SFRSYM    DATA     BYTE      CRC0ST
LX51 LINKER/LOCATER V4.66.30.0                                                        03/29/2016  00:06:41  PAGE 158


      000000F8H.4 SFRSYM    DATA     BIT       SPI0CN0_RXOVRN
      000000D0H.4 SFRSYM    DATA     BIT       PSW_RS1
      00000095H   SFRSYM    DATA     BYTE      SBRLL1
      000000C8H.2 SFRSYM    DATA     BIT       SCON1_RBX
      000000C8H   SFRSYM    DATA     BIT       TMR2CN0_T2XCLK0
      000000C8H.1 SFRSYM    DATA     BIT       TMR2CN0_T2XCLK1
      000000C8H.3 SFRSYM    DATA     BIT       SCON1_TBX
      000000E8H.7 SFRSYM    DATA     BIT       ADC0CN0_ADEN
      000000BEH   SFRSYM    DATA     BYTE      USB0CDCN
      00000089H   SFRSYM    DATA     BYTE      TMOD
      00000088H   SFRSYM    DATA     BYTE      TCON
      000000CFH   SFRSYM    DATA     BYTE      CRC0FLIP
      000000D0H   SFRSYM    DATA     BIT       PSW_PARITY
      000000A8H.4 SFRSYM    DATA     BIT       IE_ES0
      0000009FH   SFRSYM    DATA     BYTE      CMP0MX
      00000098H   SFRSYM    DATA     BIT       TMR4CN0_T4XCLK0
      000000A8H.1 SFRSYM    DATA     BIT       IE_ET0
      000000AAH   SFRSYM    DATA     BYTE      CMP1MX
      00000098H.1 SFRSYM    DATA     BIT       TMR4CN0_T4XCLK1
      000000A8H.3 SFRSYM    DATA     BIT       IE_ET1
      000000D4H   SFRSYM    DATA     BYTE      P0SKIP
      000000D8H   SFRSYM    DATA     BIT       UART1FCN1_RIE
      000000A8H.5 SFRSYM    DATA     BIT       IE_ET2
      000000D5H   SFRSYM    DATA     BYTE      P1SKIP
      000000CCH   SFRSYM    DATA     BYTE      P2SKIP
      000000E8H   SFRSYM    DATA     BYTE      ADC0CN0
      000000D8H.4 SFRSYM    DATA     BIT       UART1FCN1_TIE
      000000A8H   SFRSYM    DATA     BIT       IE_EX0
      000000B2H   SFRSYM    DATA     BYTE      ADC0CN1
      000000D8H.6 SFRSYM    DATA     BIT       PCA0CN0_CR
      000000A8H.2 SFRSYM    DATA     BIT       IE_EX1
      000000C8H.7 SFRSYM    DATA     BIT       SCON1_OVR
      00000098H.7 SFRSYM    DATA     BIT       SCON0_SMODE
      000000B5H   SFRSYM    DATA     BYTE      DEVICEID
      000000A9H   SFRSYM    DATA     BYTE      CLKSEL
      000000F8H   SFRSYM    DATA     BIT       SPI0CN0_SPIEN
      000000F0H   SFRSYM    DATA     BYTE      B
      000000BEH   SFRSYM    DATA     BYTE      ADC0H
      000000E8H.6 SFRSYM    DATA     BIT       ADC0CN0_ADBMEN
      000000CAH   SFRSYM    DATA     WORD      TMR2RL
      000000BDH   SFRSYM    DATA     BYTE      ADC0L
      00000092H   SFRSYM    DATA     WORD      TMR3RL
      000000A2H   SFRSYM    DATA     WORD      TMR4RL
      000000D8H   SFRSYM    DATA     BYTE      PCA0CN0
      000000E0H   SFRSYM    DATA     BYTE      ACC
      000000FBH   SFRSYM    DATA     WORD      PCA0CP0
      000000E9H   SFRSYM    DATA     WORD      PCA0CP1
      000000EBH   SFRSYM    DATA     WORD      PCA0CP2
      000000BCH   SFRSYM    DATA     BYTE      I2C0DIN
      000000CEH   SFRSYM    DATA     BYTE      CRC0CN0
      0000008CH   SFRSYM    DATA     BYTE      TH0
      00000086H   SFRSYM    DATA     BYTE      CRC0CN1
      000000B8H.4 SFRSYM    DATA     BIT       IP_PS0
      000000FAH   SFRSYM    DATA     BYTE      UART1FCT
      0000008DH   SFRSYM    DATA     BYTE      TH1
      000000FAH   SFRSYM    DATA     BYTE      PCA0H
      000000F5H   SFRSYM    DATA     BYTE      I2C0FCT
      000000B8H.1 SFRSYM    DATA     BIT       IP_PT0
      000000B8H.3 SFRSYM    DATA     BIT       IP_PT1
      000000C0H.2 SFRSYM    DATA     BIT       SMB0CN0_ARBLOST
      000000B8H.5 SFRSYM    DATA     BIT       IP_PT2
      0000008AH   SFRSYM    DATA     BYTE      TL0
LX51 LINKER/LOCATER V4.66.30.0                                                        03/29/2016  00:06:41  PAGE 159


      000000D0H.5 SFRSYM    DATA     BIT       PSW_F0
      000000A8H.6 SFRSYM    DATA     BIT       IE_ESPI0
      0000008BH   SFRSYM    DATA     BYTE      TL1
      000000F9H   SFRSYM    DATA     BYTE      PCA0L
      000000C0H   SFRSYM    DATA     BIT       SMB0CN0_SI
      000000D0H.1 SFRSYM    DATA     BIT       PSW_F1
      00000080H   SFRSYM    DATA     BIT       P0_B0
      000000B8H   SFRSYM    DATA     BIT       IP_PX0
      00000090H   SFRSYM    DATA     BIT       P1_B0
      00000080H.1 SFRSYM    DATA     BIT       P0_B1
      000000B8H.2 SFRSYM    DATA     BIT       IP_PX1
      0000009EH   SFRSYM    DATA     BYTE      UART1LIN
      0000009BH   SFRSYM    DATA     BYTE      CMP0CN0
      00000088H.1 SFRSYM    DATA     BIT       TCON_IE0
      000000A0H   SFRSYM    DATA     BIT       P2_B0
      00000090H.1 SFRSYM    DATA     BIT       P1_B1
      00000080H.2 SFRSYM    DATA     BIT       P0_B2
      000000BFH   SFRSYM    DATA     BYTE      CMP1CN0
      00000099H   SFRSYM    DATA     BYTE      CMP0CN1
      00000088H.3 SFRSYM    DATA     BIT       TCON_IE1
      000000B0H   SFRSYM    DATA     BIT       P3_B0
      000000A0H.1 SFRSYM    DATA     BIT       P2_B1
      00000090H.2 SFRSYM    DATA     BIT       P1_B2
      00000080H.3 SFRSYM    DATA     BIT       P0_B3
      000000C0H   SFRSYM    DATA     BYTE      SMB0CN0
      000000ACH   SFRSYM    DATA     BYTE      CMP1CN1
      000000B0H.1 SFRSYM    DATA     BIT       P3_B1
      000000A0H.2 SFRSYM    DATA     BIT       P2_B2
      00000090H.3 SFRSYM    DATA     BIT       P1_B3
      00000080H.4 SFRSYM    DATA     BIT       P0_B4
      000000A0H.3 SFRSYM    DATA     BIT       P2_B3
      00000090H.4 SFRSYM    DATA     BIT       P1_B4
      00000080H.5 SFRSYM    DATA     BIT       P0_B5
      000000D8H.1 SFRSYM    DATA     BIT       UART1FCN1_RXTO0
      00000090H.5 SFRSYM    DATA     BIT       P1_B5
      00000080H.6 SFRSYM    DATA     BIT       P0_B6
      000000F5H   SFRSYM    DATA     BYTE      EIP1H
      000000D8H.2 SFRSYM    DATA     BIT       UART1FCN1_RXTO1
      00000090H.6 SFRSYM    DATA     BIT       P1_B6
      00000080H.7 SFRSYM    DATA     BIT       P0_B7
      000000C5H   SFRSYM    DATA     BYTE      SMB0RXLN
      000000F6H   SFRSYM    DATA     BYTE      EIP2H
      00000090H.7 SFRSYM    DATA     BIT       P1_B7
      00000083H   SFRSYM    DATA     BYTE      DPH
      000000C4H   SFRSYM    DATA     BYTE      ADC0GTH
      000000C8H.7 SFRSYM    DATA     BIT       TMR2CN0_TF2H
      000000C8H.3 SFRSYM    DATA     BIT       TMR2CN0_T2SPLIT
      000000D0H.6 SFRSYM    DATA     BIT       PSW_AC
      000000F8H   SFRSYM    DATA     BYTE      SPI0CN0
      000000C7H   SFRSYM    DATA     BYTE      HFO0CAL
      00000088H.5 SFRSYM    DATA     BIT       TCON_TF0
      00000098H   SFRSYM    DATA     BIT       SCON0_RI
      000000D6H   SFRSYM    DATA     BYTE      HFO1CAL
      00000082H   SFRSYM    DATA     BYTE      DPL
      00000088H.7 SFRSYM    DATA     BIT       TCON_TF1
      000000C8H   SFRSYM    DATA     BIT       SCON1_RI
      00000099H   SFRSYM    DATA     BYTE      SBUF0
      00000087H   SFRSYM    DATA     BYTE      PCON0
      000000F2H   SFRSYM    DATA     BYTE      IPH
      000000C3H   SFRSYM    DATA     BYTE      ADC0GTL
      00000098H.7 SFRSYM    DATA     BIT       TMR4CN0_TF4H
      00000098H.3 SFRSYM    DATA     BIT       TMR4CN0_T4SPLIT
LX51 LINKER/LOCATER V4.66.30.0                                                        03/29/2016  00:06:41  PAGE 160


      000000C8H.6 SFRSYM    DATA     BIT       TMR2CN0_TF2L
      00000098H.1 SFRSYM    DATA     BIT       SCON0_TI
      000000E8H   SFRSYM    DATA     BIT       ADC0CN0_ADCM0
      00000092H   SFRSYM    DATA     BYTE      SBUF1
      0000009AH   SFRSYM    DATA     BYTE      PCON1
      000000C6H   SFRSYM    DATA     BYTE      ADC0LTH
      00000088H   SFRSYM    DATA     BIT       TCON_IT0
      000000C8H.1 SFRSYM    DATA     BIT       SCON1_TI
      000000E8H.1 SFRSYM    DATA     BIT       ADC0CN0_ADCM1
      000000EFH   SFRSYM    DATA     BYTE      RSTSRC
      000000FDH   SFRSYM    DATA     BYTE      P0MAT
      000000DEH   SFRSYM    DATA     BYTE      CRC0DAT
      00000088H.2 SFRSYM    DATA     BIT       TCON_IT1
      000000E8H.2 SFRSYM    DATA     BIT       ADC0CN0_ADCM2
      000000D7H   SFRSYM    DATA     BYTE      SFRSTACK
      00000098H   SFRSYM    DATA     BYTE      SCON0
      000000F6H   SFRSYM    DATA     BYTE      PRTDRV
      000000EDH   SFRSYM    DATA     BYTE      P1MAT
      000000E8H.3 SFRSYM    DATA     BIT       ADC0CN0_ADWINT
      00000095H   SFRSYM    DATA     WORD      SBRL1
      000000B2H   SFRSYM    DATA     BYTE      USB0AEC
      00000093H   SFRSYM    DATA     BYTE      SMOD1
      000000C8H   SFRSYM    DATA     BYTE      SCON1
      000000FBH   SFRSYM    DATA     BYTE      P2MAT
      00000098H.6 SFRSYM    DATA     BIT       TMR4CN0_TF4L
      000000E8H.4 SFRSYM    DATA     BIT       ADC0CN0_ADBUSY
      000000D6H   SFRSYM    DATA     BYTE      SMB0ADM
      000000C5H   SFRSYM    DATA     BYTE      ADC0LTL
      000000F8H.5 SFRSYM    DATA     BIT       SPI0CN0_MODF
      000000B8H.6 SFRSYM    DATA     BIT       IP_PSPI0
      0000009CH   SFRSYM    DATA     BYTE      PCA0CLR
      000000C8H   SFRSYM    DATA     BYTE      TMR2CN0
      00000091H   SFRSYM    DATA     BYTE      TMR3CN0
      000000FDH   SFRSYM    DATA     BYTE      TMR2CN1
      00000098H   SFRSYM    DATA     BYTE      TMR4CN0
      000000FEH   SFRSYM    DATA     BYTE      TMR3CN1
      000000FFH   SFRSYM    DATA     BYTE      TMR4CN1
      000000D7H   SFRSYM    DATA     BYTE      SMB0ADR
      00000088H.4 SFRSYM    DATA     BIT       TCON_TR0
      000000C8H.4 SFRSYM    DATA     BIT       TMR2CN0_TF2CEN
      00000088H.6 SFRSYM    DATA     BIT       TCON_TR1
      000000C2H   SFRSYM    DATA     BYTE      SMB0DAT
      000000CDH   SFRSYM    DATA     BYTE      TMR2H
      000000A1H   SFRSYM    DATA     BYTE      SPI0CFG
      00000095H   SFRSYM    DATA     BYTE      TMR3H
      000000EFH   SFRSYM    DATA     BYTE      HFOCN
      000000D3H   SFRSYM    DATA     BYTE      CRC0CNT
      000000A5H   SFRSYM    DATA     BYTE      TMR4H
      00000098H.4 SFRSYM    DATA     BIT       TMR4CN0_TF4CEN
      000000EFH   SFRSYM    DATA     BYTE      SMB0FCT
      00000096H   SFRSYM    DATA     BYTE      PCA0POL
      000000CCH   SFRSYM    DATA     BYTE      TMR2L
      000000F8H.7 SFRSYM    DATA     BIT       SPI0CN0_SPIF
      000000AEH   SFRSYM    DATA     BYTE      USB0ADR
      00000094H   SFRSYM    DATA     BYTE      TMR3L
      000000DFH   SFRSYM    DATA     BYTE      ADC0PWR
      000000A8H.7 SFRSYM    DATA     BIT       IE_EA
      000000A4H   SFRSYM    DATA     BYTE      TMR4L
      000000AFH   SFRSYM    DATA     BYTE      USB0DAT
      000000C8H.5 SFRSYM    DATA     BIT       TMR2CN0_TF2LEN
      000000F8H.6 SFRSYM    DATA     BIT       SPI0CN0_WCOL
      000000F8H.2 SFRSYM    DATA     BIT       SPI0CN0_NSSMD0
LX51 LINKER/LOCATER V4.66.30.0                                                        03/29/2016  00:06:41  PAGE 161


      000000D0H.7 SFRSYM    DATA     BIT       PSW_CY
      0000009DH   SFRSYM    DATA     BYTE      UART1FCN0
      000000A3H   SFRSYM    DATA     BYTE      SPI0DAT
      000000ADH   SFRSYM    DATA     BYTE      I2C0FCN0
      000000F8H.3 SFRSYM    DATA     BIT       SPI0CN0_NSSMD1
      000000BDH   SFRSYM    DATA     WORD      ADC0
      000000D8H   SFRSYM    DATA     BYTE      UART1FCN1
      000000ABH   SFRSYM    DATA     BYTE      I2C0FCN1
      00000098H.5 SFRSYM    DATA     BIT       TMR4CN0_TF4LEN
      000000D0H   SFRSYM    DATA     BYTE      PSW
      000000F7H   SFRSYM    DATA     BYTE      PCA0PWM
      000000F7H   SFRSYM    DATA     BYTE      SPI0FCT
      000000B6H   SFRSYM    DATA     BYTE      REVID
      000000B7H   SFRSYM    DATA     BYTE      FLKEY
      000000B3H   SFRSYM    DATA     BYTE      ADC0AC

      01003C73H   BLOCK     CODE     ---       LVL=0
      ---         BLOCKEND  ---      ---       LVL=0

      01003130H   BLOCK     CODE     ---       LVL=0
      01003130H   BLOCK     CODE     NEAR LAB  LVL=1
      02000190H   SYMBOL    XDATA    BYTE      secbyte
      ---         BLOCKEND  ---      ---       LVL=1
      01003130H   LINE      CODE     ---       #12
      01003130H   LINE      CODE     ---       #13
      01003130H   LINE      CODE     ---       #15
      0100313DH   LINE      CODE     ---       #16
      01003144H   LINE      CODE     ---       #17
      01003144H   LINE      CODE     ---       #18
      0100315BH   LINE      CODE     ---       #19
      01003161H   LINE      CODE     ---       #20
      01003170H   LINE      CODE     ---       #21
      01003170H   LINE      CODE     ---       #22
      ---         BLOCKEND  ---      ---       LVL=0

      010033D0H   BLOCK     CODE     ---       LVL=0
      00000006H   SYMBOL    DATA     WORD      addr
      02000204H   SYMBOL    XDATA    ---       buf
      02000207H   SYMBOL    XDATA    BYTE      len
      010033D6H   BLOCK     CODE     NEAR LAB  LVL=1
      00000006H   SYMBOL    DATA     ---       eepaddr
      00000020H.0 SYMBOL    BIT      BIT       old_int
      ---         BLOCKEND  ---      ---       LVL=1
      010033D0H   LINE      CODE     ---       #24
      010033D6H   LINE      CODE     ---       #25
      010033D6H   LINE      CODE     ---       #26
      010033D6H   LINE      CODE     ---       #29
      010033E0H   LINE      CODE     ---       #30
      010033E0H   LINE      CODE     ---       #31
      010033E4H   LINE      CODE     ---       #32
      010033E6H   LINE      CODE     ---       #33
      01003403H   LINE      CODE     ---       #34
      01003407H   LINE      CODE     ---       #35
      01003409H   LINE      CODE     ---       #36
      ---         BLOCKEND  ---      ---       LVL=0

      01002F92H   BLOCK     CODE     ---       LVL=0
      00000006H   SYMBOL    DATA     WORD      addr
      00000001H   SYMBOL    DATA     ---       buf
      02000206H   SYMBOL    XDATA    BYTE      len
      02000207H   SYMBOL    XDATA    BYTE      flags
      01002F92H   BLOCK     CODE     NEAR LAB  LVL=1
LX51 LINKER/LOCATER V4.66.30.0                                                        03/29/2016  00:06:41  PAGE 162


      00000016H   SYMBOL    DATA     ---       eepaddr
      00000020H.0 SYMBOL    BIT      BIT       old_int
      ---         BLOCKEND  ---      ---       LVL=1
      01002F92H   LINE      CODE     ---       #38
      01002F92H   LINE      CODE     ---       #39
      01002F92H   LINE      CODE     ---       #40
      01002F96H   LINE      CODE     ---       #43
      01002FA0H   LINE      CODE     ---       #44
      01002FA0H   LINE      CODE     ---       #45
      01002FA4H   LINE      CODE     ---       #46
      01002FA6H   LINE      CODE     ---       #48
      01002FA9H   LINE      CODE     ---       #49
      01002FACH   LINE      CODE     ---       #52
      01002FAFH   LINE      CODE     ---       #53
      01002FB2H   LINE      CODE     ---       #54
      01002FB7H   LINE      CODE     ---       #56
      01002FC1H   LINE      CODE     ---       #57
      01002FC5H   LINE      CODE     ---       #58
      01002FC9H   LINE      CODE     ---       #60
      01002FD1H   LINE      CODE     ---       #61
      01002FD8H   LINE      CODE     ---       #62
      01002FDAH   LINE      CODE     ---       #63
      ---         BLOCKEND  ---      ---       LVL=0

      ---         MODULE    ---      ---       I2C
      01003AF3H   PUBLIC    CODE     ---       smb_init
      01002689H   PUBLIC    CODE     ---       _reverse_bits
      01002587H   PUBLIC    CODE     ---       _feed_crc
      01003AA6H   PUBLIC    CODE     ---       smb_init_crc
      01003648H   PUBLIC    CODE     ---       _smb_set_ext_write
      0200021AH   PUBLIC    XDATA    BYTE      ?_smb_write?BYTE
      010031B1H   PUBLIC    CODE     ---       _smb_write
      0200021AH   PUBLIC    XDATA    BYTE      ?_smb_read?BYTE
      01002F45H   PUBLIC    CODE     ---       _smb_read
      000000A2H   SFRSYM    DATA     BYTE      SPI0CKR
      00000080H   SFRSYM    DATA     BYTE      P0
      000000C8H.6 SFRSYM    DATA     BIT       SCON1_PERR
      000000D0H.2 SFRSYM    DATA     BIT       PSW_OV
      00000090H   SFRSYM    DATA     BYTE      P1
      000000F8H.1 SFRSYM    DATA     BIT       SPI0CN0_TXNF
      00000097H   SFRSYM    DATA     BYTE      WDTCN
      000000A0H   SFRSYM    DATA     BYTE      P2
      000000B0H   SFRSYM    DATA     BYTE      P3
      000000BCH   SFRSYM    DATA     BYTE      ADC0CF
      000000C0H.7 SFRSYM    DATA     BIT       SMB0CN0_MASTER
      000000F9H   SFRSYM    DATA     WORD      PCA0
      000000E6H   SFRSYM    DATA     BYTE      EIE1
      000000C0H.1 SFRSYM    DATA     BIT       SMB0CN0_ACK
      000000B3H   SFRSYM    DATA     BYTE      USB0XCN
      000000CEH   SFRSYM    DATA     BYTE      EIE2
      00000090H   SFRSYM    DATA     BIT       LED_R
      0000008FH   SFRSYM    DATA     BYTE      PSCTL
      000000E4H   SFRSYM    DATA     BYTE      IT01CF
      000000C0H.6 SFRSYM    DATA     BIT       SMB0CN0_TXMODE
      000000ADH   SFRSYM    DATA     BYTE      DERIVID
      000000A7H   SFRSYM    DATA     BYTE      SFRPAGE
      000000A4H   SFRSYM    DATA     BYTE      P0MDOUT
      00000080H.2 SFRSYM    DATA     BIT       U2F_BUTTON
      000000BFH   SFRSYM    DATA     BYTE      USB0CDSTA
      000000A5H   SFRSYM    DATA     BYTE      P1MDOUT
      000000E8H.5 SFRSYM    DATA     BIT       ADC0CN0_ADINT
      000000CBH   SFRSYM    DATA     BYTE      TMR2RLH
LX51 LINKER/LOCATER V4.66.30.0                                                        03/29/2016  00:06:41  PAGE 163


      000000A6H   SFRSYM    DATA     BYTE      P2MDOUT
      000000A8H   SFRSYM    DATA     BYTE      IE
      00000093H   SFRSYM    DATA     BYTE      TMR3RLH
      0000009CH   SFRSYM    DATA     BYTE      P3MDOUT
      000000A3H   SFRSYM    DATA     BYTE      TMR4RLH
      000000F3H   SFRSYM    DATA     BYTE      EIP1
      000000F4H   SFRSYM    DATA     BYTE      EIP2
      00000098H.2 SFRSYM    DATA     BIT       SCON0_RB8
      000000CAH   SFRSYM    DATA     BYTE      TMR2RLL
      000000FCH   SFRSYM    DATA     BYTE      PCA0CPH0
      00000092H   SFRSYM    DATA     BYTE      TMR3RLL
      000000EAH   SFRSYM    DATA     BYTE      PCA0CPH1
      00000098H.3 SFRSYM    DATA     BIT       SCON0_TB8
      000000F0H   SFRSYM    DATA     BIT       B_B0
      00000082H   SFRSYM    DATA     WORD      DP
      000000A2H   SFRSYM    DATA     BYTE      TMR4RLL
      000000ECH   SFRSYM    DATA     BYTE      PCA0CPH2
      000000F0H.1 SFRSYM    DATA     BIT       B_B1
      000000C3H   SFRSYM    DATA     WORD      ADC0GT
      000000BDH   SFRSYM    DATA     BYTE      I2C0SLAD
      000000D8H.3 SFRSYM    DATA     BIT       UART1FCN1_RFRQ
      000000F0H.2 SFRSYM    DATA     BIT       B_B2
      000000CFH   SFRSYM    DATA     BYTE      SFRPGCN
      000000FBH   SFRSYM    DATA     BYTE      PCA0CPL0
      000000F0H.3 SFRSYM    DATA     BIT       B_B3
      000000D9H   SFRSYM    DATA     BYTE      PCA0MD
      000000DAH   SFRSYM    DATA     BYTE      PCA0CPM0
      000000E9H   SFRSYM    DATA     BYTE      PCA0CPL1
      000000D8H.7 SFRSYM    DATA     BIT       UART1FCN1_TFRQ
      000000F0H.4 SFRSYM    DATA     BIT       B_B4
      000000DBH   SFRSYM    DATA     BYTE      PCA0CPM1
      000000EBH   SFRSYM    DATA     BYTE      PCA0CPL2
      000000F0H.5 SFRSYM    DATA     BIT       B_B5
      000000DCH   SFRSYM    DATA     BYTE      PCA0CPM2
      000000B8H   SFRSYM    DATA     BYTE      IP
      000000B9H   SFRSYM    DATA     BYTE      ADC0TK
      000000F0H.6 SFRSYM    DATA     BIT       B_B6
      000000C5H   SFRSYM    DATA     WORD      ADC0LT
      000000D8H.6 SFRSYM    DATA     BIT       UART1FCN1_TXNF
      00000098H.5 SFRSYM    DATA     BIT       SCON0_MCE
      000000F0H.7 SFRSYM    DATA     BIT       B_B7
      000000C3H   SFRSYM    DATA     BYTE      SMB0FCN0
      000000E1H   SFRSYM    DATA     BYTE      XBR0
      000000C4H   SFRSYM    DATA     BYTE      SMB0FCN1
      000000C1H   SFRSYM    DATA     BYTE      SMB0CF
      000000E2H   SFRSYM    DATA     BYTE      XBR1
      000000C1H   SFRSYM    DATA     BYTE      PFE0CN
      000000E7H   SFRSYM    DATA     BYTE      EMI0CN
      000000C0H.5 SFRSYM    DATA     BIT       SMB0CN0_STA
      000000E3H   SFRSYM    DATA     BYTE      XBR2
      000000BBH   SFRSYM    DATA     BYTE      ADC0MX
      000000E0H   SFRSYM    DATA     BIT       ACC_ACC0
      000000D1H   SFRSYM    DATA     BYTE      REF0CN
      0000008EH   SFRSYM    DATA     BYTE      CKCON0
      000000E0H.1 SFRSYM    DATA     BIT       ACC_ACC1
      000000C9H   SFRSYM    DATA     BYTE      REG0CN
      000000DDH   SFRSYM    DATA     BYTE      CRC0IN
      000000A6H   SFRSYM    DATA     BYTE      CKCON1
      000000C8H.2 SFRSYM    DATA     BIT       TMR2CN0_TR2
      000000E0H.2 SFRSYM    DATA     BIT       ACC_ACC2
      000000C6H   SFRSYM    DATA     BYTE      REG1CN
      000000E0H.3 SFRSYM    DATA     BIT       ACC_ACC3
LX51 LINKER/LOCATER V4.66.30.0                                                        03/29/2016  00:06:41  PAGE 164


      00000081H   SFRSYM    DATA     BYTE      SP
      0000009DH   SFRSYM    DATA     BYTE      CMP0MD
      000000E0H.4 SFRSYM    DATA     BIT       ACC_ACC4
      000000B1H   SFRSYM    DATA     BYTE      LFO0CN
      000000ABH   SFRSYM    DATA     BYTE      CMP1MD
      000000D8H   SFRSYM    DATA     BIT       PCA0CN0_CCF0
      000000E0H.5 SFRSYM    DATA     BIT       ACC_ACC5
      000000B5H   SFRSYM    DATA     BYTE      USB0CF
      00000098H.2 SFRSYM    DATA     BIT       TMR4CN0_TR4
      000000D8H.1 SFRSYM    DATA     BIT       PCA0CN0_CCF1
      000000E0H.6 SFRSYM    DATA     BIT       ACC_ACC6
      000000CCH   SFRSYM    DATA     WORD      TMR2
      0000009AH   SFRSYM    DATA     BYTE      SPI0FCN0
      000000D8H.2 SFRSYM    DATA     BIT       PCA0CN0_CCF2
      000000E0H.7 SFRSYM    DATA     BIT       ACC_ACC7
      00000094H   SFRSYM    DATA     WORD      TMR3
      0000009BH   SFRSYM    DATA     BYTE      SPI0FCN1
      000000A4H   SFRSYM    DATA     WORD      TMR4
      00000094H   SFRSYM    DATA     BYTE      SBCON1
      000000C0H.3 SFRSYM    DATA     BIT       SMB0CN0_ACKRQ
      000000FFH   SFRSYM    DATA     BYTE      VDM0CN
      000000F1H   SFRSYM    DATA     BYTE      P0MDIN
      00000098H.4 SFRSYM    DATA     BIT       SCON0_REN
      000000ACH   SFRSYM    DATA     BYTE      SMB0TC
      000000F2H   SFRSYM    DATA     BYTE      P1MDIN
      000000C8H.4 SFRSYM    DATA     BIT       SCON1_REN
      000000F3H   SFRSYM    DATA     BYTE      P2MDIN
      000000C0H.4 SFRSYM    DATA     BIT       SMB0CN0_STO
      000000B6H   SFRSYM    DATA     BYTE      USB0CDCF
      000000F4H   SFRSYM    DATA     BYTE      P3MDIN
      000000B9H   SFRSYM    DATA     BYTE      I2C0STAT
      000000BBH   SFRSYM    DATA     BYTE      I2C0DOUT
      00000096H   SFRSYM    DATA     BYTE      SBRLH1
      000000FEH   SFRSYM    DATA     BYTE      P0MASK
      000000D8H.5 SFRSYM    DATA     BIT       UART1FCN1_TXHOLD
      000000EEH   SFRSYM    DATA     BYTE      P1MASK
      000000FCH   SFRSYM    DATA     BYTE      P2MASK
      000000D0H.3 SFRSYM    DATA     BIT       PSW_RS0
      000000D8H.7 SFRSYM    DATA     BIT       PCA0CN0_CF
      0000009EH   SFRSYM    DATA     BYTE      PCA0CENT
      000000BAH   SFRSYM    DATA     BYTE      I2C0CN0
      000000D2H   SFRSYM    DATA     BYTE      CRC0ST
      000000F8H.4 SFRSYM    DATA     BIT       SPI0CN0_RXOVRN
      000000D0H.4 SFRSYM    DATA     BIT       PSW_RS1
      00000095H   SFRSYM    DATA     BYTE      SBRLL1
      000000C8H.2 SFRSYM    DATA     BIT       SCON1_RBX
      000000C8H   SFRSYM    DATA     BIT       TMR2CN0_T2XCLK0
      000000C8H.1 SFRSYM    DATA     BIT       TMR2CN0_T2XCLK1
      000000C8H.3 SFRSYM    DATA     BIT       SCON1_TBX
      000000E8H.7 SFRSYM    DATA     BIT       ADC0CN0_ADEN
      000000BEH   SFRSYM    DATA     BYTE      USB0CDCN
      00000089H   SFRSYM    DATA     BYTE      TMOD
      00000088H   SFRSYM    DATA     BYTE      TCON
      000000CFH   SFRSYM    DATA     BYTE      CRC0FLIP
      000000D0H   SFRSYM    DATA     BIT       PSW_PARITY
      000000A8H.4 SFRSYM    DATA     BIT       IE_ES0
      0000009FH   SFRSYM    DATA     BYTE      CMP0MX
      00000098H   SFRSYM    DATA     BIT       TMR4CN0_T4XCLK0
      000000A8H.1 SFRSYM    DATA     BIT       IE_ET0
      000000AAH   SFRSYM    DATA     BYTE      CMP1MX
      00000098H.1 SFRSYM    DATA     BIT       TMR4CN0_T4XCLK1
      000000A8H.3 SFRSYM    DATA     BIT       IE_ET1
LX51 LINKER/LOCATER V4.66.30.0                                                        03/29/2016  00:06:41  PAGE 165


      000000D4H   SFRSYM    DATA     BYTE      P0SKIP
      000000D8H   SFRSYM    DATA     BIT       UART1FCN1_RIE
      000000A8H.5 SFRSYM    DATA     BIT       IE_ET2
      000000D5H   SFRSYM    DATA     BYTE      P1SKIP
      000000CCH   SFRSYM    DATA     BYTE      P2SKIP
      000000E8H   SFRSYM    DATA     BYTE      ADC0CN0
      000000D8H.4 SFRSYM    DATA     BIT       UART1FCN1_TIE
      000000A8H   SFRSYM    DATA     BIT       IE_EX0
      000000B2H   SFRSYM    DATA     BYTE      ADC0CN1
      000000D8H.6 SFRSYM    DATA     BIT       PCA0CN0_CR
      000000A8H.2 SFRSYM    DATA     BIT       IE_EX1
      000000C8H.7 SFRSYM    DATA     BIT       SCON1_OVR
      00000098H.7 SFRSYM    DATA     BIT       SCON0_SMODE
      000000B5H   SFRSYM    DATA     BYTE      DEVICEID
      000000A9H   SFRSYM    DATA     BYTE      CLKSEL
      000000F8H   SFRSYM    DATA     BIT       SPI0CN0_SPIEN
      000000F0H   SFRSYM    DATA     BYTE      B
      000000BEH   SFRSYM    DATA     BYTE      ADC0H
      000000E8H.6 SFRSYM    DATA     BIT       ADC0CN0_ADBMEN
      000000CAH   SFRSYM    DATA     WORD      TMR2RL
      000000BDH   SFRSYM    DATA     BYTE      ADC0L
      00000092H   SFRSYM    DATA     WORD      TMR3RL
      000000A2H   SFRSYM    DATA     WORD      TMR4RL
      000000D8H   SFRSYM    DATA     BYTE      PCA0CN0
      000000E0H   SFRSYM    DATA     BYTE      ACC
      000000FBH   SFRSYM    DATA     WORD      PCA0CP0
      000000E9H   SFRSYM    DATA     WORD      PCA0CP1
      000000EBH   SFRSYM    DATA     WORD      PCA0CP2
      000000BCH   SFRSYM    DATA     BYTE      I2C0DIN
      000000CEH   SFRSYM    DATA     BYTE      CRC0CN0
      0000008CH   SFRSYM    DATA     BYTE      TH0
      00000086H   SFRSYM    DATA     BYTE      CRC0CN1
      000000B8H.4 SFRSYM    DATA     BIT       IP_PS0
      000000FAH   SFRSYM    DATA     BYTE      UART1FCT
      0000008DH   SFRSYM    DATA     BYTE      TH1
      000000FAH   SFRSYM    DATA     BYTE      PCA0H
      000000F5H   SFRSYM    DATA     BYTE      I2C0FCT
      000000B8H.1 SFRSYM    DATA     BIT       IP_PT0
      000000B8H.3 SFRSYM    DATA     BIT       IP_PT1
      000000C0H.2 SFRSYM    DATA     BIT       SMB0CN0_ARBLOST
      000000B8H.5 SFRSYM    DATA     BIT       IP_PT2
      0000008AH   SFRSYM    DATA     BYTE      TL0
      00000080H.3 SFRSYM    DATA     BIT       U2F_BUTTON_VAL
      000000D0H.5 SFRSYM    DATA     BIT       PSW_F0
      000000A8H.6 SFRSYM    DATA     BIT       IE_ESPI0
      0000008BH   SFRSYM    DATA     BYTE      TL1
      000000F9H   SFRSYM    DATA     BYTE      PCA0L
      000000C0H   SFRSYM    DATA     BIT       SMB0CN0_SI
      000000D0H.1 SFRSYM    DATA     BIT       PSW_F1
      00000080H   SFRSYM    DATA     BIT       P0_B0
      000000B8H   SFRSYM    DATA     BIT       IP_PX0
      00000090H   SFRSYM    DATA     BIT       P1_B0
      00000080H.1 SFRSYM    DATA     BIT       P0_B1
      000000B8H.2 SFRSYM    DATA     BIT       IP_PX1
      0000009EH   SFRSYM    DATA     BYTE      UART1LIN
      0000009BH   SFRSYM    DATA     BYTE      CMP0CN0
      00000088H.1 SFRSYM    DATA     BIT       TCON_IE0
      000000A0H   SFRSYM    DATA     BIT       P2_B0
      00000090H.1 SFRSYM    DATA     BIT       P1_B1
      00000080H.2 SFRSYM    DATA     BIT       P0_B2
      000000BFH   SFRSYM    DATA     BYTE      CMP1CN0
      00000099H   SFRSYM    DATA     BYTE      CMP0CN1
LX51 LINKER/LOCATER V4.66.30.0                                                        03/29/2016  00:06:41  PAGE 166


      00000088H.3 SFRSYM    DATA     BIT       TCON_IE1
      000000B0H   SFRSYM    DATA     BIT       P3_B0
      000000A0H.1 SFRSYM    DATA     BIT       P2_B1
      00000090H.2 SFRSYM    DATA     BIT       P1_B2
      00000080H.3 SFRSYM    DATA     BIT       P0_B3
      000000C0H   SFRSYM    DATA     BYTE      SMB0CN0
      000000ACH   SFRSYM    DATA     BYTE      CMP1CN1
      000000B0H.1 SFRSYM    DATA     BIT       P3_B1
      000000A0H.2 SFRSYM    DATA     BIT       P2_B2
      00000090H.3 SFRSYM    DATA     BIT       P1_B3
      00000080H.4 SFRSYM    DATA     BIT       P0_B4
      000000A0H.3 SFRSYM    DATA     BIT       P2_B3
      00000090H.4 SFRSYM    DATA     BIT       P1_B4
      00000080H.5 SFRSYM    DATA     BIT       P0_B5
      000000D8H.1 SFRSYM    DATA     BIT       UART1FCN1_RXTO0
      00000090H.5 SFRSYM    DATA     BIT       P1_B5
      00000080H.6 SFRSYM    DATA     BIT       P0_B6
      000000F5H   SFRSYM    DATA     BYTE      EIP1H
      000000D8H.2 SFRSYM    DATA     BIT       UART1FCN1_RXTO1
      00000090H.6 SFRSYM    DATA     BIT       P1_B6
      00000080H.7 SFRSYM    DATA     BIT       P0_B7
      000000C5H   SFRSYM    DATA     BYTE      SMB0RXLN
      000000F6H   SFRSYM    DATA     BYTE      EIP2H
      00000090H.7 SFRSYM    DATA     BIT       P1_B7
      00000083H   SFRSYM    DATA     BYTE      DPH
      000000C4H   SFRSYM    DATA     BYTE      ADC0GTH
      000000C8H.7 SFRSYM    DATA     BIT       TMR2CN0_TF2H
      000000C8H.3 SFRSYM    DATA     BIT       TMR2CN0_T2SPLIT
      000000D0H.6 SFRSYM    DATA     BIT       PSW_AC
      000000F8H   SFRSYM    DATA     BYTE      SPI0CN0
      000000C7H   SFRSYM    DATA     BYTE      HFO0CAL
      00000088H.5 SFRSYM    DATA     BIT       TCON_TF0
      00000098H   SFRSYM    DATA     BIT       SCON0_RI
      000000D6H   SFRSYM    DATA     BYTE      HFO1CAL
      00000082H   SFRSYM    DATA     BYTE      DPL
      00000088H.7 SFRSYM    DATA     BIT       TCON_TF1
      000000C8H   SFRSYM    DATA     BIT       SCON1_RI
      00000099H   SFRSYM    DATA     BYTE      SBUF0
      00000087H   SFRSYM    DATA     BYTE      PCON0
      000000F2H   SFRSYM    DATA     BYTE      IPH
      000000C3H   SFRSYM    DATA     BYTE      ADC0GTL
      00000098H.7 SFRSYM    DATA     BIT       TMR4CN0_TF4H
      00000098H.3 SFRSYM    DATA     BIT       TMR4CN0_T4SPLIT
      000000C8H.6 SFRSYM    DATA     BIT       TMR2CN0_TF2L
      00000098H.1 SFRSYM    DATA     BIT       SCON0_TI
      000000E8H   SFRSYM    DATA     BIT       ADC0CN0_ADCM0
      00000092H   SFRSYM    DATA     BYTE      SBUF1
      0000009AH   SFRSYM    DATA     BYTE      PCON1
      000000C6H   SFRSYM    DATA     BYTE      ADC0LTH
      00000088H   SFRSYM    DATA     BIT       TCON_IT0
      000000C8H.1 SFRSYM    DATA     BIT       SCON1_TI
      000000E8H.1 SFRSYM    DATA     BIT       ADC0CN0_ADCM1
      000000EFH   SFRSYM    DATA     BYTE      RSTSRC
      000000FDH   SFRSYM    DATA     BYTE      P0MAT
      000000DEH   SFRSYM    DATA     BYTE      CRC0DAT
      00000088H.2 SFRSYM    DATA     BIT       TCON_IT1
      000000E8H.2 SFRSYM    DATA     BIT       ADC0CN0_ADCM2
      000000D7H   SFRSYM    DATA     BYTE      SFRSTACK
      00000098H   SFRSYM    DATA     BYTE      SCON0
      000000F6H   SFRSYM    DATA     BYTE      PRTDRV
      000000EDH   SFRSYM    DATA     BYTE      P1MAT
      000000E8H.3 SFRSYM    DATA     BIT       ADC0CN0_ADWINT
LX51 LINKER/LOCATER V4.66.30.0                                                        03/29/2016  00:06:41  PAGE 167


      00000095H   SFRSYM    DATA     WORD      SBRL1
      000000B2H   SFRSYM    DATA     BYTE      USB0AEC
      00000093H   SFRSYM    DATA     BYTE      SMOD1
      000000C8H   SFRSYM    DATA     BYTE      SCON1
      000000FBH   SFRSYM    DATA     BYTE      P2MAT
      00000098H.6 SFRSYM    DATA     BIT       TMR4CN0_TF4L
      000000E8H.4 SFRSYM    DATA     BIT       ADC0CN0_ADBUSY
      000000D6H   SFRSYM    DATA     BYTE      SMB0ADM
      000000C5H   SFRSYM    DATA     BYTE      ADC0LTL
      000000F8H.5 SFRSYM    DATA     BIT       SPI0CN0_MODF
      000000B8H.6 SFRSYM    DATA     BIT       IP_PSPI0
      0000009CH   SFRSYM    DATA     BYTE      PCA0CLR
      000000C8H   SFRSYM    DATA     BYTE      TMR2CN0
      00000091H   SFRSYM    DATA     BYTE      TMR3CN0
      000000FDH   SFRSYM    DATA     BYTE      TMR2CN1
      00000098H   SFRSYM    DATA     BYTE      TMR4CN0
      000000FEH   SFRSYM    DATA     BYTE      TMR3CN1
      000000FFH   SFRSYM    DATA     BYTE      TMR4CN1
      000000D7H   SFRSYM    DATA     BYTE      SMB0ADR
      00000088H.4 SFRSYM    DATA     BIT       TCON_TR0
      000000C8H.4 SFRSYM    DATA     BIT       TMR2CN0_TF2CEN
      00000088H.6 SFRSYM    DATA     BIT       TCON_TR1
      000000C2H   SFRSYM    DATA     BYTE      SMB0DAT
      000000CDH   SFRSYM    DATA     BYTE      TMR2H
      000000A1H   SFRSYM    DATA     BYTE      SPI0CFG
      00000095H   SFRSYM    DATA     BYTE      TMR3H
      000000EFH   SFRSYM    DATA     BYTE      HFOCN
      000000D3H   SFRSYM    DATA     BYTE      CRC0CNT
      000000A5H   SFRSYM    DATA     BYTE      TMR4H
      00000098H.4 SFRSYM    DATA     BIT       TMR4CN0_TF4CEN
      000000EFH   SFRSYM    DATA     BYTE      SMB0FCT
      00000096H   SFRSYM    DATA     BYTE      PCA0POL
      000000CCH   SFRSYM    DATA     BYTE      TMR2L
      000000F8H.7 SFRSYM    DATA     BIT       SPI0CN0_SPIF
      000000AEH   SFRSYM    DATA     BYTE      USB0ADR
      00000094H   SFRSYM    DATA     BYTE      TMR3L
      000000DFH   SFRSYM    DATA     BYTE      ADC0PWR
      000000A8H.7 SFRSYM    DATA     BIT       IE_EA
      000000A4H   SFRSYM    DATA     BYTE      TMR4L
      000000AFH   SFRSYM    DATA     BYTE      USB0DAT
      000000C8H.5 SFRSYM    DATA     BIT       TMR2CN0_TF2LEN
      000000F8H.6 SFRSYM    DATA     BIT       SPI0CN0_WCOL
      00000080H.6 SFRSYM    DATA     BIT       LED_B
      000000F8H.2 SFRSYM    DATA     BIT       SPI0CN0_NSSMD0
      000000D0H.7 SFRSYM    DATA     BIT       PSW_CY
      0000009DH   SFRSYM    DATA     BYTE      UART1FCN0
      000000A3H   SFRSYM    DATA     BYTE      SPI0DAT
      000000ADH   SFRSYM    DATA     BYTE      I2C0FCN0
      000000F8H.3 SFRSYM    DATA     BIT       SPI0CN0_NSSMD1
      000000BDH   SFRSYM    DATA     WORD      ADC0
      000000D8H   SFRSYM    DATA     BYTE      UART1FCN1
      000000ABH   SFRSYM    DATA     BYTE      I2C0FCN1
      00000098H.5 SFRSYM    DATA     BIT       TMR4CN0_TF4LEN
      000000D0H   SFRSYM    DATA     BYTE      PSW
      000000F7H   SFRSYM    DATA     BYTE      PCA0PWM
      000000F7H   SFRSYM    DATA     BYTE      SPI0FCT
      000000B6H   SFRSYM    DATA     BYTE      REVID
      00000080H.7 SFRSYM    DATA     BIT       LED_G
      000000B7H   SFRSYM    DATA     BYTE      FLKEY
      000000B3H   SFRSYM    DATA     BYTE      ADC0AC
      01003981H   SYMBOL    CODE     ---       while_busy

LX51 LINKER/LOCATER V4.66.30.0                                                        03/29/2016  00:06:41  PAGE 168


      01003888H   BLOCK     CODE     ---       LVL=0
      ---         BLOCKEND  ---      ---       LVL=0

      01003981H   BLOCK     CODE     ---       LVL=0
      01003981H   LINE      CODE     ---       #17
      01003981H   LINE      CODE     ---       #18
      01003981H   LINE      CODE     ---       #19
      01003986H   LINE      CODE     ---       #20
      01003986H   LINE      CODE     ---       #21
      0100398FH   LINE      CODE     ---       #22
      0100398FH   LINE      CODE     ---       #23
      01003994H   LINE      CODE     ---       #24
      01003997H   LINE      CODE     ---       #25
      01003997H   LINE      CODE     ---       #26
      01003997H   LINE      CODE     ---       #27
      01003999H   LINE      CODE     ---       #28
      ---         BLOCKEND  ---      ---       LVL=0

      01002F45H   BLOCK     CODE     ---       LVL=0
      0200021AH   SYMBOL    XDATA    BYTE      addr
      0200021BH   SYMBOL    XDATA    ---       dest
      0200021EH   SYMBOL    XDATA    BYTE      count
      01002F45H   LINE      CODE     ---       #30
      01002F4EH   LINE      CODE     ---       #31
      01002F4EH   LINE      CODE     ---       #32
      01002F57H   LINE      CODE     ---       #34
      01002F5FH   LINE      CODE     ---       #35
      01002F61H   LINE      CODE     ---       #37
      01002F65H   LINE      CODE     ---       #38
      01002F6DH   LINE      CODE     ---       #39
      01002F75H   LINE      CODE     ---       #40
      01002F81H   LINE      CODE     ---       #41
      01002F83H   LINE      CODE     ---       #43
      01002F8CH   LINE      CODE     ---       #44
      01002F91H   LINE      CODE     ---       #45
      ---         BLOCKEND  ---      ---       LVL=0

      010031B1H   BLOCK     CODE     ---       LVL=0
      0200021AH   SYMBOL    XDATA    BYTE      addr
      0200021BH   SYMBOL    XDATA    ---       buf
      0200021EH   SYMBOL    XDATA    BYTE      len
      010031B1H   LINE      CODE     ---       #48
      010031BAH   LINE      CODE     ---       #49
      010031BAH   LINE      CODE     ---       #50
      010031C0H   LINE      CODE     ---       #52
      010031C8H   LINE      CODE     ---       #53
      010031CAH   LINE      CODE     ---       #55
      010031D2H   LINE      CODE     ---       #56
      010031DEH   LINE      CODE     ---       #57
      010031E3H   LINE      CODE     ---       #58
      010031EBH   LINE      CODE     ---       #60
      010031EDH   LINE      CODE     ---       #61
      010031F0H   LINE      CODE     ---       #62
      ---         BLOCKEND  ---      ---       LVL=0

      01003648H   BLOCK     CODE     ---       LVL=0
      0200021AH   SYMBOL    XDATA    ---       extbuf
      0200021DH   SYMBOL    XDATA    BYTE      extlen
      01003648H   LINE      CODE     ---       #64
      01003653H   LINE      CODE     ---       #65
      01003653H   LINE      CODE     ---       #66
      01003656H   LINE      CODE     ---       #67
LX51 LINKER/LOCATER V4.66.30.0                                                        03/29/2016  00:06:41  PAGE 169


      0100365EH   LINE      CODE     ---       #68
      0100366AH   LINE      CODE     ---       #69
      0100366FH   LINE      CODE     ---       #70
      01003674H   LINE      CODE     ---       #71
      ---         BLOCKEND  ---      ---       LVL=0

      01003AA6H   BLOCK     CODE     ---       LVL=0
      01003AA6H   LINE      CODE     ---       #73
      01003AA6H   LINE      CODE     ---       #74
      01003AA6H   LINE      CODE     ---       #75
      01003AA9H   LINE      CODE     ---       #76
      01003AB0H   LINE      CODE     ---       #77
      01003AB2H   LINE      CODE     ---       #78
      01003AB9H   LINE      CODE     ---       #79
      ---         BLOCKEND  ---      ---       LVL=0

      01002587H   BLOCK     CODE     ---       LVL=0
      00000002H   SYMBOL    DATA     WORD      crc
      00000005H   SYMBOL    DATA     BYTE      b
      01002587H   LINE      CODE     ---       #81
      0100258BH   LINE      CODE     ---       #82
      0100258BH   LINE      CODE     ---       #83
      0100258EH   LINE      CODE     ---       #84
      0100259DH   LINE      CODE     ---       #85
      010025ADH   LINE      CODE     ---       #86
      010025BDH   LINE      CODE     ---       #87
      010025CDH   LINE      CODE     ---       #88
      010025DDH   LINE      CODE     ---       #89
      010025EDH   LINE      CODE     ---       #90
      010025FDH   LINE      CODE     ---       #91
      01002609H   LINE      CODE     ---       #92
      ---         BLOCKEND  ---      ---       LVL=0

      01002689H   BLOCK     CODE     ---       LVL=0
      00000004H   SYMBOL    DATA     WORD      crc
      01002689H   LINE      CODE     ---       #94
      0100268DH   LINE      CODE     ---       #95
      0100268DH   LINE      CODE     ---       #97
      010026ACH   LINE      CODE     ---       #98
      010026D3H   LINE      CODE     ---       #99
      010026FFH   LINE      CODE     ---       #100
      01002704H   LINE      CODE     ---       #101
      ---         BLOCKEND  ---      ---       LVL=0

      01003AF3H   BLOCK     CODE     ---       LVL=0
      01003AF3H   LINE      CODE     ---       #103
      01003AF3H   LINE      CODE     ---       #104
      01003AF3H   LINE      CODE     ---       #105
      01003B02H   LINE      CODE     ---       #106
      01003B05H   LINE      CODE     ---       #107
      ---         BLOCKEND  ---      ---       LVL=0

      ---         MODULE    ---      ---       MAIN
      00000021H   PUBLIC    DATA     ---       appdata
      01000C19H   PUBLIC    CODE     ---       main
      01003B3AH   PUBLIC    CODE     ---       _rgb
      01003C7DH   PUBLIC    CODE     ---       _set_app_u2f_hid_msg
      01003D0DH   PUBLIC    CODE     ---       _set_app_error
      000000A2H   SFRSYM    DATA     BYTE      SPI0CKR
      00000080H   SFRSYM    DATA     BYTE      P0
      000000C8H.6 SFRSYM    DATA     BIT       SCON1_PERR
      000000D0H.2 SFRSYM    DATA     BIT       PSW_OV
LX51 LINKER/LOCATER V4.66.30.0                                                        03/29/2016  00:06:41  PAGE 170


      00000090H   SFRSYM    DATA     BYTE      P1
      000000F8H.1 SFRSYM    DATA     BIT       SPI0CN0_TXNF
      00000097H   SFRSYM    DATA     BYTE      WDTCN
      000000A0H   SFRSYM    DATA     BYTE      P2
      000000B0H   SFRSYM    DATA     BYTE      P3
      000000BCH   SFRSYM    DATA     BYTE      ADC0CF
      000000C0H.7 SFRSYM    DATA     BIT       SMB0CN0_MASTER
      000000F9H   SFRSYM    DATA     WORD      PCA0
      000000E6H   SFRSYM    DATA     BYTE      EIE1
      000000C0H.1 SFRSYM    DATA     BIT       SMB0CN0_ACK
      000000B3H   SFRSYM    DATA     BYTE      USB0XCN
      000000CEH   SFRSYM    DATA     BYTE      EIE2
      00000090H   SFRSYM    DATA     BIT       LED_R
      0000008FH   SFRSYM    DATA     BYTE      PSCTL
      000000E4H   SFRSYM    DATA     BYTE      IT01CF
      000000C0H.6 SFRSYM    DATA     BIT       SMB0CN0_TXMODE
      000000ADH   SFRSYM    DATA     BYTE      DERIVID
      000000A7H   SFRSYM    DATA     BYTE      SFRPAGE
      000000A4H   SFRSYM    DATA     BYTE      P0MDOUT
      00000080H.2 SFRSYM    DATA     BIT       U2F_BUTTON
      000000BFH   SFRSYM    DATA     BYTE      USB0CDSTA
      000000A5H   SFRSYM    DATA     BYTE      P1MDOUT
      000000E8H.5 SFRSYM    DATA     BIT       ADC0CN0_ADINT
      000000CBH   SFRSYM    DATA     BYTE      TMR2RLH
      000000A6H   SFRSYM    DATA     BYTE      P2MDOUT
      000000A8H   SFRSYM    DATA     BYTE      IE
      00000093H   SFRSYM    DATA     BYTE      TMR3RLH
      0000009CH   SFRSYM    DATA     BYTE      P3MDOUT
      000000A3H   SFRSYM    DATA     BYTE      TMR4RLH
      000000F3H   SFRSYM    DATA     BYTE      EIP1
      000000F4H   SFRSYM    DATA     BYTE      EIP2
      00000098H.2 SFRSYM    DATA     BIT       SCON0_RB8
      000000CAH   SFRSYM    DATA     BYTE      TMR2RLL
      000000FCH   SFRSYM    DATA     BYTE      PCA0CPH0
      00000092H   SFRSYM    DATA     BYTE      TMR3RLL
      000000EAH   SFRSYM    DATA     BYTE      PCA0CPH1
      00000098H.3 SFRSYM    DATA     BIT       SCON0_TB8
      000000F0H   SFRSYM    DATA     BIT       B_B0
      00000082H   SFRSYM    DATA     WORD      DP
      000000A2H   SFRSYM    DATA     BYTE      TMR4RLL
      000000ECH   SFRSYM    DATA     BYTE      PCA0CPH2
      000000F0H.1 SFRSYM    DATA     BIT       B_B1
      000000C3H   SFRSYM    DATA     WORD      ADC0GT
      000000BDH   SFRSYM    DATA     BYTE      I2C0SLAD
      000000D8H.3 SFRSYM    DATA     BIT       UART1FCN1_RFRQ
      000000F0H.2 SFRSYM    DATA     BIT       B_B2
      000000CFH   SFRSYM    DATA     BYTE      SFRPGCN
      000000FBH   SFRSYM    DATA     BYTE      PCA0CPL0
      000000F0H.3 SFRSYM    DATA     BIT       B_B3
      000000D9H   SFRSYM    DATA     BYTE      PCA0MD
      000000DAH   SFRSYM    DATA     BYTE      PCA0CPM0
      000000E9H   SFRSYM    DATA     BYTE      PCA0CPL1
      000000D8H.7 SFRSYM    DATA     BIT       UART1FCN1_TFRQ
      000000F0H.4 SFRSYM    DATA     BIT       B_B4
      000000DBH   SFRSYM    DATA     BYTE      PCA0CPM1
      000000EBH   SFRSYM    DATA     BYTE      PCA0CPL2
      000000F0H.5 SFRSYM    DATA     BIT       B_B5
      000000DCH   SFRSYM    DATA     BYTE      PCA0CPM2
      000000B8H   SFRSYM    DATA     BYTE      IP
      000000B9H   SFRSYM    DATA     BYTE      ADC0TK
      000000F0H.6 SFRSYM    DATA     BIT       B_B6
      000000C5H   SFRSYM    DATA     WORD      ADC0LT
LX51 LINKER/LOCATER V4.66.30.0                                                        03/29/2016  00:06:41  PAGE 171


      000000D8H.6 SFRSYM    DATA     BIT       UART1FCN1_TXNF
      00000098H.5 SFRSYM    DATA     BIT       SCON0_MCE
      000000F0H.7 SFRSYM    DATA     BIT       B_B7
      000000C3H   SFRSYM    DATA     BYTE      SMB0FCN0
      000000E1H   SFRSYM    DATA     BYTE      XBR0
      000000C4H   SFRSYM    DATA     BYTE      SMB0FCN1
      000000C1H   SFRSYM    DATA     BYTE      SMB0CF
      000000E2H   SFRSYM    DATA     BYTE      XBR1
      000000C1H   SFRSYM    DATA     BYTE      PFE0CN
      000000E7H   SFRSYM    DATA     BYTE      EMI0CN
      000000C0H.5 SFRSYM    DATA     BIT       SMB0CN0_STA
      000000E3H   SFRSYM    DATA     BYTE      XBR2
      000000BBH   SFRSYM    DATA     BYTE      ADC0MX
      000000E0H   SFRSYM    DATA     BIT       ACC_ACC0
      000000D1H   SFRSYM    DATA     BYTE      REF0CN
      0000008EH   SFRSYM    DATA     BYTE      CKCON0
      000000E0H.1 SFRSYM    DATA     BIT       ACC_ACC1
      000000C9H   SFRSYM    DATA     BYTE      REG0CN
      000000DDH   SFRSYM    DATA     BYTE      CRC0IN
      000000A6H   SFRSYM    DATA     BYTE      CKCON1
      000000C8H.2 SFRSYM    DATA     BIT       TMR2CN0_TR2
      000000E0H.2 SFRSYM    DATA     BIT       ACC_ACC2
      000000C6H   SFRSYM    DATA     BYTE      REG1CN
      000000E0H.3 SFRSYM    DATA     BIT       ACC_ACC3
      00000081H   SFRSYM    DATA     BYTE      SP
      0000009DH   SFRSYM    DATA     BYTE      CMP0MD
      000000E0H.4 SFRSYM    DATA     BIT       ACC_ACC4
      000000B1H   SFRSYM    DATA     BYTE      LFO0CN
      000000ABH   SFRSYM    DATA     BYTE      CMP1MD
      000000D8H   SFRSYM    DATA     BIT       PCA0CN0_CCF0
      000000E0H.5 SFRSYM    DATA     BIT       ACC_ACC5
      000000B5H   SFRSYM    DATA     BYTE      USB0CF
      00000098H.2 SFRSYM    DATA     BIT       TMR4CN0_TR4
      000000D8H.1 SFRSYM    DATA     BIT       PCA0CN0_CCF1
      000000E0H.6 SFRSYM    DATA     BIT       ACC_ACC6
      000000CCH   SFRSYM    DATA     WORD      TMR2
      0000009AH   SFRSYM    DATA     BYTE      SPI0FCN0
      000000D8H.2 SFRSYM    DATA     BIT       PCA0CN0_CCF2
      000000E0H.7 SFRSYM    DATA     BIT       ACC_ACC7
      00000094H   SFRSYM    DATA     WORD      TMR3
      0000009BH   SFRSYM    DATA     BYTE      SPI0FCN1
      000000A4H   SFRSYM    DATA     WORD      TMR4
      00000094H   SFRSYM    DATA     BYTE      SBCON1
      000000C0H.3 SFRSYM    DATA     BIT       SMB0CN0_ACKRQ
      000000FFH   SFRSYM    DATA     BYTE      VDM0CN
      000000F1H   SFRSYM    DATA     BYTE      P0MDIN
      00000098H.4 SFRSYM    DATA     BIT       SCON0_REN
      000000ACH   SFRSYM    DATA     BYTE      SMB0TC
      000000F2H   SFRSYM    DATA     BYTE      P1MDIN
      000000C8H.4 SFRSYM    DATA     BIT       SCON1_REN
      000000F3H   SFRSYM    DATA     BYTE      P2MDIN
      000000C0H.4 SFRSYM    DATA     BIT       SMB0CN0_STO
      000000B6H   SFRSYM    DATA     BYTE      USB0CDCF
      000000F4H   SFRSYM    DATA     BYTE      P3MDIN
      000000B9H   SFRSYM    DATA     BYTE      I2C0STAT
      000000BBH   SFRSYM    DATA     BYTE      I2C0DOUT
      00000096H   SFRSYM    DATA     BYTE      SBRLH1
      000000FEH   SFRSYM    DATA     BYTE      P0MASK
      000000D8H.5 SFRSYM    DATA     BIT       UART1FCN1_TXHOLD
      000000EEH   SFRSYM    DATA     BYTE      P1MASK
      000000FCH   SFRSYM    DATA     BYTE      P2MASK
      000000D0H.3 SFRSYM    DATA     BIT       PSW_RS0
LX51 LINKER/LOCATER V4.66.30.0                                                        03/29/2016  00:06:41  PAGE 172


      000000D8H.7 SFRSYM    DATA     BIT       PCA0CN0_CF
      0000009EH   SFRSYM    DATA     BYTE      PCA0CENT
      000000BAH   SFRSYM    DATA     BYTE      I2C0CN0
      000000D2H   SFRSYM    DATA     BYTE      CRC0ST
      000000F8H.4 SFRSYM    DATA     BIT       SPI0CN0_RXOVRN
      000000D0H.4 SFRSYM    DATA     BIT       PSW_RS1
      00000095H   SFRSYM    DATA     BYTE      SBRLL1
      000000C8H.2 SFRSYM    DATA     BIT       SCON1_RBX
      000000C8H   SFRSYM    DATA     BIT       TMR2CN0_T2XCLK0
      000000C8H.1 SFRSYM    DATA     BIT       TMR2CN0_T2XCLK1
      000000C8H.3 SFRSYM    DATA     BIT       SCON1_TBX
      000000E8H.7 SFRSYM    DATA     BIT       ADC0CN0_ADEN
      000000BEH   SFRSYM    DATA     BYTE      USB0CDCN
      00000089H   SFRSYM    DATA     BYTE      TMOD
      00000088H   SFRSYM    DATA     BYTE      TCON
      000000CFH   SFRSYM    DATA     BYTE      CRC0FLIP
      000000D0H   SFRSYM    DATA     BIT       PSW_PARITY
      000000A8H.4 SFRSYM    DATA     BIT       IE_ES0
      0000009FH   SFRSYM    DATA     BYTE      CMP0MX
      00000098H   SFRSYM    DATA     BIT       TMR4CN0_T4XCLK0
      000000A8H.1 SFRSYM    DATA     BIT       IE_ET0
      000000AAH   SFRSYM    DATA     BYTE      CMP1MX
      00000098H.1 SFRSYM    DATA     BIT       TMR4CN0_T4XCLK1
      000000A8H.3 SFRSYM    DATA     BIT       IE_ET1
      000000D4H   SFRSYM    DATA     BYTE      P0SKIP
      000000D8H   SFRSYM    DATA     BIT       UART1FCN1_RIE
      000000A8H.5 SFRSYM    DATA     BIT       IE_ET2
      000000D5H   SFRSYM    DATA     BYTE      P1SKIP
      000000CCH   SFRSYM    DATA     BYTE      P2SKIP
      000000E8H   SFRSYM    DATA     BYTE      ADC0CN0
      000000D8H.4 SFRSYM    DATA     BIT       UART1FCN1_TIE
      000000A8H   SFRSYM    DATA     BIT       IE_EX0
      000000B2H   SFRSYM    DATA     BYTE      ADC0CN1
      000000D8H.6 SFRSYM    DATA     BIT       PCA0CN0_CR
      000000A8H.2 SFRSYM    DATA     BIT       IE_EX1
      000000C8H.7 SFRSYM    DATA     BIT       SCON1_OVR
      00000098H.7 SFRSYM    DATA     BIT       SCON0_SMODE
      000000B5H   SFRSYM    DATA     BYTE      DEVICEID
      000000A9H   SFRSYM    DATA     BYTE      CLKSEL
      000000F8H   SFRSYM    DATA     BIT       SPI0CN0_SPIEN
      000000F0H   SFRSYM    DATA     BYTE      B
      000000BEH   SFRSYM    DATA     BYTE      ADC0H
      000000E8H.6 SFRSYM    DATA     BIT       ADC0CN0_ADBMEN
      000000CAH   SFRSYM    DATA     WORD      TMR2RL
      000000BDH   SFRSYM    DATA     BYTE      ADC0L
      00000092H   SFRSYM    DATA     WORD      TMR3RL
      000000A2H   SFRSYM    DATA     WORD      TMR4RL
      000000D8H   SFRSYM    DATA     BYTE      PCA0CN0
      000000E0H   SFRSYM    DATA     BYTE      ACC
      000000FBH   SFRSYM    DATA     WORD      PCA0CP0
      000000E9H   SFRSYM    DATA     WORD      PCA0CP1
      000000EBH   SFRSYM    DATA     WORD      PCA0CP2
      000000BCH   SFRSYM    DATA     BYTE      I2C0DIN
      000000CEH   SFRSYM    DATA     BYTE      CRC0CN0
      0000008CH   SFRSYM    DATA     BYTE      TH0
      00000086H   SFRSYM    DATA     BYTE      CRC0CN1
      000000B8H.4 SFRSYM    DATA     BIT       IP_PS0
      000000FAH   SFRSYM    DATA     BYTE      UART1FCT
      0000008DH   SFRSYM    DATA     BYTE      TH1
      000000FAH   SFRSYM    DATA     BYTE      PCA0H
      000000F5H   SFRSYM    DATA     BYTE      I2C0FCT
      000000B8H.1 SFRSYM    DATA     BIT       IP_PT0
LX51 LINKER/LOCATER V4.66.30.0                                                        03/29/2016  00:06:41  PAGE 173


      000000B8H.3 SFRSYM    DATA     BIT       IP_PT1
      000000C0H.2 SFRSYM    DATA     BIT       SMB0CN0_ARBLOST
      000000B8H.5 SFRSYM    DATA     BIT       IP_PT2
      0000008AH   SFRSYM    DATA     BYTE      TL0
      00000080H.3 SFRSYM    DATA     BIT       U2F_BUTTON_VAL
      000000D0H.5 SFRSYM    DATA     BIT       PSW_F0
      000000A8H.6 SFRSYM    DATA     BIT       IE_ESPI0
      0000008BH   SFRSYM    DATA     BYTE      TL1
      000000F9H   SFRSYM    DATA     BYTE      PCA0L
      000000C0H   SFRSYM    DATA     BIT       SMB0CN0_SI
      000000D0H.1 SFRSYM    DATA     BIT       PSW_F1
      00000080H   SFRSYM    DATA     BIT       P0_B0
      000000B8H   SFRSYM    DATA     BIT       IP_PX0
      00000090H   SFRSYM    DATA     BIT       P1_B0
      00000080H.1 SFRSYM    DATA     BIT       P0_B1
      000000B8H.2 SFRSYM    DATA     BIT       IP_PX1
      0000009EH   SFRSYM    DATA     BYTE      UART1LIN
      0000009BH   SFRSYM    DATA     BYTE      CMP0CN0
      00000088H.1 SFRSYM    DATA     BIT       TCON_IE0
      000000A0H   SFRSYM    DATA     BIT       P2_B0
      00000090H.1 SFRSYM    DATA     BIT       P1_B1
      00000080H.2 SFRSYM    DATA     BIT       P0_B2
      000000BFH   SFRSYM    DATA     BYTE      CMP1CN0
      00000099H   SFRSYM    DATA     BYTE      CMP0CN1
      00000088H.3 SFRSYM    DATA     BIT       TCON_IE1
      000000B0H   SFRSYM    DATA     BIT       P3_B0
      000000A0H.1 SFRSYM    DATA     BIT       P2_B1
      00000090H.2 SFRSYM    DATA     BIT       P1_B2
      00000080H.3 SFRSYM    DATA     BIT       P0_B3
      000000C0H   SFRSYM    DATA     BYTE      SMB0CN0
      000000ACH   SFRSYM    DATA     BYTE      CMP1CN1
      000000B0H.1 SFRSYM    DATA     BIT       P3_B1
      000000A0H.2 SFRSYM    DATA     BIT       P2_B2
      00000090H.3 SFRSYM    DATA     BIT       P1_B3
      00000080H.4 SFRSYM    DATA     BIT       P0_B4
      000000A0H.3 SFRSYM    DATA     BIT       P2_B3
      00000090H.4 SFRSYM    DATA     BIT       P1_B4
      00000080H.5 SFRSYM    DATA     BIT       P0_B5
      000000D8H.1 SFRSYM    DATA     BIT       UART1FCN1_RXTO0
      00000090H.5 SFRSYM    DATA     BIT       P1_B5
      00000080H.6 SFRSYM    DATA     BIT       P0_B6
      000000F5H   SFRSYM    DATA     BYTE      EIP1H
      000000D8H.2 SFRSYM    DATA     BIT       UART1FCN1_RXTO1
      00000090H.6 SFRSYM    DATA     BIT       P1_B6
      00000080H.7 SFRSYM    DATA     BIT       P0_B7
      000000C5H   SFRSYM    DATA     BYTE      SMB0RXLN
      000000F6H   SFRSYM    DATA     BYTE      EIP2H
      00000090H.7 SFRSYM    DATA     BIT       P1_B7
      00000083H   SFRSYM    DATA     BYTE      DPH
      000000C4H   SFRSYM    DATA     BYTE      ADC0GTH
      000000C8H.7 SFRSYM    DATA     BIT       TMR2CN0_TF2H
      000000C8H.3 SFRSYM    DATA     BIT       TMR2CN0_T2SPLIT
      000000D0H.6 SFRSYM    DATA     BIT       PSW_AC
      000000F8H   SFRSYM    DATA     BYTE      SPI0CN0
      000000C7H   SFRSYM    DATA     BYTE      HFO0CAL
      00000088H.5 SFRSYM    DATA     BIT       TCON_TF0
      00000098H   SFRSYM    DATA     BIT       SCON0_RI
      000000D6H   SFRSYM    DATA     BYTE      HFO1CAL
      00000082H   SFRSYM    DATA     BYTE      DPL
      00000088H.7 SFRSYM    DATA     BIT       TCON_TF1
      000000C8H   SFRSYM    DATA     BIT       SCON1_RI
      00000099H   SFRSYM    DATA     BYTE      SBUF0
LX51 LINKER/LOCATER V4.66.30.0                                                        03/29/2016  00:06:41  PAGE 174


      00000087H   SFRSYM    DATA     BYTE      PCON0
      000000F2H   SFRSYM    DATA     BYTE      IPH
      000000C3H   SFRSYM    DATA     BYTE      ADC0GTL
      00000098H.7 SFRSYM    DATA     BIT       TMR4CN0_TF4H
      00000098H.3 SFRSYM    DATA     BIT       TMR4CN0_T4SPLIT
      000000C8H.6 SFRSYM    DATA     BIT       TMR2CN0_TF2L
      00000098H.1 SFRSYM    DATA     BIT       SCON0_TI
      000000E8H   SFRSYM    DATA     BIT       ADC0CN0_ADCM0
      00000092H   SFRSYM    DATA     BYTE      SBUF1
      0000009AH   SFRSYM    DATA     BYTE      PCON1
      000000C6H   SFRSYM    DATA     BYTE      ADC0LTH
      00000088H   SFRSYM    DATA     BIT       TCON_IT0
      000000C8H.1 SFRSYM    DATA     BIT       SCON1_TI
      000000E8H.1 SFRSYM    DATA     BIT       ADC0CN0_ADCM1
      000000EFH   SFRSYM    DATA     BYTE      RSTSRC
      000000FDH   SFRSYM    DATA     BYTE      P0MAT
      000000DEH   SFRSYM    DATA     BYTE      CRC0DAT
      00000088H.2 SFRSYM    DATA     BIT       TCON_IT1
      000000E8H.2 SFRSYM    DATA     BIT       ADC0CN0_ADCM2
      000000D7H   SFRSYM    DATA     BYTE      SFRSTACK
      00000098H   SFRSYM    DATA     BYTE      SCON0
      000000F6H   SFRSYM    DATA     BYTE      PRTDRV
      000000EDH   SFRSYM    DATA     BYTE      P1MAT
      000000E8H.3 SFRSYM    DATA     BIT       ADC0CN0_ADWINT
      00000095H   SFRSYM    DATA     WORD      SBRL1
      000000B2H   SFRSYM    DATA     BYTE      USB0AEC
      00000093H   SFRSYM    DATA     BYTE      SMOD1
      000000C8H   SFRSYM    DATA     BYTE      SCON1
      000000FBH   SFRSYM    DATA     BYTE      P2MAT
      00000098H.6 SFRSYM    DATA     BIT       TMR4CN0_TF4L
      000000E8H.4 SFRSYM    DATA     BIT       ADC0CN0_ADBUSY
      000000D6H   SFRSYM    DATA     BYTE      SMB0ADM
      000000C5H   SFRSYM    DATA     BYTE      ADC0LTL
      000000F8H.5 SFRSYM    DATA     BIT       SPI0CN0_MODF
      000000B8H.6 SFRSYM    DATA     BIT       IP_PSPI0
      0000009CH   SFRSYM    DATA     BYTE      PCA0CLR
      000000C8H   SFRSYM    DATA     BYTE      TMR2CN0
      00000091H   SFRSYM    DATA     BYTE      TMR3CN0
      000000FDH   SFRSYM    DATA     BYTE      TMR2CN1
      00000098H   SFRSYM    DATA     BYTE      TMR4CN0
      000000FEH   SFRSYM    DATA     BYTE      TMR3CN1
      000000FFH   SFRSYM    DATA     BYTE      TMR4CN1
      000000D7H   SFRSYM    DATA     BYTE      SMB0ADR
      00000088H.4 SFRSYM    DATA     BIT       TCON_TR0
      000000C8H.4 SFRSYM    DATA     BIT       TMR2CN0_TF2CEN
      00000088H.6 SFRSYM    DATA     BIT       TCON_TR1
      000000C2H   SFRSYM    DATA     BYTE      SMB0DAT
      000000CDH   SFRSYM    DATA     BYTE      TMR2H
      000000A1H   SFRSYM    DATA     BYTE      SPI0CFG
      00000095H   SFRSYM    DATA     BYTE      TMR3H
      000000EFH   SFRSYM    DATA     BYTE      HFOCN
      000000D3H   SFRSYM    DATA     BYTE      CRC0CNT
      000000A5H   SFRSYM    DATA     BYTE      TMR4H
      00000098H.4 SFRSYM    DATA     BIT       TMR4CN0_TF4CEN
      000000EFH   SFRSYM    DATA     BYTE      SMB0FCT
      00000096H   SFRSYM    DATA     BYTE      PCA0POL
      000000CCH   SFRSYM    DATA     BYTE      TMR2L
      000000F8H.7 SFRSYM    DATA     BIT       SPI0CN0_SPIF
      000000AEH   SFRSYM    DATA     BYTE      USB0ADR
      00000094H   SFRSYM    DATA     BYTE      TMR3L
      000000DFH   SFRSYM    DATA     BYTE      ADC0PWR
      000000A8H.7 SFRSYM    DATA     BIT       IE_EA
LX51 LINKER/LOCATER V4.66.30.0                                                        03/29/2016  00:06:41  PAGE 175


      000000A4H   SFRSYM    DATA     BYTE      TMR4L
      000000AFH   SFRSYM    DATA     BYTE      USB0DAT
      000000C8H.5 SFRSYM    DATA     BIT       TMR2CN0_TF2LEN
      000000F8H.6 SFRSYM    DATA     BIT       SPI0CN0_WCOL
      00000080H.6 SFRSYM    DATA     BIT       LED_B
      000000F8H.2 SFRSYM    DATA     BIT       SPI0CN0_NSSMD0
      000000D0H.7 SFRSYM    DATA     BIT       PSW_CY
      0000009DH   SFRSYM    DATA     BYTE      UART1FCN0
      000000A3H   SFRSYM    DATA     BYTE      SPI0DAT
      000000ADH   SFRSYM    DATA     BYTE      I2C0FCN0
      000000F8H.3 SFRSYM    DATA     BIT       SPI0CN0_NSSMD1
      000000BDH   SFRSYM    DATA     WORD      ADC0
      000000D8H   SFRSYM    DATA     BYTE      UART1FCN1
      000000ABH   SFRSYM    DATA     BYTE      I2C0FCN1
      00000098H.5 SFRSYM    DATA     BIT       TMR4CN0_TF4LEN
      000000D0H   SFRSYM    DATA     BYTE      PSW
      000000F7H   SFRSYM    DATA     BYTE      PCA0PWM
      000000F7H   SFRSYM    DATA     BYTE      SPI0FCT
      000000B6H   SFRSYM    DATA     BYTE      REVID
      00000080H.7 SFRSYM    DATA     BIT       LED_G
      000000B7H   SFRSYM    DATA     BYTE      FLKEY
      000000B3H   SFRSYM    DATA     BYTE      ADC0AC
      01003933H   SYMBOL    CODE     ---       _init

      010038E1H   BLOCK     CODE     ---       LVL=0
      ---         BLOCKEND  ---      ---       LVL=0

      01003933H   BLOCK     CODE     ---       LVL=0
      00000001H   SYMBOL    DATA     ---       ap
      01003933H   LINE      CODE     ---       #20
      01003933H   LINE      CODE     ---       #21
      01003933H   LINE      CODE     ---       #22
      0100393CH   LINE      CODE     ---       #23
      0100393FH   LINE      CODE     ---       #24
      01003942H   LINE      CODE     ---       #25
      01003945H   LINE      CODE     ---       #27
      01003948H   LINE      CODE     ---       #28
      0100394BH   LINE      CODE     ---       #30
      0100394DH   LINE      CODE     ---       #31
      ---         BLOCKEND  ---      ---       LVL=0

      01003D0DH   BLOCK     CODE     ---       LVL=0
      00000007H   SYMBOL    DATA     BYTE      ec
      01003D0DH   LINE      CODE     ---       #33
      01003D0DH   LINE      CODE     ---       #34
      01003D0DH   LINE      CODE     ---       #35
      01003D0FH   LINE      CODE     ---       #36
      ---         BLOCKEND  ---      ---       LVL=0

      01003C7DH   BLOCK     CODE     ---       LVL=0
      00000001H   SYMBOL    DATA     ---       msg
      01003C7DH   LINE      CODE     ---       #38
      01003C7DH   LINE      CODE     ---       #39
      01003C7DH   LINE      CODE     ---       #40
      01003C80H   LINE      CODE     ---       #41
      01003C86H   LINE      CODE     ---       #42
      ---         BLOCKEND  ---      ---       LVL=0

      01003B3AH   BLOCK     CODE     ---       LVL=0
      00000007H   SYMBOL    DATA     BYTE      r
      00000005H   SYMBOL    DATA     BYTE      g
      00000003H   SYMBOL    DATA     BYTE      b
LX51 LINKER/LOCATER V4.66.30.0                                                        03/29/2016  00:06:41  PAGE 176


      01003B3AH   LINE      CODE     ---       #45
      01003B3AH   LINE      CODE     ---       #46
      01003B3AH   LINE      CODE     ---       #47
      01003B40H   LINE      CODE     ---       #48
      01003B46H   LINE      CODE     ---       #49
      01003B4AH   LINE      CODE     ---       #50
      ---         BLOCKEND  ---      ---       LVL=0

      01000C19H   BLOCK     CODE     ---       LVL=0
      01000C19H   BLOCK     CODE     NEAR LAB  LVL=1
      02000187H   SYMBOL    XDATA    WORD      ms_heart
      02000189H   SYMBOL    XDATA    WORD      ms_wink
      0200018BH   SYMBOL    XDATA    WORD      ms_grad
      0200018DH   SYMBOL    XDATA    BYTE      winks
      0200018EH   SYMBOL    XDATA    BYTE      grad_dir
      0200018FH   SYMBOL    XDATA    BYTE      light
      ---         BLOCKEND  ---      ---       LVL=1
      01000C19H   LINE      CODE     ---       #57
      01000C19H   LINE      CODE     ---       #62
      01000C1EH   LINE      CODE     ---       #63
      01000C20H   LINE      CODE     ---       #64
      01000C22H   LINE      CODE     ---       #66
      01000C25H   LINE      CODE     ---       #67
      01000C2EH   LINE      CODE     ---       #70
      01000C30H   LINE      CODE     ---       #73
      01000C32H   LINE      CODE     ---       #75
      01000C3BH   LINE      CODE     ---       #81
      01000C3BH   LINE      CODE     ---       #83
      01000C58H   LINE      CODE     ---       #84
      01000C58H   LINE      CODE     ---       #85
      01000C71H   LINE      CODE     ---       #86
      01000C71H   LINE      CODE     ---       #89
      01000C85H   LINE      CODE     ---       #90
      01000C85H   LINE      CODE     ---       #91
      01000C9BH   LINE      CODE     ---       #92
      01000C9BH   LINE      CODE     ---       #94
      01000CB6H   LINE      CODE     ---       #95
      01000CB6H   LINE      CODE     ---       #96
      01000CB6H   LINE      CODE     ---       #97
      01000CD6H   LINE      CODE     ---       #98
      01000CD6H   LINE      CODE     ---       #99
      01000CDEH   LINE      CODE     ---       #100
      01000CDEH   LINE      CODE     ---       #101
      01000CE3H   LINE      CODE     ---       #102
      01000CE5H   LINE      CODE     ---       #103
      01000CE8H   LINE      CODE     ---       #104
      01000CE8H   LINE      CODE     ---       #105
      01000CEDH   LINE      CODE     ---       #106
      01000CEDH   LINE      CODE     ---       #107
      01000CF3H   LINE      CODE     ---       #108
      01000CF6H   LINE      CODE     ---       #109
      01000CFFH   LINE      CODE     ---       #111
      01000D0AH   LINE      CODE     ---       #113
      01000D11H   LINE      CODE     ---       #114
      01000D18H   LINE      CODE     ---       #116
      01000D21H   LINE      CODE     ---       #117
      01000D21H   LINE      CODE     ---       #118
      01000D23H   LINE      CODE     ---       #119
      01000D23H   LINE      CODE     ---       #121
      01000D2CH   LINE      CODE     ---       #125
      01000D32H   LINE      CODE     ---       #126
      01000D34H   LINE      CODE     ---       #127
LX51 LINKER/LOCATER V4.66.30.0                                                        03/29/2016  00:06:41  PAGE 177


      01000D36H   LINE      CODE     ---       #128
      01000D36H   LINE      CODE     ---       #129
      01000D3EH   LINE      CODE     ---       #130
      01000D44H   LINE      CODE     ---       #131
      01000D4EH   LINE      CODE     ---       #132
      01000D51H   LINE      CODE     ---       #133
      01000D53H   LINE      CODE     ---       #134
      01000D53H   LINE      CODE     ---       #136
      01000D74H   LINE      CODE     ---       #137
      01000D74H   LINE      CODE     ---       #138
      01000D7FH   LINE      CODE     ---       #139
      01000D8BH   LINE      CODE     ---       #140
      01000D91H   LINE      CODE     ---       #141
      01000D91H   LINE      CODE     ---       #142
      01000D98H   LINE      CODE     ---       #143
      01000D98H   LINE      CODE     ---       #144
      01000D9AH   LINE      CODE     ---       #145
      01000D9CH   LINE      CODE     ---       #146
      01000D9CH   LINE      CODE     ---       #147
      01000D9CH   LINE      CODE     ---       #148
      01000D9CH   LINE      CODE     ---       #150
      01000DA3H   LINE      CODE     ---       #151
      01000DA3H   LINE      CODE     ---       #152
      01000DB2H   LINE      CODE     ---       #153
      01000DB5H   LINE      CODE     ---       #154
      01000DBCH   LINE      CODE     ---       #155
      01000DBCH   LINE      CODE     ---       #158
      ---         BLOCKEND  ---      ---       LVL=0

      ---         MODULE    ---      ---       U2F_ATECC
      020002B8H   PUBLIC    XDATA    ---       key_store
      01003D1DH   PUBLIC    CONST    ---       __attest
      01000076H   PUBLIC    CODE     ---       u2f_attestation_cert_size
      01003CECH   PUBLIC    CODE     ---       u2f_get_attestation_cert
      01002705H   PUBLIC    CODE     ---       u2f_count
      01002CF5H   PUBLIC    CODE     ---       _u2f_load_key
      020001F2H   PUBLIC    XDATA    BYTE      ?_u2f_new_keypair?BYTE
      010023DEH   PUBLIC    CODE     ---       _u2f_new_keypair
      020001F2H   PUBLIC    XDATA    BYTE      ?_u2f_ecdsa_sign?BYTE
      010019E9H   PUBLIC    CODE     ---       _u2f_ecdsa_sign
      01003719H   PUBLIC    CODE     ---       u2f_sha256_finish
      01002BCFH   PUBLIC    CODE     ---       _u2f_sha256_update
      0100394EH   PUBLIC    CODE     ---       u2f_sha256_start
      01002C94H   PUBLIC    CODE     ---       u2f_get_user_feedback
      01003D1CH   PUBLIC    CODE     ---       u2f_response_start
      01003D13H   PUBLIC    CODE     ---       u2f_response_flush
      01003D10H   PUBLIC    CODE     ---       _u2f_response_writeback
      01001F95H   PUBLIC    CODE     ---       u2f_init
      000000A2H   SFRSYM    DATA     BYTE      SPI0CKR
      00000080H   SFRSYM    DATA     BYTE      P0
      000000C8H.6 SFRSYM    DATA     BIT       SCON1_PERR
      000000D0H.2 SFRSYM    DATA     BIT       PSW_OV
      00000090H   SFRSYM    DATA     BYTE      P1
      000000F8H.1 SFRSYM    DATA     BIT       SPI0CN0_TXNF
      00000097H   SFRSYM    DATA     BYTE      WDTCN
      000000A0H   SFRSYM    DATA     BYTE      P2
      000000B0H   SFRSYM    DATA     BYTE      P3
      000000BCH   SFRSYM    DATA     BYTE      ADC0CF
      000000C0H.7 SFRSYM    DATA     BIT       SMB0CN0_MASTER
      000000F9H   SFRSYM    DATA     WORD      PCA0
      000000E6H   SFRSYM    DATA     BYTE      EIE1
      000000C0H.1 SFRSYM    DATA     BIT       SMB0CN0_ACK
LX51 LINKER/LOCATER V4.66.30.0                                                        03/29/2016  00:06:41  PAGE 178


      000000B3H   SFRSYM    DATA     BYTE      USB0XCN
      000000CEH   SFRSYM    DATA     BYTE      EIE2
      00000090H   SFRSYM    DATA     BIT       LED_R
      0000008FH   SFRSYM    DATA     BYTE      PSCTL
      000000E4H   SFRSYM    DATA     BYTE      IT01CF
      000000C0H.6 SFRSYM    DATA     BIT       SMB0CN0_TXMODE
      000000ADH   SFRSYM    DATA     BYTE      DERIVID
      000000A7H   SFRSYM    DATA     BYTE      SFRPAGE
      000000A4H   SFRSYM    DATA     BYTE      P0MDOUT
      00000080H.2 SFRSYM    DATA     BIT       U2F_BUTTON
      000000BFH   SFRSYM    DATA     BYTE      USB0CDSTA
      000000A5H   SFRSYM    DATA     BYTE      P1MDOUT
      000000E8H.5 SFRSYM    DATA     BIT       ADC0CN0_ADINT
      000000CBH   SFRSYM    DATA     BYTE      TMR2RLH
      000000A6H   SFRSYM    DATA     BYTE      P2MDOUT
      000000A8H   SFRSYM    DATA     BYTE      IE
      00000093H   SFRSYM    DATA     BYTE      TMR3RLH
      0000009CH   SFRSYM    DATA     BYTE      P3MDOUT
      000000A3H   SFRSYM    DATA     BYTE      TMR4RLH
      000000F3H   SFRSYM    DATA     BYTE      EIP1
      000000F4H   SFRSYM    DATA     BYTE      EIP2
      00000098H.2 SFRSYM    DATA     BIT       SCON0_RB8
      000000CAH   SFRSYM    DATA     BYTE      TMR2RLL
      000000FCH   SFRSYM    DATA     BYTE      PCA0CPH0
      00000092H   SFRSYM    DATA     BYTE      TMR3RLL
      000000EAH   SFRSYM    DATA     BYTE      PCA0CPH1
      00000098H.3 SFRSYM    DATA     BIT       SCON0_TB8
      000000F0H   SFRSYM    DATA     BIT       B_B0
      00000082H   SFRSYM    DATA     WORD      DP
      000000A2H   SFRSYM    DATA     BYTE      TMR4RLL
      000000ECH   SFRSYM    DATA     BYTE      PCA0CPH2
      000000F0H.1 SFRSYM    DATA     BIT       B_B1
      000000C3H   SFRSYM    DATA     WORD      ADC0GT
      000000BDH   SFRSYM    DATA     BYTE      I2C0SLAD
      000000D8H.3 SFRSYM    DATA     BIT       UART1FCN1_RFRQ
      000000F0H.2 SFRSYM    DATA     BIT       B_B2
      000000CFH   SFRSYM    DATA     BYTE      SFRPGCN
      000000FBH   SFRSYM    DATA     BYTE      PCA0CPL0
      000000F0H.3 SFRSYM    DATA     BIT       B_B3
      000000D9H   SFRSYM    DATA     BYTE      PCA0MD
      000000DAH   SFRSYM    DATA     BYTE      PCA0CPM0
      000000E9H   SFRSYM    DATA     BYTE      PCA0CPL1
      000000D8H.7 SFRSYM    DATA     BIT       UART1FCN1_TFRQ
      000000F0H.4 SFRSYM    DATA     BIT       B_B4
      000000DBH   SFRSYM    DATA     BYTE      PCA0CPM1
      000000EBH   SFRSYM    DATA     BYTE      PCA0CPL2
      000000F0H.5 SFRSYM    DATA     BIT       B_B5
      000000DCH   SFRSYM    DATA     BYTE      PCA0CPM2
      000000B8H   SFRSYM    DATA     BYTE      IP
      000000B9H   SFRSYM    DATA     BYTE      ADC0TK
      000000F0H.6 SFRSYM    DATA     BIT       B_B6
      000000C5H   SFRSYM    DATA     WORD      ADC0LT
      000000D8H.6 SFRSYM    DATA     BIT       UART1FCN1_TXNF
      00000098H.5 SFRSYM    DATA     BIT       SCON0_MCE
      000000F0H.7 SFRSYM    DATA     BIT       B_B7
      000000C3H   SFRSYM    DATA     BYTE      SMB0FCN0
      000000E1H   SFRSYM    DATA     BYTE      XBR0
      000000C4H   SFRSYM    DATA     BYTE      SMB0FCN1
      000000C1H   SFRSYM    DATA     BYTE      SMB0CF
      000000E2H   SFRSYM    DATA     BYTE      XBR1
      000000C1H   SFRSYM    DATA     BYTE      PFE0CN
      000000E7H   SFRSYM    DATA     BYTE      EMI0CN
LX51 LINKER/LOCATER V4.66.30.0                                                        03/29/2016  00:06:41  PAGE 179


      000000C0H.5 SFRSYM    DATA     BIT       SMB0CN0_STA
      000000E3H   SFRSYM    DATA     BYTE      XBR2
      000000BBH   SFRSYM    DATA     BYTE      ADC0MX
      000000E0H   SFRSYM    DATA     BIT       ACC_ACC0
      000000D1H   SFRSYM    DATA     BYTE      REF0CN
      0000008EH   SFRSYM    DATA     BYTE      CKCON0
      000000E0H.1 SFRSYM    DATA     BIT       ACC_ACC1
      000000C9H   SFRSYM    DATA     BYTE      REG0CN
      000000DDH   SFRSYM    DATA     BYTE      CRC0IN
      000000A6H   SFRSYM    DATA     BYTE      CKCON1
      000000C8H.2 SFRSYM    DATA     BIT       TMR2CN0_TR2
      000000E0H.2 SFRSYM    DATA     BIT       ACC_ACC2
      000000C6H   SFRSYM    DATA     BYTE      REG1CN
      000000E0H.3 SFRSYM    DATA     BIT       ACC_ACC3
      00000081H   SFRSYM    DATA     BYTE      SP
      0000009DH   SFRSYM    DATA     BYTE      CMP0MD
      000000E0H.4 SFRSYM    DATA     BIT       ACC_ACC4
      000000B1H   SFRSYM    DATA     BYTE      LFO0CN
      000000ABH   SFRSYM    DATA     BYTE      CMP1MD
      000000D8H   SFRSYM    DATA     BIT       PCA0CN0_CCF0
      000000E0H.5 SFRSYM    DATA     BIT       ACC_ACC5
      000000B5H   SFRSYM    DATA     BYTE      USB0CF
      00000098H.2 SFRSYM    DATA     BIT       TMR4CN0_TR4
      000000D8H.1 SFRSYM    DATA     BIT       PCA0CN0_CCF1
      000000E0H.6 SFRSYM    DATA     BIT       ACC_ACC6
      000000CCH   SFRSYM    DATA     WORD      TMR2
      0000009AH   SFRSYM    DATA     BYTE      SPI0FCN0
      000000D8H.2 SFRSYM    DATA     BIT       PCA0CN0_CCF2
      000000E0H.7 SFRSYM    DATA     BIT       ACC_ACC7
      00000094H   SFRSYM    DATA     WORD      TMR3
      0000009BH   SFRSYM    DATA     BYTE      SPI0FCN1
      000000A4H   SFRSYM    DATA     WORD      TMR4
      00000094H   SFRSYM    DATA     BYTE      SBCON1
      000000C0H.3 SFRSYM    DATA     BIT       SMB0CN0_ACKRQ
      000000FFH   SFRSYM    DATA     BYTE      VDM0CN
      000000F1H   SFRSYM    DATA     BYTE      P0MDIN
      00000098H.4 SFRSYM    DATA     BIT       SCON0_REN
      000000ACH   SFRSYM    DATA     BYTE      SMB0TC
      000000F2H   SFRSYM    DATA     BYTE      P1MDIN
      000000C8H.4 SFRSYM    DATA     BIT       SCON1_REN
      000000F3H   SFRSYM    DATA     BYTE      P2MDIN
      000000C0H.4 SFRSYM    DATA     BIT       SMB0CN0_STO
      000000B6H   SFRSYM    DATA     BYTE      USB0CDCF
      000000F4H   SFRSYM    DATA     BYTE      P3MDIN
      000000B9H   SFRSYM    DATA     BYTE      I2C0STAT
      000000BBH   SFRSYM    DATA     BYTE      I2C0DOUT
      00000096H   SFRSYM    DATA     BYTE      SBRLH1
      000000FEH   SFRSYM    DATA     BYTE      P0MASK
      000000D8H.5 SFRSYM    DATA     BIT       UART1FCN1_TXHOLD
      000000EEH   SFRSYM    DATA     BYTE      P1MASK
      000000FCH   SFRSYM    DATA     BYTE      P2MASK
      000000D0H.3 SFRSYM    DATA     BIT       PSW_RS0
      000000D8H.7 SFRSYM    DATA     BIT       PCA0CN0_CF
      0000009EH   SFRSYM    DATA     BYTE      PCA0CENT
      000000BAH   SFRSYM    DATA     BYTE      I2C0CN0
      000000D2H   SFRSYM    DATA     BYTE      CRC0ST
      000000F8H.4 SFRSYM    DATA     BIT       SPI0CN0_RXOVRN
      000000D0H.4 SFRSYM    DATA     BIT       PSW_RS1
      00000095H   SFRSYM    DATA     BYTE      SBRLL1
      000000C8H.2 SFRSYM    DATA     BIT       SCON1_RBX
      000000C8H   SFRSYM    DATA     BIT       TMR2CN0_T2XCLK0
      000000C8H.1 SFRSYM    DATA     BIT       TMR2CN0_T2XCLK1
LX51 LINKER/LOCATER V4.66.30.0                                                        03/29/2016  00:06:41  PAGE 180


      000000C8H.3 SFRSYM    DATA     BIT       SCON1_TBX
      000000E8H.7 SFRSYM    DATA     BIT       ADC0CN0_ADEN
      000000BEH   SFRSYM    DATA     BYTE      USB0CDCN
      00000089H   SFRSYM    DATA     BYTE      TMOD
      00000088H   SFRSYM    DATA     BYTE      TCON
      000000CFH   SFRSYM    DATA     BYTE      CRC0FLIP
      000000D0H   SFRSYM    DATA     BIT       PSW_PARITY
      000000A8H.4 SFRSYM    DATA     BIT       IE_ES0
      0000009FH   SFRSYM    DATA     BYTE      CMP0MX
      00000098H   SFRSYM    DATA     BIT       TMR4CN0_T4XCLK0
      000000A8H.1 SFRSYM    DATA     BIT       IE_ET0
      000000AAH   SFRSYM    DATA     BYTE      CMP1MX
      00000098H.1 SFRSYM    DATA     BIT       TMR4CN0_T4XCLK1
      000000A8H.3 SFRSYM    DATA     BIT       IE_ET1
      000000D4H   SFRSYM    DATA     BYTE      P0SKIP
      000000D8H   SFRSYM    DATA     BIT       UART1FCN1_RIE
      000000A8H.5 SFRSYM    DATA     BIT       IE_ET2
      000000D5H   SFRSYM    DATA     BYTE      P1SKIP
      000000CCH   SFRSYM    DATA     BYTE      P2SKIP
      000000E8H   SFRSYM    DATA     BYTE      ADC0CN0
      000000D8H.4 SFRSYM    DATA     BIT       UART1FCN1_TIE
      000000A8H   SFRSYM    DATA     BIT       IE_EX0
      000000B2H   SFRSYM    DATA     BYTE      ADC0CN1
      000000D8H.6 SFRSYM    DATA     BIT       PCA0CN0_CR
      000000A8H.2 SFRSYM    DATA     BIT       IE_EX1
      000000C8H.7 SFRSYM    DATA     BIT       SCON1_OVR
      00000098H.7 SFRSYM    DATA     BIT       SCON0_SMODE
      000000B5H   SFRSYM    DATA     BYTE      DEVICEID
      000000A9H   SFRSYM    DATA     BYTE      CLKSEL
      000000F8H   SFRSYM    DATA     BIT       SPI0CN0_SPIEN
      000000F0H   SFRSYM    DATA     BYTE      B
      000000BEH   SFRSYM    DATA     BYTE      ADC0H
      000000E8H.6 SFRSYM    DATA     BIT       ADC0CN0_ADBMEN
      000000CAH   SFRSYM    DATA     WORD      TMR2RL
      000000BDH   SFRSYM    DATA     BYTE      ADC0L
      00000092H   SFRSYM    DATA     WORD      TMR3RL
      000000A2H   SFRSYM    DATA     WORD      TMR4RL
      000000D8H   SFRSYM    DATA     BYTE      PCA0CN0
      000000E0H   SFRSYM    DATA     BYTE      ACC
      000000FBH   SFRSYM    DATA     WORD      PCA0CP0
      000000E9H   SFRSYM    DATA     WORD      PCA0CP1
      000000EBH   SFRSYM    DATA     WORD      PCA0CP2
      000000BCH   SFRSYM    DATA     BYTE      I2C0DIN
      000000CEH   SFRSYM    DATA     BYTE      CRC0CN0
      0000008CH   SFRSYM    DATA     BYTE      TH0
      00000086H   SFRSYM    DATA     BYTE      CRC0CN1
      000000B8H.4 SFRSYM    DATA     BIT       IP_PS0
      000000FAH   SFRSYM    DATA     BYTE      UART1FCT
      0000008DH   SFRSYM    DATA     BYTE      TH1
      000000FAH   SFRSYM    DATA     BYTE      PCA0H
      000000F5H   SFRSYM    DATA     BYTE      I2C0FCT
      000000B8H.1 SFRSYM    DATA     BIT       IP_PT0
      000000B8H.3 SFRSYM    DATA     BIT       IP_PT1
      000000C0H.2 SFRSYM    DATA     BIT       SMB0CN0_ARBLOST
      000000B8H.5 SFRSYM    DATA     BIT       IP_PT2
      0000008AH   SFRSYM    DATA     BYTE      TL0
      00000080H.3 SFRSYM    DATA     BIT       U2F_BUTTON_VAL
      000000D0H.5 SFRSYM    DATA     BIT       PSW_F0
      000000A8H.6 SFRSYM    DATA     BIT       IE_ESPI0
      0000008BH   SFRSYM    DATA     BYTE      TL1
      000000F9H   SFRSYM    DATA     BYTE      PCA0L
      000000C0H   SFRSYM    DATA     BIT       SMB0CN0_SI
LX51 LINKER/LOCATER V4.66.30.0                                                        03/29/2016  00:06:41  PAGE 181


      000000D0H.1 SFRSYM    DATA     BIT       PSW_F1
      00000080H   SFRSYM    DATA     BIT       P0_B0
      000000B8H   SFRSYM    DATA     BIT       IP_PX0
      00000090H   SFRSYM    DATA     BIT       P1_B0
      00000080H.1 SFRSYM    DATA     BIT       P0_B1
      000000B8H.2 SFRSYM    DATA     BIT       IP_PX1
      0000009EH   SFRSYM    DATA     BYTE      UART1LIN
      0000009BH   SFRSYM    DATA     BYTE      CMP0CN0
      00000088H.1 SFRSYM    DATA     BIT       TCON_IE0
      000000A0H   SFRSYM    DATA     BIT       P2_B0
      00000090H.1 SFRSYM    DATA     BIT       P1_B1
      00000080H.2 SFRSYM    DATA     BIT       P0_B2
      000000BFH   SFRSYM    DATA     BYTE      CMP1CN0
      00000099H   SFRSYM    DATA     BYTE      CMP0CN1
      00000088H.3 SFRSYM    DATA     BIT       TCON_IE1
      000000B0H   SFRSYM    DATA     BIT       P3_B0
      000000A0H.1 SFRSYM    DATA     BIT       P2_B1
      00000090H.2 SFRSYM    DATA     BIT       P1_B2
      00000080H.3 SFRSYM    DATA     BIT       P0_B3
      000000C0H   SFRSYM    DATA     BYTE      SMB0CN0
      000000ACH   SFRSYM    DATA     BYTE      CMP1CN1
      000000B0H.1 SFRSYM    DATA     BIT       P3_B1
      000000A0H.2 SFRSYM    DATA     BIT       P2_B2
      00000090H.3 SFRSYM    DATA     BIT       P1_B3
      00000080H.4 SFRSYM    DATA     BIT       P0_B4
      000000A0H.3 SFRSYM    DATA     BIT       P2_B3
      00000090H.4 SFRSYM    DATA     BIT       P1_B4
      00000080H.5 SFRSYM    DATA     BIT       P0_B5
      000000D8H.1 SFRSYM    DATA     BIT       UART1FCN1_RXTO0
      00000090H.5 SFRSYM    DATA     BIT       P1_B5
      00000080H.6 SFRSYM    DATA     BIT       P0_B6
      000000F5H   SFRSYM    DATA     BYTE      EIP1H
      000000D8H.2 SFRSYM    DATA     BIT       UART1FCN1_RXTO1
      00000090H.6 SFRSYM    DATA     BIT       P1_B6
      00000080H.7 SFRSYM    DATA     BIT       P0_B7
      000000C5H   SFRSYM    DATA     BYTE      SMB0RXLN
      000000F6H   SFRSYM    DATA     BYTE      EIP2H
      00000090H.7 SFRSYM    DATA     BIT       P1_B7
      00000083H   SFRSYM    DATA     BYTE      DPH
      000000C4H   SFRSYM    DATA     BYTE      ADC0GTH
      000000C8H.7 SFRSYM    DATA     BIT       TMR2CN0_TF2H
      000000C8H.3 SFRSYM    DATA     BIT       TMR2CN0_T2SPLIT
      000000D0H.6 SFRSYM    DATA     BIT       PSW_AC
      000000F8H   SFRSYM    DATA     BYTE      SPI0CN0
      000000C7H   SFRSYM    DATA     BYTE      HFO0CAL
      00000088H.5 SFRSYM    DATA     BIT       TCON_TF0
      00000098H   SFRSYM    DATA     BIT       SCON0_RI
      000000D6H   SFRSYM    DATA     BYTE      HFO1CAL
      00000082H   SFRSYM    DATA     BYTE      DPL
      00000088H.7 SFRSYM    DATA     BIT       TCON_TF1
      000000C8H   SFRSYM    DATA     BIT       SCON1_RI
      00000099H   SFRSYM    DATA     BYTE      SBUF0
      00000087H   SFRSYM    DATA     BYTE      PCON0
      000000F2H   SFRSYM    DATA     BYTE      IPH
      000000C3H   SFRSYM    DATA     BYTE      ADC0GTL
      00000098H.7 SFRSYM    DATA     BIT       TMR4CN0_TF4H
      00000098H.3 SFRSYM    DATA     BIT       TMR4CN0_T4SPLIT
      000000C8H.6 SFRSYM    DATA     BIT       TMR2CN0_TF2L
      00000098H.1 SFRSYM    DATA     BIT       SCON0_TI
      000000E8H   SFRSYM    DATA     BIT       ADC0CN0_ADCM0
      00000092H   SFRSYM    DATA     BYTE      SBUF1
      0000009AH   SFRSYM    DATA     BYTE      PCON1
LX51 LINKER/LOCATER V4.66.30.0                                                        03/29/2016  00:06:41  PAGE 182


      000000C6H   SFRSYM    DATA     BYTE      ADC0LTH
      00000088H   SFRSYM    DATA     BIT       TCON_IT0
      000000C8H.1 SFRSYM    DATA     BIT       SCON1_TI
      000000E8H.1 SFRSYM    DATA     BIT       ADC0CN0_ADCM1
      000000EFH   SFRSYM    DATA     BYTE      RSTSRC
      000000FDH   SFRSYM    DATA     BYTE      P0MAT
      000000DEH   SFRSYM    DATA     BYTE      CRC0DAT
      00000088H.2 SFRSYM    DATA     BIT       TCON_IT1
      000000E8H.2 SFRSYM    DATA     BIT       ADC0CN0_ADCM2
      000000D7H   SFRSYM    DATA     BYTE      SFRSTACK
      00000098H   SFRSYM    DATA     BYTE      SCON0
      000000F6H   SFRSYM    DATA     BYTE      PRTDRV
      000000EDH   SFRSYM    DATA     BYTE      P1MAT
      000000E8H.3 SFRSYM    DATA     BIT       ADC0CN0_ADWINT
      00000095H   SFRSYM    DATA     WORD      SBRL1
      000000B2H   SFRSYM    DATA     BYTE      USB0AEC
      00000093H   SFRSYM    DATA     BYTE      SMOD1
      000000C8H   SFRSYM    DATA     BYTE      SCON1
      000000FBH   SFRSYM    DATA     BYTE      P2MAT
      00000098H.6 SFRSYM    DATA     BIT       TMR4CN0_TF4L
      000000E8H.4 SFRSYM    DATA     BIT       ADC0CN0_ADBUSY
      000000D6H   SFRSYM    DATA     BYTE      SMB0ADM
      000000C5H   SFRSYM    DATA     BYTE      ADC0LTL
      000000F8H.5 SFRSYM    DATA     BIT       SPI0CN0_MODF
      000000B8H.6 SFRSYM    DATA     BIT       IP_PSPI0
      0000009CH   SFRSYM    DATA     BYTE      PCA0CLR
      000000C8H   SFRSYM    DATA     BYTE      TMR2CN0
      00000091H   SFRSYM    DATA     BYTE      TMR3CN0
      000000FDH   SFRSYM    DATA     BYTE      TMR2CN1
      00000098H   SFRSYM    DATA     BYTE      TMR4CN0
      000000FEH   SFRSYM    DATA     BYTE      TMR3CN1
      000000FFH   SFRSYM    DATA     BYTE      TMR4CN1
      000000D7H   SFRSYM    DATA     BYTE      SMB0ADR
      00000088H.4 SFRSYM    DATA     BIT       TCON_TR0
      000000C8H.4 SFRSYM    DATA     BIT       TMR2CN0_TF2CEN
      00000088H.6 SFRSYM    DATA     BIT       TCON_TR1
      000000C2H   SFRSYM    DATA     BYTE      SMB0DAT
      000000CDH   SFRSYM    DATA     BYTE      TMR2H
      000000A1H   SFRSYM    DATA     BYTE      SPI0CFG
      00000095H   SFRSYM    DATA     BYTE      TMR3H
      000000EFH   SFRSYM    DATA     BYTE      HFOCN
      000000D3H   SFRSYM    DATA     BYTE      CRC0CNT
      000000A5H   SFRSYM    DATA     BYTE      TMR4H
      00000098H.4 SFRSYM    DATA     BIT       TMR4CN0_TF4CEN
      000000EFH   SFRSYM    DATA     BYTE      SMB0FCT
      00000096H   SFRSYM    DATA     BYTE      PCA0POL
      000000CCH   SFRSYM    DATA     BYTE      TMR2L
      000000F8H.7 SFRSYM    DATA     BIT       SPI0CN0_SPIF
      000000AEH   SFRSYM    DATA     BYTE      USB0ADR
      00000094H   SFRSYM    DATA     BYTE      TMR3L
      000000DFH   SFRSYM    DATA     BYTE      ADC0PWR
      000000A8H.7 SFRSYM    DATA     BIT       IE_EA
      000000A4H   SFRSYM    DATA     BYTE      TMR4L
      000000AFH   SFRSYM    DATA     BYTE      USB0DAT
      000000C8H.5 SFRSYM    DATA     BIT       TMR2CN0_TF2LEN
      000000F8H.6 SFRSYM    DATA     BIT       SPI0CN0_WCOL
      00000080H.6 SFRSYM    DATA     BIT       LED_B
      000000F8H.2 SFRSYM    DATA     BIT       SPI0CN0_NSSMD0
      000000D0H.7 SFRSYM    DATA     BIT       PSW_CY
      0000009DH   SFRSYM    DATA     BYTE      UART1FCN0
      000000A3H   SFRSYM    DATA     BYTE      SPI0DAT
      000000ADH   SFRSYM    DATA     BYTE      I2C0FCN0
LX51 LINKER/LOCATER V4.66.30.0                                                        03/29/2016  00:06:41  PAGE 183


      000000F8H.3 SFRSYM    DATA     BIT       SPI0CN0_NSSMD1
      000000BDH   SFRSYM    DATA     WORD      ADC0
      000000D8H   SFRSYM    DATA     BYTE      UART1FCN1
      000000ABH   SFRSYM    DATA     BYTE      I2C0FCN1
      00000098H.5 SFRSYM    DATA     BIT       TMR4CN0_TF4LEN
      000000D0H   SFRSYM    DATA     BYTE      PSW
      000000F7H   SFRSYM    DATA     BYTE      PCA0PWM
      000000F7H   SFRSYM    DATA     BYTE      SPI0FCT
      000000B6H   SFRSYM    DATA     BYTE      REVID
      00000080H.7 SFRSYM    DATA     BIT       LED_G
      000000B7H   SFRSYM    DATA     BYTE      FLKEY
      000000B3H   SFRSYM    DATA     BYTE      ADC0AC
      0200026FH   SYMBOL    XDATA    ---       resbuf
      02000272H   SYMBOL    XDATA    BYTE      resseq
      02000273H   SYMBOL    XDATA    ---       res_digest
      02000277H   SYMBOL    XDATA    BYTE      shaoffset
      02000278H   SYMBOL    XDATA    ---       res
      0100361AH   SYMBOL    CODE     ---       flush_key_store
      020002BCH   SYMBOL    XDATA    ---       shabuf

      01002A33H   BLOCK     CODE     ---       LVL=0
      ---         BLOCKEND  ---      ---       LVL=0

      0100361AH   BLOCK     CODE     ---       LVL=0
      0100361AH   LINE      CODE     ---       #42
      0100361AH   LINE      CODE     ---       #43
      0100361AH   LINE      CODE     ---       #44
      01003631H   LINE      CODE     ---       #45
      ---         BLOCKEND  ---      ---       LVL=0

      01001F95H   BLOCK     CODE     ---       LVL=0
      01001F95H   BLOCK     CODE     NEAR LAB  LVL=1
      02000190H   SYMBOL    XDATA    BYTE      i
      02000191H   SYMBOL    XDATA    BYTE      j
      02000192H   SYMBOL    XDATA    ---       res
      ---         BLOCKEND  ---      ---       LVL=1
      01001F95H   LINE      CODE     ---       #48
      01001F95H   LINE      CODE     ---       #49
      01001F95H   LINE      CODE     ---       #53
      01001FA5H   LINE      CODE     ---       #56
      01001FB0H   LINE      CODE     ---       #57
      01001FB0H   LINE      CODE     ---       #58
      01001FB3H   LINE      CODE     ---       #59
      01001FB8H   LINE      CODE     ---       #60
      01001FBAH   LINE      CODE     ---       #61
      01001FBDH   LINE      CODE     ---       #63
      01001FC2H   LINE      CODE     ---       #64
      01001FC2H   LINE      CODE     ---       #66
      01001FD7H   LINE      CODE     ---       #69
      01002010H   LINE      CODE     ---       #71
      01002033H   LINE      CODE     ---       #72
      0100203FH   LINE      CODE     ---       #74
      0100203FH   LINE      CODE     ---       #75
      ---         BLOCKEND  ---      ---       LVL=0

      01003D10H   BLOCK     CODE     ---       LVL=0
      00000001H   SYMBOL    DATA     ---       buf
      00000004H   SYMBOL    DATA     WORD      len
      01003D10H   LINE      CODE     ---       #77
      01003D10H   LINE      CODE     ---       #78
      01003D10H   LINE      CODE     ---       #79
      ---         BLOCKEND  ---      ---       LVL=0
LX51 LINKER/LOCATER V4.66.30.0                                                        03/29/2016  00:06:41  PAGE 184



      01003D13H   BLOCK     CODE     ---       LVL=0
      01003D13H   LINE      CODE     ---       #82
      01003D13H   LINE      CODE     ---       #83
      01003D13H   LINE      CODE     ---       #84
      ---         BLOCKEND  ---      ---       LVL=0

      01003D1CH   BLOCK     CODE     ---       LVL=0
      01003D1CH   LINE      CODE     ---       #87
      01003D1CH   LINE      CODE     ---       #88
      01003D1CH   LINE      CODE     ---       #89
      ---         BLOCKEND  ---      ---       LVL=0

      01002C94H   BLOCK     CODE     ---       LVL=0
      01002C94H   BLOCK     CODE     NEAR LAB  LVL=1
      020001F2H   SYMBOL    XDATA    DWORD     t
      ---         BLOCKEND  ---      ---       LVL=1
      01002C94H   LINE      CODE     ---       #91
      01002C94H   LINE      CODE     ---       #92
      01002C94H   LINE      CODE     ---       #93
      01002CA2H   LINE      CODE     ---       #94
      01002CACH   LINE      CODE     ---       #95
      01002CACH   LINE      CODE     ---       #97
      01002CB5H   LINE      CODE     ---       #98
      01002CD9H   LINE      CODE     ---       #99
      01002CD9H   LINE      CODE     ---       #102
      01002CDCH   LINE      CODE     ---       #103
      01002CDCH   LINE      CODE     ---       #104
      01002CE5H   LINE      CODE     ---       #105
      01002CE7H   LINE      CODE     ---       #107
      01002CE7H   LINE      CODE     ---       #108
      01002CEFH   LINE      CODE     ---       #109
      01002CF2H   LINE      CODE     ---       #110
      01002CF2H   LINE      CODE     ---       #112
      01002CF4H   LINE      CODE     ---       #113
      ---         BLOCKEND  ---      ---       LVL=0

      0100394EH   BLOCK     CODE     ---       LVL=0
      0100394EH   LINE      CODE     ---       #119
      0100394EH   LINE      CODE     ---       #120
      0100394EH   LINE      CODE     ---       #121
      01003953H   LINE      CODE     ---       #124
      ---         BLOCKEND  ---      ---       LVL=0

      01002BCFH   BLOCK     CODE     ---       LVL=0
      020001F2H   SYMBOL    XDATA    ---       buf
      020001F5H   SYMBOL    XDATA    BYTE      len
      01002BDAH   BLOCK     CODE     NEAR LAB  LVL=1
      020001F6H   SYMBOL    XDATA    BYTE      i
      ---         BLOCKEND  ---      ---       LVL=1
      01002BCFH   LINE      CODE     ---       #128
      01002BDAH   LINE      CODE     ---       #129
      01002BDAH   LINE      CODE     ---       #130
      01002BDDH   LINE      CODE     ---       #131
      01002BE7H   LINE      CODE     ---       #132
      01002BE7H   LINE      CODE     ---       #133
      01002C08H   LINE      CODE     ---       #134
      01002C0FH   LINE      CODE     ---       #135
      01002C0FH   LINE      CODE     ---       #138
      01002C2AH   LINE      CODE     ---       #139
      01002C2FH   LINE      CODE     ---       #140
      01002C2FH   LINE      CODE     ---       #141
LX51 LINKER/LOCATER V4.66.30.0                                                        03/29/2016  00:06:41  PAGE 185


      01002C31H   LINE      CODE     ---       #142
      ---         BLOCKEND  ---      ---       LVL=0

      01003719H   BLOCK     CODE     ---       LVL=0
      01003719H   LINE      CODE     ---       #145
      01003719H   LINE      CODE     ---       #146
      01003719H   LINE      CODE     ---       #147
      ---         BLOCKEND  ---      ---       LVL=0

      010019E9H   BLOCK     CODE     ---       LVL=0
      020001F2H   SYMBOL    XDATA    ---       dest
      020001F5H   SYMBOL    XDATA    ---       handle
      010019EFH   BLOCK     CODE     NEAR LAB  LVL=1
      020001F8H   SYMBOL    XDATA    ---       res
      020001FCH   SYMBOL    XDATA    ---       k
      02000200H   SYMBOL    XDATA    WORD      keyslot
      ---         BLOCKEND  ---      ---       LVL=1
      010019E9H   LINE      CODE     ---       #153
      010019EFH   LINE      CODE     ---       #154
      010019EFH   LINE      CODE     ---       #157
      010019FCH   LINE      CODE     ---       #158
      01001A04H   LINE      CODE     ---       #159
      01001A04H   LINE      CODE     ---       #160
      01001A07H   LINE      CODE     ---       #161
      01001A07H   LINE      CODE     ---       #162
      01001A14H   LINE      CODE     ---       #163
      01001A14H   LINE      CODE     ---       #164
      01001A19H   LINE      CODE     ---       #165
      01001A1BH   LINE      CODE     ---       #167
      01001A1BH   LINE      CODE     ---       #168
      01001A22H   LINE      CODE     ---       #169
      01001A22H   LINE      CODE     ---       #172
      01001A3DH   LINE      CODE     ---       #175
      01001A4AH   LINE      CODE     ---       #176
      01001A4AH   LINE      CODE     ---       #177
      01001A67H   LINE      CODE     ---       #183
      01001A9BH   LINE      CODE     ---       #185
      01001A9BH   LINE      CODE     ---       #186
      01001A9EH   LINE      CODE     ---       #187
      01001A9EH   LINE      CODE     ---       #188
      01001A9EH   LINE      CODE     ---       #190
      01001AAAH   LINE      CODE     ---       #192
      01001AACH   LINE      CODE     ---       #193
      ---         BLOCKEND  ---      ---       LVL=0

      010023DEH   BLOCK     CODE     ---       LVL=0
      020001F2H   SYMBOL    XDATA    ---       handle
      020001F5H   SYMBOL    XDATA    ---       pubkey
      010023E4H   BLOCK     CODE     NEAR LAB  LVL=1
      020001F8H   SYMBOL    XDATA    ---       res
      020001FCH   SYMBOL    XDATA    ---       k
      02000200H   SYMBOL    XDATA    BYTE      keyslot
      ---         BLOCKEND  ---      ---       LVL=1
      010023DEH   LINE      CODE     ---       #196
      010023E4H   LINE      CODE     ---       #197
      010023E4H   LINE      CODE     ---       #200
      010023ECH   LINE      CODE     ---       #201
      010023F1H   LINE      CODE     ---       #202
      010023F1H   LINE      CODE     ---       #203
      010023F4H   LINE      CODE     ---       #204
      010023F4H   LINE      CODE     ---       #207
      01002418H   LINE      CODE     ---       #210
LX51 LINKER/LOCATER V4.66.30.0                                                        03/29/2016  00:06:41  PAGE 186


      01002424H   LINE      CODE     ---       #212
      01002432H   LINE      CODE     ---       #213
      01002440H   LINE      CODE     ---       #214
      01002440H   LINE      CODE     ---       #216
      01002445H   LINE      CODE     ---       #217
      0100244AH   LINE      CODE     ---       #218
      0100244AH   LINE      CODE     ---       #219
      01002463H   LINE      CODE     ---       #220
      01002469H   LINE      CODE     ---       #221
      0100246CH   LINE      CODE     ---       #223
      0100246EH   LINE      CODE     ---       #224
      ---         BLOCKEND  ---      ---       LVL=0

      01002CF5H   BLOCK     CODE     ---       LVL=0
      020001B0H   SYMBOL    XDATA    ---       handle
      020001B3H   SYMBOL    XDATA    BYTE      len
      01002D00H   BLOCK     CODE     NEAR LAB  LVL=1
      020001B4H   SYMBOL    XDATA    ---       k
      00000007H   SYMBOL    DATA     BYTE      keyslot
      ---         BLOCKEND  ---      ---       LVL=1
      01002CF5H   LINE      CODE     ---       #226
      01002D00H   LINE      CODE     ---       #227
      01002D00H   LINE      CODE     ---       #229
      01002D05H   LINE      CODE     ---       #230
      01002D0AH   LINE      CODE     ---       #231
      01002D0AH   LINE      CODE     ---       #232
      01002D0DH   LINE      CODE     ---       #233
      01002D0DH   LINE      CODE     ---       #234
      01002D18H   LINE      CODE     ---       #240
      01002D4FH   LINE      CODE     ---       #242
      01002D4FH   LINE      CODE     ---       #243
      01002D52H   LINE      CODE     ---       #244
      01002D52H   LINE      CODE     ---       #245
      01002D54H   LINE      CODE     ---       #246
      ---         BLOCKEND  ---      ---       LVL=0

      01002705H   BLOCK     CODE     ---       LVL=0
      01002705H   BLOCK     CODE     NEAR LAB  LVL=1
      020001B0H   SYMBOL    XDATA    ---       res
      ---         BLOCKEND  ---      ---       LVL=1
      01002705H   LINE      CODE     ---       #248
      01002705H   LINE      CODE     ---       #249
      01002705H   LINE      CODE     ---       #252
      0100271BH   LINE      CODE     ---       #254
      0100277EH   LINE      CODE     ---       #255
      ---         BLOCKEND  ---      ---       LVL=0

      01003CECH   BLOCK     CODE     ---       LVL=0
      01003CECH   LINE      CODE     ---       #280
      01003CECH   LINE      CODE     ---       #281
      01003CECH   LINE      CODE     ---       #282
      01003CF2H   LINE      CODE     ---       #283
      ---         BLOCKEND  ---      ---       LVL=0

      01000076H   BLOCK     CODE     ---       LVL=0
      01000076H   LINE      CODE     ---       #286
      01000076H   LINE      CODE     ---       #287
      01000076H   LINE      CODE     ---       #288
      0100007AH   LINE      CODE     ---       #289
      ---         BLOCKEND  ---      ---       LVL=0
      00000006H   SYMBOL    DATA     WORD      len

LX51 LINKER/LOCATER V4.66.30.0                                                        03/29/2016  00:06:41  PAGE 187


      ---         MODULE    ---      ---       ?C_INIT
      010024B6H   PUBLIC    CODE     ---       ?C_START

      ---         MODULE    ---      ---       ?C?COPY
      0100014EH   PUBLIC    CODE     ---       ?C?COPY

      ---         MODULE    ---      ---       ?C?CLDPTR
      01000174H   PUBLIC    CODE     ---       ?C?CLDPTR

      ---         MODULE    ---      ---       ?C?CLDOPTR
      0100018DH   PUBLIC    CODE     ---       ?C?CLDOPTR

      ---         MODULE    ---      ---       ?C?CSTPTR
      010001BAH   PUBLIC    CODE     ---       ?C?CSTPTR

      ---         MODULE    ---      ---       ?C?CSTOPTR
      010001CCH   PUBLIC    CODE     ---       ?C?CSTOPTR

      ---         MODULE    ---      ---       ?C?IILDX
      010001EEH   PUBLIC    CODE     ---       ?C?IILDX

      ---         MODULE    ---      ---       ?C?ILDIX
      01000204H   PUBLIC    CODE     ---       ?C?ILDIX

      ---         MODULE    ---      ---       ?C?ILDPTR
      0100021AH   PUBLIC    CODE     ---       ?C?ILDPTR

      ---         MODULE    ---      ---       ?C?ILDOPTR
      01000245H   PUBLIC    CODE     ---       ?C?ILDOPTR

      ---         MODULE    ---      ---       ?C?ISTPTR
      0100027DH   PUBLIC    CODE     ---       ?C?ISTPTR

      ---         MODULE    ---      ---       ?C?ISTOPTR
      0100029CH   PUBLIC    CODE     ---       ?C?ISTOPTR

      ---         MODULE    ---      ---       ?C?LADD
      010002C9H   PUBLIC    CODE     ---       ?C?LADD

      ---         MODULE    ---      ---       ?C?ULDIV
      01000312H   PUBLIC    CODE     ---       ?C?ULDIV

      ---         MODULE    ---      ---       ?C?LOR
      010003A4H   PUBLIC    CODE     ---       ?C?LOR

      ---         MODULE    ---      ---       ?C?ULCMP
      010003B1H   PUBLIC    CODE     ---       ?C?ULCMP

      ---         MODULE    ---      ---       ?C?ULSHR
      010003C2H   PUBLIC    CODE     ---       ?C?ULSHR

      ---         MODULE    ---      ---       ?C?LSHL
      010003D5H   PUBLIC    CODE     ---       ?C?LSHL

      ---         MODULE    ---      ---       ?C?LLDPTR
      010003E8H   PUBLIC    CODE     ---       ?C?LLDPTR

      ---         MODULE    ---      ---       ?C?LSTPTR
      01000408H   PUBLIC    CODE     ---       ?C?LSTPTR

      ---         MODULE    ---      ---       ?C?LSTOPTR
      01000422H   PUBLIC    CODE     ---       ?C?LSTOPTR
LX51 LINKER/LOCATER V4.66.30.0                                                        03/29/2016  00:06:41  PAGE 188



      ---         MODULE    ---      ---       ?C?LLDXDATA
      01000446H   PUBLIC    CODE     ---       ?C?LLDXDATA

      ---         MODULE    ---      ---       ?C?LLDXDATA0
      01000452H   PUBLIC    CODE     ---       ?C?LLDXDATA0

      ---         MODULE    ---      ---       ?C?LLDOPTR0
      0100045EH   PUBLIC    CODE     ---       ?C?LLDOPTR0

      ---         MODULE    ---      ---       ?C?LSTXDATA
      0100048EH   PUBLIC    CODE     ---       ?C?LSTXDATA

      ---         MODULE    ---      ---       ?C?LSTKXDATA
      0100049AH   PUBLIC    CODE     ---       ?C?LSTKXDATA

      ---         MODULE    ---      ---       ?C?PLDXDATA
      010004CBH   PUBLIC    CODE     ---       ?C?PLDXDATA

      ---         MODULE    ---      ---       ?C?PLDIXDATA
      010004D4H   PUBLIC    CODE     ---       ?C?PLDIXDATA

      ---         MODULE    ---      ---       ?C?PSTXDATA
      010004EBH   PUBLIC    CODE     ---       ?C?PSTXDATA

      ---         MODULE    ---      ---       ?C?PLDPTR
      010004F4H   PUBLIC    CODE     ---       ?C?PLDPTR

      ---         MODULE    ---      ---       ?C?PILDPTR
      01000514H   PUBLIC    CODE     ---       ?C?PILDPTR

      ---         MODULE    ---      ---       ?C?PLDOPTR
      01000536H   PUBLIC    CODE     ---       ?C?PLDOPTR

      ---         MODULE    ---      ---       ?C?PSTOPTR
      01000566H   PUBLIC    CODE     ---       ?C?PSTOPTR

      ---         MODULE    ---      ---       ?C?CCASE
      010005BFH   PUBLIC    CODE     ---       ?C?CCASE

      ---         MODULE    ---      ---       ?C?MEMSET
      010005E5H   PUBLIC    CODE     ---       ?C?MEMSET

      ---         MODULE    ---      ---       ?C?MEMMOVE
      0100078BH   PUBLIC    CODE     ---       ?C?MEMMOVE

      ---         MODULE    ---      ---       ?C?LLDIDATA
      010007B3H   PUBLIC    CODE     ---       ?C?LLDIDATA

      ---         MODULE    ---      ---       ?C?LLDPDATA
      010007BFH   PUBLIC    CODE     ---       ?C?LLDPDATA

      ---         MODULE    ---      ---       ?C?LLDCODE
      010007CBH   PUBLIC    CODE     ---       ?C?LLDCODE

      ---         MODULE    ---      ---       ?C?LLDIDATA0
      010007DBH   PUBLIC    CODE     ---       ?C?LLDIDATA0

      ---         MODULE    ---      ---       ?C?LLDPDATA0
      010007E8H   PUBLIC    CODE     ---       ?C?LLDPDATA0

      ---         MODULE    ---      ---       ?C?LLDCODE0
LX51 LINKER/LOCATER V4.66.30.0                                                        03/29/2016  00:06:41  PAGE 189


      010007F5H   PUBLIC    CODE     ---       ?C?LLDCODE0

      ---         MODULE    ---      ---       ?C?LSTIDATA
      01000805H   PUBLIC    CODE     ---       ?C?LSTIDATA

      ---         MODULE    ---      ---       ?C?LSTPDATA
      01000811H   PUBLIC    CODE     ---       ?C?LSTPDATA

      ---         MODULE    ---      ---       ?C?PLDIDATA
      0100081DH   PUBLIC    CODE     ---       ?C?PLDIDATA

      ---         MODULE    ---      ---       ?C?PILDIDATA
      01000826H   PUBLIC    CODE     ---       ?C?PILDIDATA

      ---         MODULE    ---      ---       ?C?PSTIDATA
      01000836H   PUBLIC    CODE     ---       ?C?PSTIDATA

      ---         MODULE    ---      ---       ?C?PILDXDATA
      0100083FH   PUBLIC    CODE     ---       ?C?PILDXDATA

      ---         MODULE    ---      ---       ?C?PLDPDATA
      01000856H   PUBLIC    CODE     ---       ?C?PLDPDATA

      ---         MODULE    ---      ---       ?C?PILDPDATA
      0100085FH   PUBLIC    CODE     ---       ?C?PILDPDATA

      ---         MODULE    ---      ---       ?C?PSTPDATA
      0100086FH   PUBLIC    CODE     ---       ?C?PSTPDATA

      ---         MODULE    ---      ---       ?C?PLDCODE
      01000878H   PUBLIC    CODE     ---       ?C?PLDCODE



*** WARNING L15: MULTIPLE CALL TO FUNCTION
    NAME:    _U2F_PRINTB/BSP
    CALLER1: SMBUS0_ISR/INTERRUPTS
    CALLER2: ?C_C51STARTUP

*** WARNING L15: MULTIPLE CALL TO FUNCTION
    NAME:    _U2F_PRINTS/BSP
    CALLER1: SMBUS0_ISR/INTERRUPTS
    CALLER2: ?C_C51STARTUP

*** WARNING L15: MULTIPLE CALL TO FUNCTION
    NAME:    ___INT2STR16/BSP
    CALLER1: SMBUS0_ISR/INTERRUPTS
    CALLER2: ?C_C51STARTUP

*** WARNING L15: MULTIPLE CALL TO FUNCTION
    NAME:    _INT2STR_MAP_16/BSP
    CALLER1: SMBUS0_ISR/INTERRUPTS
    CALLER2: ?C_C51STARTUP

*** WARNING L15: MULTIPLE CALL TO FUNCTION
    NAME:    _USB_WRITEFIFO/EFM8_USBDEP
    CALLER1: ?C_C51STARTUP
    CALLER2: USBIRQHANDLER/EFM8_USBDINT

*** WARNING L15: MULTIPLE CALL TO FUNCTION
    NAME:    ___INT2STR16/BSP
    CALLER1: ?C_C51STARTUP
LX51 LINKER/LOCATER V4.66.30.0                                                        03/29/2016  00:06:41  PAGE 190


    CALLER2: USBIRQHANDLER/EFM8_USBDINT

*** WARNING L15: MULTIPLE CALL TO FUNCTION
    NAME:    _INT2STR_MAP_16/BSP
    CALLER1: ?C_C51STARTUP
    CALLER2: USBIRQHANDLER/EFM8_USBDINT

*** WARNING L15: MULTIPLE CALL TO FUNCTION
    NAME:    _U2F_PRINTS/BSP
    CALLER1: ?C_C51STARTUP
    CALLER2: USBIRQHANDLER/EFM8_USBDINT

*** WARNING L15: MULTIPLE CALL TO FUNCTION
    NAME:    _USBD_WRITE/EFM8_USBD
    CALLER1: ?C_C51STARTUP
    CALLER2: USBIRQHANDLER/EFM8_USBDINT

*** WARNING L25: DATA TYPES DIFFERENT
    SYMBOL:  _u2f_delay
    MODULE:  ./src/atecc508a.OBJ (ATECC508A)
   DEFINED:  ./src/bsp.OBJ (BSP)

Program Size: data=102.7 xdata=918 const=539 code=15645
LX51 RUN COMPLETE.  10 WARNING(S),  0 ERROR(S)
