LX51 LINKER/LOCATER V4.66.30.0                                                          01/21/2016  23:03:23  PAGE 1


LX51 LINKER/LOCATER V4.66.30.0, INVOKED BY:
Z:\HOME\PP\SIMPLICITYSTUDIO_V3\DEVELOPER\TOOLCHAINS\KEIL_8051\9.53\BIN\LX51.EXE ./src/InitDevice.OBJ, ./src/SILABS_START
>> UP.OBJ, ./src/callback.OBJ, ./src/descriptors.OBJ, ./src/idle.OBJ, ./src/u2f-firmware_main.OBJ, ./lib/efm8ub1/periphe
>> ralDrivers/src/usb_0.OBJ, ./lib/efm8_usb/src/efm8_usbd.OBJ, ./lib/efm8_usb/src/efm8_usbdch9.OBJ, ./lib/efm8_usb/src/e
>> fm8_usbdep.OBJ, ./lib/efm8_usb/src/efm8_usbdint.OBJ, ./lib/efm8_assert/assert.OBJ TO U2F-FIRMWARE.OMF.CRBUILD REMOVEU
>> NUSED PRINT (.\u2f-firmware.m51) PAGEWIDTH (120) PAGELENGTH (65) CLASSES (CODE (C:0X0-C:0X3FFE), CONST (C:0X0-C:0X3FF
>> E), ECODE (C:0X0-C:0X3FFE), HCONST (C:0X0-C:0X3FFE), XDATA (X:0X0-X:0X3FF), HDATA (X:0X0-X:0X3FF))


CPU MODE:     8051 MODE
MEMORY MODEL: SMALL


INPUT MODULES INCLUDED:
  ./src/InitDevice.OBJ (INITDEVICE)
         COMMENT TYPE 0: C51 V9.53.0.0
  ./src/SILABS_STARTUP.OBJ (?C_STARTUP)
         COMMENT TYPE 0: AX51 V3.12.0.0
  ./src/callback.OBJ (CALLBACK)
         COMMENT TYPE 0: C51 V9.53.0.0
  ./src/descriptors.OBJ (DESCRIPTORS)
         COMMENT TYPE 0: C51 V9.53.0.0
  ./src/idle.OBJ (IDLE)
         COMMENT TYPE 0: C51 V9.53.0.0
  ./src/u2f-firmware_main.OBJ (U2F_FIRMWARE_MAIN)
         COMMENT TYPE 0: C51 V9.53.0.0
  ./lib/efm8ub1/peripheralDrivers/src/usb_0.OBJ (USB_0)
         COMMENT TYPE 0: C51 V9.53.0.0
  ./lib/efm8_usb/src/efm8_usbd.OBJ (EFM8_USBD)
         COMMENT TYPE 0: C51 V9.53.0.0
  ./lib/efm8_usb/src/efm8_usbdch9.OBJ (EFM8_USBDCH9)
         COMMENT TYPE 0: C51 V9.53.0.0
  ./lib/efm8_usb/src/efm8_usbdep.OBJ (EFM8_USBDEP)
         COMMENT TYPE 0: C51 V9.53.0.0
  ./lib/efm8_usb/src/efm8_usbdint.OBJ (EFM8_USBDINT)
         COMMENT TYPE 0: C51 V9.53.0.0
  ./lib/efm8_assert/assert.OBJ (ASSERT)
         COMMENT TYPE 0: C51 V9.53.0.0
  /HOME/PP/SIMPLICITYSTUDIO_V3/DEVELOPER/TOOLCHAINS/KEIL_8051/9.53/LIB\C51S.LIB (?C_INIT)
         COMMENT TYPE 1: A51 / ASM51 Assembler
  /HOME/PP/SIMPLICITYSTUDIO_V3/DEVELOPER/TOOLCHAINS/KEIL_8051/9.53/LIB\C51S.LIB (?C?CLDPTR)
         COMMENT TYPE 1: A51 / ASM51 Assembler
  /HOME/PP/SIMPLICITYSTUDIO_V3/DEVELOPER/TOOLCHAINS/KEIL_8051/9.53/LIB\C51S.LIB (?C?CLDOPTR)
         COMMENT TYPE 1: A51 / ASM51 Assembler
  /HOME/PP/SIMPLICITYSTUDIO_V3/DEVELOPER/TOOLCHAINS/KEIL_8051/9.53/LIB\C51S.LIB (?C?ILDOPTR)
         COMMENT TYPE 1: A51 / ASM51 Assembler
  /HOME/PP/SIMPLICITYSTUDIO_V3/DEVELOPER/TOOLCHAINS/KEIL_8051/9.53/LIB\C51S.LIB (?C?PLDPTR)
         COMMENT TYPE 1: A51 / ASM51 Assembler
  /HOME/PP/SIMPLICITYSTUDIO_V3/DEVELOPER/TOOLCHAINS/KEIL_8051/9.53/LIB\C51S.LIB (?C?PLDOPTR)
         COMMENT TYPE 1: A51 / ASM51 Assembler
  /HOME/PP/SIMPLICITYSTUDIO_V3/DEVELOPER/TOOLCHAINS/KEIL_8051/9.53/LIB\C51S.LIB (PRINTF)
         COMMENT TYPE 1: A51 / ASM51 Assembler
  /HOME/PP/SIMPLICITYSTUDIO_V3/DEVELOPER/TOOLCHAINS/KEIL_8051/9.53/LIB\C51S.LIB (?C?CSTPTR)
         COMMENT TYPE 1: A51 / ASM51 Assembler
  /HOME/PP/SIMPLICITYSTUDIO_V3/DEVELOPER/TOOLCHAINS/KEIL_8051/9.53/LIB\C51S.LIB (?C?PLDIDATA)
         COMMENT TYPE 1: A51 / ASM51 Assembler
  /HOME/PP/SIMPLICITYSTUDIO_V3/DEVELOPER/TOOLCHAINS/KEIL_8051/9.53/LIB\C51S.LIB (?C?PLDIIDATA)
         COMMENT TYPE 1: A51 / ASM51 Assembler
  /HOME/PP/SIMPLICITYSTUDIO_V3/DEVELOPER/TOOLCHAINS/KEIL_8051/9.53/LIB\C51S.LIB (?C?PLDXDATA)
         COMMENT TYPE 1: A51 / ASM51 Assembler
  /HOME/PP/SIMPLICITYSTUDIO_V3/DEVELOPER/TOOLCHAINS/KEIL_8051/9.53/LIB\C51S.LIB (?C?PLDPDATA)
         COMMENT TYPE 1: A51 / ASM51 Assembler
  /HOME/PP/SIMPLICITYSTUDIO_V3/DEVELOPER/TOOLCHAINS/KEIL_8051/9.53/LIB\C51S.LIB (?C?PLDCODE)
LX51 LINKER/LOCATER V4.66.30.0                                                        01/21/2016  23:03:23  PAGE 2


         COMMENT TYPE 1: A51 / ASM51 Assembler
  /HOME/PP/SIMPLICITYSTUDIO_V3/DEVELOPER/TOOLCHAINS/KEIL_8051/9.53/LIB\C51S.LIB (?C?CCASE)
         COMMENT TYPE 1: A51 / ASM51 Assembler
  /HOME/PP/SIMPLICITYSTUDIO_V3/DEVELOPER/TOOLCHAINS/KEIL_8051/9.53/LIB\C51S.LIB (PUTCHAR)
         COMMENT TYPE 1: A51 / ASM51 Assembler


ACTIVE MEMORY CLASSES OF MODULE:  U2F-FIRMWARE.OMF.CRBUILD (INITDEVICE)

BASE        START       END         USED      MEMORY CLASS
==========================================================
C:000000H   C:000000H   C:003FFEH   001A21H   CODE
C:000000H   C:000000H   C:003FFEH   0000D5H   CONST
C:000000H   C:000000H   C:003FFEH             ECODE
B00:0000H   C:000000H   C:003FFEH             HCONST
X:000000H   X:000000H   X:0003FFH             XDATA
X:000000H   X:000000H   X:0003FFH             HDATA
I:000000H   I:000000H   I:00007FH   000046H   DATA
I:000000H   I:000000H   I:0000FFH   000025H   IDATA
I:000020H.0 I:000020H.0 I:00002FH.7 000002H.6 BIT


MEMORY MAP OF MODULE:  U2F-FIRMWARE.OMF.CRBUILD (INITDEVICE)


START     STOP      LENGTH    ALIGN  RELOC    MEMORY CLASS   SEGMENT NAME
=========================================================================

* * * * * * * * * * *   D A T A   M E M O R Y   * * * * * * * * * * * * *
000000H   000007H   000008H   ---    AT..     DATA           "REG BANK 0"
000008H   00000AH   000003H   BYTE   UNIT     DATA           ?DT?IDLE
00000BH   00000CH   000002H   BYTE   UNIT     DATA           ?DT?EFM8_USBDCH9
00000DH   00000DH   000001H   BYTE   UNIT     DATA           ?DT?CALLBACK
00000EH   00000EH   000001H   BYTE   UNIT     DATA           ?DT?U2F_FIRMWARE_MAIN
00000FH.0 00001FH.7 000011H.0 ---    ---      **GAP**
000020H.0 000022H.3 000002H.4 BIT    UNIT     BIT            _BIT_GROUP_
000022H.4 000022H.4 000000H.1 BIT    UNIT     BIT            ?BI?CALLBACK
000022H.5 000022H.5 000000H.1 BIT    UNIT     BIT            ?BI?U2F_FIRMWARE_MAIN
000022H.6 000022H   000000H.2 ---    ---      **GAP**
000023H   000059H   000037H   BYTE   UNIT     DATA           _DATA_GROUP_
00005AH   00007DH   000024H   BYTE   UNIT     IDATA          ?ID?EFM8_USBD
00007EH   00007EH   000001H   BYTE   UNIT     IDATA          ?STACK

* * * * * * * * * * *   C O D E   M E M O R Y   * * * * * * * * * * * * *
000000H   000002H   000003H   ---    OFFS..   CODE           ?CO?SILABS_STARTUP?3
000003H   000042H   000040H   BYTE   UNIT     CODE           ?PR?USB_READFIFOSETUP?EFM8_USBDINT
000043H   000045H   000003H   BYTE   OFFS..   CODE           ?U2F_FIRMWARE_MAIN?00043
000046H   00007AH   000035H   BYTE   UNIT     CODE           ?PR?EFM8_USBDINT
00007BH   00007DH   000003H   BYTE   OFFS..   CODE           ?EFM8_USBDINT?0007B
00007EH   0003D9H   00035CH   BYTE   UNIT     CODE           ?PR?PRINTF?PRINTF
0003DAH   00058CH   0001B3H   BYTE   UNIT     CODE           ?PR?_USBD_SETUPCMDCB?CALLBACK
00058DH   0006C9H   00013DH   BYTE   UNIT     CODE           ?C?LIB_CODE
0006CAH   0007C2H   0000F9H   BYTE   UNIT     CODE           ?PR?GETDESCRIPTOR?EFM8_USBDCH9
0007C3H   00089EH   0000DCH   BYTE   UNIT     CODE           ?PR?HANDLEUSBEP0TX?EFM8_USBDINT
00089FH   000977H   0000D9H   BYTE   UNIT     CODE           ?CO?CALLBACK
000978H   000A39H   0000C2H   BYTE   UNIT     CODE           ?PR?_USBD_WRITE?EFM8_USBD
000A3AH   000AE3H   0000AAH   BYTE   UNIT     CODE           ?PR?USBIRQHANDLER?EFM8_USBDINT
000AE4H   000B8BH   0000A8H   BYTE   UNIT     CODE           ?PR?HANDLEUSBIN1INT?EFM8_USBDEP
000B8CH   000C2AH   00009FH   BYTE   UNIT     CODE           ?PR?SETCONFIGURATION?EFM8_USBDCH9
000C2BH   000CC9H   00009FH   BYTE   UNIT     CODE           ?PR?HANDLEUSBEP0INT?EFM8_USBDINT
000CCAH   000D5BH   000092H   BYTE   UNIT     CODE           ?PR?GETSTATUS?EFM8_USBDCH9
000D5CH   000DE9H   00008EH   BYTE   UNIT     CODE           ?PR?_USBD_READ?EFM8_USBD
LX51 LINKER/LOCATER V4.66.30.0                                                        01/21/2016  23:03:23  PAGE 3


000DEAH   000E75H   00008CH   BYTE   UNIT     CODE           ?C_C51STARTUP
000E76H   000F01H   00008CH   BYTE   UNIT     CODE           ?PR?_USBD_INIT?EFM8_USBD
000F02H   000F89H   000088H   BYTE   UNIT     CODE           ?PR?USBDCH9_SETUPCMD?EFM8_USBDCH9
000F8AH   001010H   000087H   BYTE   UNIT     CODE           ?PR?_USB_ACTIVATEEP?USB_0
001011H   001097H   000087H   BYTE   UNIT     CODE           ?PR?HANDLEUSBEP0RX?EFM8_USBDINT
001098H   001103H   00006CH   BYTE   UNIT     CODE           ?PR?CLEARFEATURE?EFM8_USBDCH9
001104H   00116DH   00006AH   BYTE   UNIT     CODE           ?PR?_USB_WRITEFIFO?EFM8_USBDEP
00116EH   0011D4H   000067H   BYTE   UNIT     CODE           ?PR?SETFEATURE?EFM8_USBDCH9
0011D5H   001234H   000060H   BYTE   UNIT     CODE           ?PR?USBD_SUSPEND?EFM8_USBD
001235H   001293H   00005FH   BYTE   UNIT     CODE           ?PR?SETADDRESS?EFM8_USBDCH9
001294H   0012F0H   00005DH   BYTE   UNIT     CODE           ?PR?_USBD_ABORTTRANSFER?EFM8_USBD
0012F1H   001341H   000051H   BYTE   UNIT     CODE           ?CO?EFM8_USBD
001342H   001390H   00004FH   BYTE   UNIT     CODE           ?PR?CALLBACK
001391H   0013DEH   00004EH   BYTE   UNIT     CODE           ?PR?_USBD_DEVICESTATECHANGECB?CALLBACK
0013DFH   001425H   000047H   BYTE   UNIT     CODE           ?PR?GETCONFIGURATION?EFM8_USBDCH9
001426H   001467H   000042H   BYTE   UNIT     CODE           ?PR?_USBD_SOFCB?CALLBACK
001468H   0014A5H   00003EH   BYTE   UNIT     CODE           ?PR?_USB_READFIFO?EFM8_USBDEP
0014A6H   0014E2H   00003DH   BYTE   UNIT     CODE           ?PR?MAIN?U2F_FIRMWARE_MAIN
0014E3H   00151DH   00003BH   BYTE   UNIT     CODE           ?PR?GETINTERFACE?EFM8_USBDCH9
00151EH   001551H   000034H   BYTE   UNIT     CODE           ?PR?_USB_ABORTINEP?USB_0
001552H   001584H   000033H   BYTE   UNIT     CODE           ?PR?EFM8_USBD
001585H   0015B5H   000031H   BYTE   UNIT     CODE           ?PR?SETINTERFACE?EFM8_USBDCH9
0015B6H   0015E6H   000031H   BYTE   UNIT     CODE           ?PR?HANDLEUSBRESETINT?EFM8_USBDINT
0015E7H   001616H   000030H   BYTE   UNIT     CODE           ?PR?_USBD_SETUSBSTATE?EFM8_USBD
001617H   001640H   00002AH   BYTE   UNIT     CODE           ?PR?_USBD_XFERCOMPLETECB?CALLBACK
001641H   001668H   000028H   BYTE   UNIT     CODE           ?PR?ENTER_DEFAULTMODE_FROM_RESET?INITDEVICE
001669H   00168FH   000027H   BYTE   UNIT     CODE           ?PR?PUTCHAR?PUTCHAR
001690H   0016B5H   000026H   BYTE   UNIT     CODE           ?PR?_DELAY?U2F_FIRMWARE_MAIN
0016B6H   0016DBH   000026H   BYTE   UNIT     CODE           ?PR?USBD_ABORTALLTRANSFERS?EFM8_USBD
0016DCH   001701H   000026H   BYTE   UNIT     CODE           ?PR?EFM8_USBDCH9
001702H   001724H   000023H   BYTE   UNIT     CODE           ?PR?_USB_GETSHORTREGISTER?USB_0
001725H   001745H   000021H   BYTE   UNIT     CODE           ?PR?_USB_READFIFO_XDATA?EFM8_USBDEP
001746H   001764H   00001FH   BYTE   UNIT     CODE           ?PR?_USB_READFIFO_PDATA?EFM8_USBDEP
001765H   001781H   00001DH   BYTE   UNIT     CODE           ?PR?USB_SUSPENDOSCILLATOR?USB_0
001782H   00179EH   00001DH   BYTE   UNIT     CODE           ?PR?_EP0_WRITE?EFM8_USBDCH9
00179FH   0017BBH   00001DH   BYTE   UNIT     CODE           ?PR?_USB_READFIFO_IDATA?EFM8_USBDEP
0017BCH   0017D5H   00001AH   BYTE   UNIT     CODE           ?PR?IDLETIMERSTART?IDLE
0017D6H   0017ECH   000017H   BYTE   UNIT     CODE           ?CO?U2F_FIRMWARE_MAIN
0017EDH   001803H   000017H   BYTE   UNIT     CODE           ?PR?_USB_WRITEFIFO_CODE?EFM8_USBDEP
001804H   001819H   000016H   BYTE   UNIT     CODE           ?PR?USBD_ACTIVATEALLEPS?EFM8_USBDCH9
00181AH   00182FH   000016H   BYTE   UNIT     CODE           ?PR?_USB_WRITEFIFO_XDATA?EFM8_USBDEP
001830H   001844H   000015H   BYTE   UNIT     CODE           ?PR?PORTS_0_ENTER_DEFAULTMODE_FROM_RESET?INITDEVICE
001845H   001859H   000015H   BYTE   UNIT     CODE           ?PR?USBD_CONNECT?EFM8_USBD
00185AH   00186EH   000015H   BYTE   UNIT     CODE           ?PR?SENDEP0STALL?EFM8_USBDINT
00186FH   001882H   000014H   BYTE   UNIT     CODE           ?PR?IDLETIMERTICK?IDLE
001883H   001896H   000014H   BYTE   UNIT     CODE           ?PR?_USB_WRITEFIFO_IDATA?EFM8_USBDEP
001897H   0018AAH   000014H   BYTE   UNIT     CODE           ?PR?_USB_WRITEFIFO_PDATA?EFM8_USBDEP
0018ABH   0018BDH   000013H   BYTE   UNIT     CODE           ?PR?TIMER01_0_ENTER_DEFAULTMODE_FROM_RESET?INITDEVICE
0018BEH   0018CFH   000012H   BYTE   UNIT     CODE           ?PR?_IDLETIMERSET?IDLE
0018D0H   0018E0H   000011H   BYTE   UNIT     CODE           ?PR?HANDLEUSBSUSPENDINT?EFM8_USBDINT
0018E1H   0018EEH   00000EH   BYTE   UNIT     CODE           ?PR?CLOCK_0_ENTER_DEFAULTMODE_FROM_RESET?INITDEVICE
0018EFH   0018FBH   00000DH   BYTE   UNIT     CODE           ?PR?ISIDLETIMEREXPIRED?IDLE
0018FCH   001908H   00000DH   BYTE   UNIT     CODE           ?PR?USB_ISSUSPENDED?USB_0
001909H   001915H   00000DH   BYTE   UNIT     CODE           ?PR?USB_GETSETUPEND?USB_0
001916H   001922H   00000DH   BYTE   UNIT     CODE           ?PR?USB_EP0SENTSTALL?USB_0
001923H   00192FH   00000DH   BYTE   UNIT     CODE           ?PR?USB_EP0INPACKETREADY?USB_0
001930H   00193CH   00000DH   BYTE   UNIT     CODE           ?PR?USB_EPNINGETSENTSTALL?USB_0
00193DH   001948H   00000CH   BYTE   UNIT     CODE           ?PR?USB_EP0OUTPACKETREADY?USB_0
001949H   001953H   00000BH   BYTE   UNIT     CODE           ?PR?USBD_ISSELFPOWEREDCB?CALLBACK
001954H   00195EH   00000BH   BYTE   UNIT     CODE           ?PR?_USB_SETINDEX?USB_0
00195FH   001969H   00000BH   BYTE   UNIT     CODE           ?PR?USB_GETCOMMONINTS?USB_0
00196AH   001974H   00000BH   BYTE   UNIT     CODE           ?PR?USB_GETININTS?USB_0
LX51 LINKER/LOCATER V4.66.30.0                                                        01/21/2016  23:03:23  PAGE 4


001975H   00197FH   00000BH   BYTE   UNIT     CODE           ?PR?USB_GETOUTINTS?USB_0
001980H   00198AH   00000BH   BYTE   UNIT     CODE           ?PR?USB_GETINDEX?USB_0
00198BH   001995H   00000BH   BYTE   UNIT     CODE           ?PR?USB_EP0GETCOUNT?USB_0
001996H   00199FH   00000AH   BYTE   UNIT     CODE           ?PR?WDT_0_ENTER_DEFAULTMODE_FROM_RESET?INITDEVICE
0019A0H   0019A9H   00000AH   BYTE   UNIT     CODE           ?PR?TIMER_SETUP_0_ENTER_DEFAULTMODE_FROM_RESET?INITDEVICE
0019AAH   0019B2H   000009H   BYTE   UNIT     CODE           ?PR?USBLIB_0_ENTER_DEFAULTMODE_FROM_RESET?INITDEVICE
0019B3H   0019BBH   000009H   BYTE   UNIT     CODE           ?PR?USBD_RESETCB?CALLBACK
0019BCH   0019C3H   000008H   BYTE   UNIT     CODE           ?C_INITSEG
0019C4H   0019CBH   000008H   BYTE   UNIT     CODE           ?PR?USB_ISPREFETCHENABLED?USB_0
0019CCH   0019D3H   000008H   BYTE   UNIT     CODE           ?PR?USB_ISREGULATORENABLED?USB_0
0019D4H   0019DAH   000007H   BYTE   UNIT     CODE           ?PR?VREG_0_ENTER_DEFAULTMODE_FROM_RESET?INITDEVICE
0019DBH   0019E1H   000007H   BYTE   UNIT     CODE           ?PR?CIP51_0_ENTER_DEFAULTMODE_FROM_RESET?INITDEVICE
0019E2H   0019E8H   000007H   BYTE   UNIT     CODE           ?PR?INTERRUPT_0_ENTER_DEFAULTMODE_FROM_RESET?INITDEVICE
0019E9H   0019EFH   000007H   BYTE   UNIT     CODE           ?PR?PBCFG_0_ENTER_DEFAULTMODE_FROM_RESET?INITDEVICE
0019F0H   0019F6H   000007H   BYTE   UNIT     CODE           ?PR?ISIDLETIMERINDEFINITE?IDLE
0019F7H   0019FDH   000007H   BYTE   UNIT     CODE           ?PR?USB_GETINTSENABLED?USB_0
0019FEH   001A04H   000007H   BYTE   UNIT     CODE           ?PR?EFM8_USBDEP
001A05H   001A0BH   000007H   BYTE   UNIT     CODE           ?PR?HANDLEUSBRESUMEINT?EFM8_USBDINT
001A0CH   001A11H   000006H   BYTE   UNIT     CODE           ?PR?USB_GETSOFNUMBER?USB_0
001A12H   001A15H   000004H   BYTE   UNIT     CODE           ?PR?UART_0_ENTER_DEFAULTMODE_FROM_RESET?INITDEVICE
001A16H   001A18H   000003H   BYTE   UNIT     CODE           ?PR?IDLEGETRATE?IDLE
001A19H   001A1BH   000003H   BYTE   UNIT     CODE           ?PR?PMATCH_IRQHANDLER?U2F_FIRMWARE_MAIN
001A1CH   001A1DH   000002H   BYTE   UNIT     CODE           ?PR?_SLAB_ASSERT?ASSERT
001A1EH   001A1EH   000001H   BYTE   UNIT     CODE           ?PR?USBD_ENTERHANDLER?CALLBACK
001A1FH   001A1FH   000001H   BYTE   UNIT     CODE           ?PR?USBD_EXITHANDLER?CALLBACK
001A20H   001A20H   000001H   BYTE   UNIT     CODE           ?PR?FORCEMODULELOAD_USBINT?EFM8_USBDINT
001A21H   001AF3H   0000D3H   BYTE   UNIT     CONST          ?CO?DESCRIPTORS
001AF4H   001AF5H   000002H   BYTE   UNIT     CONST          ?CO?EFM8_USBDCH9

* * * * * * * * *   R E M O V E D     S E G M E N T S   * * * * * * * *
   *DEL*:           00000DH   BYTE   UNIT     CODE           ?PR?USB_EPNOUTGETSENTSTALL?USB_0
   *DEL*:           00000CH   BYTE   UNIT     CODE           ?PR?USB_EPNGETOUTPACKETREADY?USB_0
   *DEL*:           000006H   BYTE   UNIT     CODE           ?PR?USB_EPOUTGETCOUNT?USB_0
   *DEL*:           000034H   BYTE   UNIT     CODE           ?PR?_USB_ABORTOUTEP?USB_0
   *DEL*:           00000BH   BYTE   UNIT     CODE           ?PR?USBD_DISCONNECT?EFM8_USBD
   *DEL*:           000026H   BYTE   UNIT     CODE           ?PR?_USBD_EPISBUSY?EFM8_USBD
   *DEL*:           000001H   BYTE   UNIT     DATA           ?DT?_USBD_EPISBUSY?EFM8_USBD
   *DEL*:           000005H   BYTE   UNIT     CODE           ?PR?USBD_GETUSBSTATE?EFM8_USBD
   *DEL*:           000048H   BYTE   UNIT     CODE           ?PR?_USBD_STALLEP?EFM8_USBD
   *DEL*:           000002H   BYTE   UNIT     DATA           ?DT?_USBD_STALLEP?EFM8_USBD
   *DEL*:           000000H.1 BIT    UNIT     BIT            ?BI?_USBD_STALLEP?EFM8_USBD
   *DEL*:           00000BH   BYTE   UNIT     CODE           ?PR?USBD_STOP?EFM8_USBD
   *DEL*:           000048H   BYTE   UNIT     CODE           ?PR?_USBD_UNSTALLEP?EFM8_USBD
   *DEL*:           000002H   BYTE   UNIT     DATA           ?DT?_USBD_UNSTALLEP?EFM8_USBD
   *DEL*:           000000H.1 BIT    UNIT     BIT            ?BI?_USBD_UNSTALLEP?EFM8_USBD



OVERLAY MAP OF MODULE:   U2F-FIRMWARE.OMF.CRBUILD (INITDEVICE)


FUNCTION/MODULE                                BIT_GROUP   DATA_GROUP 
--> CALLED FUNCTION/MODULE                    START  STOP  START  STOP
======================================================================
?C_C51STARTUP                                 ----- -----  ----- -----
  +--> MAIN/U2F_FIRMWARE_MAIN
  +--> ?C_INITSEG

MAIN/U2F_FIRMWARE_MAIN                        ----- -----  0023H 0024H
  +--> ENTER_DEFAULTMODE_FROM_RESET/INITDEVICE
  +--> ?CO?U2F_FIRMWARE_MAIN
  +--> PRINTF/PRINTF
LX51 LINKER/LOCATER V4.66.30.0                                                        01/21/2016  23:03:23  PAGE 5


  +--> _DELAY/U2F_FIRMWARE_MAIN

ENTER_DEFAULTMODE_FROM_RESET/INITDEVICE       ----- -----  0025H 0025H
  +--> WDT_0_ENTER_DEFAULTMODE_FROM_RESET/INITDEVICE
  +--> VREG_0_ENTER_DEFAULTMODE_FROM_RESET/INITDEVICE
  +--> PORTS_0_ENTER_DEFAULTMODE_FROM_RESET/INITDEVICE
  +--> PBCFG_0_ENTER_DEFAULTMODE_FROM_RESET/INITDEVICE
  +--> CIP51_0_ENTER_DEFAULTMODE_FROM_RESET/INITDEVICE
  +--> CLOCK_0_ENTER_DEFAULTMODE_FROM_RESET/INITDEVICE
  +--> TIMER01_0_ENTER_DEFAULTMODE_FROM_RESET/INITDEVICE
  +--> TIMER_SETUP_0_ENTER_DEFAULTMODE_FROM_RESET/INITDEVICE
  +--> UART_0_ENTER_DEFAULTMODE_FROM_RESET/INITDEVICE
  +--> INTERRUPT_0_ENTER_DEFAULTMODE_FROM_RESET/INITDEVICE
  +--> USBLIB_0_ENTER_DEFAULTMODE_FROM_RESET/INITDEVICE

WDT_0_ENTER_DEFAULTMODE_FROM_RESET/INITD+     ----- -----  ----- -----
... EVICE

VREG_0_ENTER_DEFAULTMODE_FROM_RESET/INIT+     ----- -----  ----- -----
... DEVICE

PORTS_0_ENTER_DEFAULTMODE_FROM_RESET/INI+     ----- -----  ----- -----
... TDEVICE

PBCFG_0_ENTER_DEFAULTMODE_FROM_RESET/INI+     ----- -----  ----- -----
... TDEVICE

CIP51_0_ENTER_DEFAULTMODE_FROM_RESET/INI+     ----- -----  ----- -----
... TDEVICE

CLOCK_0_ENTER_DEFAULTMODE_FROM_RESET/INI+     ----- -----  ----- -----
... TDEVICE

TIMER01_0_ENTER_DEFAULTMODE_FROM_RESET/I+     ----- -----  ----- -----
... NITDEVICE

TIMER_SETUP_0_ENTER_DEFAULTMODE_FROM_RES+     ----- -----  ----- -----
... ET/INITDEVICE

UART_0_ENTER_DEFAULTMODE_FROM_RESET/INIT+     ----- -----  ----- -----
... DEVICE

INTERRUPT_0_ENTER_DEFAULTMODE_FROM_RESET+     ----- -----  ----- -----
... /INITDEVICE

USBLIB_0_ENTER_DEFAULTMODE_FROM_RESET/IN+     ----- -----  ----- -----
... ITDEVICE
  +--> ?CO?DESCRIPTORS
  +--> _USBD_INIT/EFM8_USBD

?CO?DESCRIPTORS                               ----- -----  ----- -----

_USBD_INIT/EFM8_USBD                          ----- -----  0026H 0029H
  +--> EFM8_USBD
  +--> FORCEMODULELOAD_USBINT/EFM8_USBDINT
  +--> USBD_CONNECT/EFM8_USBD

EFM8_USBD                                     ----- -----  ----- -----
  +--> ?CO?EFM8_USBD

?CO?EFM8_USBD                                 ----- -----  ----- -----

LX51 LINKER/LOCATER V4.66.30.0                                                        01/21/2016  23:03:23  PAGE 6


FORCEMODULELOAD_USBINT/EFM8_USBDINT           ----- -----  ----- -----

USBD_CONNECT/EFM8_USBD                        ----- -----  ----- -----

?CO?U2F_FIRMWARE_MAIN                         ----- -----  ----- -----

PRINTF/PRINTF                                 21H.3 22H.3  0046H 0059H
  +--> PUTCHAR/PUTCHAR

PUTCHAR/PUTCHAR                               ----- -----  ----- -----

_DELAY/U2F_FIRMWARE_MAIN                      ----- -----  ----- -----

?C_INITSEG                                    ----- -----  ----- -----

*** NEW ROOT ********************************

PMATCH_IRQHANDLER/U2F_FIRMWARE_MAIN           ----- -----  ----- -----

*** NEW ROOT ********************************

USBIRQHANDLER/EFM8_USBDINT                    ----- -----  0039H 003CH
  +--> USBD_ENTERHANDLER/CALLBACK
  +--> USB_GETCOMMONINTS/USB_0
  +--> USB_GETININTS/USB_0
  +--> USB_GETOUTINTS/USB_0
  +--> USB_GETINDEX/USB_0
  +--> USB_GETSOFNUMBER/USB_0
  +--> _USBD_SOFCB/CALLBACK
  +--> HANDLEUSBRESETINT/EFM8_USBDINT
  +--> HANDLEUSBRESUMEINT/EFM8_USBDINT
  +--> HANDLEUSBSUSPENDINT/EFM8_USBDINT
  +--> HANDLEUSBIN1INT/EFM8_USBDEP
  +--> HANDLEUSBEP0INT/EFM8_USBDINT
  +--> _USB_SETINDEX/USB_0
  +--> USBD_EXITHANDLER/CALLBACK

USBD_ENTERHANDLER/CALLBACK                    ----- -----  ----- -----

USB_GETCOMMONINTS/USB_0                       ----- -----  ----- -----

USB_GETININTS/USB_0                           ----- -----  ----- -----

USB_GETOUTINTS/USB_0                          ----- -----  ----- -----

USB_GETINDEX/USB_0                            ----- -----  ----- -----

USB_GETSOFNUMBER/USB_0                        ----- -----  ----- -----
  +--> _USB_GETSHORTREGISTER/USB_0

_USB_GETSHORTREGISTER/USB_0                   ----- -----  ----- -----

_USBD_SOFCB/CALLBACK                          ----- -----  003DH 003EH
  +--> IDLETIMERTICK/IDLE
  +--> ISIDLETIMEREXPIRED/IDLE
  +--> CALLBACK
  +--> _USBD_WRITE/EFM8_USBD
  +--> ISIDLETIMERINDEFINITE/IDLE
  +--> ?CO?CALLBACK

IDLETIMERTICK/IDLE                            ----- -----  ----- -----

LX51 LINKER/LOCATER V4.66.30.0                                                        01/21/2016  23:03:23  PAGE 7


ISIDLETIMEREXPIRED/IDLE                       ----- -----  ----- -----
  +--> IDLETIMERSTART/IDLE

IDLETIMERSTART/IDLE                           ----- -----  ----- -----

CALLBACK                                      ----- -----  ----- -----
  +--> ?CO?CALLBACK

?CO?CALLBACK                                  ----- -----  ----- -----

_USBD_WRITE/EFM8_USBD                         21H.1 21H.2  003FH 0046H
  +--> EFM8_USBD
  +--> _SLAB_ASSERT/ASSERT
  +--> USB_GETINTSENABLED/USB_0
  +--> _USB_WRITEFIFO/EFM8_USBDEP

_SLAB_ASSERT/ASSERT                           ----- -----  ----- -----

USB_GETINTSENABLED/USB_0                      ----- -----  ----- -----

_USB_WRITEFIFO/EFM8_USBDEP                    21H.3 21H.3  0047H 004BH
  +--> _USB_WRITEFIFO_IDATA/EFM8_USBDEP
  +--> _USB_WRITEFIFO_XDATA/EFM8_USBDEP
  +--> _USB_WRITEFIFO_PDATA/EFM8_USBDEP
  +--> _USB_WRITEFIFO_CODE/EFM8_USBDEP
  +--> _USB_SETINDEX/USB_0

_USB_WRITEFIFO_IDATA/EFM8_USBDEP              ----- -----  ----- -----

_USB_WRITEFIFO_XDATA/EFM8_USBDEP              ----- -----  ----- -----

_USB_WRITEFIFO_PDATA/EFM8_USBDEP              ----- -----  ----- -----

_USB_WRITEFIFO_CODE/EFM8_USBDEP               ----- -----  ----- -----

_USB_SETINDEX/USB_0                           ----- -----  ----- -----

ISIDLETIMERINDEFINITE/IDLE                    ----- -----  ----- -----

HANDLEUSBRESETINT/EFM8_USBDINT                ----- -----  ----- -----
  +--> _USBD_SETUSBSTATE/EFM8_USBD
  +--> USBD_RESETCB/CALLBACK

_USBD_SETUSBSTATE/EFM8_USBD                   ----- -----  003FH 0040H
  +--> USBD_ABORTALLTRANSFERS/EFM8_USBD
  +--> _USBD_DEVICESTATECHANGECB/CALLBACK

USBD_ABORTALLTRANSFERS/EFM8_USBD              21H.1 21H.1  0041H 0042H
  +--> USB_GETINTSENABLED/USB_0
  +--> EFM8_USBD
  +--> _USBD_ABORTTRANSFER/EFM8_USBD

_USBD_ABORTTRANSFER/EFM8_USBD                 21H.3 21H.3  0043H 0046H
  +--> EFM8_USBD
  +--> _SLAB_ASSERT/ASSERT
  +--> USB_GETINTSENABLED/USB_0
  +--> _USB_ABORTINEP/USB_0

_USB_ABORTINEP/USB_0                          ----- -----  ----- -----
  +--> _USB_SETINDEX/USB_0

_USBD_DEVICESTATECHANGECB/CALLBACK            21H.1 21H.2  0041H 0042H
LX51 LINKER/LOCATER V4.66.30.0                                                        01/21/2016  23:03:23  PAGE 8


  +--> ?CO?CALLBACK
  +--> PRINTF/PRINTF
  +--> _USBD_ABORTTRANSFER/EFM8_USBD
  +--> _IDLETIMERSET/IDLE

_IDLETIMERSET/IDLE                            ----- -----  ----- -----
  +--> IDLETIMERSTART/IDLE

USBD_RESETCB/CALLBACK                         ----- -----  ----- -----
  +--> ?CO?CALLBACK
  +--> PRINTF/PRINTF

HANDLEUSBRESUMEINT/EFM8_USBDINT               ----- -----  ----- -----
  +--> _USBD_SETUSBSTATE/EFM8_USBD

HANDLEUSBSUSPENDINT/EFM8_USBDINT              ----- -----  ----- -----
  +--> _USBD_SETUSBSTATE/EFM8_USBD
  +--> USBD_SUSPEND/EFM8_USBD

USBD_SUSPEND/EFM8_USBD                        21H.1 21H.2  003DH 003DH
  +--> USB_ISSUSPENDED/USB_0
  +--> EFM8_USBD
  +--> USB_ISPREFETCHENABLED/USB_0
  +--> USB_ISREGULATORENABLED/USB_0
  +--> USB_SUSPENDOSCILLATOR/USB_0

USB_ISSUSPENDED/USB_0                         ----- -----  ----- -----

USB_ISPREFETCHENABLED/USB_0                   ----- -----  ----- -----

USB_ISREGULATORENABLED/USB_0                  ----- -----  ----- -----

USB_SUSPENDOSCILLATOR/USB_0                   ----- -----  ----- -----

HANDLEUSBIN1INT/EFM8_USBDEP                   21H.1 21H.1  003DH 003DH
  +--> _USB_SETINDEX/USB_0
  +--> USB_EPNINGETSENTSTALL/USB_0
  +--> _USB_WRITEFIFO/EFM8_USBDEP
  +--> _USBD_XFERCOMPLETECB/CALLBACK

USB_EPNINGETSENTSTALL/USB_0                   ----- -----  ----- -----

_USBD_XFERCOMPLETECB/CALLBACK                 ----- -----  0040H 0045H
  +--> ?CO?CALLBACK
  +--> PRINTF/PRINTF

HANDLEUSBEP0INT/EFM8_USBDINT                  ----- -----  ----- -----
  +--> _USB_SETINDEX/USB_0
  +--> USB_EP0SENTSTALL/USB_0
  +--> USB_GETSETUPEND/USB_0
  +--> USB_EP0OUTPACKETREADY/USB_0
  +--> USB_READFIFOSETUP/EFM8_USBDINT
  +--> _USBD_SETUPCMDCB/CALLBACK
  +--> USBDCH9_SETUPCMD/EFM8_USBDCH9
  +--> SENDEP0STALL/EFM8_USBDINT
  +--> HANDLEUSBEP0RX/EFM8_USBDINT
  +--> USB_EP0INPACKETREADY/USB_0
  +--> HANDLEUSBEP0TX/EFM8_USBDINT

USB_EP0SENTSTALL/USB_0                        ----- -----  ----- -----

USB_GETSETUPEND/USB_0                         ----- -----  ----- -----
LX51 LINKER/LOCATER V4.66.30.0                                                        01/21/2016  23:03:23  PAGE 9



USB_EP0OUTPACKETREADY/USB_0                   ----- -----  ----- -----

USB_READFIFOSETUP/EFM8_USBDINT                ----- -----  003DH 003DH
  +--> _USB_READFIFO/EFM8_USBDEP
  +--> EFM8_USBDINT

_USB_READFIFO/EFM8_USBDEP                     ----- -----  003FH 0043H
  +--> EFM8_USBDEP
  +--> _USB_READFIFO_IDATA/EFM8_USBDEP
  +--> _USB_READFIFO_XDATA/EFM8_USBDEP
  +--> _USB_READFIFO_PDATA/EFM8_USBDEP

EFM8_USBDEP                                   ----- -----  ----- -----

_USB_READFIFO_IDATA/EFM8_USBDEP               ----- -----  ----- -----

_USB_READFIFO_XDATA/EFM8_USBDEP               ----- -----  ----- -----

_USB_READFIFO_PDATA/EFM8_USBDEP               ----- -----  ----- -----

EFM8_USBDINT                                  ----- -----  ----- -----

_USBD_SETUPCMDCB/CALLBACK                     ----- -----  003DH 003EH
  +--> ?CO?CALLBACK
  +--> PRINTF/PRINTF
  +--> CALLBACK
  +--> ?CO?DESCRIPTORS
  +--> _USBD_READ/EFM8_USBD
  +--> _USBD_WRITE/EFM8_USBD
  +--> _IDLETIMERSET/IDLE
  +--> IDLEGETRATE/IDLE

_USBD_READ/EFM8_USBD                          21H.1 21H.2  003FH 0046H
  +--> EFM8_USBD
  +--> _SLAB_ASSERT/ASSERT
  +--> USB_GETINTSENABLED/USB_0

IDLEGETRATE/IDLE                              ----- -----  ----- -----

USBDCH9_SETUPCMD/EFM8_USBDCH9                 ----- -----  003DH 003DH
  +--> GETSTATUS/EFM8_USBDCH9
  +--> CLEARFEATURE/EFM8_USBDCH9
  +--> SETFEATURE/EFM8_USBDCH9
  +--> SETADDRESS/EFM8_USBDCH9
  +--> GETDESCRIPTOR/EFM8_USBDCH9
  +--> GETCONFIGURATION/EFM8_USBDCH9
  +--> SETCONFIGURATION/EFM8_USBDCH9
  +--> GETINTERFACE/EFM8_USBDCH9
  +--> SETINTERFACE/EFM8_USBDCH9
  +--> _USB_SETINDEX/USB_0
  +--> SENDEP0STALL/EFM8_USBDINT

GETSTATUS/EFM8_USBDCH9                        ----- -----  003EH 003EH
  +--> EFM8_USBDCH9
  +--> USBD_ISSELFPOWEREDCB/CALLBACK
  +--> _EP0_WRITE/EFM8_USBDCH9

EFM8_USBDCH9                                  ----- -----  ----- -----

USBD_ISSELFPOWEREDCB/CALLBACK                 ----- -----  ----- -----
  +--> ?CO?CALLBACK
LX51 LINKER/LOCATER V4.66.30.0                                                        01/21/2016  23:03:23  PAGE 10


  +--> PRINTF/PRINTF

_EP0_WRITE/EFM8_USBDCH9                       ----- -----  ----- -----

CLEARFEATURE/EFM8_USBDCH9                     ----- -----  003EH 003EH
  +--> EFM8_USBDCH9
  +--> _USB_SETINDEX/USB_0

SETFEATURE/EFM8_USBDCH9                       ----- -----  003EH 003EH
  +--> EFM8_USBDCH9
  +--> _USB_SETINDEX/USB_0

SETADDRESS/EFM8_USBDCH9                       ----- -----  003EH 003EH
  +--> EFM8_USBDCH9
  +--> _USBD_SETUSBSTATE/EFM8_USBD

GETDESCRIPTOR/EFM8_USBDCH9                    ----- -----  003EH 0042H
  +--> EFM8_USBDCH9
  +--> _EP0_WRITE/EFM8_USBDCH9

GETCONFIGURATION/EFM8_USBDCH9                 ----- -----  ----- -----
  +--> ?CO?EFM8_USBDCH9
  +--> _EP0_WRITE/EFM8_USBDCH9

?CO?EFM8_USBDCH9                              ----- -----  ----- -----

SETCONFIGURATION/EFM8_USBDCH9                 ----- -----  003EH 003EH
  +--> EFM8_USBDCH9
  +--> USBD_ACTIVATEALLEPS/EFM8_USBDCH9
  +--> _USBD_SETUSBSTATE/EFM8_USBD
  +--> USBD_ABORTALLTRANSFERS/EFM8_USBD

USBD_ACTIVATEALLEPS/EFM8_USBDCH9              21H.1 21H.1  ----- -----
  +--> _USB_ACTIVATEEP/USB_0

_USB_ACTIVATEEP/USB_0                         21H.2 21H.4  ----- -----
  +--> _USB_SETINDEX/USB_0

GETINTERFACE/EFM8_USBDCH9                     ----- -----  ----- -----
  +--> EFM8_USBDCH9
  +--> ?CO?EFM8_USBDCH9
  +--> _EP0_WRITE/EFM8_USBDCH9

SETINTERFACE/EFM8_USBDCH9                     ----- -----  ----- -----
  +--> USBD_ACTIVATEALLEPS/EFM8_USBDCH9

SENDEP0STALL/EFM8_USBDINT                     ----- -----  ----- -----
  +--> _USB_SETINDEX/USB_0

HANDLEUSBEP0RX/EFM8_USBDINT                   21H.1 21H.1  003DH 003EH
  +--> USB_EP0GETCOUNT/USB_0
  +--> EFM8_USBDINT
  +--> _USB_READFIFO/EFM8_USBDEP
  +--> _USBD_XFERCOMPLETECB/CALLBACK

USB_EP0GETCOUNT/USB_0                         ----- -----  ----- -----

USB_EP0INPACKETREADY/USB_0                    ----- -----  ----- -----

HANDLEUSBEP0TX/EFM8_USBDINT                   21H.1 21H.1  003DH 003FH
  +--> EFM8_USBDINT
  +--> _USB_WRITEFIFO/EFM8_USBDEP
LX51 LINKER/LOCATER V4.66.30.0                                                        01/21/2016  23:03:23  PAGE 11


  +--> ?CO?EFM8_USBDCH9
  +--> _USBD_XFERCOMPLETECB/CALLBACK

USBD_EXITHANDLER/CALLBACK                     ----- -----  ----- -----



PUBLIC SYMBOLS OF MODULE:  U2F-FIRMWARE.OMF.CRBUILD (INITDEVICE)


      VALUE       CLASS    TYPE      PUBLIC SYMBOL NAME
      =================================================
      00000046H   DATA     ---       ?_PRINTF517?BYTE
      00000046H   DATA     ---       ?_PRINTF?BYTE
      00000046H   DATA     ---       ?_SPRINTF517?BYTE
      00000046H   DATA     ---       ?_SPRINTF?BYTE
      00000021H.2 BIT      BIT       ?_USB_ActivateEp?BIT
      00000021H.3 BIT      BIT       ?_USB_WriteFIFO?BIT
      00000021H.1 BIT      BIT       ?_USBD_Read?BIT
      0000003FH   DATA     BYTE      ?_USBD_Read?BYTE
      00000021H.1 BIT      BIT       ?_USBD_Write?BIT
      0000003FH   DATA     BYTE      ?_USBD_Write?BYTE
      00000040H   DATA     BYTE      ?_USBD_XferCompleteCb?BYTE
      010006A4H   CODE     ---       ?C?CCASE
      010005A6H   CODE     ---       ?C?CLDOPTR
      0100058DH   CODE     ---       ?C?CLDPTR
      00000000H   NUMBER   ---       ?C?CODESEG
      0100065BH   CODE     ---       ?C?CSTPTR
      010005D3H   CODE     ---       ?C?ILDOPTR
      01000698H   CODE     ---       ?C?PLDCODE
      0100066DH   CODE     ---       ?C?PLDIDATA
      01000676H   CODE     ---       ?C?PLDIIDATA
      0100062BH   CODE     ---       ?C?PLDOPTR
      0100068FH   CODE     ---       ?C?PLDPDATA
      0100060BH   CODE     ---       ?C?PLDPTR
      01000686H   CODE     ---       ?C?PLDXDATA
      00000000H   NUMBER   ---       ?C?XDATASEG
      01000E31H   CODE     ---       ?C_START
      01000000H   CODE     NEAR LAB  ?C_STARTUP
      01001690H   CODE     ---       _Delay
      010018BEH   CODE     ---       _idleTimerSet
      010000E0H   CODE     ---       _PRINTF
      010000E0H   CODE     ---       _PRINTF517
      01001669H   CODE     ---       _PUTCHAR
      01001A1CH   CODE     ---       _slab_Assert
      010000DAH   CODE     ---       _SPRINTF
      010000DAH   CODE     ---       _SPRINTF517
      0100151EH   CODE     ---       _USB_AbortInEp
*DEL*:00000000H   CODE     ---       _USB_AbortOutEp
      01000F8AH   CODE     ---       _USB_ActivateEp
      01001468H   CODE     ---       _USB_ReadFIFO
      01001954H   CODE     ---       _USB_SetIndex
      01001104H   CODE     ---       _USB_WriteFIFO
      01001294H   CODE     ---       _USBD_AbortTransfer
      01001391H   CODE     ---       _USBD_DeviceStateChangeCb
*DEL*:00000000H   CODE     ---       _USBD_EpIsBusy
      01000E76H   CODE     ---       _USBD_Init
      01000D5CH   CODE     ---       _USBD_Read
      010003DAH   CODE     ---       _USBD_SetupCmdCb
      010015E7H   CODE     ---       _USBD_SetUsbState
      01001426H   CODE     ---       _USBD_SofCb
*DEL*:00000000H   CODE     ---       _USBD_StallEp
LX51 LINKER/LOCATER V4.66.30.0                                                        01/21/2016  23:03:23  PAGE 12


*DEL*:00000000H   CODE     ---       _USBD_UnStallEp
      01000978H   CODE     ---       _USBD_Write
      01001617H   CODE     ---       _USBD_XferCompleteCb
*SFR* 000000E0H   DATA     BYTE      ACC
*SFR* 000000E0H   DATA     BIT       ACC_ACC0
*SFR* 000000E0H.1 DATA     BIT       ACC_ACC1
*SFR* 000000E0H.2 DATA     BIT       ACC_ACC2
*SFR* 000000E0H.3 DATA     BIT       ACC_ACC3
*SFR* 000000E0H.4 DATA     BIT       ACC_ACC4
*SFR* 000000E0H.5 DATA     BIT       ACC_ACC5
*SFR* 000000E0H.6 DATA     BIT       ACC_ACC6
*SFR* 000000E0H.7 DATA     BIT       ACC_ACC7
*SFR* 000000BDH   DATA     WORD      ADC0
*SFR* 000000B3H   DATA     BYTE      ADC0AC
*SFR* 000000BCH   DATA     BYTE      ADC0CF
*SFR* 000000E8H   DATA     BYTE      ADC0CN0
*SFR* 000000E8H.6 DATA     BIT       ADC0CN0_ADBMEN
*SFR* 000000E8H.4 DATA     BIT       ADC0CN0_ADBUSY
*SFR* 000000E8H   DATA     BIT       ADC0CN0_ADCM0
*SFR* 000000E8H.1 DATA     BIT       ADC0CN0_ADCM1
*SFR* 000000E8H.2 DATA     BIT       ADC0CN0_ADCM2
*SFR* 000000E8H.7 DATA     BIT       ADC0CN0_ADEN
*SFR* 000000E8H.5 DATA     BIT       ADC0CN0_ADINT
*SFR* 000000E8H.3 DATA     BIT       ADC0CN0_ADWINT
*SFR* 000000B2H   DATA     BYTE      ADC0CN1
*SFR* 000000C3H   DATA     WORD      ADC0GT
*SFR* 000000C4H   DATA     BYTE      ADC0GTH
*SFR* 000000C3H   DATA     BYTE      ADC0GTL
*SFR* 000000BEH   DATA     BYTE      ADC0H
*SFR* 000000BDH   DATA     BYTE      ADC0L
*SFR* 000000C5H   DATA     WORD      ADC0LT
*SFR* 000000C6H   DATA     BYTE      ADC0LTH
*SFR* 000000C5H   DATA     BYTE      ADC0LTL
*SFR* 000000BBH   DATA     BYTE      ADC0MX
*SFR* 000000DFH   DATA     BYTE      ADC0PWR
*SFR* 000000B9H   DATA     BYTE      ADC0TK
*SFR* 000000F0H   DATA     BYTE      B
*SFR* 000000F0H   DATA     BIT       B_B0
*SFR* 000000F0H.1 DATA     BIT       B_B1
*SFR* 000000F0H.2 DATA     BIT       B_B2
*SFR* 000000F0H.3 DATA     BIT       B_B3
*SFR* 000000F0H.4 DATA     BIT       B_B4
*SFR* 000000F0H.5 DATA     BIT       B_B5
*SFR* 000000F0H.6 DATA     BIT       B_B6
*SFR* 000000F0H.7 DATA     BIT       B_B7
*SFR* 00000090H.5 DATA     BIT       BSP_LED_B
*SFR* 00000090H.4 DATA     BIT       BSP_LED_G
*SFR* 00000090H.6 DATA     BIT       BSP_LED_R
      010019DBH   CODE     ---       CIP51_0_enter_DefaultMode_from_RESET
*SFR* 0000008EH   DATA     BYTE      CKCON0
*SFR* 000000A6H   DATA     BYTE      CKCON1
*SFR* 000000A9H   DATA     BYTE      CLKSEL
      010018E1H   CODE     ---       CLOCK_0_enter_DefaultMode_from_RESET
*SFR* 0000009BH   DATA     BYTE      CMP0CN0
*SFR* 00000099H   DATA     BYTE      CMP0CN1
*SFR* 0000009DH   DATA     BYTE      CMP0MD
*SFR* 0000009FH   DATA     BYTE      CMP0MX
*SFR* 000000BFH   DATA     BYTE      CMP1CN0
*SFR* 000000ACH   DATA     BYTE      CMP1CN1
*SFR* 000000ABH   DATA     BYTE      CMP1MD
*SFR* 000000AAH   DATA     BYTE      CMP1MX
      01001A78H   CONST    ---       configDesc
LX51 LINKER/LOCATER V4.66.30.0                                                        01/21/2016  23:03:23  PAGE 13


*SFR* 000000CEH   DATA     BYTE      CRC0CN0
*SFR* 00000086H   DATA     BYTE      CRC0CN1
*SFR* 000000D3H   DATA     BYTE      CRC0CNT
*SFR* 000000DEH   DATA     BYTE      CRC0DAT
*SFR* 000000CFH   DATA     BYTE      CRC0FLIP
*SFR* 000000DDH   DATA     BYTE      CRC0IN
*SFR* 000000D2H   DATA     BYTE      CRC0ST
*SFR* 000000ADH   DATA     BYTE      DERIVID
      01001A66H   CONST    ---       deviceDesc
*SFR* 000000B5H   DATA     BYTE      DEVICEID
*SFR* 00000082H   DATA     WORD      DP
*SFR* 00000083H   DATA     BYTE      DPH
*SFR* 00000082H   DATA     BYTE      DPL
*SFR* 000000E6H   DATA     BYTE      EIE1
*SFR* 000000CEH   DATA     BYTE      EIE2
*SFR* 000000F3H   DATA     BYTE      EIP1
*SFR* 000000F5H   DATA     BYTE      EIP1H
*SFR* 000000F4H   DATA     BYTE      EIP2
*SFR* 000000F6H   DATA     BYTE      EIP2H
*SFR* 000000E7H   DATA     BYTE      EMI0CN
      01001641H   CODE     ---       enter_DefaultMode_from_RESET
*SFR* 000000B7H   DATA     BYTE      FLKEY
      01001A20H   CODE     ---       forceModuleLoad_usbint
      01001011H   CODE     ---       handleUsbEp0Rx
      01000AE4H   CODE     ---       handleUsbIn1Int
*SFR* 000000C7H   DATA     BYTE      HFO0CAL
*SFR* 000000D6H   DATA     BYTE      HFO1CAL
*SFR* 000000EFH   DATA     BYTE      HFOCN
*SFR* 000000BAH   DATA     BYTE      I2C0CN0
*SFR* 000000BCH   DATA     BYTE      I2C0DIN
*SFR* 000000BBH   DATA     BYTE      I2C0DOUT
*SFR* 000000ADH   DATA     BYTE      I2C0FCN0
*SFR* 000000ABH   DATA     BYTE      I2C0FCN1
*SFR* 000000F5H   DATA     BYTE      I2C0FCT
*SFR* 000000BDH   DATA     BYTE      I2C0SLAD
*SFR* 000000B9H   DATA     BYTE      I2C0STAT
      01001A16H   CODE     ---       idleGetRate
      010017BCH   CODE     ---       idleTimerStart
      0100186FH   CODE     ---       idleTimerTick
*SFR* 000000A8H   DATA     BYTE      IE
*SFR* 000000A8H.7 DATA     BIT       IE_EA
*SFR* 000000A8H.4 DATA     BIT       IE_ES0
*SFR* 000000A8H.6 DATA     BIT       IE_ESPI0
*SFR* 000000A8H.1 DATA     BIT       IE_ET0
*SFR* 000000A8H.3 DATA     BIT       IE_ET1
*SFR* 000000A8H.5 DATA     BIT       IE_ET2
*SFR* 000000A8H   DATA     BIT       IE_EX0
*SFR* 000000A8H.2 DATA     BIT       IE_EX1
      01001AEAH   CONST    ---       initstruct
      010019E2H   CODE     ---       INTERRUPT_0_enter_DefaultMode_from_RESET
*SFR* 000000B8H   DATA     BYTE      IP
*SFR* 000000B8H.4 DATA     BIT       IP_PS0
*SFR* 000000B8H.6 DATA     BIT       IP_PSPI0
*SFR* 000000B8H.1 DATA     BIT       IP_PT0
*SFR* 000000B8H.3 DATA     BIT       IP_PT1
*SFR* 000000B8H.5 DATA     BIT       IP_PT2
*SFR* 000000B8H   DATA     BIT       IP_PX0
*SFR* 000000B8H.2 DATA     BIT       IP_PX1
*SFR* 000000F2H   DATA     BYTE      IPH
      010018EFH   CODE     ---       isIdleTimerExpired
      010019F0H   CODE     ---       isIdleTimerIndefinite
*SFR* 000000E4H   DATA     BYTE      IT01CF
LX51 LINKER/LOCATER V4.66.30.0                                                        01/21/2016  23:03:23  PAGE 14


      00000022H.5 BIT      BIT       keyPushed
      0000000EH   DATA     BYTE      keySeqNo
*SFR* 000000B1H   DATA     BYTE      LFO0CN
      010014A6H   CODE     ---       main
      0000005AH   IDATA    ---       myUsbDevice
      01000908H   CODE     ---       noKeyReport
*SFR* 00000080H   DATA     BYTE      P0
*SFR* 00000080H   DATA     BIT       P0_B0
*SFR* 00000080H.1 DATA     BIT       P0_B1
*SFR* 00000080H.2 DATA     BIT       P0_B2
*SFR* 00000080H.3 DATA     BIT       P0_B3
*SFR* 00000080H.4 DATA     BIT       P0_B4
*SFR* 00000080H.5 DATA     BIT       P0_B5
*SFR* 00000080H.6 DATA     BIT       P0_B6
*SFR* 00000080H.7 DATA     BIT       P0_B7
*SFR* 000000FEH   DATA     BYTE      P0MASK
*SFR* 000000FDH   DATA     BYTE      P0MAT
*SFR* 000000F1H   DATA     BYTE      P0MDIN
*SFR* 000000A4H   DATA     BYTE      P0MDOUT
*SFR* 000000D4H   DATA     BYTE      P0SKIP
*SFR* 00000090H   DATA     BYTE      P1
*SFR* 00000090H   DATA     BIT       P1_B0
*SFR* 00000090H.1 DATA     BIT       P1_B1
*SFR* 00000090H.2 DATA     BIT       P1_B2
*SFR* 00000090H.3 DATA     BIT       P1_B3
*SFR* 00000090H.4 DATA     BIT       P1_B4
*SFR* 00000090H.5 DATA     BIT       P1_B5
*SFR* 00000090H.6 DATA     BIT       P1_B6
*SFR* 00000090H.7 DATA     BIT       P1_B7
*SFR* 000000EEH   DATA     BYTE      P1MASK
*SFR* 000000EDH   DATA     BYTE      P1MAT
*SFR* 000000F2H   DATA     BYTE      P1MDIN
*SFR* 000000A5H   DATA     BYTE      P1MDOUT
*SFR* 000000D5H   DATA     BYTE      P1SKIP
*SFR* 000000A0H   DATA     BYTE      P2
*SFR* 000000A0H   DATA     BIT       P2_B0
*SFR* 000000A0H.1 DATA     BIT       P2_B1
*SFR* 000000A0H.2 DATA     BIT       P2_B2
*SFR* 000000A0H.3 DATA     BIT       P2_B3
*SFR* 000000FCH   DATA     BYTE      P2MASK
*SFR* 000000FBH   DATA     BYTE      P2MAT
*SFR* 000000F3H   DATA     BYTE      P2MDIN
*SFR* 000000A6H   DATA     BYTE      P2MDOUT
*SFR* 000000CCH   DATA     BYTE      P2SKIP
*SFR* 000000B0H   DATA     BYTE      P3
*SFR* 000000B0H   DATA     BIT       P3_B0
*SFR* 000000B0H.1 DATA     BIT       P3_B1
*SFR* 000000F4H   DATA     BYTE      P3MDIN
*SFR* 0000009CH   DATA     BYTE      P3MDOUT
      010019E9H   CODE     ---       PBCFG_0_enter_DefaultMode_from_RESET
*SFR* 000000F9H   DATA     WORD      PCA0
*SFR* 0000009EH   DATA     BYTE      PCA0CENT
*SFR* 0000009CH   DATA     BYTE      PCA0CLR
*SFR* 000000D8H   DATA     BYTE      PCA0CN0
*SFR* 000000D8H   DATA     BIT       PCA0CN0_CCF0
*SFR* 000000D8H.1 DATA     BIT       PCA0CN0_CCF1
*SFR* 000000D8H.2 DATA     BIT       PCA0CN0_CCF2
*SFR* 000000D8H.7 DATA     BIT       PCA0CN0_CF
*SFR* 000000D8H.6 DATA     BIT       PCA0CN0_CR
*SFR* 000000FBH   DATA     WORD      PCA0CP0
*SFR* 000000E9H   DATA     WORD      PCA0CP1
*SFR* 000000EBH   DATA     WORD      PCA0CP2
LX51 LINKER/LOCATER V4.66.30.0                                                        01/21/2016  23:03:23  PAGE 15


*SFR* 000000FCH   DATA     BYTE      PCA0CPH0
*SFR* 000000EAH   DATA     BYTE      PCA0CPH1
*SFR* 000000ECH   DATA     BYTE      PCA0CPH2
*SFR* 000000FBH   DATA     BYTE      PCA0CPL0
*SFR* 000000E9H   DATA     BYTE      PCA0CPL1
*SFR* 000000EBH   DATA     BYTE      PCA0CPL2
*SFR* 000000DAH   DATA     BYTE      PCA0CPM0
*SFR* 000000DBH   DATA     BYTE      PCA0CPM1
*SFR* 000000DCH   DATA     BYTE      PCA0CPM2
*SFR* 000000FAH   DATA     BYTE      PCA0H
*SFR* 000000F9H   DATA     BYTE      PCA0L
*SFR* 000000D9H   DATA     BYTE      PCA0MD
*SFR* 00000096H   DATA     BYTE      PCA0POL
*SFR* 000000F7H   DATA     BYTE      PCA0PWM
*SFR* 00000087H   DATA     BYTE      PCON0
*SFR* 0000009AH   DATA     BYTE      PCON1
*SFR* 000000C1H   DATA     BYTE      PFE0CN
      01001A19H   CODE     ---       PMATCH_IrqHandler
      01001830H   CODE     ---       PORTS_0_enter_DefaultMode_from_RESET
*SFR* 000000A0H   DATA     BYTE      PPAGE_SFR
*SFR* 000000F6H   DATA     BYTE      PRTDRV
*SFR* 0000008FH   DATA     BYTE      PSCTL
*SFR* 000000D0H   DATA     BYTE      PSW
*SFR* 000000D0H.6 DATA     BIT       PSW_AC
*SFR* 000000D0H.7 DATA     BIT       PSW_CY
*SFR* 000000D0H.5 DATA     BIT       PSW_F0
*SFR* 000000D0H.1 DATA     BIT       PSW_F1
*SFR* 000000D0H.2 DATA     BIT       PSW_OV
*SFR* 000000D0H   DATA     BIT       PSW_PARITY
*SFR* 000000D0H.3 DATA     BIT       PSW_RS0
*SFR* 000000D0H.4 DATA     BIT       PSW_RS1
*SFR* 000000D1H   DATA     BYTE      REF0CN
*SFR* 000000C9H   DATA     BYTE      REG0CN
*SFR* 000000C6H   DATA     BYTE      REG1CN
      01001A21H   CONST    ---       ReportDescriptor0
      01000910H   CODE     ---       reportTable
*SFR* 000000B6H   DATA     BYTE      REVID
*SFR* 000000EFH   DATA     BYTE      RSTSRC
*SFR* 00000094H   DATA     BYTE      SBCON1
*SFR* 00000095H   DATA     WORD      SBRL1
*SFR* 00000096H   DATA     BYTE      SBRLH1
*SFR* 00000095H   DATA     BYTE      SBRLL1
*SFR* 00000099H   DATA     BYTE      SBUF0
*SFR* 00000092H   DATA     BYTE      SBUF1
*SFR* 00000098H   DATA     BYTE      SCON0
*SFR* 00000098H.5 DATA     BIT       SCON0_MCE
*SFR* 00000098H.2 DATA     BIT       SCON0_RB8
*SFR* 00000098H.4 DATA     BIT       SCON0_REN
*SFR* 00000098H   DATA     BIT       SCON0_RI
*SFR* 00000098H.7 DATA     BIT       SCON0_SMODE
*SFR* 00000098H.3 DATA     BIT       SCON0_TB8
*SFR* 00000098H.1 DATA     BIT       SCON0_TI
*SFR* 000000C8H   DATA     BYTE      SCON1
*SFR* 000000C8H.7 DATA     BIT       SCON1_OVR
*SFR* 000000C8H.6 DATA     BIT       SCON1_PERR
*SFR* 000000C8H.2 DATA     BIT       SCON1_RBX
*SFR* 000000C8H.4 DATA     BIT       SCON1_REN
*SFR* 000000C8H   DATA     BIT       SCON1_RI
*SFR* 000000C8H.3 DATA     BIT       SCON1_TBX
*SFR* 000000C8H.1 DATA     BIT       SCON1_TI
      0100185AH   CODE     ---       SendEp0Stall
*SFR* 000000A7H   DATA     BYTE      SFRPAGE
LX51 LINKER/LOCATER V4.66.30.0                                                        01/21/2016  23:03:23  PAGE 16


*SFR* 000000CFH   DATA     BYTE      SFRPGCN
*SFR* 000000D7H   DATA     BYTE      SFRSTACK
*SFR* 000000D6H   DATA     BYTE      SMB0ADM
*SFR* 000000D7H   DATA     BYTE      SMB0ADR
*SFR* 000000C1H   DATA     BYTE      SMB0CF
*SFR* 000000C0H   DATA     BYTE      SMB0CN0
*SFR* 000000C0H.1 DATA     BIT       SMB0CN0_ACK
*SFR* 000000C0H.3 DATA     BIT       SMB0CN0_ACKRQ
*SFR* 000000C0H.2 DATA     BIT       SMB0CN0_ARBLOST
*SFR* 000000C0H.7 DATA     BIT       SMB0CN0_MASTER
*SFR* 000000C0H   DATA     BIT       SMB0CN0_SI
*SFR* 000000C0H.5 DATA     BIT       SMB0CN0_STA
*SFR* 000000C0H.4 DATA     BIT       SMB0CN0_STO
*SFR* 000000C0H.6 DATA     BIT       SMB0CN0_TXMODE
*SFR* 000000C2H   DATA     BYTE      SMB0DAT
*SFR* 000000C3H   DATA     BYTE      SMB0FCN0
*SFR* 000000C4H   DATA     BYTE      SMB0FCN1
*SFR* 000000EFH   DATA     BYTE      SMB0FCT
*SFR* 000000C5H   DATA     BYTE      SMB0RXLN
*SFR* 000000ACH   DATA     BYTE      SMB0TC
*SFR* 00000093H   DATA     BYTE      SMOD1
*SFR* 00000081H   DATA     BYTE      SP
*SFR* 000000A1H   DATA     BYTE      SPI0CFG
*SFR* 000000A2H   DATA     BYTE      SPI0CKR
*SFR* 000000F8H   DATA     BYTE      SPI0CN0
*SFR* 000000F8H.5 DATA     BIT       SPI0CN0_MODF
*SFR* 000000F8H.2 DATA     BIT       SPI0CN0_NSSMD0
*SFR* 000000F8H.3 DATA     BIT       SPI0CN0_NSSMD1
*SFR* 000000F8H.4 DATA     BIT       SPI0CN0_RXOVRN
*SFR* 000000F8H   DATA     BIT       SPI0CN0_SPIEN
*SFR* 000000F8H.7 DATA     BIT       SPI0CN0_SPIF
*SFR* 000000F8H.1 DATA     BIT       SPI0CN0_TXNF
*SFR* 000000F8H.6 DATA     BIT       SPI0CN0_WCOL
*SFR* 000000A3H   DATA     BYTE      SPI0DAT
*SFR* 0000009AH   DATA     BYTE      SPI0FCN0
*SFR* 0000009BH   DATA     BYTE      SPI0FCN1
*SFR* 000000F7H   DATA     BYTE      SPI0FCT
*SFR* 00000088H   DATA     BYTE      TCON
*SFR* 00000088H.1 DATA     BIT       TCON_IE0
*SFR* 00000088H.3 DATA     BIT       TCON_IE1
*SFR* 00000088H   DATA     BIT       TCON_IT0
*SFR* 00000088H.2 DATA     BIT       TCON_IT1
*SFR* 00000088H.5 DATA     BIT       TCON_TF0
*SFR* 00000088H.7 DATA     BIT       TCON_TF1
*SFR* 00000088H.4 DATA     BIT       TCON_TR0
*SFR* 00000088H.6 DATA     BIT       TCON_TR1
*SFR* 0000008CH   DATA     BYTE      TH0
*SFR* 0000008DH   DATA     BYTE      TH1
      010018ABH   CODE     ---       TIMER01_0_enter_DefaultMode_from_RESET
      010019A0H   CODE     ---       TIMER_SETUP_0_enter_DefaultMode_from_RESET
*SFR* 0000008AH   DATA     BYTE      TL0
*SFR* 0000008BH   DATA     BYTE      TL1
*SFR* 00000089H   DATA     BYTE      TMOD
      0000000DH   DATA     BYTE      tmpBuffer
*SFR* 000000CCH   DATA     WORD      TMR2
*SFR* 000000C8H   DATA     BYTE      TMR2CN0
*SFR* 000000C8H.3 DATA     BIT       TMR2CN0_T2SPLIT
*SFR* 000000C8H   DATA     BIT       TMR2CN0_T2XCLK0
*SFR* 000000C8H.1 DATA     BIT       TMR2CN0_T2XCLK1
*SFR* 000000C8H.4 DATA     BIT       TMR2CN0_TF2CEN
*SFR* 000000C8H.7 DATA     BIT       TMR2CN0_TF2H
*SFR* 000000C8H.6 DATA     BIT       TMR2CN0_TF2L
LX51 LINKER/LOCATER V4.66.30.0                                                        01/21/2016  23:03:23  PAGE 17


*SFR* 000000C8H.5 DATA     BIT       TMR2CN0_TF2LEN
*SFR* 000000C8H.2 DATA     BIT       TMR2CN0_TR2
*SFR* 000000FDH   DATA     BYTE      TMR2CN1
*SFR* 000000CDH   DATA     BYTE      TMR2H
*SFR* 000000CCH   DATA     BYTE      TMR2L
*SFR* 000000CAH   DATA     WORD      TMR2RL
*SFR* 000000CBH   DATA     BYTE      TMR2RLH
*SFR* 000000CAH   DATA     BYTE      TMR2RLL
*SFR* 00000094H   DATA     WORD      TMR3
*SFR* 00000091H   DATA     BYTE      TMR3CN0
*SFR* 000000FEH   DATA     BYTE      TMR3CN1
*SFR* 00000095H   DATA     BYTE      TMR3H
*SFR* 00000094H   DATA     BYTE      TMR3L
*SFR* 00000092H   DATA     WORD      TMR3RL
*SFR* 00000093H   DATA     BYTE      TMR3RLH
*SFR* 00000092H   DATA     BYTE      TMR3RLL
*SFR* 000000A4H   DATA     WORD      TMR4
*SFR* 00000098H   DATA     BYTE      TMR4CN0
*SFR* 00000098H.3 DATA     BIT       TMR4CN0_T4SPLIT
*SFR* 00000098H   DATA     BIT       TMR4CN0_T4XCLK0
*SFR* 00000098H.1 DATA     BIT       TMR4CN0_T4XCLK1
*SFR* 00000098H.4 DATA     BIT       TMR4CN0_TF4CEN
*SFR* 00000098H.7 DATA     BIT       TMR4CN0_TF4H
*SFR* 00000098H.6 DATA     BIT       TMR4CN0_TF4L
*SFR* 00000098H.5 DATA     BIT       TMR4CN0_TF4LEN
*SFR* 00000098H.2 DATA     BIT       TMR4CN0_TR4
*SFR* 000000FFH   DATA     BYTE      TMR4CN1
*SFR* 000000A5H   DATA     BYTE      TMR4H
*SFR* 000000A4H   DATA     BYTE      TMR4L
*SFR* 000000A2H   DATA     WORD      TMR4RL
*SFR* 000000A3H   DATA     BYTE      TMR4RLH
*SFR* 000000A2H   DATA     BYTE      TMR4RLL
      01001AF4H   CONST    ---       txZero
*SFR* 0000009DH   DATA     BYTE      UART1FCN0
*SFR* 000000D8H   DATA     BYTE      UART1FCN1
*SFR* 000000D8H.3 DATA     BIT       UART1FCN1_RFRQ
*SFR* 000000D8H   DATA     BIT       UART1FCN1_RIE
*SFR* 000000D8H.1 DATA     BIT       UART1FCN1_RXTO0
*SFR* 000000D8H.2 DATA     BIT       UART1FCN1_RXTO1
*SFR* 000000D8H.7 DATA     BIT       UART1FCN1_TFRQ
*SFR* 000000D8H.4 DATA     BIT       UART1FCN1_TIE
*SFR* 000000D8H.5 DATA     BIT       UART1FCN1_TXHOLD
*SFR* 000000D8H.6 DATA     BIT       UART1FCN1_TXNF
*SFR* 000000FAH   DATA     BYTE      UART1FCT
*SFR* 0000009EH   DATA     BYTE      UART1LIN
      01001A12H   CODE     ---       UART_0_enter_DefaultMode_from_RESET
*SFR* 000000AEH   DATA     BYTE      USB0ADR
*SFR* 000000B2H   DATA     BYTE      USB0AEC
*SFR* 000000B6H   DATA     BYTE      USB0CDCF
*SFR* 000000BEH   DATA     BYTE      USB0CDCN
*SFR* 000000BFH   DATA     BYTE      USB0CDSTA
*SFR* 000000B5H   DATA     BYTE      USB0CF
*SFR* 000000AFH   DATA     BYTE      USB0DAT
*SFR* 000000B3H   DATA     BYTE      USB0XCN
      0100198BH   CODE     ---       USB_Ep0GetCount
      01001923H   CODE     ---       USB_Ep0InPacketReady
      0100193DH   CODE     ---       USB_Ep0OutPacketReady
      01001916H   CODE     ---       USB_Ep0SentStall
*DEL*:00000000H   CODE     ---       USB_EpnGetOutPacketReady
      01001930H   CODE     ---       USB_EpnInGetSentStall
*DEL*:00000000H   CODE     ---       USB_EpnOutGetSentStall
*DEL*:00000000H   CODE     ---       USB_EpOutGetCount
LX51 LINKER/LOCATER V4.66.30.0                                                        01/21/2016  23:03:23  PAGE 18


      0100195FH   CODE     ---       USB_GetCommonInts
      01001980H   CODE     ---       USB_GetIndex
      0100196AH   CODE     ---       USB_GetInInts
      010019F7H   CODE     ---       USB_GetIntsEnabled
      01001975H   CODE     ---       USB_GetOutInts
      01001909H   CODE     ---       USB_GetSetupEnd
      01001A0CH   CODE     ---       USB_GetSofNumber
      010019C4H   CODE     ---       USB_IsPrefetchEnabled
      010019CCH   CODE     ---       USB_IsRegulatorEnabled
      010018FCH   CODE     ---       USB_IsSuspended
      01001765H   CODE     ---       USB_SuspendOscillator
      010016B6H   CODE     ---       USBD_AbortAllTransfers
      01001845H   CODE     ---       USBD_Connect
*DEL*:00000000H   CODE     ---       USBD_Disconnect
      01001A1EH   CODE     ---       USBD_EnterHandler
      01001A1FH   CODE     ---       USBD_ExitHandler
*DEL*:00000000H   CODE     ---       USBD_GetUsbState
      01001949H   CODE     ---       USBD_IsSelfPoweredCb
      010019B3H   CODE     ---       USBD_ResetCb
*DEL*:00000000H   CODE     ---       USBD_Stop
      010011D5H   CODE     ---       USBD_Suspend
      01000F02H   CODE     ---       USBDCH9_SetupCmd
      01000A3AH   CODE     ---       usbIrqHandler
      010019AAH   CODE     ---       USBLIB_0_enter_DefaultMode_from_RESET
*SFR* 000000FFH   DATA     BYTE      VDM0CN
      010019D4H   CODE     ---       VREG_0_enter_DefaultMode_from_RESET
      01001996H   CODE     ---       WDT_0_enter_DefaultMode_from_RESET
*SFR* 00000097H   DATA     BYTE      WDTCN
*SFR* 000000E1H   DATA     BYTE      XBR0
*SFR* 000000E2H   DATA     BYTE      XBR1
*SFR* 000000E3H   DATA     BYTE      XBR2



SYMBOL TABLE OF MODULE:  U2F-FIRMWARE.OMF.CRBUILD (INITDEVICE)

      VALUE       REP       CLASS    TYPE      SYMBOL NAME
      ====================================================
      ---         MODULE    ---      ---       INITDEVICE
      01001830H   PUBLIC    CODE     ---       PORTS_0_enter_DefaultMode_from_RESET
      010019E9H   PUBLIC    CODE     ---       PBCFG_0_enter_DefaultMode_from_RESET
      010019E2H   PUBLIC    CODE     ---       INTERRUPT_0_enter_DefaultMode_from_RESET
      010018E1H   PUBLIC    CODE     ---       CLOCK_0_enter_DefaultMode_from_RESET
      010019DBH   PUBLIC    CODE     ---       CIP51_0_enter_DefaultMode_from_RESET
      010019D4H   PUBLIC    CODE     ---       VREG_0_enter_DefaultMode_from_RESET
      010019AAH   PUBLIC    CODE     ---       USBLIB_0_enter_DefaultMode_from_RESET
      01001A12H   PUBLIC    CODE     ---       UART_0_enter_DefaultMode_from_RESET
      010019A0H   PUBLIC    CODE     ---       TIMER_SETUP_0_enter_DefaultMode_from_RESET
      010018ABH   PUBLIC    CODE     ---       TIMER01_0_enter_DefaultMode_from_RESET
      01001996H   PUBLIC    CODE     ---       WDT_0_enter_DefaultMode_from_RESET
      01001641H   PUBLIC    CODE     ---       enter_DefaultMode_from_RESET
      000000A2H   SFRSYM    DATA     BYTE      SPI0CKR
      00000080H   SFRSYM    DATA     BYTE      P0
      000000C8H.6 SFRSYM    DATA     BIT       SCON1_PERR
      000000D0H.2 SFRSYM    DATA     BIT       PSW_OV
      00000090H   SFRSYM    DATA     BYTE      P1
      000000F8H.1 SFRSYM    DATA     BIT       SPI0CN0_TXNF
      00000097H   SFRSYM    DATA     BYTE      WDTCN
      000000A0H   SFRSYM    DATA     BYTE      P2
      000000B0H   SFRSYM    DATA     BYTE      P3
      000000BCH   SFRSYM    DATA     BYTE      ADC0CF
      000000C0H.7 SFRSYM    DATA     BIT       SMB0CN0_MASTER
LX51 LINKER/LOCATER V4.66.30.0                                                        01/21/2016  23:03:23  PAGE 19


      000000F9H   SFRSYM    DATA     WORD      PCA0
      000000E6H   SFRSYM    DATA     BYTE      EIE1
      000000C0H.1 SFRSYM    DATA     BIT       SMB0CN0_ACK
      000000B3H   SFRSYM    DATA     BYTE      USB0XCN
      000000CEH   SFRSYM    DATA     BYTE      EIE2
      0000008FH   SFRSYM    DATA     BYTE      PSCTL
      000000E4H   SFRSYM    DATA     BYTE      IT01CF
      000000C0H.6 SFRSYM    DATA     BIT       SMB0CN0_TXMODE
      000000ADH   SFRSYM    DATA     BYTE      DERIVID
      000000A7H   SFRSYM    DATA     BYTE      SFRPAGE
      000000A4H   SFRSYM    DATA     BYTE      P0MDOUT
      000000BFH   SFRSYM    DATA     BYTE      USB0CDSTA
      000000A5H   SFRSYM    DATA     BYTE      P1MDOUT
      000000E8H.5 SFRSYM    DATA     BIT       ADC0CN0_ADINT
      000000CBH   SFRSYM    DATA     BYTE      TMR2RLH
      000000A6H   SFRSYM    DATA     BYTE      P2MDOUT
      000000A8H   SFRSYM    DATA     BYTE      IE
      00000093H   SFRSYM    DATA     BYTE      TMR3RLH
      0000009CH   SFRSYM    DATA     BYTE      P3MDOUT
      000000A3H   SFRSYM    DATA     BYTE      TMR4RLH
      000000F3H   SFRSYM    DATA     BYTE      EIP1
      000000F4H   SFRSYM    DATA     BYTE      EIP2
      00000098H.2 SFRSYM    DATA     BIT       SCON0_RB8
      000000CAH   SFRSYM    DATA     BYTE      TMR2RLL
      000000FCH   SFRSYM    DATA     BYTE      PCA0CPH0
      00000092H   SFRSYM    DATA     BYTE      TMR3RLL
      000000EAH   SFRSYM    DATA     BYTE      PCA0CPH1
      00000098H.3 SFRSYM    DATA     BIT       SCON0_TB8
      000000F0H   SFRSYM    DATA     BIT       B_B0
      00000082H   SFRSYM    DATA     WORD      DP
      000000A2H   SFRSYM    DATA     BYTE      TMR4RLL
      000000ECH   SFRSYM    DATA     BYTE      PCA0CPH2
      000000F0H.1 SFRSYM    DATA     BIT       B_B1
      000000C3H   SFRSYM    DATA     WORD      ADC0GT
      000000BDH   SFRSYM    DATA     BYTE      I2C0SLAD
      000000D8H.3 SFRSYM    DATA     BIT       UART1FCN1_RFRQ
      000000F0H.2 SFRSYM    DATA     BIT       B_B2
      000000CFH   SFRSYM    DATA     BYTE      SFRPGCN
      000000FBH   SFRSYM    DATA     BYTE      PCA0CPL0
      000000F0H.3 SFRSYM    DATA     BIT       B_B3
      000000D9H   SFRSYM    DATA     BYTE      PCA0MD
      000000DAH   SFRSYM    DATA     BYTE      PCA0CPM0
      000000E9H   SFRSYM    DATA     BYTE      PCA0CPL1
      000000D8H.7 SFRSYM    DATA     BIT       UART1FCN1_TFRQ
      000000F0H.4 SFRSYM    DATA     BIT       B_B4
      000000DBH   SFRSYM    DATA     BYTE      PCA0CPM1
      000000EBH   SFRSYM    DATA     BYTE      PCA0CPL2
      000000F0H.5 SFRSYM    DATA     BIT       B_B5
      000000DCH   SFRSYM    DATA     BYTE      PCA0CPM2
      000000B8H   SFRSYM    DATA     BYTE      IP
      000000B9H   SFRSYM    DATA     BYTE      ADC0TK
      000000F0H.6 SFRSYM    DATA     BIT       B_B6
      000000C5H   SFRSYM    DATA     WORD      ADC0LT
      000000D8H.6 SFRSYM    DATA     BIT       UART1FCN1_TXNF
      00000098H.5 SFRSYM    DATA     BIT       SCON0_MCE
      000000F0H.7 SFRSYM    DATA     BIT       B_B7
      000000C3H   SFRSYM    DATA     BYTE      SMB0FCN0
      000000E1H   SFRSYM    DATA     BYTE      XBR0
      000000C4H   SFRSYM    DATA     BYTE      SMB0FCN1
      000000C1H   SFRSYM    DATA     BYTE      SMB0CF
      000000E2H   SFRSYM    DATA     BYTE      XBR1
      000000C1H   SFRSYM    DATA     BYTE      PFE0CN
LX51 LINKER/LOCATER V4.66.30.0                                                        01/21/2016  23:03:23  PAGE 20


      000000E7H   SFRSYM    DATA     BYTE      EMI0CN
      000000C0H.5 SFRSYM    DATA     BIT       SMB0CN0_STA
      000000E3H   SFRSYM    DATA     BYTE      XBR2
      000000BBH   SFRSYM    DATA     BYTE      ADC0MX
      000000E0H   SFRSYM    DATA     BIT       ACC_ACC0
      000000D1H   SFRSYM    DATA     BYTE      REF0CN
      0000008EH   SFRSYM    DATA     BYTE      CKCON0
      000000E0H.1 SFRSYM    DATA     BIT       ACC_ACC1
      000000C9H   SFRSYM    DATA     BYTE      REG0CN
      000000DDH   SFRSYM    DATA     BYTE      CRC0IN
      000000A6H   SFRSYM    DATA     BYTE      CKCON1
      000000C8H.2 SFRSYM    DATA     BIT       TMR2CN0_TR2
      000000E0H.2 SFRSYM    DATA     BIT       ACC_ACC2
      000000C6H   SFRSYM    DATA     BYTE      REG1CN
      000000E0H.3 SFRSYM    DATA     BIT       ACC_ACC3
      00000081H   SFRSYM    DATA     BYTE      SP
      0000009DH   SFRSYM    DATA     BYTE      CMP0MD
      000000E0H.4 SFRSYM    DATA     BIT       ACC_ACC4
      000000B1H   SFRSYM    DATA     BYTE      LFO0CN
      000000ABH   SFRSYM    DATA     BYTE      CMP1MD
      000000D8H   SFRSYM    DATA     BIT       PCA0CN0_CCF0
      000000E0H.5 SFRSYM    DATA     BIT       ACC_ACC5
      000000B5H   SFRSYM    DATA     BYTE      USB0CF
      00000098H.2 SFRSYM    DATA     BIT       TMR4CN0_TR4
      000000D8H.1 SFRSYM    DATA     BIT       PCA0CN0_CCF1
      000000E0H.6 SFRSYM    DATA     BIT       ACC_ACC6
      000000CCH   SFRSYM    DATA     WORD      TMR2
      0000009AH   SFRSYM    DATA     BYTE      SPI0FCN0
      000000D8H.2 SFRSYM    DATA     BIT       PCA0CN0_CCF2
      000000E0H.7 SFRSYM    DATA     BIT       ACC_ACC7
      00000094H   SFRSYM    DATA     WORD      TMR3
      0000009BH   SFRSYM    DATA     BYTE      SPI0FCN1
      000000A4H   SFRSYM    DATA     WORD      TMR4
      00000094H   SFRSYM    DATA     BYTE      SBCON1
      000000C0H.3 SFRSYM    DATA     BIT       SMB0CN0_ACKRQ
      000000FFH   SFRSYM    DATA     BYTE      VDM0CN
      000000F1H   SFRSYM    DATA     BYTE      P0MDIN
      00000098H.4 SFRSYM    DATA     BIT       SCON0_REN
      000000ACH   SFRSYM    DATA     BYTE      SMB0TC
      000000F2H   SFRSYM    DATA     BYTE      P1MDIN
      000000C8H.4 SFRSYM    DATA     BIT       SCON1_REN
      000000F3H   SFRSYM    DATA     BYTE      P2MDIN
      000000C0H.4 SFRSYM    DATA     BIT       SMB0CN0_STO
      000000B6H   SFRSYM    DATA     BYTE      USB0CDCF
      000000F4H   SFRSYM    DATA     BYTE      P3MDIN
      000000B9H   SFRSYM    DATA     BYTE      I2C0STAT
      000000BBH   SFRSYM    DATA     BYTE      I2C0DOUT
      00000096H   SFRSYM    DATA     BYTE      SBRLH1
      000000FEH   SFRSYM    DATA     BYTE      P0MASK
      000000D8H.5 SFRSYM    DATA     BIT       UART1FCN1_TXHOLD
      000000EEH   SFRSYM    DATA     BYTE      P1MASK
      000000FCH   SFRSYM    DATA     BYTE      P2MASK
      000000D0H.3 SFRSYM    DATA     BIT       PSW_RS0
      000000D8H.7 SFRSYM    DATA     BIT       PCA0CN0_CF
      0000009EH   SFRSYM    DATA     BYTE      PCA0CENT
      000000BAH   SFRSYM    DATA     BYTE      I2C0CN0
      000000D2H   SFRSYM    DATA     BYTE      CRC0ST
      000000F8H.4 SFRSYM    DATA     BIT       SPI0CN0_RXOVRN
      000000D0H.4 SFRSYM    DATA     BIT       PSW_RS1
      00000095H   SFRSYM    DATA     BYTE      SBRLL1
      000000C8H.2 SFRSYM    DATA     BIT       SCON1_RBX
      000000C8H   SFRSYM    DATA     BIT       TMR2CN0_T2XCLK0
LX51 LINKER/LOCATER V4.66.30.0                                                        01/21/2016  23:03:23  PAGE 21


      000000C8H.1 SFRSYM    DATA     BIT       TMR2CN0_T2XCLK1
      000000C8H.3 SFRSYM    DATA     BIT       SCON1_TBX
      000000E8H.7 SFRSYM    DATA     BIT       ADC0CN0_ADEN
      000000BEH   SFRSYM    DATA     BYTE      USB0CDCN
      00000089H   SFRSYM    DATA     BYTE      TMOD
      00000088H   SFRSYM    DATA     BYTE      TCON
      000000CFH   SFRSYM    DATA     BYTE      CRC0FLIP
      000000D0H   SFRSYM    DATA     BIT       PSW_PARITY
      000000A8H.4 SFRSYM    DATA     BIT       IE_ES0
      0000009FH   SFRSYM    DATA     BYTE      CMP0MX
      00000098H   SFRSYM    DATA     BIT       TMR4CN0_T4XCLK0
      000000A8H.1 SFRSYM    DATA     BIT       IE_ET0
      000000AAH   SFRSYM    DATA     BYTE      CMP1MX
      00000098H.1 SFRSYM    DATA     BIT       TMR4CN0_T4XCLK1
      000000A8H.3 SFRSYM    DATA     BIT       IE_ET1
      000000D4H   SFRSYM    DATA     BYTE      P0SKIP
      000000D8H   SFRSYM    DATA     BIT       UART1FCN1_RIE
      000000A8H.5 SFRSYM    DATA     BIT       IE_ET2
      000000D5H   SFRSYM    DATA     BYTE      P1SKIP
      000000CCH   SFRSYM    DATA     BYTE      P2SKIP
      000000E8H   SFRSYM    DATA     BYTE      ADC0CN0
      000000D8H.4 SFRSYM    DATA     BIT       UART1FCN1_TIE
      000000A8H   SFRSYM    DATA     BIT       IE_EX0
      000000B2H   SFRSYM    DATA     BYTE      ADC0CN1
      000000D8H.6 SFRSYM    DATA     BIT       PCA0CN0_CR
      000000A8H.2 SFRSYM    DATA     BIT       IE_EX1
      000000C8H.7 SFRSYM    DATA     BIT       SCON1_OVR
      00000098H.7 SFRSYM    DATA     BIT       SCON0_SMODE
      000000B5H   SFRSYM    DATA     BYTE      DEVICEID
      000000A9H   SFRSYM    DATA     BYTE      CLKSEL
      000000F8H   SFRSYM    DATA     BIT       SPI0CN0_SPIEN
      000000F0H   SFRSYM    DATA     BYTE      B
      000000BEH   SFRSYM    DATA     BYTE      ADC0H
      000000E8H.6 SFRSYM    DATA     BIT       ADC0CN0_ADBMEN
      000000CAH   SFRSYM    DATA     WORD      TMR2RL
      000000BDH   SFRSYM    DATA     BYTE      ADC0L
      00000092H   SFRSYM    DATA     WORD      TMR3RL
      000000A2H   SFRSYM    DATA     WORD      TMR4RL
      000000D8H   SFRSYM    DATA     BYTE      PCA0CN0
      000000E0H   SFRSYM    DATA     BYTE      ACC
      000000FBH   SFRSYM    DATA     WORD      PCA0CP0
      000000E9H   SFRSYM    DATA     WORD      PCA0CP1
      000000EBH   SFRSYM    DATA     WORD      PCA0CP2
      000000BCH   SFRSYM    DATA     BYTE      I2C0DIN
      000000CEH   SFRSYM    DATA     BYTE      CRC0CN0
      0000008CH   SFRSYM    DATA     BYTE      TH0
      00000086H   SFRSYM    DATA     BYTE      CRC0CN1
      000000B8H.4 SFRSYM    DATA     BIT       IP_PS0
      000000FAH   SFRSYM    DATA     BYTE      UART1FCT
      0000008DH   SFRSYM    DATA     BYTE      TH1
      000000FAH   SFRSYM    DATA     BYTE      PCA0H
      000000F5H   SFRSYM    DATA     BYTE      I2C0FCT
      000000B8H.1 SFRSYM    DATA     BIT       IP_PT0
      000000B8H.3 SFRSYM    DATA     BIT       IP_PT1
      000000C0H.2 SFRSYM    DATA     BIT       SMB0CN0_ARBLOST
      000000B8H.5 SFRSYM    DATA     BIT       IP_PT2
      0000008AH   SFRSYM    DATA     BYTE      TL0
      000000D0H.5 SFRSYM    DATA     BIT       PSW_F0
      000000A8H.6 SFRSYM    DATA     BIT       IE_ESPI0
      0000008BH   SFRSYM    DATA     BYTE      TL1
      000000F9H   SFRSYM    DATA     BYTE      PCA0L
      000000C0H   SFRSYM    DATA     BIT       SMB0CN0_SI
LX51 LINKER/LOCATER V4.66.30.0                                                        01/21/2016  23:03:23  PAGE 22


      000000D0H.1 SFRSYM    DATA     BIT       PSW_F1
      00000080H   SFRSYM    DATA     BIT       P0_B0
      000000B8H   SFRSYM    DATA     BIT       IP_PX0
      00000090H   SFRSYM    DATA     BIT       P1_B0
      00000080H.1 SFRSYM    DATA     BIT       P0_B1
      000000B8H.2 SFRSYM    DATA     BIT       IP_PX1
      0000009EH   SFRSYM    DATA     BYTE      UART1LIN
      0000009BH   SFRSYM    DATA     BYTE      CMP0CN0
      00000088H.1 SFRSYM    DATA     BIT       TCON_IE0
      000000A0H   SFRSYM    DATA     BIT       P2_B0
      00000090H.1 SFRSYM    DATA     BIT       P1_B1
      00000080H.2 SFRSYM    DATA     BIT       P0_B2
      000000BFH   SFRSYM    DATA     BYTE      CMP1CN0
      00000099H   SFRSYM    DATA     BYTE      CMP0CN1
      00000088H.3 SFRSYM    DATA     BIT       TCON_IE1
      000000B0H   SFRSYM    DATA     BIT       P3_B0
      000000A0H.1 SFRSYM    DATA     BIT       P2_B1
      00000090H.2 SFRSYM    DATA     BIT       P1_B2
      00000080H.3 SFRSYM    DATA     BIT       P0_B3
      000000C0H   SFRSYM    DATA     BYTE      SMB0CN0
      000000ACH   SFRSYM    DATA     BYTE      CMP1CN1
      000000B0H.1 SFRSYM    DATA     BIT       P3_B1
      000000A0H.2 SFRSYM    DATA     BIT       P2_B2
      00000090H.3 SFRSYM    DATA     BIT       P1_B3
      00000080H.4 SFRSYM    DATA     BIT       P0_B4
      000000A0H.3 SFRSYM    DATA     BIT       P2_B3
      00000090H.4 SFRSYM    DATA     BIT       P1_B4
      00000080H.5 SFRSYM    DATA     BIT       P0_B5
      000000D8H.1 SFRSYM    DATA     BIT       UART1FCN1_RXTO0
      00000090H.5 SFRSYM    DATA     BIT       P1_B5
      00000080H.6 SFRSYM    DATA     BIT       P0_B6
      000000F5H   SFRSYM    DATA     BYTE      EIP1H
      000000D8H.2 SFRSYM    DATA     BIT       UART1FCN1_RXTO1
      00000090H.6 SFRSYM    DATA     BIT       P1_B6
      00000080H.7 SFRSYM    DATA     BIT       P0_B7
      000000C5H   SFRSYM    DATA     BYTE      SMB0RXLN
      000000F6H   SFRSYM    DATA     BYTE      EIP2H
      00000090H.7 SFRSYM    DATA     BIT       P1_B7
      00000083H   SFRSYM    DATA     BYTE      DPH
      000000C4H   SFRSYM    DATA     BYTE      ADC0GTH
      000000C8H.7 SFRSYM    DATA     BIT       TMR2CN0_TF2H
      000000C8H.3 SFRSYM    DATA     BIT       TMR2CN0_T2SPLIT
      000000D0H.6 SFRSYM    DATA     BIT       PSW_AC
      000000F8H   SFRSYM    DATA     BYTE      SPI0CN0
      000000C7H   SFRSYM    DATA     BYTE      HFO0CAL
      00000088H.5 SFRSYM    DATA     BIT       TCON_TF0
      00000098H   SFRSYM    DATA     BIT       SCON0_RI
      000000D6H   SFRSYM    DATA     BYTE      HFO1CAL
      00000082H   SFRSYM    DATA     BYTE      DPL
      00000088H.7 SFRSYM    DATA     BIT       TCON_TF1
      000000C8H   SFRSYM    DATA     BIT       SCON1_RI
      00000099H   SFRSYM    DATA     BYTE      SBUF0
      00000087H   SFRSYM    DATA     BYTE      PCON0
      000000F2H   SFRSYM    DATA     BYTE      IPH
      000000C3H   SFRSYM    DATA     BYTE      ADC0GTL
      00000098H.7 SFRSYM    DATA     BIT       TMR4CN0_TF4H
      00000098H.3 SFRSYM    DATA     BIT       TMR4CN0_T4SPLIT
      000000C8H.6 SFRSYM    DATA     BIT       TMR2CN0_TF2L
      00000098H.1 SFRSYM    DATA     BIT       SCON0_TI
      000000E8H   SFRSYM    DATA     BIT       ADC0CN0_ADCM0
      00000092H   SFRSYM    DATA     BYTE      SBUF1
      0000009AH   SFRSYM    DATA     BYTE      PCON1
LX51 LINKER/LOCATER V4.66.30.0                                                        01/21/2016  23:03:23  PAGE 23


      000000C6H   SFRSYM    DATA     BYTE      ADC0LTH
      00000088H   SFRSYM    DATA     BIT       TCON_IT0
      000000C8H.1 SFRSYM    DATA     BIT       SCON1_TI
      000000E8H.1 SFRSYM    DATA     BIT       ADC0CN0_ADCM1
      000000EFH   SFRSYM    DATA     BYTE      RSTSRC
      000000FDH   SFRSYM    DATA     BYTE      P0MAT
      000000DEH   SFRSYM    DATA     BYTE      CRC0DAT
      00000088H.2 SFRSYM    DATA     BIT       TCON_IT1
      000000E8H.2 SFRSYM    DATA     BIT       ADC0CN0_ADCM2
      000000D7H   SFRSYM    DATA     BYTE      SFRSTACK
      00000098H   SFRSYM    DATA     BYTE      SCON0
      000000F6H   SFRSYM    DATA     BYTE      PRTDRV
      000000EDH   SFRSYM    DATA     BYTE      P1MAT
      000000E8H.3 SFRSYM    DATA     BIT       ADC0CN0_ADWINT
      00000095H   SFRSYM    DATA     WORD      SBRL1
      000000B2H   SFRSYM    DATA     BYTE      USB0AEC
      00000093H   SFRSYM    DATA     BYTE      SMOD1
      000000C8H   SFRSYM    DATA     BYTE      SCON1
      000000FBH   SFRSYM    DATA     BYTE      P2MAT
      00000098H.6 SFRSYM    DATA     BIT       TMR4CN0_TF4L
      000000E8H.4 SFRSYM    DATA     BIT       ADC0CN0_ADBUSY
      000000D6H   SFRSYM    DATA     BYTE      SMB0ADM
      000000C5H   SFRSYM    DATA     BYTE      ADC0LTL
      000000F8H.5 SFRSYM    DATA     BIT       SPI0CN0_MODF
      000000B8H.6 SFRSYM    DATA     BIT       IP_PSPI0
      0000009CH   SFRSYM    DATA     BYTE      PCA0CLR
      000000C8H   SFRSYM    DATA     BYTE      TMR2CN0
      00000091H   SFRSYM    DATA     BYTE      TMR3CN0
      000000FDH   SFRSYM    DATA     BYTE      TMR2CN1
      00000098H   SFRSYM    DATA     BYTE      TMR4CN0
      000000FEH   SFRSYM    DATA     BYTE      TMR3CN1
      000000FFH   SFRSYM    DATA     BYTE      TMR4CN1
      000000D7H   SFRSYM    DATA     BYTE      SMB0ADR
      00000088H.4 SFRSYM    DATA     BIT       TCON_TR0
      000000C8H.4 SFRSYM    DATA     BIT       TMR2CN0_TF2CEN
      00000088H.6 SFRSYM    DATA     BIT       TCON_TR1
      000000C2H   SFRSYM    DATA     BYTE      SMB0DAT
      000000CDH   SFRSYM    DATA     BYTE      TMR2H
      000000A1H   SFRSYM    DATA     BYTE      SPI0CFG
      00000095H   SFRSYM    DATA     BYTE      TMR3H
      000000EFH   SFRSYM    DATA     BYTE      HFOCN
      000000D3H   SFRSYM    DATA     BYTE      CRC0CNT
      000000A5H   SFRSYM    DATA     BYTE      TMR4H
      00000098H.4 SFRSYM    DATA     BIT       TMR4CN0_TF4CEN
      000000EFH   SFRSYM    DATA     BYTE      SMB0FCT
      00000096H   SFRSYM    DATA     BYTE      PCA0POL
      000000CCH   SFRSYM    DATA     BYTE      TMR2L
      000000F8H.7 SFRSYM    DATA     BIT       SPI0CN0_SPIF
      000000AEH   SFRSYM    DATA     BYTE      USB0ADR
      00000094H   SFRSYM    DATA     BYTE      TMR3L
      000000DFH   SFRSYM    DATA     BYTE      ADC0PWR
      000000A8H.7 SFRSYM    DATA     BIT       IE_EA
      000000A4H   SFRSYM    DATA     BYTE      TMR4L
      000000AFH   SFRSYM    DATA     BYTE      USB0DAT
      000000C8H.5 SFRSYM    DATA     BIT       TMR2CN0_TF2LEN
      000000F8H.6 SFRSYM    DATA     BIT       SPI0CN0_WCOL
      000000F8H.2 SFRSYM    DATA     BIT       SPI0CN0_NSSMD0
      000000D0H.7 SFRSYM    DATA     BIT       PSW_CY
      0000009DH   SFRSYM    DATA     BYTE      UART1FCN0
      000000A3H   SFRSYM    DATA     BYTE      SPI0DAT
      000000ADH   SFRSYM    DATA     BYTE      I2C0FCN0
      000000F8H.3 SFRSYM    DATA     BIT       SPI0CN0_NSSMD1
LX51 LINKER/LOCATER V4.66.30.0                                                        01/21/2016  23:03:23  PAGE 24


      000000BDH   SFRSYM    DATA     WORD      ADC0
      000000D8H   SFRSYM    DATA     BYTE      UART1FCN1
      000000ABH   SFRSYM    DATA     BYTE      I2C0FCN1
      00000098H.5 SFRSYM    DATA     BIT       TMR4CN0_TF4LEN
      000000D0H   SFRSYM    DATA     BYTE      PSW
      000000F7H   SFRSYM    DATA     BYTE      PCA0PWM
      000000F7H   SFRSYM    DATA     BYTE      SPI0FCT
      000000B6H   SFRSYM    DATA     BYTE      REVID
      000000B7H   SFRSYM    DATA     BYTE      FLKEY
      000000B3H   SFRSYM    DATA     BYTE      ADC0AC

      01001641H   BLOCK     CODE     ---       LVL=0
      01001641H   BLOCK     CODE     NEAR LAB  LVL=1
      00000025H   SYMBOL    DATA     BYTE      SFRPAGE_save
      ---         BLOCKEND  ---      ---       LVL=1
      01001641H   LINE      CODE     ---       #25
      01001641H   LINE      CODE     ---       #28
      01001644H   LINE      CODE     ---       #29
      01001647H   LINE      CODE     ---       #30
      0100164AH   LINE      CODE     ---       #31
      0100164DH   LINE      CODE     ---       #32
      01001650H   LINE      CODE     ---       #33
      01001653H   LINE      CODE     ---       #34
      01001656H   LINE      CODE     ---       #35
      01001659H   LINE      CODE     ---       #36
      0100165CH   LINE      CODE     ---       #37
      0100165FH   LINE      CODE     ---       #38
      01001662H   LINE      CODE     ---       #39
      01001665H   LINE      CODE     ---       #41
      01001668H   LINE      CODE     ---       #44
      ---         BLOCKEND  ---      ---       LVL=0

      01001996H   BLOCK     CODE     ---       LVL=0
      01001996H   LINE      CODE     ---       #46
      01001996H   LINE      CODE     ---       #48
      01001999H   LINE      CODE     ---       #50
      0100199CH   LINE      CODE     ---       #51
      0100199FH   LINE      CODE     ---       #54
      ---         BLOCKEND  ---      ---       LVL=0

      010018ABH   BLOCK     CODE     ---       LVL=0
      010018ABH   BLOCK     CODE     NEAR LAB  LVL=1
      00000007H   SYMBOL    DATA     BYTE      TCON_save
      ---         BLOCKEND  ---      ---       LVL=1
      010018ABH   LINE      CODE     ---       #56
      010018ABH   LINE      CODE     ---       #60
      010018ADH   LINE      CODE     ---       #62
      010018B0H   LINE      CODE     ---       #76
      010018B3H   LINE      CODE     ---       #84
      010018BDH   LINE      CODE     ---       #88
      ---         BLOCKEND  ---      ---       LVL=0

      010019A0H   BLOCK     CODE     ---       LVL=0
      010019A0H   LINE      CODE     ---       #90
      010019A0H   LINE      CODE     ---       #106
      010019A3H   LINE      CODE     ---       #129
      010019A6H   LINE      CODE     ---       #137
      010019A9H   LINE      CODE     ---       #140
      ---         BLOCKEND  ---      ---       LVL=0

      01001A12H   BLOCK     CODE     ---       LVL=0
      01001A12H   LINE      CODE     ---       #142
LX51 LINKER/LOCATER V4.66.30.0                                                        01/21/2016  23:03:23  PAGE 25


      01001A12H   LINE      CODE     ---       #147
      01001A15H   LINE      CODE     ---       #150
      ---         BLOCKEND  ---      ---       LVL=0

      010019AAH   BLOCK     CODE     ---       LVL=0
      010019AAH   LINE      CODE     ---       #152
      010019AAH   LINE      CODE     ---       #154
      ---         BLOCKEND  ---      ---       LVL=0

      010019D4H   BLOCK     CODE     ---       LVL=0
      010019D4H   LINE      CODE     ---       #159
      010019D4H   LINE      CODE     ---       #173
      010019D7H   LINE      CODE     ---       #174
      010019DAH   LINE      CODE     ---       #178
      ---         BLOCKEND  ---      ---       LVL=0

      010019DBH   BLOCK     CODE     ---       LVL=0
      010019DBH   LINE      CODE     ---       #180
      010019DBH   LINE      CODE     ---       #187
      010019DEH   LINE      CODE     ---       #188
      010019E1H   LINE      CODE     ---       #191
      ---         BLOCKEND  ---      ---       LVL=0

      010018E1H   BLOCK     CODE     ---       LVL=0
      010018E1H   LINE      CODE     ---       #193
      010018E1H   LINE      CODE     ---       #196
      010018E4H   LINE      CODE     ---       #197
      010018E6H   LINE      CODE     ---       #198
      010018E8H   LINE      CODE     ---       #199
      010018E8H   LINE      CODE     ---       #214
      010018EBH   LINE      CODE     ---       #215
      010018EEH   LINE      CODE     ---       #216
      010018EEH   LINE      CODE     ---       #220
      ---         BLOCKEND  ---      ---       LVL=0

      010019E2H   BLOCK     CODE     ---       LVL=0
      010019E2H   LINE      CODE     ---       #222
      010019E2H   LINE      CODE     ---       #242
      010019E5H   LINE      CODE     ---       #279
      010019E8H   LINE      CODE     ---       #290
      ---         BLOCKEND  ---      ---       LVL=0

      010019E9H   BLOCK     CODE     ---       LVL=0
      010019E9H   LINE      CODE     ---       #292
      010019E9H   LINE      CODE     ---       #306
      010019ECH   LINE      CODE     ---       #332
      010019EFH   LINE      CODE     ---       #340
      ---         BLOCKEND  ---      ---       LVL=0

      01001830H   BLOCK     CODE     ---       LVL=0
      01001830H   LINE      CODE     ---       #342
      01001830H   LINE      CODE     ---       #362
      01001833H   LINE      CODE     ---       #363
      01001836H   LINE      CODE     ---       #385
      01001839H   LINE      CODE     ---       #410
      0100183CH   LINE      CODE     ---       #434
      0100183EH   LINE      CODE     ---       #459
      01001841H   LINE      CODE     ---       #483
      01001844H   LINE      CODE     ---       #487
      ---         BLOCKEND  ---      ---       LVL=0

      ---         MODULE    ---      ---       ?C_STARTUP
LX51 LINKER/LOCATER V4.66.30.0                                                        01/21/2016  23:03:23  PAGE 26


      01000000H   PUBLIC    CODE     NEAR LAB  ?C_STARTUP
      000000E0H   SFRSYM    DATA     BYTE      ACC
      000000F0H   SFRSYM    DATA     BYTE      B
      00000083H   SFRSYM    DATA     BYTE      DPH
      00000082H   SFRSYM    DATA     BYTE      DPL
      000000A0H   SFRSYM    DATA     BYTE      PPAGE_SFR
      00000081H   SFRSYM    DATA     BYTE      SP
      00000000H   SYMBOL    NUMBER   ---       IBPSTACK
      00000100H   SYMBOL    NUMBER   ---       IBPSTACKTOP
      00000080H   SYMBOL    NUMBER   ---       IDATALEN
      01000DEDH   SYMBOL    CODE     NEAR LAB  IDATALOOP
      00000000H   SYMBOL    NUMBER   ---       PBPSTACK
      00000100H   SYMBOL    NUMBER   ---       PBPSTACKTOP
      00000000H   SYMBOL    NUMBER   ---       PDATALEN
      00000000H   SYMBOL    NUMBER   ---       PDATASTART
      00000000H   SYMBOL    NUMBER   ---       PPAGE
      00000000H   SYMBOL    NUMBER   ---       PPAGEENABLE
      01000DEAH   SYMBOL    CODE     NEAR LAB  STARTUP1
      00000000H   SYMBOL    NUMBER   ---       XBPSTACK
      00010000H   SYMBOL    NUMBER   ---       XBPSTACKTOP
      00000000H   SYMBOL    NUMBER   ---       XDATALEN
      00000000H   SYMBOL    NUMBER   ---       XDATASTART

      01000000H   BLOCK     CODE     NEAR LAB  LVL=0
      01000000H   LINE      CODE     ---       #126
      ---         BLOCKEND  ---      ---       LVL=0

      01000DEAH   BLOCK     CODE     NEAR LAB  LVL=0
      01000DEAH   LINE      CODE     ---       #138
      01000DECH   LINE      CODE     ---       #139
      01000DEDH   LINE      CODE     ---       #140
      01000DEEH   LINE      CODE     ---       #141
      01000DF0H   LINE      CODE     ---       #190
      01000DF3H   LINE      CODE     ---       #201
      ---         BLOCKEND  ---      ---       LVL=0

      ---         MODULE    ---      ---       CALLBACK
      0000000DH   PUBLIC    DATA     BYTE      tmpBuffer
      01000910H   PUBLIC    CODE     ---       reportTable
      01000908H   PUBLIC    CODE     ---       noKeyReport
      00000040H   PUBLIC    DATA     BYTE      ?_USBD_XferCompleteCb?BYTE
      01001617H   PUBLIC    CODE     ---       _USBD_XferCompleteCb
      010003DAH   PUBLIC    CODE     ---       _USBD_SetupCmdCb
      01001949H   PUBLIC    CODE     ---       USBD_IsSelfPoweredCb
      01001391H   PUBLIC    CODE     ---       _USBD_DeviceStateChangeCb
      01001426H   PUBLIC    CODE     ---       _USBD_SofCb
      010019B3H   PUBLIC    CODE     ---       USBD_ResetCb
      01001A1FH   PUBLIC    CODE     ---       USBD_ExitHandler
      01001A1EH   PUBLIC    CODE     ---       USBD_EnterHandler
      000000A2H   SFRSYM    DATA     BYTE      SPI0CKR
      00000080H   SFRSYM    DATA     BYTE      P0
      000000C8H.6 SFRSYM    DATA     BIT       SCON1_PERR
      000000D0H.2 SFRSYM    DATA     BIT       PSW_OV
      00000090H   SFRSYM    DATA     BYTE      P1
      000000F8H.1 SFRSYM    DATA     BIT       SPI0CN0_TXNF
      00000097H   SFRSYM    DATA     BYTE      WDTCN
      000000A0H   SFRSYM    DATA     BYTE      P2
      000000B0H   SFRSYM    DATA     BYTE      P3
      000000BCH   SFRSYM    DATA     BYTE      ADC0CF
      000000C0H.7 SFRSYM    DATA     BIT       SMB0CN0_MASTER
      000000F9H   SFRSYM    DATA     WORD      PCA0
      000000E6H   SFRSYM    DATA     BYTE      EIE1
LX51 LINKER/LOCATER V4.66.30.0                                                        01/21/2016  23:03:23  PAGE 27


      000000C0H.1 SFRSYM    DATA     BIT       SMB0CN0_ACK
      000000B3H   SFRSYM    DATA     BYTE      USB0XCN
      000000CEH   SFRSYM    DATA     BYTE      EIE2
      0000008FH   SFRSYM    DATA     BYTE      PSCTL
      000000E4H   SFRSYM    DATA     BYTE      IT01CF
      000000C0H.6 SFRSYM    DATA     BIT       SMB0CN0_TXMODE
      000000ADH   SFRSYM    DATA     BYTE      DERIVID
      000000A7H   SFRSYM    DATA     BYTE      SFRPAGE
      000000A4H   SFRSYM    DATA     BYTE      P0MDOUT
      000000BFH   SFRSYM    DATA     BYTE      USB0CDSTA
      000000A5H   SFRSYM    DATA     BYTE      P1MDOUT
      000000E8H.5 SFRSYM    DATA     BIT       ADC0CN0_ADINT
      000000CBH   SFRSYM    DATA     BYTE      TMR2RLH
      000000A6H   SFRSYM    DATA     BYTE      P2MDOUT
      000000A8H   SFRSYM    DATA     BYTE      IE
      00000093H   SFRSYM    DATA     BYTE      TMR3RLH
      0000009CH   SFRSYM    DATA     BYTE      P3MDOUT
      000000A3H   SFRSYM    DATA     BYTE      TMR4RLH
      000000F3H   SFRSYM    DATA     BYTE      EIP1
      000000F4H   SFRSYM    DATA     BYTE      EIP2
      00000098H.2 SFRSYM    DATA     BIT       SCON0_RB8
      000000CAH   SFRSYM    DATA     BYTE      TMR2RLL
      000000FCH   SFRSYM    DATA     BYTE      PCA0CPH0
      00000092H   SFRSYM    DATA     BYTE      TMR3RLL
      000000EAH   SFRSYM    DATA     BYTE      PCA0CPH1
      00000098H.3 SFRSYM    DATA     BIT       SCON0_TB8
      000000F0H   SFRSYM    DATA     BIT       B_B0
      00000082H   SFRSYM    DATA     WORD      DP
      000000A2H   SFRSYM    DATA     BYTE      TMR4RLL
      000000ECH   SFRSYM    DATA     BYTE      PCA0CPH2
      000000F0H.1 SFRSYM    DATA     BIT       B_B1
      000000C3H   SFRSYM    DATA     WORD      ADC0GT
      000000BDH   SFRSYM    DATA     BYTE      I2C0SLAD
      000000D8H.3 SFRSYM    DATA     BIT       UART1FCN1_RFRQ
      000000F0H.2 SFRSYM    DATA     BIT       B_B2
      000000CFH   SFRSYM    DATA     BYTE      SFRPGCN
      000000FBH   SFRSYM    DATA     BYTE      PCA0CPL0
      000000F0H.3 SFRSYM    DATA     BIT       B_B3
      000000D9H   SFRSYM    DATA     BYTE      PCA0MD
      000000DAH   SFRSYM    DATA     BYTE      PCA0CPM0
      000000E9H   SFRSYM    DATA     BYTE      PCA0CPL1
      000000D8H.7 SFRSYM    DATA     BIT       UART1FCN1_TFRQ
      000000F0H.4 SFRSYM    DATA     BIT       B_B4
      000000DBH   SFRSYM    DATA     BYTE      PCA0CPM1
      000000EBH   SFRSYM    DATA     BYTE      PCA0CPL2
      000000F0H.5 SFRSYM    DATA     BIT       B_B5
      000000DCH   SFRSYM    DATA     BYTE      PCA0CPM2
      000000B8H   SFRSYM    DATA     BYTE      IP
      000000B9H   SFRSYM    DATA     BYTE      ADC0TK
      000000F0H.6 SFRSYM    DATA     BIT       B_B6
      000000C5H   SFRSYM    DATA     WORD      ADC0LT
      000000D8H.6 SFRSYM    DATA     BIT       UART1FCN1_TXNF
      00000098H.5 SFRSYM    DATA     BIT       SCON0_MCE
      000000F0H.7 SFRSYM    DATA     BIT       B_B7
      000000C3H   SFRSYM    DATA     BYTE      SMB0FCN0
      000000E1H   SFRSYM    DATA     BYTE      XBR0
      000000C4H   SFRSYM    DATA     BYTE      SMB0FCN1
      000000C1H   SFRSYM    DATA     BYTE      SMB0CF
      000000E2H   SFRSYM    DATA     BYTE      XBR1
      000000C1H   SFRSYM    DATA     BYTE      PFE0CN
      000000E7H   SFRSYM    DATA     BYTE      EMI0CN
      000000C0H.5 SFRSYM    DATA     BIT       SMB0CN0_STA
LX51 LINKER/LOCATER V4.66.30.0                                                        01/21/2016  23:03:23  PAGE 28


      000000E3H   SFRSYM    DATA     BYTE      XBR2
      000000BBH   SFRSYM    DATA     BYTE      ADC0MX
      000000E0H   SFRSYM    DATA     BIT       ACC_ACC0
      000000D1H   SFRSYM    DATA     BYTE      REF0CN
      0000008EH   SFRSYM    DATA     BYTE      CKCON0
      000000E0H.1 SFRSYM    DATA     BIT       ACC_ACC1
      000000C9H   SFRSYM    DATA     BYTE      REG0CN
      000000DDH   SFRSYM    DATA     BYTE      CRC0IN
      000000A6H   SFRSYM    DATA     BYTE      CKCON1
      000000C8H.2 SFRSYM    DATA     BIT       TMR2CN0_TR2
      000000E0H.2 SFRSYM    DATA     BIT       ACC_ACC2
      000000C6H   SFRSYM    DATA     BYTE      REG1CN
      000000E0H.3 SFRSYM    DATA     BIT       ACC_ACC3
      00000081H   SFRSYM    DATA     BYTE      SP
      0000009DH   SFRSYM    DATA     BYTE      CMP0MD
      000000E0H.4 SFRSYM    DATA     BIT       ACC_ACC4
      000000B1H   SFRSYM    DATA     BYTE      LFO0CN
      000000ABH   SFRSYM    DATA     BYTE      CMP1MD
      000000D8H   SFRSYM    DATA     BIT       PCA0CN0_CCF0
      000000E0H.5 SFRSYM    DATA     BIT       ACC_ACC5
      000000B5H   SFRSYM    DATA     BYTE      USB0CF
      00000098H.2 SFRSYM    DATA     BIT       TMR4CN0_TR4
      000000D8H.1 SFRSYM    DATA     BIT       PCA0CN0_CCF1
      000000E0H.6 SFRSYM    DATA     BIT       ACC_ACC6
      000000CCH   SFRSYM    DATA     WORD      TMR2
      0000009AH   SFRSYM    DATA     BYTE      SPI0FCN0
      000000D8H.2 SFRSYM    DATA     BIT       PCA0CN0_CCF2
      000000E0H.7 SFRSYM    DATA     BIT       ACC_ACC7
      00000094H   SFRSYM    DATA     WORD      TMR3
      0000009BH   SFRSYM    DATA     BYTE      SPI0FCN1
      000000A4H   SFRSYM    DATA     WORD      TMR4
      00000094H   SFRSYM    DATA     BYTE      SBCON1
      000000C0H.3 SFRSYM    DATA     BIT       SMB0CN0_ACKRQ
      000000FFH   SFRSYM    DATA     BYTE      VDM0CN
      000000F1H   SFRSYM    DATA     BYTE      P0MDIN
      00000098H.4 SFRSYM    DATA     BIT       SCON0_REN
      000000ACH   SFRSYM    DATA     BYTE      SMB0TC
      000000F2H   SFRSYM    DATA     BYTE      P1MDIN
      000000C8H.4 SFRSYM    DATA     BIT       SCON1_REN
      000000F3H   SFRSYM    DATA     BYTE      P2MDIN
      000000C0H.4 SFRSYM    DATA     BIT       SMB0CN0_STO
      000000B6H   SFRSYM    DATA     BYTE      USB0CDCF
      000000F4H   SFRSYM    DATA     BYTE      P3MDIN
      000000B9H   SFRSYM    DATA     BYTE      I2C0STAT
      000000BBH   SFRSYM    DATA     BYTE      I2C0DOUT
      00000096H   SFRSYM    DATA     BYTE      SBRLH1
      000000FEH   SFRSYM    DATA     BYTE      P0MASK
      000000D8H.5 SFRSYM    DATA     BIT       UART1FCN1_TXHOLD
      000000EEH   SFRSYM    DATA     BYTE      P1MASK
      000000FCH   SFRSYM    DATA     BYTE      P2MASK
      000000D0H.3 SFRSYM    DATA     BIT       PSW_RS0
      000000D8H.7 SFRSYM    DATA     BIT       PCA0CN0_CF
      0000009EH   SFRSYM    DATA     BYTE      PCA0CENT
      000000BAH   SFRSYM    DATA     BYTE      I2C0CN0
      000000D2H   SFRSYM    DATA     BYTE      CRC0ST
      000000F8H.4 SFRSYM    DATA     BIT       SPI0CN0_RXOVRN
      000000D0H.4 SFRSYM    DATA     BIT       PSW_RS1
      00000095H   SFRSYM    DATA     BYTE      SBRLL1
      000000C8H.2 SFRSYM    DATA     BIT       SCON1_RBX
      000000C8H   SFRSYM    DATA     BIT       TMR2CN0_T2XCLK0
      000000C8H.1 SFRSYM    DATA     BIT       TMR2CN0_T2XCLK1
      000000C8H.3 SFRSYM    DATA     BIT       SCON1_TBX
LX51 LINKER/LOCATER V4.66.30.0                                                        01/21/2016  23:03:23  PAGE 29


      000000E8H.7 SFRSYM    DATA     BIT       ADC0CN0_ADEN
      000000BEH   SFRSYM    DATA     BYTE      USB0CDCN
      00000089H   SFRSYM    DATA     BYTE      TMOD
      00000088H   SFRSYM    DATA     BYTE      TCON
      000000CFH   SFRSYM    DATA     BYTE      CRC0FLIP
      000000D0H   SFRSYM    DATA     BIT       PSW_PARITY
      000000A8H.4 SFRSYM    DATA     BIT       IE_ES0
      0000009FH   SFRSYM    DATA     BYTE      CMP0MX
      00000098H   SFRSYM    DATA     BIT       TMR4CN0_T4XCLK0
      000000A8H.1 SFRSYM    DATA     BIT       IE_ET0
      000000AAH   SFRSYM    DATA     BYTE      CMP1MX
      00000098H.1 SFRSYM    DATA     BIT       TMR4CN0_T4XCLK1
      000000A8H.3 SFRSYM    DATA     BIT       IE_ET1
      000000D4H   SFRSYM    DATA     BYTE      P0SKIP
      000000D8H   SFRSYM    DATA     BIT       UART1FCN1_RIE
      000000A8H.5 SFRSYM    DATA     BIT       IE_ET2
      000000D5H   SFRSYM    DATA     BYTE      P1SKIP
      000000CCH   SFRSYM    DATA     BYTE      P2SKIP
      000000E8H   SFRSYM    DATA     BYTE      ADC0CN0
      000000D8H.4 SFRSYM    DATA     BIT       UART1FCN1_TIE
      000000A8H   SFRSYM    DATA     BIT       IE_EX0
      000000B2H   SFRSYM    DATA     BYTE      ADC0CN1
      000000D8H.6 SFRSYM    DATA     BIT       PCA0CN0_CR
      000000A8H.2 SFRSYM    DATA     BIT       IE_EX1
      00000090H.5 SFRSYM    DATA     BIT       BSP_LED_B
      000000C8H.7 SFRSYM    DATA     BIT       SCON1_OVR
      00000098H.7 SFRSYM    DATA     BIT       SCON0_SMODE
      000000B5H   SFRSYM    DATA     BYTE      DEVICEID
      000000A9H   SFRSYM    DATA     BYTE      CLKSEL
      000000F8H   SFRSYM    DATA     BIT       SPI0CN0_SPIEN
      000000F0H   SFRSYM    DATA     BYTE      B
      000000BEH   SFRSYM    DATA     BYTE      ADC0H
      00000090H.4 SFRSYM    DATA     BIT       BSP_LED_G
      000000E8H.6 SFRSYM    DATA     BIT       ADC0CN0_ADBMEN
      000000CAH   SFRSYM    DATA     WORD      TMR2RL
      000000BDH   SFRSYM    DATA     BYTE      ADC0L
      00000092H   SFRSYM    DATA     WORD      TMR3RL
      000000A2H   SFRSYM    DATA     WORD      TMR4RL
      000000D8H   SFRSYM    DATA     BYTE      PCA0CN0
      000000E0H   SFRSYM    DATA     BYTE      ACC
      000000FBH   SFRSYM    DATA     WORD      PCA0CP0
      000000E9H   SFRSYM    DATA     WORD      PCA0CP1
      000000EBH   SFRSYM    DATA     WORD      PCA0CP2
      000000BCH   SFRSYM    DATA     BYTE      I2C0DIN
      000000CEH   SFRSYM    DATA     BYTE      CRC0CN0
      0000008CH   SFRSYM    DATA     BYTE      TH0
      00000086H   SFRSYM    DATA     BYTE      CRC0CN1
      000000B8H.4 SFRSYM    DATA     BIT       IP_PS0
      000000FAH   SFRSYM    DATA     BYTE      UART1FCT
      0000008DH   SFRSYM    DATA     BYTE      TH1
      000000FAH   SFRSYM    DATA     BYTE      PCA0H
      000000F5H   SFRSYM    DATA     BYTE      I2C0FCT
      00000090H.6 SFRSYM    DATA     BIT       BSP_LED_R
      000000B8H.1 SFRSYM    DATA     BIT       IP_PT0
      000000B8H.3 SFRSYM    DATA     BIT       IP_PT1
      000000C0H.2 SFRSYM    DATA     BIT       SMB0CN0_ARBLOST
      000000B8H.5 SFRSYM    DATA     BIT       IP_PT2
      0000008AH   SFRSYM    DATA     BYTE      TL0
      000000D0H.5 SFRSYM    DATA     BIT       PSW_F0
      000000A8H.6 SFRSYM    DATA     BIT       IE_ESPI0
      0000008BH   SFRSYM    DATA     BYTE      TL1
      000000F9H   SFRSYM    DATA     BYTE      PCA0L
LX51 LINKER/LOCATER V4.66.30.0                                                        01/21/2016  23:03:23  PAGE 30


      000000C0H   SFRSYM    DATA     BIT       SMB0CN0_SI
      000000D0H.1 SFRSYM    DATA     BIT       PSW_F1
      00000080H   SFRSYM    DATA     BIT       P0_B0
      000000B8H   SFRSYM    DATA     BIT       IP_PX0
      00000090H   SFRSYM    DATA     BIT       P1_B0
      00000080H.1 SFRSYM    DATA     BIT       P0_B1
      000000B8H.2 SFRSYM    DATA     BIT       IP_PX1
      0000009EH   SFRSYM    DATA     BYTE      UART1LIN
      0000009BH   SFRSYM    DATA     BYTE      CMP0CN0
      00000088H.1 SFRSYM    DATA     BIT       TCON_IE0
      000000A0H   SFRSYM    DATA     BIT       P2_B0
      00000090H.1 SFRSYM    DATA     BIT       P1_B1
      00000080H.2 SFRSYM    DATA     BIT       P0_B2
      000000BFH   SFRSYM    DATA     BYTE      CMP1CN0
      00000099H   SFRSYM    DATA     BYTE      CMP0CN1
      00000088H.3 SFRSYM    DATA     BIT       TCON_IE1
      000000B0H   SFRSYM    DATA     BIT       P3_B0
      000000A0H.1 SFRSYM    DATA     BIT       P2_B1
      00000090H.2 SFRSYM    DATA     BIT       P1_B2
      00000080H.3 SFRSYM    DATA     BIT       P0_B3
      000000C0H   SFRSYM    DATA     BYTE      SMB0CN0
      000000ACH   SFRSYM    DATA     BYTE      CMP1CN1
      000000B0H.1 SFRSYM    DATA     BIT       P3_B1
      000000A0H.2 SFRSYM    DATA     BIT       P2_B2
      00000090H.3 SFRSYM    DATA     BIT       P1_B3
      00000080H.4 SFRSYM    DATA     BIT       P0_B4
      000000A0H.3 SFRSYM    DATA     BIT       P2_B3
      00000090H.4 SFRSYM    DATA     BIT       P1_B4
      00000080H.5 SFRSYM    DATA     BIT       P0_B5
      000000D8H.1 SFRSYM    DATA     BIT       UART1FCN1_RXTO0
      00000090H.5 SFRSYM    DATA     BIT       P1_B5
      00000080H.6 SFRSYM    DATA     BIT       P0_B6
      000000F5H   SFRSYM    DATA     BYTE      EIP1H
      000000D8H.2 SFRSYM    DATA     BIT       UART1FCN1_RXTO1
      00000090H.6 SFRSYM    DATA     BIT       P1_B6
      00000080H.7 SFRSYM    DATA     BIT       P0_B7
      000000C5H   SFRSYM    DATA     BYTE      SMB0RXLN
      000000F6H   SFRSYM    DATA     BYTE      EIP2H
      00000090H.7 SFRSYM    DATA     BIT       P1_B7
      00000083H   SFRSYM    DATA     BYTE      DPH
      000000C4H   SFRSYM    DATA     BYTE      ADC0GTH
      000000C8H.7 SFRSYM    DATA     BIT       TMR2CN0_TF2H
      000000C8H.3 SFRSYM    DATA     BIT       TMR2CN0_T2SPLIT
      000000D0H.6 SFRSYM    DATA     BIT       PSW_AC
      000000F8H   SFRSYM    DATA     BYTE      SPI0CN0
      000000C7H   SFRSYM    DATA     BYTE      HFO0CAL
      00000088H.5 SFRSYM    DATA     BIT       TCON_TF0
      00000098H   SFRSYM    DATA     BIT       SCON0_RI
      000000D6H   SFRSYM    DATA     BYTE      HFO1CAL
      00000082H   SFRSYM    DATA     BYTE      DPL
      00000088H.7 SFRSYM    DATA     BIT       TCON_TF1
      000000C8H   SFRSYM    DATA     BIT       SCON1_RI
      00000099H   SFRSYM    DATA     BYTE      SBUF0
      00000087H   SFRSYM    DATA     BYTE      PCON0
      000000F2H   SFRSYM    DATA     BYTE      IPH
      000000C3H   SFRSYM    DATA     BYTE      ADC0GTL
      00000098H.7 SFRSYM    DATA     BIT       TMR4CN0_TF4H
      00000098H.3 SFRSYM    DATA     BIT       TMR4CN0_T4SPLIT
      000000C8H.6 SFRSYM    DATA     BIT       TMR2CN0_TF2L
      00000098H.1 SFRSYM    DATA     BIT       SCON0_TI
      000000E8H   SFRSYM    DATA     BIT       ADC0CN0_ADCM0
      00000092H   SFRSYM    DATA     BYTE      SBUF1
LX51 LINKER/LOCATER V4.66.30.0                                                        01/21/2016  23:03:23  PAGE 31


      0000009AH   SFRSYM    DATA     BYTE      PCON1
      000000C6H   SFRSYM    DATA     BYTE      ADC0LTH
      00000088H   SFRSYM    DATA     BIT       TCON_IT0
      000000C8H.1 SFRSYM    DATA     BIT       SCON1_TI
      000000E8H.1 SFRSYM    DATA     BIT       ADC0CN0_ADCM1
      000000EFH   SFRSYM    DATA     BYTE      RSTSRC
      000000FDH   SFRSYM    DATA     BYTE      P0MAT
      000000DEH   SFRSYM    DATA     BYTE      CRC0DAT
      00000088H.2 SFRSYM    DATA     BIT       TCON_IT1
      000000E8H.2 SFRSYM    DATA     BIT       ADC0CN0_ADCM2
      000000D7H   SFRSYM    DATA     BYTE      SFRSTACK
      00000098H   SFRSYM    DATA     BYTE      SCON0
      000000F6H   SFRSYM    DATA     BYTE      PRTDRV
      000000EDH   SFRSYM    DATA     BYTE      P1MAT
      000000E8H.3 SFRSYM    DATA     BIT       ADC0CN0_ADWINT
      00000095H   SFRSYM    DATA     WORD      SBRL1
      000000B2H   SFRSYM    DATA     BYTE      USB0AEC
      00000093H   SFRSYM    DATA     BYTE      SMOD1
      000000C8H   SFRSYM    DATA     BYTE      SCON1
      000000FBH   SFRSYM    DATA     BYTE      P2MAT
      00000098H.6 SFRSYM    DATA     BIT       TMR4CN0_TF4L
      000000E8H.4 SFRSYM    DATA     BIT       ADC0CN0_ADBUSY
      000000D6H   SFRSYM    DATA     BYTE      SMB0ADM
      000000C5H   SFRSYM    DATA     BYTE      ADC0LTL
      000000F8H.5 SFRSYM    DATA     BIT       SPI0CN0_MODF
      000000B8H.6 SFRSYM    DATA     BIT       IP_PSPI0
      0000009CH   SFRSYM    DATA     BYTE      PCA0CLR
      000000C8H   SFRSYM    DATA     BYTE      TMR2CN0
      00000091H   SFRSYM    DATA     BYTE      TMR3CN0
      000000FDH   SFRSYM    DATA     BYTE      TMR2CN1
      00000098H   SFRSYM    DATA     BYTE      TMR4CN0
      000000FEH   SFRSYM    DATA     BYTE      TMR3CN1
      000000FFH   SFRSYM    DATA     BYTE      TMR4CN1
      000000D7H   SFRSYM    DATA     BYTE      SMB0ADR
      00000088H.4 SFRSYM    DATA     BIT       TCON_TR0
      000000C8H.4 SFRSYM    DATA     BIT       TMR2CN0_TF2CEN
      00000088H.6 SFRSYM    DATA     BIT       TCON_TR1
      000000C2H   SFRSYM    DATA     BYTE      SMB0DAT
      000000CDH   SFRSYM    DATA     BYTE      TMR2H
      000000A1H   SFRSYM    DATA     BYTE      SPI0CFG
      00000095H   SFRSYM    DATA     BYTE      TMR3H
      000000EFH   SFRSYM    DATA     BYTE      HFOCN
      000000D3H   SFRSYM    DATA     BYTE      CRC0CNT
      000000A5H   SFRSYM    DATA     BYTE      TMR4H
      00000098H.4 SFRSYM    DATA     BIT       TMR4CN0_TF4CEN
      000000EFH   SFRSYM    DATA     BYTE      SMB0FCT
      00000096H   SFRSYM    DATA     BYTE      PCA0POL
      000000CCH   SFRSYM    DATA     BYTE      TMR2L
      000000F8H.7 SFRSYM    DATA     BIT       SPI0CN0_SPIF
      000000AEH   SFRSYM    DATA     BYTE      USB0ADR
      00000094H   SFRSYM    DATA     BYTE      TMR3L
      000000DFH   SFRSYM    DATA     BYTE      ADC0PWR
      000000A8H.7 SFRSYM    DATA     BIT       IE_EA
      000000A4H   SFRSYM    DATA     BYTE      TMR4L
      000000AFH   SFRSYM    DATA     BYTE      USB0DAT
      000000C8H.5 SFRSYM    DATA     BIT       TMR2CN0_TF2LEN
      000000F8H.6 SFRSYM    DATA     BIT       SPI0CN0_WCOL
      000000F8H.2 SFRSYM    DATA     BIT       SPI0CN0_NSSMD0
      000000D0H.7 SFRSYM    DATA     BIT       PSW_CY
      0000009DH   SFRSYM    DATA     BYTE      UART1FCN0
      000000A3H   SFRSYM    DATA     BYTE      SPI0DAT
      000000ADH   SFRSYM    DATA     BYTE      I2C0FCN0
LX51 LINKER/LOCATER V4.66.30.0                                                        01/21/2016  23:03:23  PAGE 32


      000000F8H.3 SFRSYM    DATA     BIT       SPI0CN0_NSSMD1
      000000BDH   SFRSYM    DATA     WORD      ADC0
      000000D8H   SFRSYM    DATA     BYTE      UART1FCN1
      000000ABH   SFRSYM    DATA     BYTE      I2C0FCN1
      00000098H.5 SFRSYM    DATA     BIT       TMR4CN0_TF4LEN
      000000D0H   SFRSYM    DATA     BYTE      PSW
      000000F7H   SFRSYM    DATA     BYTE      PCA0PWM
      000000F7H   SFRSYM    DATA     BYTE      SPI0FCT
      000000B6H   SFRSYM    DATA     BYTE      REVID
      000000B7H   SFRSYM    DATA     BYTE      FLKEY
      000000B3H   SFRSYM    DATA     BYTE      ADC0AC

      01001342H   BLOCK     CODE     ---       LVL=0
      ---         BLOCKEND  ---      ---       LVL=0

      01001A1EH   BLOCK     CODE     ---       LVL=0
      01001A1EH   LINE      CODE     ---       #65
      01001A1EH   LINE      CODE     ---       #66
      01001A1EH   LINE      CODE     ---       #69
      ---         BLOCKEND  ---      ---       LVL=0

      01001A1FH   BLOCK     CODE     ---       LVL=0
      01001A1FH   LINE      CODE     ---       #71
      01001A1FH   LINE      CODE     ---       #72
      01001A1FH   LINE      CODE     ---       #74
      ---         BLOCKEND  ---      ---       LVL=0

      010019B3H   BLOCK     CODE     ---       LVL=0
      010019B3H   LINE      CODE     ---       #76
      010019B3H   LINE      CODE     ---       #77
      010019B3H   LINE      CODE     ---       #78
      ---         BLOCKEND  ---      ---       LVL=0

      01001426H   BLOCK     CODE     ---       LVL=0
      0000003DH   SYMBOL    DATA     WORD      sofNr
      0100142AH   BLOCK     CODE     NEAR LAB  LVL=1
      00000022H.4 SYMBOL    BIT      BIT       keyReleased
      ---         BLOCKEND  ---      ---       LVL=1
      01001426H   LINE      CODE     ---       #81
      0100142AH   LINE      CODE     ---       #82
      0100142AH   LINE      CODE     ---       #88
      0100142AH   LINE      CODE     ---       #90
      0100142DH   LINE      CODE     ---       #93
      01001432H   LINE      CODE     ---       #94
      01001432H   LINE      CODE     ---       #95
      01001435H   LINE      CODE     ---       #96
      01001435H   LINE      CODE     ---       #97
      01001437H   LINE      CODE     ---       #98
      01001439H   LINE      CODE     ---       #99
      01001444H   LINE      CODE     ---       #104
      01001446H   LINE      CODE     ---       #105
      0100144CH   LINE      CODE     ---       #106
      0100144CH   LINE      CODE     ---       #107
      0100144EH   LINE      CODE     ---       #108
      0100144EH   LINE      CODE     ---       #109
      0100144FH   LINE      CODE     ---       #110
      01001457H   LINE      CODE     ---       #111
      01001457H   LINE      CODE     ---       #112
      01001459H   LINE      CODE     ---       #113
      01001467H   LINE      CODE     ---       #117
      01001467H   LINE      CODE     ---       #118
      01001467H   LINE      CODE     ---       #119
LX51 LINKER/LOCATER V4.66.30.0                                                        01/21/2016  23:03:23  PAGE 33


      ---         BLOCKEND  ---      ---       LVL=0

      01001391H   BLOCK     CODE     ---       LVL=0
      00000041H   SYMBOL    DATA     BYTE      oldState
      00000042H   SYMBOL    DATA     BYTE      newState
      01001395H   BLOCK     CODE     NEAR LAB  LVL=1
      00000021H.1 SYMBOL    BIT      BIT       numLockSave
      00000021H.2 SYMBOL    BIT      BIT       capsLockSave
      ---         BLOCKEND  ---      ---       LVL=1
      01001391H   LINE      CODE     ---       #121
      01001395H   LINE      CODE     ---       #123
      01001395H   LINE      CODE     ---       #126
      0100139EH   LINE      CODE     ---       #129
      010013A5H   LINE      CODE     ---       #130
      010013A5H   LINE      CODE     ---       #132
      010013A7H   LINE      CODE     ---       #133
      010013A9H   LINE      CODE     ---       #134
      010013ABH   LINE      CODE     ---       #135
      010013ADH   LINE      CODE     ---       #136
      010013AFH   LINE      CODE     ---       #138
      010013B4H   LINE      CODE     ---       #139
      010013B4H   LINE      CODE     ---       #141
      010013B8H   LINE      CODE     ---       #142
      010013BCH   LINE      CODE     ---       #143
      010013BEH   LINE      CODE     ---       #144
      010013C0H   LINE      CODE     ---       #147
      010013C5H   LINE      CODE     ---       #148
      010013C7H   LINE      CODE     ---       #149
      010013CCH   LINE      CODE     ---       #150
      010013CCH   LINE      CODE     ---       #151
      010013D1H   LINE      CODE     ---       #152
      010013D1H   LINE      CODE     ---       #155
      010013D6H   LINE      CODE     ---       #156
      010013D6H   LINE      CODE     ---       #158
      010013DAH   LINE      CODE     ---       #159
      010013DEH   LINE      CODE     ---       #160
      010013DEH   LINE      CODE     ---       #161
      ---         BLOCKEND  ---      ---       LVL=0

      01001949H   BLOCK     CODE     ---       LVL=0
      01001949H   LINE      CODE     ---       #163
      01001949H   LINE      CODE     ---       #164
      01001949H   LINE      CODE     ---       #165
      01001952H   LINE      CODE     ---       #166
      01001953H   LINE      CODE     ---       #167
      ---         BLOCKEND  ---      ---       LVL=0

      010003DAH   BLOCK     CODE     ---       LVL=0
      0000003DH   SYMBOL    DATA     ---       setup
      010003DCH   BLOCK     CODE     NEAR LAB  LVL=1
      0000003EH   SYMBOL    DATA     CHAR      retVal
      ---         BLOCKEND  ---      ---       LVL=1
      010003DAH   LINE      CODE     ---       #169
      010003DCH   LINE      CODE     ---       #173
      010003DCH   LINE      CODE     ---       #175
      010003DFH   LINE      CODE     ---       #177
      010003E8H   LINE      CODE     ---       #179
      01000406H   LINE      CODE     ---       #182
      01000406H   LINE      CODE     ---       #185
      01000411H   LINE      CODE     ---       #186
      01000411H   LINE      CODE     ---       #187
      01000411H   LINE      CODE     ---       #188
LX51 LINKER/LOCATER V4.66.30.0                                                        01/21/2016  23:03:23  PAGE 34


      0100041BH   LINE      CODE     ---       #189
      0100041BH   LINE      CODE     ---       #190
      01000429H   LINE      CODE     ---       #191
      01000429H   LINE      CODE     ---       #192
      01000429H   LINE      CODE     ---       #194
      01000441H   LINE      CODE     ---       #198
      01000441H   LINE      CODE     ---       #199
      01000443H   LINE      CODE     ---       #201
      01000443H   LINE      CODE     ---       #202
      01000443H   LINE      CODE     ---       #203
      01000443H   LINE      CODE     ---       #204
      01000443H   LINE      CODE     ---       #205
      01000450H   LINE      CODE     ---       #206
      01000450H   LINE      CODE     ---       #207
      0100045EH   LINE      CODE     ---       #208
      0100045EH   LINE      CODE     ---       #209
      0100045EH   LINE      CODE     ---       #211
      0100047AH   LINE      CODE     ---       #215
      0100047AH   LINE      CODE     ---       #216
      0100047DH   LINE      CODE     ---       #218
      0100047DH   LINE      CODE     ---       #219
      0100047DH   LINE      CODE     ---       #220
      0100047DH   LINE      CODE     ---       #221
      0100047DH   LINE      CODE     ---       #222
      0100047DH   LINE      CODE     ---       #223
      0100047DH   LINE      CODE     ---       #224
      0100047DH   LINE      CODE     ---       #225
      010004A2H   LINE      CODE     ---       #228
      010004A2H   LINE      CODE     ---       #230
      010004B9H   LINE      CODE     ---       #231
      010004B9H   LINE      CODE     ---       #232
      010004B9H   LINE      CODE     ---       #233
      010004E0H   LINE      CODE     ---       #237
      010004E0H   LINE      CODE     ---       #238
      010004F3H   LINE      CODE     ---       #239
      010004F3H   LINE      CODE     ---       #240
      010004F3H   LINE      CODE     ---       #241
      010004F6H   LINE      CODE     ---       #243
      010004F6H   LINE      CODE     ---       #244
      01000517H   LINE      CODE     ---       #248
      01000517H   LINE      CODE     ---       #249
      0100051AH   LINE      CODE     ---       #250
      0100051AH   LINE      CODE     ---       #252
      0100051DH   LINE      CODE     ---       #256
      0100051FH   LINE      CODE     ---       #258
      0100051FH   LINE      CODE     ---       #260
      0100052DH   LINE      CODE     ---       #264
      0100052DH   LINE      CODE     ---       #265
      0100052DH   LINE      CODE     ---       #266
      0100052DH   LINE      CODE     ---       #267
      0100052FH   LINE      CODE     ---       #269
      0100052FH   LINE      CODE     ---       #270
      0100054BH   LINE      CODE     ---       #273
      0100054BH   LINE      CODE     ---       #274
      01000550H   LINE      CODE     ---       #275
      01000550H   LINE      CODE     ---       #276
      01000550H   LINE      CODE     ---       #277
      01000552H   LINE      CODE     ---       #279
      01000552H   LINE      CODE     ---       #280
      0100056FH   LINE      CODE     ---       #283
      0100056FH   LINE      CODE     ---       #284
      01000574H   LINE      CODE     ---       #285
LX51 LINKER/LOCATER V4.66.30.0                                                        01/21/2016  23:03:23  PAGE 35


      01000587H   LINE      CODE     ---       #286
      0100058AH   LINE      CODE     ---       #287
      0100058AH   LINE      CODE     ---       #288
      0100058AH   LINE      CODE     ---       #289
      0100058AH   LINE      CODE     ---       #290
      0100058AH   LINE      CODE     ---       #292
      0100058CH   LINE      CODE     ---       #293
      ---         BLOCKEND  ---      ---       LVL=0

      01001617H   BLOCK     CODE     ---       LVL=0
      00000040H   SYMBOL    DATA     BYTE      epAddr
      00000041H   SYMBOL    DATA     CHAR      status
      00000042H   SYMBOL    DATA     WORD      xferred
      00000044H   SYMBOL    DATA     WORD      remaining
      01001617H   LINE      CODE     ---       #297
      0100161FH   LINE      CODE     ---       #301
      0100161FH   LINE      CODE     ---       #302
      0100161FH   LINE      CODE     ---       #303
      0100161FH   LINE      CODE     ---       #305
      01001628H   LINE      CODE     ---       #307
      0100162CH   LINE      CODE     ---       #308
      0100162CH   LINE      CODE     ---       #311
      01001630H   LINE      CODE     ---       #312
      01001630H   LINE      CODE     ---       #313
      01001636H   LINE      CODE     ---       #314
      0100163DH   LINE      CODE     ---       #315
      0100163DH   LINE      CODE     ---       #316
      0100163DH   LINE      CODE     ---       #318
      01001640H   LINE      CODE     ---       #319
      ---         BLOCKEND  ---      ---       LVL=0

      ---         MODULE    ---      ---       DESCRIPTORS
      01001AEAH   PUBLIC    CONST    ---       initstruct
      01001A78H   PUBLIC    CONST    ---       configDesc
      01001A66H   PUBLIC    CONST    ---       deviceDesc
      01001A21H   PUBLIC    CONST    ---       ReportDescriptor0
      000000A2H   SFRSYM    DATA     BYTE      SPI0CKR
      00000080H   SFRSYM    DATA     BYTE      P0
      000000C8H.6 SFRSYM    DATA     BIT       SCON1_PERR
      000000D0H.2 SFRSYM    DATA     BIT       PSW_OV
      00000090H   SFRSYM    DATA     BYTE      P1
      000000F8H.1 SFRSYM    DATA     BIT       SPI0CN0_TXNF
      00000097H   SFRSYM    DATA     BYTE      WDTCN
      000000A0H   SFRSYM    DATA     BYTE      P2
      000000B0H   SFRSYM    DATA     BYTE      P3
      000000BCH   SFRSYM    DATA     BYTE      ADC0CF
      000000C0H.7 SFRSYM    DATA     BIT       SMB0CN0_MASTER
      000000F9H   SFRSYM    DATA     WORD      PCA0
      000000E6H   SFRSYM    DATA     BYTE      EIE1
      000000C0H.1 SFRSYM    DATA     BIT       SMB0CN0_ACK
      000000B3H   SFRSYM    DATA     BYTE      USB0XCN
      000000CEH   SFRSYM    DATA     BYTE      EIE2
      0000008FH   SFRSYM    DATA     BYTE      PSCTL
      000000E4H   SFRSYM    DATA     BYTE      IT01CF
      000000C0H.6 SFRSYM    DATA     BIT       SMB0CN0_TXMODE
      000000ADH   SFRSYM    DATA     BYTE      DERIVID
      000000A7H   SFRSYM    DATA     BYTE      SFRPAGE
      000000A4H   SFRSYM    DATA     BYTE      P0MDOUT
      000000BFH   SFRSYM    DATA     BYTE      USB0CDSTA
      000000A5H   SFRSYM    DATA     BYTE      P1MDOUT
      000000E8H.5 SFRSYM    DATA     BIT       ADC0CN0_ADINT
      000000CBH   SFRSYM    DATA     BYTE      TMR2RLH
LX51 LINKER/LOCATER V4.66.30.0                                                        01/21/2016  23:03:23  PAGE 36


      000000A6H   SFRSYM    DATA     BYTE      P2MDOUT
      000000A8H   SFRSYM    DATA     BYTE      IE
      00000093H   SFRSYM    DATA     BYTE      TMR3RLH
      0000009CH   SFRSYM    DATA     BYTE      P3MDOUT
      000000A3H   SFRSYM    DATA     BYTE      TMR4RLH
      000000F3H   SFRSYM    DATA     BYTE      EIP1
      000000F4H   SFRSYM    DATA     BYTE      EIP2
      00000098H.2 SFRSYM    DATA     BIT       SCON0_RB8
      000000CAH   SFRSYM    DATA     BYTE      TMR2RLL
      000000FCH   SFRSYM    DATA     BYTE      PCA0CPH0
      00000092H   SFRSYM    DATA     BYTE      TMR3RLL
      000000EAH   SFRSYM    DATA     BYTE      PCA0CPH1
      00000098H.3 SFRSYM    DATA     BIT       SCON0_TB8
      000000F0H   SFRSYM    DATA     BIT       B_B0
      00000082H   SFRSYM    DATA     WORD      DP
      000000A2H   SFRSYM    DATA     BYTE      TMR4RLL
      000000ECH   SFRSYM    DATA     BYTE      PCA0CPH2
      000000F0H.1 SFRSYM    DATA     BIT       B_B1
      000000C3H   SFRSYM    DATA     WORD      ADC0GT
      000000BDH   SFRSYM    DATA     BYTE      I2C0SLAD
      000000D8H.3 SFRSYM    DATA     BIT       UART1FCN1_RFRQ
      000000F0H.2 SFRSYM    DATA     BIT       B_B2
      000000CFH   SFRSYM    DATA     BYTE      SFRPGCN
      000000FBH   SFRSYM    DATA     BYTE      PCA0CPL0
      000000F0H.3 SFRSYM    DATA     BIT       B_B3
      000000D9H   SFRSYM    DATA     BYTE      PCA0MD
      000000DAH   SFRSYM    DATA     BYTE      PCA0CPM0
      000000E9H   SFRSYM    DATA     BYTE      PCA0CPL1
      000000D8H.7 SFRSYM    DATA     BIT       UART1FCN1_TFRQ
      000000F0H.4 SFRSYM    DATA     BIT       B_B4
      000000DBH   SFRSYM    DATA     BYTE      PCA0CPM1
      000000EBH   SFRSYM    DATA     BYTE      PCA0CPL2
      000000F0H.5 SFRSYM    DATA     BIT       B_B5
      000000DCH   SFRSYM    DATA     BYTE      PCA0CPM2
      000000B8H   SFRSYM    DATA     BYTE      IP
      000000B9H   SFRSYM    DATA     BYTE      ADC0TK
      000000F0H.6 SFRSYM    DATA     BIT       B_B6
      000000C5H   SFRSYM    DATA     WORD      ADC0LT
      000000D8H.6 SFRSYM    DATA     BIT       UART1FCN1_TXNF
      00000098H.5 SFRSYM    DATA     BIT       SCON0_MCE
      000000F0H.7 SFRSYM    DATA     BIT       B_B7
      000000C3H   SFRSYM    DATA     BYTE      SMB0FCN0
      000000E1H   SFRSYM    DATA     BYTE      XBR0
      000000C4H   SFRSYM    DATA     BYTE      SMB0FCN1
      000000C1H   SFRSYM    DATA     BYTE      SMB0CF
      000000E2H   SFRSYM    DATA     BYTE      XBR1
      000000C1H   SFRSYM    DATA     BYTE      PFE0CN
      000000E7H   SFRSYM    DATA     BYTE      EMI0CN
      000000C0H.5 SFRSYM    DATA     BIT       SMB0CN0_STA
      000000E3H   SFRSYM    DATA     BYTE      XBR2
      000000BBH   SFRSYM    DATA     BYTE      ADC0MX
      000000E0H   SFRSYM    DATA     BIT       ACC_ACC0
      000000D1H   SFRSYM    DATA     BYTE      REF0CN
      0000008EH   SFRSYM    DATA     BYTE      CKCON0
      000000E0H.1 SFRSYM    DATA     BIT       ACC_ACC1
      000000C9H   SFRSYM    DATA     BYTE      REG0CN
      000000DDH   SFRSYM    DATA     BYTE      CRC0IN
      000000A6H   SFRSYM    DATA     BYTE      CKCON1
      000000C8H.2 SFRSYM    DATA     BIT       TMR2CN0_TR2
      000000E0H.2 SFRSYM    DATA     BIT       ACC_ACC2
      000000C6H   SFRSYM    DATA     BYTE      REG1CN
      000000E0H.3 SFRSYM    DATA     BIT       ACC_ACC3
LX51 LINKER/LOCATER V4.66.30.0                                                        01/21/2016  23:03:23  PAGE 37


      00000081H   SFRSYM    DATA     BYTE      SP
      0000009DH   SFRSYM    DATA     BYTE      CMP0MD
      000000E0H.4 SFRSYM    DATA     BIT       ACC_ACC4
      000000B1H   SFRSYM    DATA     BYTE      LFO0CN
      000000ABH   SFRSYM    DATA     BYTE      CMP1MD
      000000D8H   SFRSYM    DATA     BIT       PCA0CN0_CCF0
      000000E0H.5 SFRSYM    DATA     BIT       ACC_ACC5
      000000B5H   SFRSYM    DATA     BYTE      USB0CF
      00000098H.2 SFRSYM    DATA     BIT       TMR4CN0_TR4
      000000D8H.1 SFRSYM    DATA     BIT       PCA0CN0_CCF1
      000000E0H.6 SFRSYM    DATA     BIT       ACC_ACC6
      000000CCH   SFRSYM    DATA     WORD      TMR2
      0000009AH   SFRSYM    DATA     BYTE      SPI0FCN0
      000000D8H.2 SFRSYM    DATA     BIT       PCA0CN0_CCF2
      000000E0H.7 SFRSYM    DATA     BIT       ACC_ACC7
      00000094H   SFRSYM    DATA     WORD      TMR3
      0000009BH   SFRSYM    DATA     BYTE      SPI0FCN1
      000000A4H   SFRSYM    DATA     WORD      TMR4
      00000094H   SFRSYM    DATA     BYTE      SBCON1
      000000C0H.3 SFRSYM    DATA     BIT       SMB0CN0_ACKRQ
      000000FFH   SFRSYM    DATA     BYTE      VDM0CN
      000000F1H   SFRSYM    DATA     BYTE      P0MDIN
      00000098H.4 SFRSYM    DATA     BIT       SCON0_REN
      000000ACH   SFRSYM    DATA     BYTE      SMB0TC
      000000F2H   SFRSYM    DATA     BYTE      P1MDIN
      000000C8H.4 SFRSYM    DATA     BIT       SCON1_REN
      000000F3H   SFRSYM    DATA     BYTE      P2MDIN
      000000C0H.4 SFRSYM    DATA     BIT       SMB0CN0_STO
      000000B6H   SFRSYM    DATA     BYTE      USB0CDCF
      000000F4H   SFRSYM    DATA     BYTE      P3MDIN
      000000B9H   SFRSYM    DATA     BYTE      I2C0STAT
      000000BBH   SFRSYM    DATA     BYTE      I2C0DOUT
      00000096H   SFRSYM    DATA     BYTE      SBRLH1
      000000FEH   SFRSYM    DATA     BYTE      P0MASK
      000000D8H.5 SFRSYM    DATA     BIT       UART1FCN1_TXHOLD
      000000EEH   SFRSYM    DATA     BYTE      P1MASK
      000000FCH   SFRSYM    DATA     BYTE      P2MASK
      000000D0H.3 SFRSYM    DATA     BIT       PSW_RS0
      000000D8H.7 SFRSYM    DATA     BIT       PCA0CN0_CF
      0000009EH   SFRSYM    DATA     BYTE      PCA0CENT
      000000BAH   SFRSYM    DATA     BYTE      I2C0CN0
      000000D2H   SFRSYM    DATA     BYTE      CRC0ST
      000000F8H.4 SFRSYM    DATA     BIT       SPI0CN0_RXOVRN
      000000D0H.4 SFRSYM    DATA     BIT       PSW_RS1
      00000095H   SFRSYM    DATA     BYTE      SBRLL1
      000000C8H.2 SFRSYM    DATA     BIT       SCON1_RBX
      000000C8H   SFRSYM    DATA     BIT       TMR2CN0_T2XCLK0
      000000C8H.1 SFRSYM    DATA     BIT       TMR2CN0_T2XCLK1
      000000C8H.3 SFRSYM    DATA     BIT       SCON1_TBX
      000000E8H.7 SFRSYM    DATA     BIT       ADC0CN0_ADEN
      000000BEH   SFRSYM    DATA     BYTE      USB0CDCN
      00000089H   SFRSYM    DATA     BYTE      TMOD
      00000088H   SFRSYM    DATA     BYTE      TCON
      000000CFH   SFRSYM    DATA     BYTE      CRC0FLIP
      000000D0H   SFRSYM    DATA     BIT       PSW_PARITY
      000000A8H.4 SFRSYM    DATA     BIT       IE_ES0
      0000009FH   SFRSYM    DATA     BYTE      CMP0MX
      00000098H   SFRSYM    DATA     BIT       TMR4CN0_T4XCLK0
      000000A8H.1 SFRSYM    DATA     BIT       IE_ET0
      000000AAH   SFRSYM    DATA     BYTE      CMP1MX
      00000098H.1 SFRSYM    DATA     BIT       TMR4CN0_T4XCLK1
      000000A8H.3 SFRSYM    DATA     BIT       IE_ET1
LX51 LINKER/LOCATER V4.66.30.0                                                        01/21/2016  23:03:23  PAGE 38


      000000D4H   SFRSYM    DATA     BYTE      P0SKIP
      000000D8H   SFRSYM    DATA     BIT       UART1FCN1_RIE
      000000A8H.5 SFRSYM    DATA     BIT       IE_ET2
      000000D5H   SFRSYM    DATA     BYTE      P1SKIP
      000000CCH   SFRSYM    DATA     BYTE      P2SKIP
      000000E8H   SFRSYM    DATA     BYTE      ADC0CN0
      000000D8H.4 SFRSYM    DATA     BIT       UART1FCN1_TIE
      000000A8H   SFRSYM    DATA     BIT       IE_EX0
      000000B2H   SFRSYM    DATA     BYTE      ADC0CN1
      000000D8H.6 SFRSYM    DATA     BIT       PCA0CN0_CR
      000000A8H.2 SFRSYM    DATA     BIT       IE_EX1
      000000C8H.7 SFRSYM    DATA     BIT       SCON1_OVR
      00000098H.7 SFRSYM    DATA     BIT       SCON0_SMODE
      000000B5H   SFRSYM    DATA     BYTE      DEVICEID
      000000A9H   SFRSYM    DATA     BYTE      CLKSEL
      000000F8H   SFRSYM    DATA     BIT       SPI0CN0_SPIEN
      000000F0H   SFRSYM    DATA     BYTE      B
      000000BEH   SFRSYM    DATA     BYTE      ADC0H
      000000E8H.6 SFRSYM    DATA     BIT       ADC0CN0_ADBMEN
      000000CAH   SFRSYM    DATA     WORD      TMR2RL
      000000BDH   SFRSYM    DATA     BYTE      ADC0L
      00000092H   SFRSYM    DATA     WORD      TMR3RL
      000000A2H   SFRSYM    DATA     WORD      TMR4RL
      000000D8H   SFRSYM    DATA     BYTE      PCA0CN0
      000000E0H   SFRSYM    DATA     BYTE      ACC
      000000FBH   SFRSYM    DATA     WORD      PCA0CP0
      000000E9H   SFRSYM    DATA     WORD      PCA0CP1
      000000EBH   SFRSYM    DATA     WORD      PCA0CP2
      000000BCH   SFRSYM    DATA     BYTE      I2C0DIN
      000000CEH   SFRSYM    DATA     BYTE      CRC0CN0
      0000008CH   SFRSYM    DATA     BYTE      TH0
      00000086H   SFRSYM    DATA     BYTE      CRC0CN1
      000000B8H.4 SFRSYM    DATA     BIT       IP_PS0
      000000FAH   SFRSYM    DATA     BYTE      UART1FCT
      0000008DH   SFRSYM    DATA     BYTE      TH1
      000000FAH   SFRSYM    DATA     BYTE      PCA0H
      000000F5H   SFRSYM    DATA     BYTE      I2C0FCT
      000000B8H.1 SFRSYM    DATA     BIT       IP_PT0
      000000B8H.3 SFRSYM    DATA     BIT       IP_PT1
      000000C0H.2 SFRSYM    DATA     BIT       SMB0CN0_ARBLOST
      000000B8H.5 SFRSYM    DATA     BIT       IP_PT2
      0000008AH   SFRSYM    DATA     BYTE      TL0
      000000D0H.5 SFRSYM    DATA     BIT       PSW_F0
      000000A8H.6 SFRSYM    DATA     BIT       IE_ESPI0
      0000008BH   SFRSYM    DATA     BYTE      TL1
      000000F9H   SFRSYM    DATA     BYTE      PCA0L
      000000C0H   SFRSYM    DATA     BIT       SMB0CN0_SI
      000000D0H.1 SFRSYM    DATA     BIT       PSW_F1
      00000080H   SFRSYM    DATA     BIT       P0_B0
      000000B8H   SFRSYM    DATA     BIT       IP_PX0
      00000090H   SFRSYM    DATA     BIT       P1_B0
      00000080H.1 SFRSYM    DATA     BIT       P0_B1
      000000B8H.2 SFRSYM    DATA     BIT       IP_PX1
      0000009EH   SFRSYM    DATA     BYTE      UART1LIN
      0000009BH   SFRSYM    DATA     BYTE      CMP0CN0
      00000088H.1 SFRSYM    DATA     BIT       TCON_IE0
      000000A0H   SFRSYM    DATA     BIT       P2_B0
      00000090H.1 SFRSYM    DATA     BIT       P1_B1
      00000080H.2 SFRSYM    DATA     BIT       P0_B2
      000000BFH   SFRSYM    DATA     BYTE      CMP1CN0
      00000099H   SFRSYM    DATA     BYTE      CMP0CN1
      00000088H.3 SFRSYM    DATA     BIT       TCON_IE1
LX51 LINKER/LOCATER V4.66.30.0                                                        01/21/2016  23:03:23  PAGE 39


      000000B0H   SFRSYM    DATA     BIT       P3_B0
      000000A0H.1 SFRSYM    DATA     BIT       P2_B1
      00000090H.2 SFRSYM    DATA     BIT       P1_B2
      00000080H.3 SFRSYM    DATA     BIT       P0_B3
      000000C0H   SFRSYM    DATA     BYTE      SMB0CN0
      000000ACH   SFRSYM    DATA     BYTE      CMP1CN1
      000000B0H.1 SFRSYM    DATA     BIT       P3_B1
      000000A0H.2 SFRSYM    DATA     BIT       P2_B2
      00000090H.3 SFRSYM    DATA     BIT       P1_B3
      00000080H.4 SFRSYM    DATA     BIT       P0_B4
      000000A0H.3 SFRSYM    DATA     BIT       P2_B3
      00000090H.4 SFRSYM    DATA     BIT       P1_B4
      00000080H.5 SFRSYM    DATA     BIT       P0_B5
      000000D8H.1 SFRSYM    DATA     BIT       UART1FCN1_RXTO0
      00000090H.5 SFRSYM    DATA     BIT       P1_B5
      00000080H.6 SFRSYM    DATA     BIT       P0_B6
      000000F5H   SFRSYM    DATA     BYTE      EIP1H
      000000D8H.2 SFRSYM    DATA     BIT       UART1FCN1_RXTO1
      00000090H.6 SFRSYM    DATA     BIT       P1_B6
      00000080H.7 SFRSYM    DATA     BIT       P0_B7
      000000C5H   SFRSYM    DATA     BYTE      SMB0RXLN
      000000F6H   SFRSYM    DATA     BYTE      EIP2H
      00000090H.7 SFRSYM    DATA     BIT       P1_B7
      00000083H   SFRSYM    DATA     BYTE      DPH
      000000C4H   SFRSYM    DATA     BYTE      ADC0GTH
      000000C8H.7 SFRSYM    DATA     BIT       TMR2CN0_TF2H
      000000C8H.3 SFRSYM    DATA     BIT       TMR2CN0_T2SPLIT
      000000D0H.6 SFRSYM    DATA     BIT       PSW_AC
      000000F8H   SFRSYM    DATA     BYTE      SPI0CN0
      000000C7H   SFRSYM    DATA     BYTE      HFO0CAL
      00000088H.5 SFRSYM    DATA     BIT       TCON_TF0
      00000098H   SFRSYM    DATA     BIT       SCON0_RI
      000000D6H   SFRSYM    DATA     BYTE      HFO1CAL
      00000082H   SFRSYM    DATA     BYTE      DPL
      00000088H.7 SFRSYM    DATA     BIT       TCON_TF1
      000000C8H   SFRSYM    DATA     BIT       SCON1_RI
      00000099H   SFRSYM    DATA     BYTE      SBUF0
      00000087H   SFRSYM    DATA     BYTE      PCON0
      000000F2H   SFRSYM    DATA     BYTE      IPH
      000000C3H   SFRSYM    DATA     BYTE      ADC0GTL
      00000098H.7 SFRSYM    DATA     BIT       TMR4CN0_TF4H
      00000098H.3 SFRSYM    DATA     BIT       TMR4CN0_T4SPLIT
      000000C8H.6 SFRSYM    DATA     BIT       TMR2CN0_TF2L
      00000098H.1 SFRSYM    DATA     BIT       SCON0_TI
      000000E8H   SFRSYM    DATA     BIT       ADC0CN0_ADCM0
      00000092H   SFRSYM    DATA     BYTE      SBUF1
      0000009AH   SFRSYM    DATA     BYTE      PCON1
      000000C6H   SFRSYM    DATA     BYTE      ADC0LTH
      00000088H   SFRSYM    DATA     BIT       TCON_IT0
      000000C8H.1 SFRSYM    DATA     BIT       SCON1_TI
      000000E8H.1 SFRSYM    DATA     BIT       ADC0CN0_ADCM1
      000000EFH   SFRSYM    DATA     BYTE      RSTSRC
      000000FDH   SFRSYM    DATA     BYTE      P0MAT
      000000DEH   SFRSYM    DATA     BYTE      CRC0DAT
      00000088H.2 SFRSYM    DATA     BIT       TCON_IT1
      000000E8H.2 SFRSYM    DATA     BIT       ADC0CN0_ADCM2
      000000D7H   SFRSYM    DATA     BYTE      SFRSTACK
      00000098H   SFRSYM    DATA     BYTE      SCON0
      000000F6H   SFRSYM    DATA     BYTE      PRTDRV
      000000EDH   SFRSYM    DATA     BYTE      P1MAT
      000000E8H.3 SFRSYM    DATA     BIT       ADC0CN0_ADWINT
      00000095H   SFRSYM    DATA     WORD      SBRL1
LX51 LINKER/LOCATER V4.66.30.0                                                        01/21/2016  23:03:23  PAGE 40


      000000B2H   SFRSYM    DATA     BYTE      USB0AEC
      00000093H   SFRSYM    DATA     BYTE      SMOD1
      000000C8H   SFRSYM    DATA     BYTE      SCON1
      000000FBH   SFRSYM    DATA     BYTE      P2MAT
      00000098H.6 SFRSYM    DATA     BIT       TMR4CN0_TF4L
      000000E8H.4 SFRSYM    DATA     BIT       ADC0CN0_ADBUSY
      000000D6H   SFRSYM    DATA     BYTE      SMB0ADM
      000000C5H   SFRSYM    DATA     BYTE      ADC0LTL
      000000F8H.5 SFRSYM    DATA     BIT       SPI0CN0_MODF
      000000B8H.6 SFRSYM    DATA     BIT       IP_PSPI0
      0000009CH   SFRSYM    DATA     BYTE      PCA0CLR
      000000C8H   SFRSYM    DATA     BYTE      TMR2CN0
      00000091H   SFRSYM    DATA     BYTE      TMR3CN0
      000000FDH   SFRSYM    DATA     BYTE      TMR2CN1
      00000098H   SFRSYM    DATA     BYTE      TMR4CN0
      000000FEH   SFRSYM    DATA     BYTE      TMR3CN1
      000000FFH   SFRSYM    DATA     BYTE      TMR4CN1
      000000D7H   SFRSYM    DATA     BYTE      SMB0ADR
      00000088H.4 SFRSYM    DATA     BIT       TCON_TR0
      000000C8H.4 SFRSYM    DATA     BIT       TMR2CN0_TF2CEN
      00000088H.6 SFRSYM    DATA     BIT       TCON_TR1
      000000C2H   SFRSYM    DATA     BYTE      SMB0DAT
      000000CDH   SFRSYM    DATA     BYTE      TMR2H
      000000A1H   SFRSYM    DATA     BYTE      SPI0CFG
      00000095H   SFRSYM    DATA     BYTE      TMR3H
      000000EFH   SFRSYM    DATA     BYTE      HFOCN
      000000D3H   SFRSYM    DATA     BYTE      CRC0CNT
      000000A5H   SFRSYM    DATA     BYTE      TMR4H
      00000098H.4 SFRSYM    DATA     BIT       TMR4CN0_TF4CEN
      000000EFH   SFRSYM    DATA     BYTE      SMB0FCT
      00000096H   SFRSYM    DATA     BYTE      PCA0POL
      000000CCH   SFRSYM    DATA     BYTE      TMR2L
      000000F8H.7 SFRSYM    DATA     BIT       SPI0CN0_SPIF
      000000AEH   SFRSYM    DATA     BYTE      USB0ADR
      00000094H   SFRSYM    DATA     BYTE      TMR3L
      000000DFH   SFRSYM    DATA     BYTE      ADC0PWR
      000000A8H.7 SFRSYM    DATA     BIT       IE_EA
      000000A4H   SFRSYM    DATA     BYTE      TMR4L
      000000AFH   SFRSYM    DATA     BYTE      USB0DAT
      000000C8H.5 SFRSYM    DATA     BIT       TMR2CN0_TF2LEN
      000000F8H.6 SFRSYM    DATA     BIT       SPI0CN0_WCOL
      000000F8H.2 SFRSYM    DATA     BIT       SPI0CN0_NSSMD0
      000000D0H.7 SFRSYM    DATA     BIT       PSW_CY
      0000009DH   SFRSYM    DATA     BYTE      UART1FCN0
      000000A3H   SFRSYM    DATA     BYTE      SPI0DAT
      000000ADH   SFRSYM    DATA     BYTE      I2C0FCN0
      000000F8H.3 SFRSYM    DATA     BIT       SPI0CN0_NSSMD1
      000000BDH   SFRSYM    DATA     WORD      ADC0
      000000D8H   SFRSYM    DATA     BYTE      UART1FCN1
      000000ABH   SFRSYM    DATA     BYTE      I2C0FCN1
      00000098H.5 SFRSYM    DATA     BIT       TMR4CN0_TF4LEN
      000000D0H   SFRSYM    DATA     BYTE      PSW
      000000F7H   SFRSYM    DATA     BYTE      PCA0PWM
      000000F7H   SFRSYM    DATA     BYTE      SPI0FCT
      000000B6H   SFRSYM    DATA     BYTE      REVID
      000000B7H   SFRSYM    DATA     BYTE      FLKEY
      000000B3H   SFRSYM    DATA     BYTE      ADC0AC
      01001A9AH   SYMBOL    CONST    ---       langDesc
      01001AB6H   SYMBOL    CONST    ---       prodDesc
      01001A9EH   SYMBOL    CONST    ---       mfrDesc
      01001ACBH   SYMBOL    CONST    ---       serDesc
      01001ADEH   SYMBOL    CONST    ---       myUsbStringTable_USEnglish
LX51 LINKER/LOCATER V4.66.30.0                                                        01/21/2016  23:03:23  PAGE 41



      ---         MODULE    ---      ---       IDLE
      01001A16H   PUBLIC    CODE     ---       idleGetRate
      0100186FH   PUBLIC    CODE     ---       idleTimerTick
      010018BEH   PUBLIC    CODE     ---       _idleTimerSet
      010018EFH   PUBLIC    CODE     ---       isIdleTimerExpired
      010019F0H   PUBLIC    CODE     ---       isIdleTimerIndefinite
      010017BCH   PUBLIC    CODE     ---       idleTimerStart
      00000008H   SYMBOL    DATA     ---       idle

      010017BCH   BLOCK     CODE     ---       LVL=0
      010017BCH   LINE      CODE     ---       #19
      010017BCH   LINE      CODE     ---       #20
      010017BCH   LINE      CODE     ---       #21
      010017C3H   LINE      CODE     ---       #22
      010017C3H   LINE      CODE     ---       #23
      010017CEH   LINE      CODE     ---       #24
      010017CFH   LINE      CODE     ---       #26
      010017CFH   LINE      CODE     ---       #27
      010017D5H   LINE      CODE     ---       #28
      010017D5H   LINE      CODE     ---       #29
      ---         BLOCKEND  ---      ---       LVL=0

      010019F0H   BLOCK     CODE     ---       LVL=0
      010019F0H   LINE      CODE     ---       #31
      010019F0H   LINE      CODE     ---       #32
      010019F0H   LINE      CODE     ---       #33
      010019F5H   LINE      CODE     ---       #34
      010019F5H   LINE      CODE     ---       #35
      010019F6H   LINE      CODE     ---       #36
      010019F6H   LINE      CODE     ---       #38
      010019F6H   LINE      CODE     ---       #39
      010019F6H   LINE      CODE     ---       #40
      010019F6H   LINE      CODE     ---       #41
      ---         BLOCKEND  ---      ---       LVL=0

      010018EFH   BLOCK     CODE     ---       LVL=0
      010018EFH   LINE      CODE     ---       #42
      010018EFH   LINE      CODE     ---       #43
      010018EFH   LINE      CODE     ---       #44
      010018F5H   LINE      CODE     ---       #45
      010018F5H   LINE      CODE     ---       #46
      010018F8H   LINE      CODE     ---       #47
      010018FAH   LINE      CODE     ---       #48
      010018FAH   LINE      CODE     ---       #49
      010018FBH   LINE      CODE     ---       #50
      ---         BLOCKEND  ---      ---       LVL=0

      010018BEH   BLOCK     CODE     ---       LVL=0
      00000007H   SYMBOL    DATA     BYTE      rate
      010018BEH   LINE      CODE     ---       #52
      010018BEH   LINE      CODE     ---       #53
      010018BEH   LINE      CODE     ---       #54
      010018C6H   LINE      CODE     ---       #55
      010018C6H   LINE      CODE     ---       #56
      010018C9H   LINE      CODE     ---       #57
      010018CBH   LINE      CODE     ---       #59
      010018CBH   LINE      CODE     ---       #60
      010018CDH   LINE      CODE     ---       #61
      010018CDH   LINE      CODE     ---       #63
      ---         BLOCKEND  ---      ---       LVL=0

LX51 LINKER/LOCATER V4.66.30.0                                                        01/21/2016  23:03:23  PAGE 42


      0100186FH   BLOCK     CODE     ---       LVL=0
      0100186FH   LINE      CODE     ---       #66
      0100186FH   LINE      CODE     ---       #67
      0100186FH   LINE      CODE     ---       #68
      0100187AH   LINE      CODE     ---       #69
      0100187AH   LINE      CODE     ---       #70
      01001882H   LINE      CODE     ---       #71
      01001882H   LINE      CODE     ---       #72
      ---         BLOCKEND  ---      ---       LVL=0

      01001A16H   BLOCK     CODE     ---       LVL=0
      01001A16H   LINE      CODE     ---       #74
      01001A16H   LINE      CODE     ---       #75
      01001A16H   LINE      CODE     ---       #76
      01001A18H   LINE      CODE     ---       #77
      ---         BLOCKEND  ---      ---       LVL=0

      ---         MODULE    ---      ---       U2F_FIRMWARE_MAIN
      00000022H.5 PUBLIC    BIT      BIT       keyPushed
      0000000EH   PUBLIC    DATA     BYTE      keySeqNo
      01001A19H   PUBLIC    CODE     ---       PMATCH_IrqHandler
      010014A6H   PUBLIC    CODE     ---       main
      01001690H   PUBLIC    CODE     ---       _Delay
      000000A2H   SFRSYM    DATA     BYTE      SPI0CKR
      00000080H   SFRSYM    DATA     BYTE      P0
      000000C8H.6 SFRSYM    DATA     BIT       SCON1_PERR
      000000D0H.2 SFRSYM    DATA     BIT       PSW_OV
      00000090H   SFRSYM    DATA     BYTE      P1
      000000F8H.1 SFRSYM    DATA     BIT       SPI0CN0_TXNF
      00000097H   SFRSYM    DATA     BYTE      WDTCN
      000000A0H   SFRSYM    DATA     BYTE      P2
      000000B0H   SFRSYM    DATA     BYTE      P3
      000000BCH   SFRSYM    DATA     BYTE      ADC0CF
      000000C0H.7 SFRSYM    DATA     BIT       SMB0CN0_MASTER
      000000F9H   SFRSYM    DATA     WORD      PCA0
      000000E6H   SFRSYM    DATA     BYTE      EIE1
      000000C0H.1 SFRSYM    DATA     BIT       SMB0CN0_ACK
      000000B3H   SFRSYM    DATA     BYTE      USB0XCN
      000000CEH   SFRSYM    DATA     BYTE      EIE2
      0000008FH   SFRSYM    DATA     BYTE      PSCTL
      000000E4H   SFRSYM    DATA     BYTE      IT01CF
      000000C0H.6 SFRSYM    DATA     BIT       SMB0CN0_TXMODE
      000000ADH   SFRSYM    DATA     BYTE      DERIVID
      000000A7H   SFRSYM    DATA     BYTE      SFRPAGE
      000000A4H   SFRSYM    DATA     BYTE      P0MDOUT
      000000BFH   SFRSYM    DATA     BYTE      USB0CDSTA
      000000A5H   SFRSYM    DATA     BYTE      P1MDOUT
      000000E8H.5 SFRSYM    DATA     BIT       ADC0CN0_ADINT
      000000CBH   SFRSYM    DATA     BYTE      TMR2RLH
      000000A6H   SFRSYM    DATA     BYTE      P2MDOUT
      000000A8H   SFRSYM    DATA     BYTE      IE
      00000093H   SFRSYM    DATA     BYTE      TMR3RLH
      0000009CH   SFRSYM    DATA     BYTE      P3MDOUT
      000000A3H   SFRSYM    DATA     BYTE      TMR4RLH
      000000F3H   SFRSYM    DATA     BYTE      EIP1
      000000F4H   SFRSYM    DATA     BYTE      EIP2
      00000098H.2 SFRSYM    DATA     BIT       SCON0_RB8
      000000CAH   SFRSYM    DATA     BYTE      TMR2RLL
      000000FCH   SFRSYM    DATA     BYTE      PCA0CPH0
      00000092H   SFRSYM    DATA     BYTE      TMR3RLL
      000000EAH   SFRSYM    DATA     BYTE      PCA0CPH1
      00000098H.3 SFRSYM    DATA     BIT       SCON0_TB8
LX51 LINKER/LOCATER V4.66.30.0                                                        01/21/2016  23:03:23  PAGE 43


      000000F0H   SFRSYM    DATA     BIT       B_B0
      00000082H   SFRSYM    DATA     WORD      DP
      000000A2H   SFRSYM    DATA     BYTE      TMR4RLL
      000000ECH   SFRSYM    DATA     BYTE      PCA0CPH2
      000000F0H.1 SFRSYM    DATA     BIT       B_B1
      000000C3H   SFRSYM    DATA     WORD      ADC0GT
      000000BDH   SFRSYM    DATA     BYTE      I2C0SLAD
      000000D8H.3 SFRSYM    DATA     BIT       UART1FCN1_RFRQ
      000000F0H.2 SFRSYM    DATA     BIT       B_B2
      000000CFH   SFRSYM    DATA     BYTE      SFRPGCN
      000000FBH   SFRSYM    DATA     BYTE      PCA0CPL0
      000000F0H.3 SFRSYM    DATA     BIT       B_B3
      000000D9H   SFRSYM    DATA     BYTE      PCA0MD
      000000DAH   SFRSYM    DATA     BYTE      PCA0CPM0
      000000E9H   SFRSYM    DATA     BYTE      PCA0CPL1
      000000D8H.7 SFRSYM    DATA     BIT       UART1FCN1_TFRQ
      000000F0H.4 SFRSYM    DATA     BIT       B_B4
      000000DBH   SFRSYM    DATA     BYTE      PCA0CPM1
      000000EBH   SFRSYM    DATA     BYTE      PCA0CPL2
      000000F0H.5 SFRSYM    DATA     BIT       B_B5
      000000DCH   SFRSYM    DATA     BYTE      PCA0CPM2
      000000B8H   SFRSYM    DATA     BYTE      IP
      000000B9H   SFRSYM    DATA     BYTE      ADC0TK
      000000F0H.6 SFRSYM    DATA     BIT       B_B6
      000000C5H   SFRSYM    DATA     WORD      ADC0LT
      000000D8H.6 SFRSYM    DATA     BIT       UART1FCN1_TXNF
      00000098H.5 SFRSYM    DATA     BIT       SCON0_MCE
      000000F0H.7 SFRSYM    DATA     BIT       B_B7
      000000C3H   SFRSYM    DATA     BYTE      SMB0FCN0
      000000E1H   SFRSYM    DATA     BYTE      XBR0
      000000C4H   SFRSYM    DATA     BYTE      SMB0FCN1
      000000C1H   SFRSYM    DATA     BYTE      SMB0CF
      000000E2H   SFRSYM    DATA     BYTE      XBR1
      000000C1H   SFRSYM    DATA     BYTE      PFE0CN
      000000E7H   SFRSYM    DATA     BYTE      EMI0CN
      000000C0H.5 SFRSYM    DATA     BIT       SMB0CN0_STA
      000000E3H   SFRSYM    DATA     BYTE      XBR2
      000000BBH   SFRSYM    DATA     BYTE      ADC0MX
      000000E0H   SFRSYM    DATA     BIT       ACC_ACC0
      000000D1H   SFRSYM    DATA     BYTE      REF0CN
      0000008EH   SFRSYM    DATA     BYTE      CKCON0
      000000E0H.1 SFRSYM    DATA     BIT       ACC_ACC1
      000000C9H   SFRSYM    DATA     BYTE      REG0CN
      000000DDH   SFRSYM    DATA     BYTE      CRC0IN
      000000A6H   SFRSYM    DATA     BYTE      CKCON1
      000000C8H.2 SFRSYM    DATA     BIT       TMR2CN0_TR2
      000000E0H.2 SFRSYM    DATA     BIT       ACC_ACC2
      000000C6H   SFRSYM    DATA     BYTE      REG1CN
      000000E0H.3 SFRSYM    DATA     BIT       ACC_ACC3
      00000081H   SFRSYM    DATA     BYTE      SP
      0000009DH   SFRSYM    DATA     BYTE      CMP0MD
      000000E0H.4 SFRSYM    DATA     BIT       ACC_ACC4
      000000B1H   SFRSYM    DATA     BYTE      LFO0CN
      000000ABH   SFRSYM    DATA     BYTE      CMP1MD
      000000D8H   SFRSYM    DATA     BIT       PCA0CN0_CCF0
      000000E0H.5 SFRSYM    DATA     BIT       ACC_ACC5
      000000B5H   SFRSYM    DATA     BYTE      USB0CF
      00000098H.2 SFRSYM    DATA     BIT       TMR4CN0_TR4
      000000D8H.1 SFRSYM    DATA     BIT       PCA0CN0_CCF1
      000000E0H.6 SFRSYM    DATA     BIT       ACC_ACC6
      000000CCH   SFRSYM    DATA     WORD      TMR2
      0000009AH   SFRSYM    DATA     BYTE      SPI0FCN0
LX51 LINKER/LOCATER V4.66.30.0                                                        01/21/2016  23:03:23  PAGE 44


      000000D8H.2 SFRSYM    DATA     BIT       PCA0CN0_CCF2
      000000E0H.7 SFRSYM    DATA     BIT       ACC_ACC7
      00000094H   SFRSYM    DATA     WORD      TMR3
      0000009BH   SFRSYM    DATA     BYTE      SPI0FCN1
      000000A4H   SFRSYM    DATA     WORD      TMR4
      00000094H   SFRSYM    DATA     BYTE      SBCON1
      000000C0H.3 SFRSYM    DATA     BIT       SMB0CN0_ACKRQ
      000000FFH   SFRSYM    DATA     BYTE      VDM0CN
      000000F1H   SFRSYM    DATA     BYTE      P0MDIN
      00000098H.4 SFRSYM    DATA     BIT       SCON0_REN
      000000ACH   SFRSYM    DATA     BYTE      SMB0TC
      000000F2H   SFRSYM    DATA     BYTE      P1MDIN
      000000C8H.4 SFRSYM    DATA     BIT       SCON1_REN
      000000F3H   SFRSYM    DATA     BYTE      P2MDIN
      000000C0H.4 SFRSYM    DATA     BIT       SMB0CN0_STO
      000000B6H   SFRSYM    DATA     BYTE      USB0CDCF
      000000F4H   SFRSYM    DATA     BYTE      P3MDIN
      000000B9H   SFRSYM    DATA     BYTE      I2C0STAT
      000000BBH   SFRSYM    DATA     BYTE      I2C0DOUT
      00000096H   SFRSYM    DATA     BYTE      SBRLH1
      000000FEH   SFRSYM    DATA     BYTE      P0MASK
      000000D8H.5 SFRSYM    DATA     BIT       UART1FCN1_TXHOLD
      000000EEH   SFRSYM    DATA     BYTE      P1MASK
      000000FCH   SFRSYM    DATA     BYTE      P2MASK
      000000D0H.3 SFRSYM    DATA     BIT       PSW_RS0
      000000D8H.7 SFRSYM    DATA     BIT       PCA0CN0_CF
      0000009EH   SFRSYM    DATA     BYTE      PCA0CENT
      000000BAH   SFRSYM    DATA     BYTE      I2C0CN0
      000000D2H   SFRSYM    DATA     BYTE      CRC0ST
      000000F8H.4 SFRSYM    DATA     BIT       SPI0CN0_RXOVRN
      000000D0H.4 SFRSYM    DATA     BIT       PSW_RS1
      00000095H   SFRSYM    DATA     BYTE      SBRLL1
      000000C8H.2 SFRSYM    DATA     BIT       SCON1_RBX
      000000C8H   SFRSYM    DATA     BIT       TMR2CN0_T2XCLK0
      000000C8H.1 SFRSYM    DATA     BIT       TMR2CN0_T2XCLK1
      000000C8H.3 SFRSYM    DATA     BIT       SCON1_TBX
      000000E8H.7 SFRSYM    DATA     BIT       ADC0CN0_ADEN
      000000BEH   SFRSYM    DATA     BYTE      USB0CDCN
      00000089H   SFRSYM    DATA     BYTE      TMOD
      00000088H   SFRSYM    DATA     BYTE      TCON
      000000CFH   SFRSYM    DATA     BYTE      CRC0FLIP
      000000D0H   SFRSYM    DATA     BIT       PSW_PARITY
      000000A8H.4 SFRSYM    DATA     BIT       IE_ES0
      0000009FH   SFRSYM    DATA     BYTE      CMP0MX
      00000098H   SFRSYM    DATA     BIT       TMR4CN0_T4XCLK0
      000000A8H.1 SFRSYM    DATA     BIT       IE_ET0
      000000AAH   SFRSYM    DATA     BYTE      CMP1MX
      00000098H.1 SFRSYM    DATA     BIT       TMR4CN0_T4XCLK1
      000000A8H.3 SFRSYM    DATA     BIT       IE_ET1
      000000D4H   SFRSYM    DATA     BYTE      P0SKIP
      000000D8H   SFRSYM    DATA     BIT       UART1FCN1_RIE
      000000A8H.5 SFRSYM    DATA     BIT       IE_ET2
      000000D5H   SFRSYM    DATA     BYTE      P1SKIP
      000000CCH   SFRSYM    DATA     BYTE      P2SKIP
      000000E8H   SFRSYM    DATA     BYTE      ADC0CN0
      000000D8H.4 SFRSYM    DATA     BIT       UART1FCN1_TIE
      000000A8H   SFRSYM    DATA     BIT       IE_EX0
      000000B2H   SFRSYM    DATA     BYTE      ADC0CN1
      000000D8H.6 SFRSYM    DATA     BIT       PCA0CN0_CR
      000000A8H.2 SFRSYM    DATA     BIT       IE_EX1
      000000C8H.7 SFRSYM    DATA     BIT       SCON1_OVR
      00000098H.7 SFRSYM    DATA     BIT       SCON0_SMODE
LX51 LINKER/LOCATER V4.66.30.0                                                        01/21/2016  23:03:23  PAGE 45


      000000B5H   SFRSYM    DATA     BYTE      DEVICEID
      000000A9H   SFRSYM    DATA     BYTE      CLKSEL
      000000F8H   SFRSYM    DATA     BIT       SPI0CN0_SPIEN
      000000F0H   SFRSYM    DATA     BYTE      B
      000000BEH   SFRSYM    DATA     BYTE      ADC0H
      000000E8H.6 SFRSYM    DATA     BIT       ADC0CN0_ADBMEN
      000000CAH   SFRSYM    DATA     WORD      TMR2RL
      000000BDH   SFRSYM    DATA     BYTE      ADC0L
      00000092H   SFRSYM    DATA     WORD      TMR3RL
      000000A2H   SFRSYM    DATA     WORD      TMR4RL
      000000D8H   SFRSYM    DATA     BYTE      PCA0CN0
      000000E0H   SFRSYM    DATA     BYTE      ACC
      000000FBH   SFRSYM    DATA     WORD      PCA0CP0
      000000E9H   SFRSYM    DATA     WORD      PCA0CP1
      000000EBH   SFRSYM    DATA     WORD      PCA0CP2
      000000BCH   SFRSYM    DATA     BYTE      I2C0DIN
      000000CEH   SFRSYM    DATA     BYTE      CRC0CN0
      0000008CH   SFRSYM    DATA     BYTE      TH0
      00000086H   SFRSYM    DATA     BYTE      CRC0CN1
      000000B8H.4 SFRSYM    DATA     BIT       IP_PS0
      000000FAH   SFRSYM    DATA     BYTE      UART1FCT
      0000008DH   SFRSYM    DATA     BYTE      TH1
      000000FAH   SFRSYM    DATA     BYTE      PCA0H
      000000F5H   SFRSYM    DATA     BYTE      I2C0FCT
      000000B8H.1 SFRSYM    DATA     BIT       IP_PT0
      000000B8H.3 SFRSYM    DATA     BIT       IP_PT1
      000000C0H.2 SFRSYM    DATA     BIT       SMB0CN0_ARBLOST
      000000B8H.5 SFRSYM    DATA     BIT       IP_PT2
      0000008AH   SFRSYM    DATA     BYTE      TL0
      000000D0H.5 SFRSYM    DATA     BIT       PSW_F0
      000000A8H.6 SFRSYM    DATA     BIT       IE_ESPI0
      0000008BH   SFRSYM    DATA     BYTE      TL1
      000000F9H   SFRSYM    DATA     BYTE      PCA0L
      000000C0H   SFRSYM    DATA     BIT       SMB0CN0_SI
      000000D0H.1 SFRSYM    DATA     BIT       PSW_F1
      00000080H   SFRSYM    DATA     BIT       P0_B0
      000000B8H   SFRSYM    DATA     BIT       IP_PX0
      00000090H   SFRSYM    DATA     BIT       P1_B0
      00000080H.1 SFRSYM    DATA     BIT       P0_B1
      000000B8H.2 SFRSYM    DATA     BIT       IP_PX1
      0000009EH   SFRSYM    DATA     BYTE      UART1LIN
      0000009BH   SFRSYM    DATA     BYTE      CMP0CN0
      00000088H.1 SFRSYM    DATA     BIT       TCON_IE0
      000000A0H   SFRSYM    DATA     BIT       P2_B0
      00000090H.1 SFRSYM    DATA     BIT       P1_B1
      00000080H.2 SFRSYM    DATA     BIT       P0_B2
      000000BFH   SFRSYM    DATA     BYTE      CMP1CN0
      00000099H   SFRSYM    DATA     BYTE      CMP0CN1
      00000088H.3 SFRSYM    DATA     BIT       TCON_IE1
      000000B0H   SFRSYM    DATA     BIT       P3_B0
      000000A0H.1 SFRSYM    DATA     BIT       P2_B1
      00000090H.2 SFRSYM    DATA     BIT       P1_B2
      00000080H.3 SFRSYM    DATA     BIT       P0_B3
      000000C0H   SFRSYM    DATA     BYTE      SMB0CN0
      000000ACH   SFRSYM    DATA     BYTE      CMP1CN1
      000000B0H.1 SFRSYM    DATA     BIT       P3_B1
      000000A0H.2 SFRSYM    DATA     BIT       P2_B2
      00000090H.3 SFRSYM    DATA     BIT       P1_B3
      00000080H.4 SFRSYM    DATA     BIT       P0_B4
      000000A0H.3 SFRSYM    DATA     BIT       P2_B3
      00000090H.4 SFRSYM    DATA     BIT       P1_B4
      00000080H.5 SFRSYM    DATA     BIT       P0_B5
LX51 LINKER/LOCATER V4.66.30.0                                                        01/21/2016  23:03:23  PAGE 46


      000000D8H.1 SFRSYM    DATA     BIT       UART1FCN1_RXTO0
      00000090H.5 SFRSYM    DATA     BIT       P1_B5
      00000080H.6 SFRSYM    DATA     BIT       P0_B6
      000000F5H   SFRSYM    DATA     BYTE      EIP1H
      000000D8H.2 SFRSYM    DATA     BIT       UART1FCN1_RXTO1
      00000090H.6 SFRSYM    DATA     BIT       P1_B6
      00000080H.7 SFRSYM    DATA     BIT       P0_B7
      000000C5H   SFRSYM    DATA     BYTE      SMB0RXLN
      000000F6H   SFRSYM    DATA     BYTE      EIP2H
      00000090H.7 SFRSYM    DATA     BIT       P1_B7
      00000083H   SFRSYM    DATA     BYTE      DPH
      000000C4H   SFRSYM    DATA     BYTE      ADC0GTH
      000000C8H.7 SFRSYM    DATA     BIT       TMR2CN0_TF2H
      000000C8H.3 SFRSYM    DATA     BIT       TMR2CN0_T2SPLIT
      000000D0H.6 SFRSYM    DATA     BIT       PSW_AC
      000000F8H   SFRSYM    DATA     BYTE      SPI0CN0
      000000C7H   SFRSYM    DATA     BYTE      HFO0CAL
      00000088H.5 SFRSYM    DATA     BIT       TCON_TF0
      00000098H   SFRSYM    DATA     BIT       SCON0_RI
      000000D6H   SFRSYM    DATA     BYTE      HFO1CAL
      00000082H   SFRSYM    DATA     BYTE      DPL
      00000088H.7 SFRSYM    DATA     BIT       TCON_TF1
      000000C8H   SFRSYM    DATA     BIT       SCON1_RI
      00000099H   SFRSYM    DATA     BYTE      SBUF0
      00000087H   SFRSYM    DATA     BYTE      PCON0
      000000F2H   SFRSYM    DATA     BYTE      IPH
      000000C3H   SFRSYM    DATA     BYTE      ADC0GTL
      00000098H.7 SFRSYM    DATA     BIT       TMR4CN0_TF4H
      00000098H.3 SFRSYM    DATA     BIT       TMR4CN0_T4SPLIT
      000000C8H.6 SFRSYM    DATA     BIT       TMR2CN0_TF2L
      00000098H.1 SFRSYM    DATA     BIT       SCON0_TI
      000000E8H   SFRSYM    DATA     BIT       ADC0CN0_ADCM0
      00000092H   SFRSYM    DATA     BYTE      SBUF1
      0000009AH   SFRSYM    DATA     BYTE      PCON1
      000000C6H   SFRSYM    DATA     BYTE      ADC0LTH
      00000088H   SFRSYM    DATA     BIT       TCON_IT0
      000000C8H.1 SFRSYM    DATA     BIT       SCON1_TI
      000000E8H.1 SFRSYM    DATA     BIT       ADC0CN0_ADCM1
      000000EFH   SFRSYM    DATA     BYTE      RSTSRC
      000000FDH   SFRSYM    DATA     BYTE      P0MAT
      000000DEH   SFRSYM    DATA     BYTE      CRC0DAT
      00000088H.2 SFRSYM    DATA     BIT       TCON_IT1
      000000E8H.2 SFRSYM    DATA     BIT       ADC0CN0_ADCM2
      000000D7H   SFRSYM    DATA     BYTE      SFRSTACK
      00000098H   SFRSYM    DATA     BYTE      SCON0
      000000F6H   SFRSYM    DATA     BYTE      PRTDRV
      000000EDH   SFRSYM    DATA     BYTE      P1MAT
      000000E8H.3 SFRSYM    DATA     BIT       ADC0CN0_ADWINT
      00000095H   SFRSYM    DATA     WORD      SBRL1
      000000B2H   SFRSYM    DATA     BYTE      USB0AEC
      00000093H   SFRSYM    DATA     BYTE      SMOD1
      000000C8H   SFRSYM    DATA     BYTE      SCON1
      000000FBH   SFRSYM    DATA     BYTE      P2MAT
      00000098H.6 SFRSYM    DATA     BIT       TMR4CN0_TF4L
      000000E8H.4 SFRSYM    DATA     BIT       ADC0CN0_ADBUSY
      000000D6H   SFRSYM    DATA     BYTE      SMB0ADM
      000000C5H   SFRSYM    DATA     BYTE      ADC0LTL
      000000F8H.5 SFRSYM    DATA     BIT       SPI0CN0_MODF
      000000B8H.6 SFRSYM    DATA     BIT       IP_PSPI0
      0000009CH   SFRSYM    DATA     BYTE      PCA0CLR
      000000C8H   SFRSYM    DATA     BYTE      TMR2CN0
      00000091H   SFRSYM    DATA     BYTE      TMR3CN0
LX51 LINKER/LOCATER V4.66.30.0                                                        01/21/2016  23:03:23  PAGE 47


      000000FDH   SFRSYM    DATA     BYTE      TMR2CN1
      00000098H   SFRSYM    DATA     BYTE      TMR4CN0
      000000FEH   SFRSYM    DATA     BYTE      TMR3CN1
      000000FFH   SFRSYM    DATA     BYTE      TMR4CN1
      000000D7H   SFRSYM    DATA     BYTE      SMB0ADR
      00000088H.4 SFRSYM    DATA     BIT       TCON_TR0
      000000C8H.4 SFRSYM    DATA     BIT       TMR2CN0_TF2CEN
      00000088H.6 SFRSYM    DATA     BIT       TCON_TR1
      000000C2H   SFRSYM    DATA     BYTE      SMB0DAT
      000000CDH   SFRSYM    DATA     BYTE      TMR2H
      000000A1H   SFRSYM    DATA     BYTE      SPI0CFG
      00000095H   SFRSYM    DATA     BYTE      TMR3H
      000000EFH   SFRSYM    DATA     BYTE      HFOCN
      000000D3H   SFRSYM    DATA     BYTE      CRC0CNT
      000000A5H   SFRSYM    DATA     BYTE      TMR4H
      00000098H.4 SFRSYM    DATA     BIT       TMR4CN0_TF4CEN
      000000EFH   SFRSYM    DATA     BYTE      SMB0FCT
      00000096H   SFRSYM    DATA     BYTE      PCA0POL
      000000CCH   SFRSYM    DATA     BYTE      TMR2L
      000000F8H.7 SFRSYM    DATA     BIT       SPI0CN0_SPIF
      000000AEH   SFRSYM    DATA     BYTE      USB0ADR
      00000094H   SFRSYM    DATA     BYTE      TMR3L
      000000DFH   SFRSYM    DATA     BYTE      ADC0PWR
      000000A8H.7 SFRSYM    DATA     BIT       IE_EA
      000000A4H   SFRSYM    DATA     BYTE      TMR4L
      000000AFH   SFRSYM    DATA     BYTE      USB0DAT
      000000C8H.5 SFRSYM    DATA     BIT       TMR2CN0_TF2LEN
      000000F8H.6 SFRSYM    DATA     BIT       SPI0CN0_WCOL
      000000F8H.2 SFRSYM    DATA     BIT       SPI0CN0_NSSMD0
      000000D0H.7 SFRSYM    DATA     BIT       PSW_CY
      0000009DH   SFRSYM    DATA     BYTE      UART1FCN0
      000000A3H   SFRSYM    DATA     BYTE      SPI0DAT
      000000ADH   SFRSYM    DATA     BYTE      I2C0FCN0
      000000F8H.3 SFRSYM    DATA     BIT       SPI0CN0_NSSMD1
      000000BDH   SFRSYM    DATA     WORD      ADC0
      000000D8H   SFRSYM    DATA     BYTE      UART1FCN1
      000000ABH   SFRSYM    DATA     BYTE      I2C0FCN1
      00000098H.5 SFRSYM    DATA     BIT       TMR4CN0_TF4LEN
      000000D0H   SFRSYM    DATA     BYTE      PSW
      000000F7H   SFRSYM    DATA     BYTE      PCA0PWM
      000000F7H   SFRSYM    DATA     BYTE      SPI0FCT
      000000B6H   SFRSYM    DATA     BYTE      REVID
      000000B7H   SFRSYM    DATA     BYTE      FLKEY
      000000B3H   SFRSYM    DATA     BYTE      ADC0AC

      01001690H   BLOCK     CODE     ---       LVL=0
      00000006H   SYMBOL    DATA     INT       ms
      01001690H   BLOCK     CODE     NEAR LAB  LVL=1
      00000002H   SYMBOL    DATA     INT       x
      00000004H   SYMBOL    DATA     INT       y
      ---         BLOCKEND  ---      ---       LVL=1
      01001690H   LINE      CODE     ---       #60
      01001690H   LINE      CODE     ---       #63
      010016A0H   LINE      CODE     ---       #64
      010016A3H   LINE      CODE     ---       #65
      010016A8H   LINE      CODE     ---       #66
      010016AEH   LINE      CODE     ---       #67
      010016B5H   LINE      CODE     ---       #68
      ---         BLOCKEND  ---      ---       LVL=0

      010014A6H   BLOCK     CODE     ---       LVL=0
      010014A6H   BLOCK     CODE     NEAR LAB  LVL=1
LX51 LINKER/LOCATER V4.66.30.0                                                        01/21/2016  23:03:23  PAGE 48


      00000023H   SYMBOL    DATA     INT       i
      ---         BLOCKEND  ---      ---       LVL=1
      010014A6H   LINE      CODE     ---       #70
      010014A6H   LINE      CODE     ---       #71
      010014ABH   LINE      CODE     ---       #73
      010014AEH   LINE      CODE     ---       #75
      010014B0H   LINE      CODE     ---       #77
      010014B9H   LINE      CODE     ---       #79
      010014BBH   LINE      CODE     ---       #81
      010014C4H   LINE      CODE     ---       #83
      010014C4H   LINE      CODE     ---       #84
      010014CCH   LINE      CODE     ---       #86
      010014DAH   LINE      CODE     ---       #87
      010014E1H   LINE      CODE     ---       #89
      ---         BLOCKEND  ---      ---       LVL=0

      01001A19H   BLOCK     CODE     ---       LVL=0
      01001A19H   LINE      CODE     ---       #92
      01001A19H   LINE      CODE     ---       #93
      01001A1BH   LINE      CODE     ---       #94
      ---         BLOCKEND  ---      ---       LVL=0

      ---         MODULE    ---      ---       USB_0
      01001765H   PUBLIC    CODE     ---       USB_SuspendOscillator
      010019CCH   PUBLIC    CODE     ---       USB_IsRegulatorEnabled
      010019C4H   PUBLIC    CODE     ---       USB_IsPrefetchEnabled
      010019F7H   PUBLIC    CODE     ---       USB_GetIntsEnabled
      01001A0CH   PUBLIC    CODE     ---       USB_GetSofNumber
      00000021H.2 PUBLIC    BIT      BIT       ?_USB_ActivateEp?BIT
      01000F8AH   PUBLIC    CODE     ---       _USB_ActivateEp
      0100151EH   PUBLIC    CODE     ---       _USB_AbortInEp
      01001930H   PUBLIC    CODE     ---       USB_EpnInGetSentStall
      0100198BH   PUBLIC    CODE     ---       USB_Ep0GetCount
      01001923H   PUBLIC    CODE     ---       USB_Ep0InPacketReady
      0100193DH   PUBLIC    CODE     ---       USB_Ep0OutPacketReady
      01001916H   PUBLIC    CODE     ---       USB_Ep0SentStall
      01001909H   PUBLIC    CODE     ---       USB_GetSetupEnd
      010018FCH   PUBLIC    CODE     ---       USB_IsSuspended
      01001980H   PUBLIC    CODE     ---       USB_GetIndex
      01001975H   PUBLIC    CODE     ---       USB_GetOutInts
      0100196AH   PUBLIC    CODE     ---       USB_GetInInts
      0100195FH   PUBLIC    CODE     ---       USB_GetCommonInts
      01001954H   PUBLIC    CODE     ---       _USB_SetIndex
      000000A2H   SFRSYM    DATA     BYTE      SPI0CKR
      00000080H   SFRSYM    DATA     BYTE      P0
      000000C8H.6 SFRSYM    DATA     BIT       SCON1_PERR
      000000D0H.2 SFRSYM    DATA     BIT       PSW_OV
      00000090H   SFRSYM    DATA     BYTE      P1
      000000F8H.1 SFRSYM    DATA     BIT       SPI0CN0_TXNF
      00000097H   SFRSYM    DATA     BYTE      WDTCN
      000000A0H   SFRSYM    DATA     BYTE      P2
      000000B0H   SFRSYM    DATA     BYTE      P3
      000000BCH   SFRSYM    DATA     BYTE      ADC0CF
      000000C0H.7 SFRSYM    DATA     BIT       SMB0CN0_MASTER
      000000F9H   SFRSYM    DATA     WORD      PCA0
      000000E6H   SFRSYM    DATA     BYTE      EIE1
      000000C0H.1 SFRSYM    DATA     BIT       SMB0CN0_ACK
      000000B3H   SFRSYM    DATA     BYTE      USB0XCN
      000000CEH   SFRSYM    DATA     BYTE      EIE2
      0000008FH   SFRSYM    DATA     BYTE      PSCTL
      000000E4H   SFRSYM    DATA     BYTE      IT01CF
      000000C0H.6 SFRSYM    DATA     BIT       SMB0CN0_TXMODE
LX51 LINKER/LOCATER V4.66.30.0                                                        01/21/2016  23:03:23  PAGE 49


      000000ADH   SFRSYM    DATA     BYTE      DERIVID
      000000A7H   SFRSYM    DATA     BYTE      SFRPAGE
      000000A4H   SFRSYM    DATA     BYTE      P0MDOUT
      000000BFH   SFRSYM    DATA     BYTE      USB0CDSTA
      000000A5H   SFRSYM    DATA     BYTE      P1MDOUT
      000000E8H.5 SFRSYM    DATA     BIT       ADC0CN0_ADINT
      000000CBH   SFRSYM    DATA     BYTE      TMR2RLH
      000000A6H   SFRSYM    DATA     BYTE      P2MDOUT
      000000A8H   SFRSYM    DATA     BYTE      IE
      00000093H   SFRSYM    DATA     BYTE      TMR3RLH
      0000009CH   SFRSYM    DATA     BYTE      P3MDOUT
      000000A3H   SFRSYM    DATA     BYTE      TMR4RLH
      000000F3H   SFRSYM    DATA     BYTE      EIP1
      000000F4H   SFRSYM    DATA     BYTE      EIP2
      00000098H.2 SFRSYM    DATA     BIT       SCON0_RB8
      000000CAH   SFRSYM    DATA     BYTE      TMR2RLL
      000000FCH   SFRSYM    DATA     BYTE      PCA0CPH0
      00000092H   SFRSYM    DATA     BYTE      TMR3RLL
      000000EAH   SFRSYM    DATA     BYTE      PCA0CPH1
      00000098H.3 SFRSYM    DATA     BIT       SCON0_TB8
      000000F0H   SFRSYM    DATA     BIT       B_B0
      00000082H   SFRSYM    DATA     WORD      DP
      000000A2H   SFRSYM    DATA     BYTE      TMR4RLL
      000000ECH   SFRSYM    DATA     BYTE      PCA0CPH2
      000000F0H.1 SFRSYM    DATA     BIT       B_B1
      000000C3H   SFRSYM    DATA     WORD      ADC0GT
      000000BDH   SFRSYM    DATA     BYTE      I2C0SLAD
      000000D8H.3 SFRSYM    DATA     BIT       UART1FCN1_RFRQ
      000000F0H.2 SFRSYM    DATA     BIT       B_B2
      000000CFH   SFRSYM    DATA     BYTE      SFRPGCN
      000000FBH   SFRSYM    DATA     BYTE      PCA0CPL0
      000000F0H.3 SFRSYM    DATA     BIT       B_B3
      000000D9H   SFRSYM    DATA     BYTE      PCA0MD
      000000DAH   SFRSYM    DATA     BYTE      PCA0CPM0
      000000E9H   SFRSYM    DATA     BYTE      PCA0CPL1
      000000D8H.7 SFRSYM    DATA     BIT       UART1FCN1_TFRQ
      000000F0H.4 SFRSYM    DATA     BIT       B_B4
      000000DBH   SFRSYM    DATA     BYTE      PCA0CPM1
      000000EBH   SFRSYM    DATA     BYTE      PCA0CPL2
      000000F0H.5 SFRSYM    DATA     BIT       B_B5
      000000DCH   SFRSYM    DATA     BYTE      PCA0CPM2
      000000B8H   SFRSYM    DATA     BYTE      IP
      000000B9H   SFRSYM    DATA     BYTE      ADC0TK
      000000F0H.6 SFRSYM    DATA     BIT       B_B6
      000000C5H   SFRSYM    DATA     WORD      ADC0LT
      000000D8H.6 SFRSYM    DATA     BIT       UART1FCN1_TXNF
      00000098H.5 SFRSYM    DATA     BIT       SCON0_MCE
      000000F0H.7 SFRSYM    DATA     BIT       B_B7
      000000C3H   SFRSYM    DATA     BYTE      SMB0FCN0
      000000E1H   SFRSYM    DATA     BYTE      XBR0
      000000C4H   SFRSYM    DATA     BYTE      SMB0FCN1
      000000C1H   SFRSYM    DATA     BYTE      SMB0CF
      000000E2H   SFRSYM    DATA     BYTE      XBR1
      000000C1H   SFRSYM    DATA     BYTE      PFE0CN
      000000E7H   SFRSYM    DATA     BYTE      EMI0CN
      000000C0H.5 SFRSYM    DATA     BIT       SMB0CN0_STA
      000000E3H   SFRSYM    DATA     BYTE      XBR2
      000000BBH   SFRSYM    DATA     BYTE      ADC0MX
      000000E0H   SFRSYM    DATA     BIT       ACC_ACC0
      000000D1H   SFRSYM    DATA     BYTE      REF0CN
      0000008EH   SFRSYM    DATA     BYTE      CKCON0
      000000E0H.1 SFRSYM    DATA     BIT       ACC_ACC1
LX51 LINKER/LOCATER V4.66.30.0                                                        01/21/2016  23:03:23  PAGE 50


      000000C9H   SFRSYM    DATA     BYTE      REG0CN
      000000DDH   SFRSYM    DATA     BYTE      CRC0IN
      000000A6H   SFRSYM    DATA     BYTE      CKCON1
      000000C8H.2 SFRSYM    DATA     BIT       TMR2CN0_TR2
      000000E0H.2 SFRSYM    DATA     BIT       ACC_ACC2
      000000C6H   SFRSYM    DATA     BYTE      REG1CN
      000000E0H.3 SFRSYM    DATA     BIT       ACC_ACC3
      00000081H   SFRSYM    DATA     BYTE      SP
      0000009DH   SFRSYM    DATA     BYTE      CMP0MD
      000000E0H.4 SFRSYM    DATA     BIT       ACC_ACC4
      000000B1H   SFRSYM    DATA     BYTE      LFO0CN
      000000ABH   SFRSYM    DATA     BYTE      CMP1MD
      000000D8H   SFRSYM    DATA     BIT       PCA0CN0_CCF0
      000000E0H.5 SFRSYM    DATA     BIT       ACC_ACC5
      000000B5H   SFRSYM    DATA     BYTE      USB0CF
      00000098H.2 SFRSYM    DATA     BIT       TMR4CN0_TR4
      000000D8H.1 SFRSYM    DATA     BIT       PCA0CN0_CCF1
      000000E0H.6 SFRSYM    DATA     BIT       ACC_ACC6
      000000CCH   SFRSYM    DATA     WORD      TMR2
      0000009AH   SFRSYM    DATA     BYTE      SPI0FCN0
      000000D8H.2 SFRSYM    DATA     BIT       PCA0CN0_CCF2
      000000E0H.7 SFRSYM    DATA     BIT       ACC_ACC7
      00000094H   SFRSYM    DATA     WORD      TMR3
      0000009BH   SFRSYM    DATA     BYTE      SPI0FCN1
      000000A4H   SFRSYM    DATA     WORD      TMR4
      00000094H   SFRSYM    DATA     BYTE      SBCON1
      000000C0H.3 SFRSYM    DATA     BIT       SMB0CN0_ACKRQ
      000000FFH   SFRSYM    DATA     BYTE      VDM0CN
      000000F1H   SFRSYM    DATA     BYTE      P0MDIN
      00000098H.4 SFRSYM    DATA     BIT       SCON0_REN
      000000ACH   SFRSYM    DATA     BYTE      SMB0TC
      000000F2H   SFRSYM    DATA     BYTE      P1MDIN
      000000C8H.4 SFRSYM    DATA     BIT       SCON1_REN
      000000F3H   SFRSYM    DATA     BYTE      P2MDIN
      000000C0H.4 SFRSYM    DATA     BIT       SMB0CN0_STO
      000000B6H   SFRSYM    DATA     BYTE      USB0CDCF
      000000F4H   SFRSYM    DATA     BYTE      P3MDIN
      000000B9H   SFRSYM    DATA     BYTE      I2C0STAT
      000000BBH   SFRSYM    DATA     BYTE      I2C0DOUT
      00000096H   SFRSYM    DATA     BYTE      SBRLH1
      000000FEH   SFRSYM    DATA     BYTE      P0MASK
      000000D8H.5 SFRSYM    DATA     BIT       UART1FCN1_TXHOLD
      000000EEH   SFRSYM    DATA     BYTE      P1MASK
      000000FCH   SFRSYM    DATA     BYTE      P2MASK
      000000D0H.3 SFRSYM    DATA     BIT       PSW_RS0
      000000D8H.7 SFRSYM    DATA     BIT       PCA0CN0_CF
      0000009EH   SFRSYM    DATA     BYTE      PCA0CENT
      000000BAH   SFRSYM    DATA     BYTE      I2C0CN0
      000000D2H   SFRSYM    DATA     BYTE      CRC0ST
      000000F8H.4 SFRSYM    DATA     BIT       SPI0CN0_RXOVRN
      000000D0H.4 SFRSYM    DATA     BIT       PSW_RS1
      00000095H   SFRSYM    DATA     BYTE      SBRLL1
      000000C8H.2 SFRSYM    DATA     BIT       SCON1_RBX
      000000C8H   SFRSYM    DATA     BIT       TMR2CN0_T2XCLK0
      000000C8H.1 SFRSYM    DATA     BIT       TMR2CN0_T2XCLK1
      000000C8H.3 SFRSYM    DATA     BIT       SCON1_TBX
      000000E8H.7 SFRSYM    DATA     BIT       ADC0CN0_ADEN
      000000BEH   SFRSYM    DATA     BYTE      USB0CDCN
      00000089H   SFRSYM    DATA     BYTE      TMOD
      00000088H   SFRSYM    DATA     BYTE      TCON
      000000CFH   SFRSYM    DATA     BYTE      CRC0FLIP
      000000D0H   SFRSYM    DATA     BIT       PSW_PARITY
LX51 LINKER/LOCATER V4.66.30.0                                                        01/21/2016  23:03:23  PAGE 51


      000000A8H.4 SFRSYM    DATA     BIT       IE_ES0
      0000009FH   SFRSYM    DATA     BYTE      CMP0MX
      00000098H   SFRSYM    DATA     BIT       TMR4CN0_T4XCLK0
      000000A8H.1 SFRSYM    DATA     BIT       IE_ET0
      000000AAH   SFRSYM    DATA     BYTE      CMP1MX
      00000098H.1 SFRSYM    DATA     BIT       TMR4CN0_T4XCLK1
      000000A8H.3 SFRSYM    DATA     BIT       IE_ET1
      000000D4H   SFRSYM    DATA     BYTE      P0SKIP
      000000D8H   SFRSYM    DATA     BIT       UART1FCN1_RIE
      000000A8H.5 SFRSYM    DATA     BIT       IE_ET2
      000000D5H   SFRSYM    DATA     BYTE      P1SKIP
      000000CCH   SFRSYM    DATA     BYTE      P2SKIP
      000000E8H   SFRSYM    DATA     BYTE      ADC0CN0
      000000D8H.4 SFRSYM    DATA     BIT       UART1FCN1_TIE
      000000A8H   SFRSYM    DATA     BIT       IE_EX0
      000000B2H   SFRSYM    DATA     BYTE      ADC0CN1
      000000D8H.6 SFRSYM    DATA     BIT       PCA0CN0_CR
      000000A8H.2 SFRSYM    DATA     BIT       IE_EX1
      000000C8H.7 SFRSYM    DATA     BIT       SCON1_OVR
      00000098H.7 SFRSYM    DATA     BIT       SCON0_SMODE
      000000B5H   SFRSYM    DATA     BYTE      DEVICEID
      000000A9H   SFRSYM    DATA     BYTE      CLKSEL
      000000F8H   SFRSYM    DATA     BIT       SPI0CN0_SPIEN
      000000F0H   SFRSYM    DATA     BYTE      B
      000000BEH   SFRSYM    DATA     BYTE      ADC0H
      000000E8H.6 SFRSYM    DATA     BIT       ADC0CN0_ADBMEN
      000000CAH   SFRSYM    DATA     WORD      TMR2RL
      000000BDH   SFRSYM    DATA     BYTE      ADC0L
      00000092H   SFRSYM    DATA     WORD      TMR3RL
      000000A2H   SFRSYM    DATA     WORD      TMR4RL
      000000D8H   SFRSYM    DATA     BYTE      PCA0CN0
      000000E0H   SFRSYM    DATA     BYTE      ACC
      000000FBH   SFRSYM    DATA     WORD      PCA0CP0
      000000E9H   SFRSYM    DATA     WORD      PCA0CP1
      000000EBH   SFRSYM    DATA     WORD      PCA0CP2
      000000BCH   SFRSYM    DATA     BYTE      I2C0DIN
      000000CEH   SFRSYM    DATA     BYTE      CRC0CN0
      0000008CH   SFRSYM    DATA     BYTE      TH0
      00000086H   SFRSYM    DATA     BYTE      CRC0CN1
      000000B8H.4 SFRSYM    DATA     BIT       IP_PS0
      000000FAH   SFRSYM    DATA     BYTE      UART1FCT
      0000008DH   SFRSYM    DATA     BYTE      TH1
      000000FAH   SFRSYM    DATA     BYTE      PCA0H
      000000F5H   SFRSYM    DATA     BYTE      I2C0FCT
      000000B8H.1 SFRSYM    DATA     BIT       IP_PT0
      000000B8H.3 SFRSYM    DATA     BIT       IP_PT1
      000000C0H.2 SFRSYM    DATA     BIT       SMB0CN0_ARBLOST
      000000B8H.5 SFRSYM    DATA     BIT       IP_PT2
      0000008AH   SFRSYM    DATA     BYTE      TL0
      000000D0H.5 SFRSYM    DATA     BIT       PSW_F0
      000000A8H.6 SFRSYM    DATA     BIT       IE_ESPI0
      0000008BH   SFRSYM    DATA     BYTE      TL1
      000000F9H   SFRSYM    DATA     BYTE      PCA0L
      000000C0H   SFRSYM    DATA     BIT       SMB0CN0_SI
      000000D0H.1 SFRSYM    DATA     BIT       PSW_F1
      00000080H   SFRSYM    DATA     BIT       P0_B0
      000000B8H   SFRSYM    DATA     BIT       IP_PX0
      00000090H   SFRSYM    DATA     BIT       P1_B0
      00000080H.1 SFRSYM    DATA     BIT       P0_B1
      000000B8H.2 SFRSYM    DATA     BIT       IP_PX1
      0000009EH   SFRSYM    DATA     BYTE      UART1LIN
      0000009BH   SFRSYM    DATA     BYTE      CMP0CN0
LX51 LINKER/LOCATER V4.66.30.0                                                        01/21/2016  23:03:23  PAGE 52


      00000088H.1 SFRSYM    DATA     BIT       TCON_IE0
      000000A0H   SFRSYM    DATA     BIT       P2_B0
      00000090H.1 SFRSYM    DATA     BIT       P1_B1
      00000080H.2 SFRSYM    DATA     BIT       P0_B2
      000000BFH   SFRSYM    DATA     BYTE      CMP1CN0
      00000099H   SFRSYM    DATA     BYTE      CMP0CN1
      00000088H.3 SFRSYM    DATA     BIT       TCON_IE1
      000000B0H   SFRSYM    DATA     BIT       P3_B0
      000000A0H.1 SFRSYM    DATA     BIT       P2_B1
      00000090H.2 SFRSYM    DATA     BIT       P1_B2
      00000080H.3 SFRSYM    DATA     BIT       P0_B3
      000000C0H   SFRSYM    DATA     BYTE      SMB0CN0
      000000ACH   SFRSYM    DATA     BYTE      CMP1CN1
      000000B0H.1 SFRSYM    DATA     BIT       P3_B1
      000000A0H.2 SFRSYM    DATA     BIT       P2_B2
      00000090H.3 SFRSYM    DATA     BIT       P1_B3
      00000080H.4 SFRSYM    DATA     BIT       P0_B4
      000000A0H.3 SFRSYM    DATA     BIT       P2_B3
      00000090H.4 SFRSYM    DATA     BIT       P1_B4
      00000080H.5 SFRSYM    DATA     BIT       P0_B5
      000000D8H.1 SFRSYM    DATA     BIT       UART1FCN1_RXTO0
      00000090H.5 SFRSYM    DATA     BIT       P1_B5
      00000080H.6 SFRSYM    DATA     BIT       P0_B6
      000000F5H   SFRSYM    DATA     BYTE      EIP1H
      000000D8H.2 SFRSYM    DATA     BIT       UART1FCN1_RXTO1
      00000090H.6 SFRSYM    DATA     BIT       P1_B6
      00000080H.7 SFRSYM    DATA     BIT       P0_B7
      000000C5H   SFRSYM    DATA     BYTE      SMB0RXLN
      000000F6H   SFRSYM    DATA     BYTE      EIP2H
      00000090H.7 SFRSYM    DATA     BIT       P1_B7
      00000083H   SFRSYM    DATA     BYTE      DPH
      000000C4H   SFRSYM    DATA     BYTE      ADC0GTH
      000000C8H.7 SFRSYM    DATA     BIT       TMR2CN0_TF2H
      000000C8H.3 SFRSYM    DATA     BIT       TMR2CN0_T2SPLIT
      000000D0H.6 SFRSYM    DATA     BIT       PSW_AC
      000000F8H   SFRSYM    DATA     BYTE      SPI0CN0
      000000C7H   SFRSYM    DATA     BYTE      HFO0CAL
      00000088H.5 SFRSYM    DATA     BIT       TCON_TF0
      00000098H   SFRSYM    DATA     BIT       SCON0_RI
      000000D6H   SFRSYM    DATA     BYTE      HFO1CAL
      00000082H   SFRSYM    DATA     BYTE      DPL
      00000088H.7 SFRSYM    DATA     BIT       TCON_TF1
      000000C8H   SFRSYM    DATA     BIT       SCON1_RI
      00000099H   SFRSYM    DATA     BYTE      SBUF0
      00000087H   SFRSYM    DATA     BYTE      PCON0
      000000F2H   SFRSYM    DATA     BYTE      IPH
      000000C3H   SFRSYM    DATA     BYTE      ADC0GTL
      00000098H.7 SFRSYM    DATA     BIT       TMR4CN0_TF4H
      00000098H.3 SFRSYM    DATA     BIT       TMR4CN0_T4SPLIT
      000000C8H.6 SFRSYM    DATA     BIT       TMR2CN0_TF2L
      00000098H.1 SFRSYM    DATA     BIT       SCON0_TI
      000000E8H   SFRSYM    DATA     BIT       ADC0CN0_ADCM0
      00000092H   SFRSYM    DATA     BYTE      SBUF1
      0000009AH   SFRSYM    DATA     BYTE      PCON1
      000000C6H   SFRSYM    DATA     BYTE      ADC0LTH
      00000088H   SFRSYM    DATA     BIT       TCON_IT0
      000000C8H.1 SFRSYM    DATA     BIT       SCON1_TI
      000000E8H.1 SFRSYM    DATA     BIT       ADC0CN0_ADCM1
      000000EFH   SFRSYM    DATA     BYTE      RSTSRC
      000000FDH   SFRSYM    DATA     BYTE      P0MAT
      000000DEH   SFRSYM    DATA     BYTE      CRC0DAT
      00000088H.2 SFRSYM    DATA     BIT       TCON_IT1
LX51 LINKER/LOCATER V4.66.30.0                                                        01/21/2016  23:03:23  PAGE 53


      000000E8H.2 SFRSYM    DATA     BIT       ADC0CN0_ADCM2
      000000D7H   SFRSYM    DATA     BYTE      SFRSTACK
      00000098H   SFRSYM    DATA     BYTE      SCON0
      000000F6H   SFRSYM    DATA     BYTE      PRTDRV
      000000EDH   SFRSYM    DATA     BYTE      P1MAT
      000000E8H.3 SFRSYM    DATA     BIT       ADC0CN0_ADWINT
      00000095H   SFRSYM    DATA     WORD      SBRL1
      000000B2H   SFRSYM    DATA     BYTE      USB0AEC
      00000093H   SFRSYM    DATA     BYTE      SMOD1
      000000C8H   SFRSYM    DATA     BYTE      SCON1
      000000FBH   SFRSYM    DATA     BYTE      P2MAT
      00000098H.6 SFRSYM    DATA     BIT       TMR4CN0_TF4L
      000000E8H.4 SFRSYM    DATA     BIT       ADC0CN0_ADBUSY
      000000D6H   SFRSYM    DATA     BYTE      SMB0ADM
      000000C5H   SFRSYM    DATA     BYTE      ADC0LTL
      000000F8H.5 SFRSYM    DATA     BIT       SPI0CN0_MODF
      000000B8H.6 SFRSYM    DATA     BIT       IP_PSPI0
      0000009CH   SFRSYM    DATA     BYTE      PCA0CLR
      000000C8H   SFRSYM    DATA     BYTE      TMR2CN0
      00000091H   SFRSYM    DATA     BYTE      TMR3CN0
      000000FDH   SFRSYM    DATA     BYTE      TMR2CN1
      00000098H   SFRSYM    DATA     BYTE      TMR4CN0
      000000FEH   SFRSYM    DATA     BYTE      TMR3CN1
      000000FFH   SFRSYM    DATA     BYTE      TMR4CN1
      000000D7H   SFRSYM    DATA     BYTE      SMB0ADR
      00000088H.4 SFRSYM    DATA     BIT       TCON_TR0
      000000C8H.4 SFRSYM    DATA     BIT       TMR2CN0_TF2CEN
      00000088H.6 SFRSYM    DATA     BIT       TCON_TR1
      000000C2H   SFRSYM    DATA     BYTE      SMB0DAT
      000000CDH   SFRSYM    DATA     BYTE      TMR2H
      000000A1H   SFRSYM    DATA     BYTE      SPI0CFG
      00000095H   SFRSYM    DATA     BYTE      TMR3H
      000000EFH   SFRSYM    DATA     BYTE      HFOCN
      000000D3H   SFRSYM    DATA     BYTE      CRC0CNT
      000000A5H   SFRSYM    DATA     BYTE      TMR4H
      00000098H.4 SFRSYM    DATA     BIT       TMR4CN0_TF4CEN
      000000EFH   SFRSYM    DATA     BYTE      SMB0FCT
      00000096H   SFRSYM    DATA     BYTE      PCA0POL
      000000CCH   SFRSYM    DATA     BYTE      TMR2L
      000000F8H.7 SFRSYM    DATA     BIT       SPI0CN0_SPIF
      000000AEH   SFRSYM    DATA     BYTE      USB0ADR
      00000094H   SFRSYM    DATA     BYTE      TMR3L
      000000DFH   SFRSYM    DATA     BYTE      ADC0PWR
      000000A8H.7 SFRSYM    DATA     BIT       IE_EA
      000000A4H   SFRSYM    DATA     BYTE      TMR4L
      000000AFH   SFRSYM    DATA     BYTE      USB0DAT
      000000C8H.5 SFRSYM    DATA     BIT       TMR2CN0_TF2LEN
      000000F8H.6 SFRSYM    DATA     BIT       SPI0CN0_WCOL
      000000F8H.2 SFRSYM    DATA     BIT       SPI0CN0_NSSMD0
      000000D0H.7 SFRSYM    DATA     BIT       PSW_CY
      0000009DH   SFRSYM    DATA     BYTE      UART1FCN0
      000000A3H   SFRSYM    DATA     BYTE      SPI0DAT
      000000ADH   SFRSYM    DATA     BYTE      I2C0FCN0
      000000F8H.3 SFRSYM    DATA     BIT       SPI0CN0_NSSMD1
      000000BDH   SFRSYM    DATA     WORD      ADC0
      000000D8H   SFRSYM    DATA     BYTE      UART1FCN1
      000000ABH   SFRSYM    DATA     BYTE      I2C0FCN1
      00000098H.5 SFRSYM    DATA     BIT       TMR4CN0_TF4LEN
      000000D0H   SFRSYM    DATA     BYTE      PSW
      000000F7H   SFRSYM    DATA     BYTE      PCA0PWM
      000000F7H   SFRSYM    DATA     BYTE      SPI0FCT
      000000B6H   SFRSYM    DATA     BYTE      REVID
LX51 LINKER/LOCATER V4.66.30.0                                                        01/21/2016  23:03:23  PAGE 54


      000000B7H   SFRSYM    DATA     BYTE      FLKEY
      000000B3H   SFRSYM    DATA     BYTE      ADC0AC
      01001702H   SYMBOL    CODE     ---       _USB_GetShortRegister

      01001702H   BLOCK     CODE     ---       LVL=0
      00000005H   SYMBOL    DATA     BYTE      regAddr
      01001704H   BLOCK     CODE     NEAR LAB  LVL=1
      00000006H   SYMBOL    DATA     WORD      retVal
      ---         BLOCKEND  ---      ---       LVL=1
      01001702H   LINE      CODE     ---       #25
      01001704H   LINE      CODE     ---       #26
      01001704H   LINE      CODE     ---       #29
      0100170EH   LINE      CODE     ---       #30
      01001714H   LINE      CODE     ---       #31
      0100171FH   LINE      CODE     ---       #32
      01001724H   LINE      CODE     ---       #34
      01001724H   LINE      CODE     ---       #35
      ---         BLOCKEND  ---      ---       LVL=0

      01001954H   BLOCK     CODE     ---       LVL=0
      00000007H   SYMBOL    DATA     BYTE      epsel
      01001954H   LINE      CODE     ---       #40
      01001954H   LINE      CODE     ---       #41
      01001954H   LINE      CODE     ---       #42
      0100195EH   LINE      CODE     ---       #43
      ---         BLOCKEND  ---      ---       LVL=0

      0100195FH   BLOCK     CODE     ---       LVL=0
      0100195FH   LINE      CODE     ---       #45
      0100195FH   LINE      CODE     ---       #46
      0100195FH   LINE      CODE     ---       #47
      01001967H   LINE      CODE     ---       #48
      01001969H   LINE      CODE     ---       #49
      ---         BLOCKEND  ---      ---       LVL=0

      0100196AH   BLOCK     CODE     ---       LVL=0
      0100196AH   LINE      CODE     ---       #51
      0100196AH   LINE      CODE     ---       #52
      0100196AH   LINE      CODE     ---       #53
      01001972H   LINE      CODE     ---       #54
      01001974H   LINE      CODE     ---       #55
      ---         BLOCKEND  ---      ---       LVL=0

      01001975H   BLOCK     CODE     ---       LVL=0
      01001975H   LINE      CODE     ---       #57
      01001975H   LINE      CODE     ---       #58
      01001975H   LINE      CODE     ---       #59
      0100197DH   LINE      CODE     ---       #60
      0100197FH   LINE      CODE     ---       #61
      ---         BLOCKEND  ---      ---       LVL=0

      01001980H   BLOCK     CODE     ---       LVL=0
      01001980H   LINE      CODE     ---       #63
      01001980H   LINE      CODE     ---       #64
      01001980H   LINE      CODE     ---       #65
      01001988H   LINE      CODE     ---       #66
      0100198AH   LINE      CODE     ---       #67
      ---         BLOCKEND  ---      ---       LVL=0

      010018FCH   BLOCK     CODE     ---       LVL=0
      010018FCH   LINE      CODE     ---       #69
      010018FCH   LINE      CODE     ---       #70
LX51 LINKER/LOCATER V4.66.30.0                                                        01/21/2016  23:03:23  PAGE 55


      010018FCH   LINE      CODE     ---       #71
      01001904H   LINE      CODE     ---       #72
      01001908H   LINE      CODE     ---       #73
      ---         BLOCKEND  ---      ---       LVL=0

      01001909H   BLOCK     CODE     ---       LVL=0
      01001909H   LINE      CODE     ---       #75
      01001909H   LINE      CODE     ---       #76
      01001909H   LINE      CODE     ---       #77
      01001911H   LINE      CODE     ---       #78
      01001915H   LINE      CODE     ---       #79
      ---         BLOCKEND  ---      ---       LVL=0

      01001916H   BLOCK     CODE     ---       LVL=0
      01001916H   LINE      CODE     ---       #81
      01001916H   LINE      CODE     ---       #82
      01001916H   LINE      CODE     ---       #83
      0100191EH   LINE      CODE     ---       #84
      01001922H   LINE      CODE     ---       #85
      ---         BLOCKEND  ---      ---       LVL=0

      0100193DH   BLOCK     CODE     ---       LVL=0
      0100193DH   LINE      CODE     ---       #87
      0100193DH   LINE      CODE     ---       #88
      0100193DH   LINE      CODE     ---       #89
      01001945H   LINE      CODE     ---       #90
      01001948H   LINE      CODE     ---       #91
      ---         BLOCKEND  ---      ---       LVL=0

      01001923H   BLOCK     CODE     ---       LVL=0
      01001923H   LINE      CODE     ---       #93
      01001923H   LINE      CODE     ---       #94
      01001923H   LINE      CODE     ---       #95
      0100192BH   LINE      CODE     ---       #96
      0100192FH   LINE      CODE     ---       #97
      ---         BLOCKEND  ---      ---       LVL=0

      0100198BH   BLOCK     CODE     ---       LVL=0
      0100198BH   LINE      CODE     ---       #99
      0100198BH   LINE      CODE     ---       #100
      0100198BH   LINE      CODE     ---       #101
      01001993H   LINE      CODE     ---       #102
      01001995H   LINE      CODE     ---       #103
      ---         BLOCKEND  ---      ---       LVL=0

      01001930H   BLOCK     CODE     ---       LVL=0
      01001930H   LINE      CODE     ---       #105
      01001930H   LINE      CODE     ---       #106
      01001930H   LINE      CODE     ---       #107
      01001938H   LINE      CODE     ---       #108
      0100193CH   LINE      CODE     ---       #109
      ---         BLOCKEND  ---      ---       LVL=0

      0100151EH   BLOCK     CODE     ---       LVL=0
      00000007H   SYMBOL    DATA     BYTE      fifoNum
      0100151EH   LINE      CODE     ---       #111
      0100151EH   LINE      CODE     ---       #112
      0100151EH   LINE      CODE     ---       #113
      01001521H   LINE      CODE     ---       #114
      01001539H   LINE      CODE     ---       #115
      01001551H   LINE      CODE     ---       #116
      ---         BLOCKEND  ---      ---       LVL=0
LX51 LINKER/LOCATER V4.66.30.0                                                        01/21/2016  23:03:23  PAGE 56


      00000007H   SYMBOL    DATA     BYTE      fifoNum

      01000F8AH   BLOCK     CODE     ---       LVL=0
      00000006H   SYMBOL    DATA     BYTE      ep
      00000004H   SYMBOL    DATA     WORD      packetSize
      00000021H.2 SYMBOL    BIT      BIT       inDir
      00000021H.3 SYMBOL    BIT      BIT       splitMode
      00000021H.4 SYMBOL    BIT      BIT       isoMode
      01000F8CH   BLOCK     CODE     NEAR LAB  LVL=1
      00000003H   SYMBOL    DATA     BYTE      CSRH_mask
      00000006H   SYMBOL    DATA     WORD      fifoSize
      ---         BLOCKEND  ---      ---       LVL=1
      01000F8AH   LINE      CODE     ---       #142
      01000F8CH   LINE      CODE     ---       #147
      01000F8CH   LINE      CODE     ---       #148
      01000F8EH   LINE      CODE     ---       #151
      01000F91H   LINE      CODE     ---       #155
      01000FBAH   LINE      CODE     ---       #157
      01000FC1H   LINE      CODE     ---       #158
      01000FC1H   LINE      CODE     ---       #159
      01000FC4H   LINE      CODE     ---       #160
      01000FC4H   LINE      CODE     ---       #162
      01000FC7H   LINE      CODE     ---       #163
      01000FC7H   LINE      CODE     ---       #164
      01000FCAH   LINE      CODE     ---       #165
      01000FCAH   LINE      CODE     ---       #167
      01000FCDH   LINE      CODE     ---       #168
      01000FCDH   LINE      CODE     ---       #169
      01000FD0H   LINE      CODE     ---       #171
      01000FD3H   LINE      CODE     ---       #172
      01000FD3H   LINE      CODE     ---       #173
      01000FD6H   LINE      CODE     ---       #174
      01000FD6H   LINE      CODE     ---       #175
      01000FE1H   LINE      CODE     ---       #176
      01000FEDH   LINE      CODE     ---       #179
      01000FEDH   LINE      CODE     ---       #180
      01000FF8H   LINE      CODE     ---       #181
      01001002H   LINE      CODE     ---       #183
      01001005H   LINE      CODE     ---       #184
      01001005H   LINE      CODE     ---       #185
      01001010H   LINE      CODE     ---       #186
      01001010H   LINE      CODE     ---       #187
      01001010H   LINE      CODE     ---       #188
      ---         BLOCKEND  ---      ---       LVL=0

      01001A0CH   BLOCK     CODE     ---       LVL=0
      01001A0CH   LINE      CODE     ---       #190
      01001A0CH   LINE      CODE     ---       #191
      01001A0CH   LINE      CODE     ---       #192
      01001A11H   LINE      CODE     ---       #193
      ---         BLOCKEND  ---      ---       LVL=0

      010019F7H   BLOCK     CODE     ---       LVL=0
      010019F7H   LINE      CODE     ---       #195
      010019F7H   LINE      CODE     ---       #196
      010019F7H   LINE      CODE     ---       #197
      010019FAH   LINE      CODE     ---       #198
      010019FDH   LINE      CODE     ---       #199
      ---         BLOCKEND  ---      ---       LVL=0

      010019C4H   BLOCK     CODE     ---       LVL=0
      010019C4H   LINE      CODE     ---       #201
LX51 LINKER/LOCATER V4.66.30.0                                                        01/21/2016  23:03:23  PAGE 57


      010019C4H   LINE      CODE     ---       #202
      010019C4H   LINE      CODE     ---       #203
      010019C7H   LINE      CODE     ---       #204
      010019CBH   LINE      CODE     ---       #205
      ---         BLOCKEND  ---      ---       LVL=0

      010019CCH   BLOCK     CODE     ---       LVL=0
      010019CCH   LINE      CODE     ---       #207
      010019CCH   LINE      CODE     ---       #208
      010019CCH   LINE      CODE     ---       #209
      010019CFH   LINE      CODE     ---       #210
      010019D3H   LINE      CODE     ---       #211
      ---         BLOCKEND  ---      ---       LVL=0

      01001765H   BLOCK     CODE     ---       LVL=0
      01001765H   BLOCK     CODE     NEAR LAB  LVL=1
      00000007H   SYMBOL    DATA     BYTE      clkSelSave
      ---         BLOCKEND  ---      ---       LVL=1
      01001765H   LINE      CODE     ---       #213
      01001765H   LINE      CODE     ---       #214
      01001765H   LINE      CODE     ---       #215
      0100176AH   LINE      CODE     ---       #217
      0100176DH   LINE      CODE     ---       #218
      01001770H   LINE      CODE     ---       #219
      01001773H   LINE      CODE     ---       #220
      01001775H   LINE      CODE     ---       #225
      0100177CH   LINE      CODE     ---       #226
      0100177CH   LINE      CODE     ---       #227
      0100177FH   LINE      CODE     ---       #228
      01001781H   LINE      CODE     ---       #229
      01001781H   LINE      CODE     ---       #230
      ---         BLOCKEND  ---      ---       LVL=0

      ---         MODULE    ---      ---       EFM8_USBD
      0000005AH   PUBLIC    IDATA    ---       myUsbDevice
      010015E7H   PUBLIC    CODE     ---       _USBD_SetUsbState
      00000021H.1 PUBLIC    BIT      BIT       ?_USBD_Write?BIT
      0000003FH   PUBLIC    DATA     BYTE      ?_USBD_Write?BYTE
      01000978H   PUBLIC    CODE     ---       _USBD_Write
      010011D5H   PUBLIC    CODE     ---       USBD_Suspend
      00000021H.1 PUBLIC    BIT      BIT       ?_USBD_Read?BIT
      0000003FH   PUBLIC    DATA     BYTE      ?_USBD_Read?BYTE
      01000D5CH   PUBLIC    CODE     ---       _USBD_Read
      01000E76H   PUBLIC    CODE     ---       _USBD_Init
      01001845H   PUBLIC    CODE     ---       USBD_Connect
      01001294H   PUBLIC    CODE     ---       _USBD_AbortTransfer
      010016B6H   PUBLIC    CODE     ---       USBD_AbortAllTransfers
      000000A2H   SFRSYM    DATA     BYTE      SPI0CKR
      00000080H   SFRSYM    DATA     BYTE      P0
      000000C8H.6 SFRSYM    DATA     BIT       SCON1_PERR
      000000D0H.2 SFRSYM    DATA     BIT       PSW_OV
      00000090H   SFRSYM    DATA     BYTE      P1
      000000F8H.1 SFRSYM    DATA     BIT       SPI0CN0_TXNF
      00000097H   SFRSYM    DATA     BYTE      WDTCN
      000000A0H   SFRSYM    DATA     BYTE      P2
      000000B0H   SFRSYM    DATA     BYTE      P3
      000000BCH   SFRSYM    DATA     BYTE      ADC0CF
      000000C0H.7 SFRSYM    DATA     BIT       SMB0CN0_MASTER
      000000F9H   SFRSYM    DATA     WORD      PCA0
      000000E6H   SFRSYM    DATA     BYTE      EIE1
      000000C0H.1 SFRSYM    DATA     BIT       SMB0CN0_ACK
      000000B3H   SFRSYM    DATA     BYTE      USB0XCN
LX51 LINKER/LOCATER V4.66.30.0                                                        01/21/2016  23:03:23  PAGE 58


      000000CEH   SFRSYM    DATA     BYTE      EIE2
      0000008FH   SFRSYM    DATA     BYTE      PSCTL
      000000E4H   SFRSYM    DATA     BYTE      IT01CF
      000000C0H.6 SFRSYM    DATA     BIT       SMB0CN0_TXMODE
      000000ADH   SFRSYM    DATA     BYTE      DERIVID
      000000A7H   SFRSYM    DATA     BYTE      SFRPAGE
      000000A4H   SFRSYM    DATA     BYTE      P0MDOUT
      000000BFH   SFRSYM    DATA     BYTE      USB0CDSTA
      000000A5H   SFRSYM    DATA     BYTE      P1MDOUT
      000000E8H.5 SFRSYM    DATA     BIT       ADC0CN0_ADINT
      000000CBH   SFRSYM    DATA     BYTE      TMR2RLH
      000000A6H   SFRSYM    DATA     BYTE      P2MDOUT
      000000A8H   SFRSYM    DATA     BYTE      IE
      00000093H   SFRSYM    DATA     BYTE      TMR3RLH
      0000009CH   SFRSYM    DATA     BYTE      P3MDOUT
      000000A3H   SFRSYM    DATA     BYTE      TMR4RLH
      000000F3H   SFRSYM    DATA     BYTE      EIP1
      000000F4H   SFRSYM    DATA     BYTE      EIP2
      00000098H.2 SFRSYM    DATA     BIT       SCON0_RB8
      000000CAH   SFRSYM    DATA     BYTE      TMR2RLL
      000000FCH   SFRSYM    DATA     BYTE      PCA0CPH0
      00000092H   SFRSYM    DATA     BYTE      TMR3RLL
      000000EAH   SFRSYM    DATA     BYTE      PCA0CPH1
      00000098H.3 SFRSYM    DATA     BIT       SCON0_TB8
      000000F0H   SFRSYM    DATA     BIT       B_B0
      00000082H   SFRSYM    DATA     WORD      DP
      000000A2H   SFRSYM    DATA     BYTE      TMR4RLL
      000000ECH   SFRSYM    DATA     BYTE      PCA0CPH2
      000000F0H.1 SFRSYM    DATA     BIT       B_B1
      000000C3H   SFRSYM    DATA     WORD      ADC0GT
      000000BDH   SFRSYM    DATA     BYTE      I2C0SLAD
      000000D8H.3 SFRSYM    DATA     BIT       UART1FCN1_RFRQ
      000000F0H.2 SFRSYM    DATA     BIT       B_B2
      000000CFH   SFRSYM    DATA     BYTE      SFRPGCN
      000000FBH   SFRSYM    DATA     BYTE      PCA0CPL0
      000000F0H.3 SFRSYM    DATA     BIT       B_B3
      000000D9H   SFRSYM    DATA     BYTE      PCA0MD
      000000DAH   SFRSYM    DATA     BYTE      PCA0CPM0
      000000E9H   SFRSYM    DATA     BYTE      PCA0CPL1
      000000D8H.7 SFRSYM    DATA     BIT       UART1FCN1_TFRQ
      000000F0H.4 SFRSYM    DATA     BIT       B_B4
      000000DBH   SFRSYM    DATA     BYTE      PCA0CPM1
      000000EBH   SFRSYM    DATA     BYTE      PCA0CPL2
      000000F0H.5 SFRSYM    DATA     BIT       B_B5
      000000DCH   SFRSYM    DATA     BYTE      PCA0CPM2
      000000B8H   SFRSYM    DATA     BYTE      IP
      000000B9H   SFRSYM    DATA     BYTE      ADC0TK
      000000F0H.6 SFRSYM    DATA     BIT       B_B6
      000000C5H   SFRSYM    DATA     WORD      ADC0LT
      000000D8H.6 SFRSYM    DATA     BIT       UART1FCN1_TXNF
      00000098H.5 SFRSYM    DATA     BIT       SCON0_MCE
      000000F0H.7 SFRSYM    DATA     BIT       B_B7
      000000C3H   SFRSYM    DATA     BYTE      SMB0FCN0
      000000E1H   SFRSYM    DATA     BYTE      XBR0
      000000C4H   SFRSYM    DATA     BYTE      SMB0FCN1
      000000C1H   SFRSYM    DATA     BYTE      SMB0CF
      000000E2H   SFRSYM    DATA     BYTE      XBR1
      000000C1H   SFRSYM    DATA     BYTE      PFE0CN
      000000E7H   SFRSYM    DATA     BYTE      EMI0CN
      000000C0H.5 SFRSYM    DATA     BIT       SMB0CN0_STA
      000000E3H   SFRSYM    DATA     BYTE      XBR2
      000000BBH   SFRSYM    DATA     BYTE      ADC0MX
LX51 LINKER/LOCATER V4.66.30.0                                                        01/21/2016  23:03:23  PAGE 59


      000000E0H   SFRSYM    DATA     BIT       ACC_ACC0
      000000D1H   SFRSYM    DATA     BYTE      REF0CN
      0000008EH   SFRSYM    DATA     BYTE      CKCON0
      000000E0H.1 SFRSYM    DATA     BIT       ACC_ACC1
      000000C9H   SFRSYM    DATA     BYTE      REG0CN
      000000DDH   SFRSYM    DATA     BYTE      CRC0IN
      000000A6H   SFRSYM    DATA     BYTE      CKCON1
      000000C8H.2 SFRSYM    DATA     BIT       TMR2CN0_TR2
      000000E0H.2 SFRSYM    DATA     BIT       ACC_ACC2
      000000C6H   SFRSYM    DATA     BYTE      REG1CN
      000000E0H.3 SFRSYM    DATA     BIT       ACC_ACC3
      00000081H   SFRSYM    DATA     BYTE      SP
      0000009DH   SFRSYM    DATA     BYTE      CMP0MD
      000000E0H.4 SFRSYM    DATA     BIT       ACC_ACC4
      000000B1H   SFRSYM    DATA     BYTE      LFO0CN
      000000ABH   SFRSYM    DATA     BYTE      CMP1MD
      000000D8H   SFRSYM    DATA     BIT       PCA0CN0_CCF0
      000000E0H.5 SFRSYM    DATA     BIT       ACC_ACC5
      000000B5H   SFRSYM    DATA     BYTE      USB0CF
      00000098H.2 SFRSYM    DATA     BIT       TMR4CN0_TR4
      000000D8H.1 SFRSYM    DATA     BIT       PCA0CN0_CCF1
      000000E0H.6 SFRSYM    DATA     BIT       ACC_ACC6
      000000CCH   SFRSYM    DATA     WORD      TMR2
      0000009AH   SFRSYM    DATA     BYTE      SPI0FCN0
      000000D8H.2 SFRSYM    DATA     BIT       PCA0CN0_CCF2
      000000E0H.7 SFRSYM    DATA     BIT       ACC_ACC7
      00000094H   SFRSYM    DATA     WORD      TMR3
      0000009BH   SFRSYM    DATA     BYTE      SPI0FCN1
      000000A4H   SFRSYM    DATA     WORD      TMR4
      00000094H   SFRSYM    DATA     BYTE      SBCON1
      000000C0H.3 SFRSYM    DATA     BIT       SMB0CN0_ACKRQ
      000000FFH   SFRSYM    DATA     BYTE      VDM0CN
      000000F1H   SFRSYM    DATA     BYTE      P0MDIN
      00000098H.4 SFRSYM    DATA     BIT       SCON0_REN
      000000ACH   SFRSYM    DATA     BYTE      SMB0TC
      000000F2H   SFRSYM    DATA     BYTE      P1MDIN
      000000C8H.4 SFRSYM    DATA     BIT       SCON1_REN
      000000F3H   SFRSYM    DATA     BYTE      P2MDIN
      000000C0H.4 SFRSYM    DATA     BIT       SMB0CN0_STO
      000000B6H   SFRSYM    DATA     BYTE      USB0CDCF
      000000F4H   SFRSYM    DATA     BYTE      P3MDIN
      000000B9H   SFRSYM    DATA     BYTE      I2C0STAT
      000000BBH   SFRSYM    DATA     BYTE      I2C0DOUT
      00000096H   SFRSYM    DATA     BYTE      SBRLH1
      000000FEH   SFRSYM    DATA     BYTE      P0MASK
      000000D8H.5 SFRSYM    DATA     BIT       UART1FCN1_TXHOLD
      000000EEH   SFRSYM    DATA     BYTE      P1MASK
      000000FCH   SFRSYM    DATA     BYTE      P2MASK
      000000D0H.3 SFRSYM    DATA     BIT       PSW_RS0
      000000D8H.7 SFRSYM    DATA     BIT       PCA0CN0_CF
      0000009EH   SFRSYM    DATA     BYTE      PCA0CENT
      000000BAH   SFRSYM    DATA     BYTE      I2C0CN0
      000000D2H   SFRSYM    DATA     BYTE      CRC0ST
      000000F8H.4 SFRSYM    DATA     BIT       SPI0CN0_RXOVRN
      000000D0H.4 SFRSYM    DATA     BIT       PSW_RS1
      00000095H   SFRSYM    DATA     BYTE      SBRLL1
      000000C8H.2 SFRSYM    DATA     BIT       SCON1_RBX
      000000C8H   SFRSYM    DATA     BIT       TMR2CN0_T2XCLK0
      000000C8H.1 SFRSYM    DATA     BIT       TMR2CN0_T2XCLK1
      000000C8H.3 SFRSYM    DATA     BIT       SCON1_TBX
      000000E8H.7 SFRSYM    DATA     BIT       ADC0CN0_ADEN
      000000BEH   SFRSYM    DATA     BYTE      USB0CDCN
LX51 LINKER/LOCATER V4.66.30.0                                                        01/21/2016  23:03:23  PAGE 60


      00000089H   SFRSYM    DATA     BYTE      TMOD
      00000088H   SFRSYM    DATA     BYTE      TCON
      000000CFH   SFRSYM    DATA     BYTE      CRC0FLIP
      000000D0H   SFRSYM    DATA     BIT       PSW_PARITY
      000000A8H.4 SFRSYM    DATA     BIT       IE_ES0
      0000009FH   SFRSYM    DATA     BYTE      CMP0MX
      00000098H   SFRSYM    DATA     BIT       TMR4CN0_T4XCLK0
      000000A8H.1 SFRSYM    DATA     BIT       IE_ET0
      000000AAH   SFRSYM    DATA     BYTE      CMP1MX
      00000098H.1 SFRSYM    DATA     BIT       TMR4CN0_T4XCLK1
      000000A8H.3 SFRSYM    DATA     BIT       IE_ET1
      000000D4H   SFRSYM    DATA     BYTE      P0SKIP
      000000D8H   SFRSYM    DATA     BIT       UART1FCN1_RIE
      000000A8H.5 SFRSYM    DATA     BIT       IE_ET2
      000000D5H   SFRSYM    DATA     BYTE      P1SKIP
      000000CCH   SFRSYM    DATA     BYTE      P2SKIP
      000000E8H   SFRSYM    DATA     BYTE      ADC0CN0
      000000D8H.4 SFRSYM    DATA     BIT       UART1FCN1_TIE
      000000A8H   SFRSYM    DATA     BIT       IE_EX0
      000000B2H   SFRSYM    DATA     BYTE      ADC0CN1
      000000D8H.6 SFRSYM    DATA     BIT       PCA0CN0_CR
      000000A8H.2 SFRSYM    DATA     BIT       IE_EX1
      000000C8H.7 SFRSYM    DATA     BIT       SCON1_OVR
      00000098H.7 SFRSYM    DATA     BIT       SCON0_SMODE
      000000B5H   SFRSYM    DATA     BYTE      DEVICEID
      000000A9H   SFRSYM    DATA     BYTE      CLKSEL
      000000F8H   SFRSYM    DATA     BIT       SPI0CN0_SPIEN
      000000F0H   SFRSYM    DATA     BYTE      B
      000000BEH   SFRSYM    DATA     BYTE      ADC0H
      000000E8H.6 SFRSYM    DATA     BIT       ADC0CN0_ADBMEN
      000000CAH   SFRSYM    DATA     WORD      TMR2RL
      000000BDH   SFRSYM    DATA     BYTE      ADC0L
      00000092H   SFRSYM    DATA     WORD      TMR3RL
      000000A2H   SFRSYM    DATA     WORD      TMR4RL
      000000D8H   SFRSYM    DATA     BYTE      PCA0CN0
      000000E0H   SFRSYM    DATA     BYTE      ACC
      000000FBH   SFRSYM    DATA     WORD      PCA0CP0
      000000E9H   SFRSYM    DATA     WORD      PCA0CP1
      000000EBH   SFRSYM    DATA     WORD      PCA0CP2
      000000BCH   SFRSYM    DATA     BYTE      I2C0DIN
      000000CEH   SFRSYM    DATA     BYTE      CRC0CN0
      0000008CH   SFRSYM    DATA     BYTE      TH0
      00000086H   SFRSYM    DATA     BYTE      CRC0CN1
      000000B8H.4 SFRSYM    DATA     BIT       IP_PS0
      000000FAH   SFRSYM    DATA     BYTE      UART1FCT
      0000008DH   SFRSYM    DATA     BYTE      TH1
      000000FAH   SFRSYM    DATA     BYTE      PCA0H
      000000F5H   SFRSYM    DATA     BYTE      I2C0FCT
      000000B8H.1 SFRSYM    DATA     BIT       IP_PT0
      000000B8H.3 SFRSYM    DATA     BIT       IP_PT1
      000000C0H.2 SFRSYM    DATA     BIT       SMB0CN0_ARBLOST
      000000B8H.5 SFRSYM    DATA     BIT       IP_PT2
      0000008AH   SFRSYM    DATA     BYTE      TL0
      000000D0H.5 SFRSYM    DATA     BIT       PSW_F0
      000000A8H.6 SFRSYM    DATA     BIT       IE_ESPI0
      0000008BH   SFRSYM    DATA     BYTE      TL1
      000000F9H   SFRSYM    DATA     BYTE      PCA0L
      000000C0H   SFRSYM    DATA     BIT       SMB0CN0_SI
      000000D0H.1 SFRSYM    DATA     BIT       PSW_F1
      00000080H   SFRSYM    DATA     BIT       P0_B0
      000000B8H   SFRSYM    DATA     BIT       IP_PX0
      00000090H   SFRSYM    DATA     BIT       P1_B0
LX51 LINKER/LOCATER V4.66.30.0                                                        01/21/2016  23:03:23  PAGE 61


      00000080H.1 SFRSYM    DATA     BIT       P0_B1
      000000B8H.2 SFRSYM    DATA     BIT       IP_PX1
      0000009EH   SFRSYM    DATA     BYTE      UART1LIN
      0000009BH   SFRSYM    DATA     BYTE      CMP0CN0
      00000088H.1 SFRSYM    DATA     BIT       TCON_IE0
      000000A0H   SFRSYM    DATA     BIT       P2_B0
      00000090H.1 SFRSYM    DATA     BIT       P1_B1
      00000080H.2 SFRSYM    DATA     BIT       P0_B2
      000000BFH   SFRSYM    DATA     BYTE      CMP1CN0
      00000099H   SFRSYM    DATA     BYTE      CMP0CN1
      00000088H.3 SFRSYM    DATA     BIT       TCON_IE1
      000000B0H   SFRSYM    DATA     BIT       P3_B0
      000000A0H.1 SFRSYM    DATA     BIT       P2_B1
      00000090H.2 SFRSYM    DATA     BIT       P1_B2
      00000080H.3 SFRSYM    DATA     BIT       P0_B3
      000000C0H   SFRSYM    DATA     BYTE      SMB0CN0
      000000ACH   SFRSYM    DATA     BYTE      CMP1CN1
      000000B0H.1 SFRSYM    DATA     BIT       P3_B1
      000000A0H.2 SFRSYM    DATA     BIT       P2_B2
      00000090H.3 SFRSYM    DATA     BIT       P1_B3
      00000080H.4 SFRSYM    DATA     BIT       P0_B4
      000000A0H.3 SFRSYM    DATA     BIT       P2_B3
      00000090H.4 SFRSYM    DATA     BIT       P1_B4
      00000080H.5 SFRSYM    DATA     BIT       P0_B5
      000000D8H.1 SFRSYM    DATA     BIT       UART1FCN1_RXTO0
      00000090H.5 SFRSYM    DATA     BIT       P1_B5
      00000080H.6 SFRSYM    DATA     BIT       P0_B6
      000000F5H   SFRSYM    DATA     BYTE      EIP1H
      000000D8H.2 SFRSYM    DATA     BIT       UART1FCN1_RXTO1
      00000090H.6 SFRSYM    DATA     BIT       P1_B6
      00000080H.7 SFRSYM    DATA     BIT       P0_B7
      000000C5H   SFRSYM    DATA     BYTE      SMB0RXLN
      000000F6H   SFRSYM    DATA     BYTE      EIP2H
      00000090H.7 SFRSYM    DATA     BIT       P1_B7
      00000083H   SFRSYM    DATA     BYTE      DPH
      000000C4H   SFRSYM    DATA     BYTE      ADC0GTH
      000000C8H.7 SFRSYM    DATA     BIT       TMR2CN0_TF2H
      000000C8H.3 SFRSYM    DATA     BIT       TMR2CN0_T2SPLIT
      000000D0H.6 SFRSYM    DATA     BIT       PSW_AC
      000000F8H   SFRSYM    DATA     BYTE      SPI0CN0
      000000C7H   SFRSYM    DATA     BYTE      HFO0CAL
      00000088H.5 SFRSYM    DATA     BIT       TCON_TF0
      00000098H   SFRSYM    DATA     BIT       SCON0_RI
      000000D6H   SFRSYM    DATA     BYTE      HFO1CAL
      00000082H   SFRSYM    DATA     BYTE      DPL
      00000088H.7 SFRSYM    DATA     BIT       TCON_TF1
      000000C8H   SFRSYM    DATA     BIT       SCON1_RI
      00000099H   SFRSYM    DATA     BYTE      SBUF0
      00000087H   SFRSYM    DATA     BYTE      PCON0
      000000F2H   SFRSYM    DATA     BYTE      IPH
      000000C3H   SFRSYM    DATA     BYTE      ADC0GTL
      00000098H.7 SFRSYM    DATA     BIT       TMR4CN0_TF4H
      00000098H.3 SFRSYM    DATA     BIT       TMR4CN0_T4SPLIT
      000000C8H.6 SFRSYM    DATA     BIT       TMR2CN0_TF2L
      00000098H.1 SFRSYM    DATA     BIT       SCON0_TI
      000000E8H   SFRSYM    DATA     BIT       ADC0CN0_ADCM0
      00000092H   SFRSYM    DATA     BYTE      SBUF1
      0000009AH   SFRSYM    DATA     BYTE      PCON1
      000000C6H   SFRSYM    DATA     BYTE      ADC0LTH
      00000088H   SFRSYM    DATA     BIT       TCON_IT0
      000000C8H.1 SFRSYM    DATA     BIT       SCON1_TI
      000000E8H.1 SFRSYM    DATA     BIT       ADC0CN0_ADCM1
LX51 LINKER/LOCATER V4.66.30.0                                                        01/21/2016  23:03:23  PAGE 62


      000000EFH   SFRSYM    DATA     BYTE      RSTSRC
      000000FDH   SFRSYM    DATA     BYTE      P0MAT
      000000DEH   SFRSYM    DATA     BYTE      CRC0DAT
      00000088H.2 SFRSYM    DATA     BIT       TCON_IT1
      000000E8H.2 SFRSYM    DATA     BIT       ADC0CN0_ADCM2
      000000D7H   SFRSYM    DATA     BYTE      SFRSTACK
      00000098H   SFRSYM    DATA     BYTE      SCON0
      000000F6H   SFRSYM    DATA     BYTE      PRTDRV
      000000EDH   SFRSYM    DATA     BYTE      P1MAT
      000000E8H.3 SFRSYM    DATA     BIT       ADC0CN0_ADWINT
      00000095H   SFRSYM    DATA     WORD      SBRL1
      000000B2H   SFRSYM    DATA     BYTE      USB0AEC
      00000093H   SFRSYM    DATA     BYTE      SMOD1
      000000C8H   SFRSYM    DATA     BYTE      SCON1
      000000FBH   SFRSYM    DATA     BYTE      P2MAT
      00000098H.6 SFRSYM    DATA     BIT       TMR4CN0_TF4L
      000000E8H.4 SFRSYM    DATA     BIT       ADC0CN0_ADBUSY
      000000D6H   SFRSYM    DATA     BYTE      SMB0ADM
      000000C5H   SFRSYM    DATA     BYTE      ADC0LTL
      000000F8H.5 SFRSYM    DATA     BIT       SPI0CN0_MODF
      000000B8H.6 SFRSYM    DATA     BIT       IP_PSPI0
      0000009CH   SFRSYM    DATA     BYTE      PCA0CLR
      000000C8H   SFRSYM    DATA     BYTE      TMR2CN0
      00000091H   SFRSYM    DATA     BYTE      TMR3CN0
      000000FDH   SFRSYM    DATA     BYTE      TMR2CN1
      00000098H   SFRSYM    DATA     BYTE      TMR4CN0
      000000FEH   SFRSYM    DATA     BYTE      TMR3CN1
      000000FFH   SFRSYM    DATA     BYTE      TMR4CN1
      000000D7H   SFRSYM    DATA     BYTE      SMB0ADR
      00000088H.4 SFRSYM    DATA     BIT       TCON_TR0
      000000C8H.4 SFRSYM    DATA     BIT       TMR2CN0_TF2CEN
      00000088H.6 SFRSYM    DATA     BIT       TCON_TR1
      000000C2H   SFRSYM    DATA     BYTE      SMB0DAT
      000000CDH   SFRSYM    DATA     BYTE      TMR2H
      000000A1H   SFRSYM    DATA     BYTE      SPI0CFG
      00000095H   SFRSYM    DATA     BYTE      TMR3H
      000000EFH   SFRSYM    DATA     BYTE      HFOCN
      000000D3H   SFRSYM    DATA     BYTE      CRC0CNT
      000000A5H   SFRSYM    DATA     BYTE      TMR4H
      00000098H.4 SFRSYM    DATA     BIT       TMR4CN0_TF4CEN
      000000EFH   SFRSYM    DATA     BYTE      SMB0FCT
      00000096H   SFRSYM    DATA     BYTE      PCA0POL
      000000CCH   SFRSYM    DATA     BYTE      TMR2L
      000000F8H.7 SFRSYM    DATA     BIT       SPI0CN0_SPIF
      000000AEH   SFRSYM    DATA     BYTE      USB0ADR
      00000094H   SFRSYM    DATA     BYTE      TMR3L
      000000DFH   SFRSYM    DATA     BYTE      ADC0PWR
      000000A8H.7 SFRSYM    DATA     BIT       IE_EA
      000000A4H   SFRSYM    DATA     BYTE      TMR4L
      000000AFH   SFRSYM    DATA     BYTE      USB0DAT
      000000C8H.5 SFRSYM    DATA     BIT       TMR2CN0_TF2LEN
      000000F8H.6 SFRSYM    DATA     BIT       SPI0CN0_WCOL
      000000F8H.2 SFRSYM    DATA     BIT       SPI0CN0_NSSMD0
      000000D0H.7 SFRSYM    DATA     BIT       PSW_CY
      0000009DH   SFRSYM    DATA     BYTE      UART1FCN0
      000000A3H   SFRSYM    DATA     BYTE      SPI0DAT
      000000ADH   SFRSYM    DATA     BYTE      I2C0FCN0
      000000F8H.3 SFRSYM    DATA     BIT       SPI0CN0_NSSMD1
      000000BDH   SFRSYM    DATA     WORD      ADC0
      000000D8H   SFRSYM    DATA     BYTE      UART1FCN1
      000000ABH   SFRSYM    DATA     BYTE      I2C0FCN1
      00000098H.5 SFRSYM    DATA     BIT       TMR4CN0_TF4LEN
LX51 LINKER/LOCATER V4.66.30.0                                                        01/21/2016  23:03:23  PAGE 63


      000000D0H   SFRSYM    DATA     BYTE      PSW
      000000F7H   SFRSYM    DATA     BYTE      PCA0PWM
      000000F7H   SFRSYM    DATA     BYTE      SPI0FCT
      000000B6H   SFRSYM    DATA     BYTE      REVID
      000000B7H   SFRSYM    DATA     BYTE      FLKEY
      000000B3H   SFRSYM    DATA     BYTE      ADC0AC

      01001552H   BLOCK     CODE     ---       LVL=0
      ---         BLOCKEND  ---      ---       LVL=0

      010016B6H   BLOCK     CODE     ---       LVL=0
      010016B6H   BLOCK     CODE     NEAR LAB  LVL=1
      00000041H   SYMBOL    DATA     BYTE      i
      00000021H.1 SYMBOL    BIT      BIT       usbIntsEnabled
      00000042H   SYMBOL    DATA     BYTE      SfrPageSave
      ---         BLOCKEND  ---      ---       LVL=1
      010016B6H   LINE      CODE     ---       #48
      010016B6H   LINE      CODE     ---       #49
      010016B6H   LINE      CODE     ---       #53
      010016B9H   LINE      CODE     ---       #54
      010016C1H   LINE      CODE     ---       #57
      010016C4H   LINE      CODE     ---       #58
      010016C4H   LINE      CODE     ---       #59
      010016C9H   LINE      CODE     ---       #60
      010016D2H   LINE      CODE     ---       #62
      010016D8H   LINE      CODE     ---       #63
      010016DBH   LINE      CODE     ---       #64
      ---         BLOCKEND  ---      ---       LVL=0

      01001294H   BLOCK     CODE     ---       LVL=0
      00000043H   SYMBOL    DATA     BYTE      epAddr
      01001296H   BLOCK     CODE     NEAR LAB  LVL=1
      00000044H   SYMBOL    DATA     ---       ep
      00000045H   SYMBOL    DATA     BYTE      retVal
      00000021H.3 SYMBOL    BIT      BIT       usbIntsEnabled
      00000046H   SYMBOL    DATA     BYTE      SfrPageSave
      ---         BLOCKEND  ---      ---       LVL=1
      01001294H   LINE      CODE     ---       #66
      01001296H   LINE      CODE     ---       #67
      01001296H   LINE      CODE     ---       #69
      01001299H   LINE      CODE     ---       #72
      0100129CH   LINE      CODE     ---       #75
      010012A5H   LINE      CODE     ---       #76
      010012A5H   LINE      CODE     ---       #77
      010012AFH   LINE      CODE     ---       #78
      010012B2H   LINE      CODE     ---       #79
      010012B4H   LINE      CODE     ---       #81
      010012B4H   LINE      CODE     ---       #82
      010012BCH   LINE      CODE     ---       #83
      010012C3H   LINE      CODE     ---       #87
      010012CDH   LINE      CODE     ---       #88
      010012CDH   LINE      CODE     ---       #89
      010012D2H   LINE      CODE     ---       #90
      010012D2H   LINE      CODE     ---       #92
      010012D2H   LINE      CODE     ---       #93
      010012D7H   LINE      CODE     ---       #94
      010012D7H   LINE      CODE     ---       #121
      010012D7H   LINE      CODE     ---       #124
      010012DEH   LINE      CODE     ---       #125
      010012E5H   LINE      CODE     ---       #126
      010012E5H   LINE      CODE     ---       #127
      010012E5H   LINE      CODE     ---       #129
LX51 LINKER/LOCATER V4.66.30.0                                                        01/21/2016  23:03:23  PAGE 64


      010012EBH   LINE      CODE     ---       #130
      010012EEH   LINE      CODE     ---       #132
      010012F0H   LINE      CODE     ---       #133
      ---         BLOCKEND  ---      ---       LVL=0

      01001845H   BLOCK     CODE     ---       LVL=0
      01001845H   BLOCK     CODE     NEAR LAB  LVL=1
      00000007H   SYMBOL    DATA     BYTE      SfrPageSave
      ---         BLOCKEND  ---      ---       LVL=1
      01001845H   LINE      CODE     ---       #135
      01001845H   LINE      CODE     ---       #136
      01001845H   LINE      CODE     ---       #137
      01001847H   LINE      CODE     ---       #138
      0100184BH   LINE      CODE     ---       #139
      01001851H   LINE      CODE     ---       #140
      01001857H   LINE      CODE     ---       #141
      01001859H   LINE      CODE     ---       #142
      ---         BLOCKEND  ---      ---       LVL=0
      00000007H   SYMBOL    DATA     BYTE      SfrPageSave
      00000000H   SYMBOL    DATA     ---       ep

      01000E76H   BLOCK     CODE     ---       LVL=0
      00000026H   SYMBOL    DATA     ---       p
      01000E7CH   BLOCK     CODE     NEAR LAB  LVL=1
      00000007H   SYMBOL    DATA     BYTE      i
      00000029H   SYMBOL    DATA     BYTE      SfrPageSave
      ---         BLOCKEND  ---      ---       LVL=1
      01000E76H   LINE      CODE     ---       #177
      01000E7CH   LINE      CODE     ---       #178
      01000E7CH   LINE      CODE     ---       #181
      01000E7FH   LINE      CODE     ---       #182
      01000E82H   LINE      CODE     ---       #187
      01000E85H   LINE      CODE     ---       #191
      01000E87H   LINE      CODE     ---       #192
      01000E87H   LINE      CODE     ---       #193
      01000E8DH   LINE      CODE     ---       #194
      01000E91H   LINE      CODE     ---       #197
      01000E99H   LINE      CODE     ---       #198
      01000EA4H   LINE      CODE     ---       #199
      01000EAFH   LINE      CODE     ---       #200
      01000EBBH   LINE      CODE     ---       #204
      01000EBEH   LINE      CODE     ---       #205
      01000EC4H   LINE      CODE     ---       #215
      01000ECAH   LINE      CODE     ---       #218
      01000ED5H   LINE      CODE     ---       #219
      01000EE0H   LINE      CODE     ---       #220
      01000EE3H   LINE      CODE     ---       #227
      01000EE8H   LINE      CODE     ---       #228
      01000EE8H   LINE      CODE     ---       #229
      01000EEAH   LINE      CODE     ---       #230
      01000EECH   LINE      CODE     ---       #232
      01000EECH   LINE      CODE     ---       #233
      01000EEEH   LINE      CODE     ---       #234
      01000EEEH   LINE      CODE     ---       #239
      01000EF1H   LINE      CODE     ---       #242
      01000EF4H   LINE      CODE     ---       #243
      01000EFFH   LINE      CODE     ---       #245
      01000F01H   LINE      CODE     ---       #246
      ---         BLOCKEND  ---      ---       LVL=0

      01000D5CH   BLOCK     CODE     ---       LVL=0
      0000003FH   SYMBOL    DATA     BYTE      epAddr
LX51 LINKER/LOCATER V4.66.30.0                                                        01/21/2016  23:03:23  PAGE 65


      00000040H   SYMBOL    DATA     ---       dat
      00000043H   SYMBOL    DATA     WORD      byteCount
      00000021H.1 SYMBOL    BIT      BIT       callback
      01000D64H   BLOCK     CODE     NEAR LAB  LVL=1
      00000021H.2 SYMBOL    BIT      BIT       usbIntsEnabled
      00000045H   SYMBOL    DATA     ---       ep
      00000046H   SYMBOL    DATA     BYTE      SfrPageSave
      ---         BLOCKEND  ---      ---       LVL=1
      01000D5CH   LINE      CODE     ---       #248
      01000D64H   LINE      CODE     ---       #252
      01000D64H   LINE      CODE     ---       #256
      01000D67H   LINE      CODE     ---       #259
      01000D6DH   LINE      CODE     ---       #260
      01000D6DH   LINE      CODE     ---       #261
      01000D6DH   LINE      CODE     ---       #271
      01000D6DH   LINE      CODE     ---       #273
      01000D6DH   LINE      CODE     ---       #281
      01000D6DH   LINE      CODE     ---       #282
      01000D77H   LINE      CODE     ---       #283
      01000D7AH   LINE      CODE     ---       #284
      01000D7AH   LINE      CODE     ---       #287
      01000D85H   LINE      CODE     ---       #288
      01000D85H   LINE      CODE     ---       #289
      01000D88H   LINE      CODE     ---       #290
      01000D88H   LINE      CODE     ---       #292
      01000D8FH   LINE      CODE     ---       #296
      01000D9AH   LINE      CODE     ---       #297
      01000D9AH   LINE      CODE     ---       #298
      01000DA0H   LINE      CODE     ---       #299
      01000DA0H   LINE      CODE     ---       #300
      01000DA2H   LINE      CODE     ---       #301
      01000DA2H   LINE      CODE     ---       #303
      01000DA2H   LINE      CODE     ---       #304
      01000DA3H   LINE      CODE     ---       #305
      01000DA3H   LINE      CODE     ---       #306
      01000DA3H   LINE      CODE     ---       #308
      01000DABH   LINE      CODE     ---       #310
      01000DB9H   LINE      CODE     ---       #311
      01000DC3H   LINE      CODE     ---       #312
      01000DCAH   LINE      CODE     ---       #313
      01000DDBH   LINE      CODE     ---       #314
      01000DDEH   LINE      CODE     ---       #324
      01000DE4H   LINE      CODE     ---       #325
      01000DE7H   LINE      CODE     ---       #327
      01000DE9H   LINE      CODE     ---       #328
      ---         BLOCKEND  ---      ---       LVL=0

      010011D5H   BLOCK     CODE     ---       LVL=0
      010011D5H   BLOCK     CODE     NEAR LAB  LVL=1
      00000007H   SYMBOL    DATA     BYTE      i
      00000021H.1 SYMBOL    BIT      BIT       regulatorEnabled
      00000021H.2 SYMBOL    BIT      BIT       prefetchEnabled
      0000003DH   SYMBOL    DATA     BYTE      SfrPageSave
      ---         BLOCKEND  ---      ---       LVL=1
      010011D5H   LINE      CODE     ---       #433
      010011D5H   LINE      CODE     ---       #434
      010011D5H   LINE      CODE     ---       #438
      010011D8H   LINE      CODE     ---       #446
      010011E0H   LINE      CODE     ---       #448
      010011E0H   LINE      CODE     ---       #449
      010011E6H   LINE      CODE     ---       #452
      010011ECH   LINE      CODE     ---       #457
LX51 LINKER/LOCATER V4.66.30.0                                                        01/21/2016  23:03:23  PAGE 66


      010011F1H   LINE      CODE     ---       #458
      010011F7H   LINE      CODE     ---       #461
      010011FCH   LINE      CODE     ---       #462
      010011FCH   LINE      CODE     ---       #463
      010011FEH   LINE      CODE     ---       #468
      01001204H   LINE      CODE     ---       #471
      01001206H   LINE      CODE     ---       #472
      01001206H   LINE      CODE     ---       #473
      0100120CH   LINE      CODE     ---       #475
      0100120CH   LINE      CODE     ---       #477
      0100120CH   LINE      CODE     ---       #478
      0100120EH   LINE      CODE     ---       #479
      0100120EH   LINE      CODE     ---       #482
      0100120EH   LINE      CODE     ---       #483
      01001211H   LINE      CODE     ---       #507
      01001216H   LINE      CODE     ---       #510
      01001219H   LINE      CODE     ---       #511
      01001219H   LINE      CODE     ---       #512
      0100121FH   LINE      CODE     ---       #513
      0100121FH   LINE      CODE     ---       #516
      01001222H   LINE      CODE     ---       #517
      01001222H   LINE      CODE     ---       #518
      01001228H   LINE      CODE     ---       #519
      01001228H   LINE      CODE     ---       #523
      0100122BH   LINE      CODE     ---       #525
      01001231H   LINE      CODE     ---       #526
      01001231H   LINE      CODE     ---       #528
      01001234H   LINE      CODE     ---       #529
      ---         BLOCKEND  ---      ---       LVL=0

      01000978H   BLOCK     CODE     ---       LVL=0
      0000003FH   SYMBOL    DATA     BYTE      epAddr
      00000040H   SYMBOL    DATA     ---       dat
      00000043H   SYMBOL    DATA     WORD      byteCount
      00000021H.1 SYMBOL    BIT      BIT       callback
      01000980H   BLOCK     CODE     NEAR LAB  LVL=1
      00000021H.2 SYMBOL    BIT      BIT       usbIntsEnabled
      00000045H   SYMBOL    DATA     ---       ep
      00000046H   SYMBOL    DATA     BYTE      SfrPageSave
      ---         BLOCKEND  ---      ---       LVL=1
      01000978H   LINE      CODE     ---       #601
      01000980H   LINE      CODE     ---       #605
      01000980H   LINE      CODE     ---       #609
      01000983H   LINE      CODE     ---       #612
      0100098CH   LINE      CODE     ---       #613
      0100098CH   LINE      CODE     ---       #614
      0100098CH   LINE      CODE     ---       #616
      0100098CH   LINE      CODE     ---       #624
      0100098CH   LINE      CODE     ---       #634
      0100098CH   LINE      CODE     ---       #635
      01000996H   LINE      CODE     ---       #636
      01000999H   LINE      CODE     ---       #637
      01000999H   LINE      CODE     ---       #641
      010009A4H   LINE      CODE     ---       #642
      010009A4H   LINE      CODE     ---       #643
      010009A7H   LINE      CODE     ---       #644
      010009A7H   LINE      CODE     ---       #646
      010009AEH   LINE      CODE     ---       #650
      010009B9H   LINE      CODE     ---       #651
      010009B9H   LINE      CODE     ---       #652
      010009BFH   LINE      CODE     ---       #653
      010009BFH   LINE      CODE     ---       #654
LX51 LINKER/LOCATER V4.66.30.0                                                        01/21/2016  23:03:23  PAGE 67


      010009C1H   LINE      CODE     ---       #655
      010009C1H   LINE      CODE     ---       #657
      010009C1H   LINE      CODE     ---       #658
      010009C2H   LINE      CODE     ---       #659
      010009C2H   LINE      CODE     ---       #660
      010009C2H   LINE      CODE     ---       #662
      010009CAH   LINE      CODE     ---       #664
      010009D8H   LINE      CODE     ---       #665
      010009E2H   LINE      CODE     ---       #666
      010009E9H   LINE      CODE     ---       #667
      010009FAH   LINE      CODE     ---       #669
      01000A02H   LINE      CODE     ---       #670
      01000A02H   LINE      CODE     ---       #673
      01000A02H   LINE      CODE     ---       #674
      01000A08H   LINE      CODE     ---       #675
      01000A0AH   LINE      CODE     ---       #680
      01000A0AH   LINE      CODE     ---       #681
      01000A2EH   LINE      CODE     ---       #685
      01000A2EH   LINE      CODE     ---       #708
      01000A2EH   LINE      CODE     ---       #710
      01000A34H   LINE      CODE     ---       #711
      01000A37H   LINE      CODE     ---       #713
      01000A39H   LINE      CODE     ---       #714
      ---         BLOCKEND  ---      ---       LVL=0

      010015E7H   BLOCK     CODE     ---       LVL=0
      0000003FH   SYMBOL    DATA     BYTE      newState
      010015E9H   BLOCK     CODE     NEAR LAB  LVL=1
      00000040H   SYMBOL    DATA     BYTE      currentState
      ---         BLOCKEND  ---      ---       LVL=1
      010015E7H   LINE      CODE     ---       #719
      010015E9H   LINE      CODE     ---       #720
      010015E9H   LINE      CODE     ---       #726
      010015EEH   LINE      CODE     ---       #730
      010015F9H   LINE      CODE     ---       #732
      010015F9H   LINE      CODE     ---       #733
      010015FCH   LINE      CODE     ---       #741
      010015FCH   LINE      CODE     ---       #742
      01001601H   LINE      CODE     ---       #743
      01001601H   LINE      CODE     ---       #744
      01001605H   LINE      CODE     ---       #745
      01001605H   LINE      CODE     ---       #747
      01001609H   LINE      CODE     ---       #750
      0100160FH   LINE      CODE     ---       #751
      0100160FH   LINE      CODE     ---       #752
      01001616H   LINE      CODE     ---       #753
      01001616H   LINE      CODE     ---       #755
      ---         BLOCKEND  ---      ---       LVL=0

      ---         MODULE    ---      ---       EFM8_USBDCH9
      01001AF4H   PUBLIC    CONST    ---       txZero
      01000F02H   PUBLIC    CODE     ---       USBDCH9_SetupCmd
      000000A2H   SFRSYM    DATA     BYTE      SPI0CKR
      00000080H   SFRSYM    DATA     BYTE      P0
      000000C8H.6 SFRSYM    DATA     BIT       SCON1_PERR
      000000D0H.2 SFRSYM    DATA     BIT       PSW_OV
      00000090H   SFRSYM    DATA     BYTE      P1
      000000F8H.1 SFRSYM    DATA     BIT       SPI0CN0_TXNF
      00000097H   SFRSYM    DATA     BYTE      WDTCN
      000000A0H   SFRSYM    DATA     BYTE      P2
      000000B0H   SFRSYM    DATA     BYTE      P3
      000000BCH   SFRSYM    DATA     BYTE      ADC0CF
LX51 LINKER/LOCATER V4.66.30.0                                                        01/21/2016  23:03:23  PAGE 68


      000000C0H.7 SFRSYM    DATA     BIT       SMB0CN0_MASTER
      000000F9H   SFRSYM    DATA     WORD      PCA0
      000000E6H   SFRSYM    DATA     BYTE      EIE1
      000000C0H.1 SFRSYM    DATA     BIT       SMB0CN0_ACK
      000000B3H   SFRSYM    DATA     BYTE      USB0XCN
      000000CEH   SFRSYM    DATA     BYTE      EIE2
      0000008FH   SFRSYM    DATA     BYTE      PSCTL
      000000E4H   SFRSYM    DATA     BYTE      IT01CF
      000000C0H.6 SFRSYM    DATA     BIT       SMB0CN0_TXMODE
      000000ADH   SFRSYM    DATA     BYTE      DERIVID
      000000A7H   SFRSYM    DATA     BYTE      SFRPAGE
      000000A4H   SFRSYM    DATA     BYTE      P0MDOUT
      000000BFH   SFRSYM    DATA     BYTE      USB0CDSTA
      000000A5H   SFRSYM    DATA     BYTE      P1MDOUT
      000000E8H.5 SFRSYM    DATA     BIT       ADC0CN0_ADINT
      000000CBH   SFRSYM    DATA     BYTE      TMR2RLH
      000000A6H   SFRSYM    DATA     BYTE      P2MDOUT
      000000A8H   SFRSYM    DATA     BYTE      IE
      00000093H   SFRSYM    DATA     BYTE      TMR3RLH
      0000009CH   SFRSYM    DATA     BYTE      P3MDOUT
      000000A3H   SFRSYM    DATA     BYTE      TMR4RLH
      000000F3H   SFRSYM    DATA     BYTE      EIP1
      000000F4H   SFRSYM    DATA     BYTE      EIP2
      00000098H.2 SFRSYM    DATA     BIT       SCON0_RB8
      000000CAH   SFRSYM    DATA     BYTE      TMR2RLL
      000000FCH   SFRSYM    DATA     BYTE      PCA0CPH0
      00000092H   SFRSYM    DATA     BYTE      TMR3RLL
      000000EAH   SFRSYM    DATA     BYTE      PCA0CPH1
      00000098H.3 SFRSYM    DATA     BIT       SCON0_TB8
      000000F0H   SFRSYM    DATA     BIT       B_B0
      00000082H   SFRSYM    DATA     WORD      DP
      000000A2H   SFRSYM    DATA     BYTE      TMR4RLL
      000000ECH   SFRSYM    DATA     BYTE      PCA0CPH2
      000000F0H.1 SFRSYM    DATA     BIT       B_B1
      000000C3H   SFRSYM    DATA     WORD      ADC0GT
      000000BDH   SFRSYM    DATA     BYTE      I2C0SLAD
      000000D8H.3 SFRSYM    DATA     BIT       UART1FCN1_RFRQ
      000000F0H.2 SFRSYM    DATA     BIT       B_B2
      000000CFH   SFRSYM    DATA     BYTE      SFRPGCN
      000000FBH   SFRSYM    DATA     BYTE      PCA0CPL0
      000000F0H.3 SFRSYM    DATA     BIT       B_B3
      000000D9H   SFRSYM    DATA     BYTE      PCA0MD
      000000DAH   SFRSYM    DATA     BYTE      PCA0CPM0
      000000E9H   SFRSYM    DATA     BYTE      PCA0CPL1
      000000D8H.7 SFRSYM    DATA     BIT       UART1FCN1_TFRQ
      000000F0H.4 SFRSYM    DATA     BIT       B_B4
      000000DBH   SFRSYM    DATA     BYTE      PCA0CPM1
      000000EBH   SFRSYM    DATA     BYTE      PCA0CPL2
      000000F0H.5 SFRSYM    DATA     BIT       B_B5
      000000DCH   SFRSYM    DATA     BYTE      PCA0CPM2
      000000B8H   SFRSYM    DATA     BYTE      IP
      000000B9H   SFRSYM    DATA     BYTE      ADC0TK
      000000F0H.6 SFRSYM    DATA     BIT       B_B6
      000000C5H   SFRSYM    DATA     WORD      ADC0LT
      000000D8H.6 SFRSYM    DATA     BIT       UART1FCN1_TXNF
      00000098H.5 SFRSYM    DATA     BIT       SCON0_MCE
      000000F0H.7 SFRSYM    DATA     BIT       B_B7
      000000C3H   SFRSYM    DATA     BYTE      SMB0FCN0
      000000E1H   SFRSYM    DATA     BYTE      XBR0
      000000C4H   SFRSYM    DATA     BYTE      SMB0FCN1
      000000C1H   SFRSYM    DATA     BYTE      SMB0CF
      000000E2H   SFRSYM    DATA     BYTE      XBR1
LX51 LINKER/LOCATER V4.66.30.0                                                        01/21/2016  23:03:23  PAGE 69


      000000C1H   SFRSYM    DATA     BYTE      PFE0CN
      000000E7H   SFRSYM    DATA     BYTE      EMI0CN
      000000C0H.5 SFRSYM    DATA     BIT       SMB0CN0_STA
      000000E3H   SFRSYM    DATA     BYTE      XBR2
      000000BBH   SFRSYM    DATA     BYTE      ADC0MX
      000000E0H   SFRSYM    DATA     BIT       ACC_ACC0
      000000D1H   SFRSYM    DATA     BYTE      REF0CN
      0000008EH   SFRSYM    DATA     BYTE      CKCON0
      000000E0H.1 SFRSYM    DATA     BIT       ACC_ACC1
      000000C9H   SFRSYM    DATA     BYTE      REG0CN
      000000DDH   SFRSYM    DATA     BYTE      CRC0IN
      000000A6H   SFRSYM    DATA     BYTE      CKCON1
      000000C8H.2 SFRSYM    DATA     BIT       TMR2CN0_TR2
      000000E0H.2 SFRSYM    DATA     BIT       ACC_ACC2
      000000C6H   SFRSYM    DATA     BYTE      REG1CN
      000000E0H.3 SFRSYM    DATA     BIT       ACC_ACC3
      00000081H   SFRSYM    DATA     BYTE      SP
      0000009DH   SFRSYM    DATA     BYTE      CMP0MD
      000000E0H.4 SFRSYM    DATA     BIT       ACC_ACC4
      000000B1H   SFRSYM    DATA     BYTE      LFO0CN
      000000ABH   SFRSYM    DATA     BYTE      CMP1MD
      000000D8H   SFRSYM    DATA     BIT       PCA0CN0_CCF0
      000000E0H.5 SFRSYM    DATA     BIT       ACC_ACC5
      000000B5H   SFRSYM    DATA     BYTE      USB0CF
      00000098H.2 SFRSYM    DATA     BIT       TMR4CN0_TR4
      000000D8H.1 SFRSYM    DATA     BIT       PCA0CN0_CCF1
      000000E0H.6 SFRSYM    DATA     BIT       ACC_ACC6
      000000CCH   SFRSYM    DATA     WORD      TMR2
      0000009AH   SFRSYM    DATA     BYTE      SPI0FCN0
      000000D8H.2 SFRSYM    DATA     BIT       PCA0CN0_CCF2
      000000E0H.7 SFRSYM    DATA     BIT       ACC_ACC7
      00000094H   SFRSYM    DATA     WORD      TMR3
      0000009BH   SFRSYM    DATA     BYTE      SPI0FCN1
      000000A4H   SFRSYM    DATA     WORD      TMR4
      00000094H   SFRSYM    DATA     BYTE      SBCON1
      000000C0H.3 SFRSYM    DATA     BIT       SMB0CN0_ACKRQ
      000000FFH   SFRSYM    DATA     BYTE      VDM0CN
      000000F1H   SFRSYM    DATA     BYTE      P0MDIN
      00000098H.4 SFRSYM    DATA     BIT       SCON0_REN
      000000ACH   SFRSYM    DATA     BYTE      SMB0TC
      000000F2H   SFRSYM    DATA     BYTE      P1MDIN
      000000C8H.4 SFRSYM    DATA     BIT       SCON1_REN
      000000F3H   SFRSYM    DATA     BYTE      P2MDIN
      000000C0H.4 SFRSYM    DATA     BIT       SMB0CN0_STO
      000000B6H   SFRSYM    DATA     BYTE      USB0CDCF
      000000F4H   SFRSYM    DATA     BYTE      P3MDIN
      000000B9H   SFRSYM    DATA     BYTE      I2C0STAT
      000000BBH   SFRSYM    DATA     BYTE      I2C0DOUT
      00000096H   SFRSYM    DATA     BYTE      SBRLH1
      000000FEH   SFRSYM    DATA     BYTE      P0MASK
      000000D8H.5 SFRSYM    DATA     BIT       UART1FCN1_TXHOLD
      000000EEH   SFRSYM    DATA     BYTE      P1MASK
      000000FCH   SFRSYM    DATA     BYTE      P2MASK
      000000D0H.3 SFRSYM    DATA     BIT       PSW_RS0
      000000D8H.7 SFRSYM    DATA     BIT       PCA0CN0_CF
      0000009EH   SFRSYM    DATA     BYTE      PCA0CENT
      000000BAH   SFRSYM    DATA     BYTE      I2C0CN0
      000000D2H   SFRSYM    DATA     BYTE      CRC0ST
      000000F8H.4 SFRSYM    DATA     BIT       SPI0CN0_RXOVRN
      000000D0H.4 SFRSYM    DATA     BIT       PSW_RS1
      00000095H   SFRSYM    DATA     BYTE      SBRLL1
      000000C8H.2 SFRSYM    DATA     BIT       SCON1_RBX
LX51 LINKER/LOCATER V4.66.30.0                                                        01/21/2016  23:03:23  PAGE 70


      000000C8H   SFRSYM    DATA     BIT       TMR2CN0_T2XCLK0
      000000C8H.1 SFRSYM    DATA     BIT       TMR2CN0_T2XCLK1
      000000C8H.3 SFRSYM    DATA     BIT       SCON1_TBX
      000000E8H.7 SFRSYM    DATA     BIT       ADC0CN0_ADEN
      000000BEH   SFRSYM    DATA     BYTE      USB0CDCN
      00000089H   SFRSYM    DATA     BYTE      TMOD
      00000088H   SFRSYM    DATA     BYTE      TCON
      000000CFH   SFRSYM    DATA     BYTE      CRC0FLIP
      000000D0H   SFRSYM    DATA     BIT       PSW_PARITY
      000000A8H.4 SFRSYM    DATA     BIT       IE_ES0
      0000009FH   SFRSYM    DATA     BYTE      CMP0MX
      00000098H   SFRSYM    DATA     BIT       TMR4CN0_T4XCLK0
      000000A8H.1 SFRSYM    DATA     BIT       IE_ET0
      000000AAH   SFRSYM    DATA     BYTE      CMP1MX
      00000098H.1 SFRSYM    DATA     BIT       TMR4CN0_T4XCLK1
      000000A8H.3 SFRSYM    DATA     BIT       IE_ET1
      000000D4H   SFRSYM    DATA     BYTE      P0SKIP
      000000D8H   SFRSYM    DATA     BIT       UART1FCN1_RIE
      000000A8H.5 SFRSYM    DATA     BIT       IE_ET2
      000000D5H   SFRSYM    DATA     BYTE      P1SKIP
      000000CCH   SFRSYM    DATA     BYTE      P2SKIP
      000000E8H   SFRSYM    DATA     BYTE      ADC0CN0
      000000D8H.4 SFRSYM    DATA     BIT       UART1FCN1_TIE
      000000A8H   SFRSYM    DATA     BIT       IE_EX0
      000000B2H   SFRSYM    DATA     BYTE      ADC0CN1
      000000D8H.6 SFRSYM    DATA     BIT       PCA0CN0_CR
      000000A8H.2 SFRSYM    DATA     BIT       IE_EX1
      000000C8H.7 SFRSYM    DATA     BIT       SCON1_OVR
      00000098H.7 SFRSYM    DATA     BIT       SCON0_SMODE
      000000B5H   SFRSYM    DATA     BYTE      DEVICEID
      000000A9H   SFRSYM    DATA     BYTE      CLKSEL
      000000F8H   SFRSYM    DATA     BIT       SPI0CN0_SPIEN
      000000F0H   SFRSYM    DATA     BYTE      B
      000000BEH   SFRSYM    DATA     BYTE      ADC0H
      000000E8H.6 SFRSYM    DATA     BIT       ADC0CN0_ADBMEN
      000000CAH   SFRSYM    DATA     WORD      TMR2RL
      000000BDH   SFRSYM    DATA     BYTE      ADC0L
      00000092H   SFRSYM    DATA     WORD      TMR3RL
      000000A2H   SFRSYM    DATA     WORD      TMR4RL
      000000D8H   SFRSYM    DATA     BYTE      PCA0CN0
      000000E0H   SFRSYM    DATA     BYTE      ACC
      000000FBH   SFRSYM    DATA     WORD      PCA0CP0
      000000E9H   SFRSYM    DATA     WORD      PCA0CP1
      000000EBH   SFRSYM    DATA     WORD      PCA0CP2
      000000BCH   SFRSYM    DATA     BYTE      I2C0DIN
      000000CEH   SFRSYM    DATA     BYTE      CRC0CN0
      0000008CH   SFRSYM    DATA     BYTE      TH0
      00000086H   SFRSYM    DATA     BYTE      CRC0CN1
      000000B8H.4 SFRSYM    DATA     BIT       IP_PS0
      000000FAH   SFRSYM    DATA     BYTE      UART1FCT
      0000008DH   SFRSYM    DATA     BYTE      TH1
      000000FAH   SFRSYM    DATA     BYTE      PCA0H
      000000F5H   SFRSYM    DATA     BYTE      I2C0FCT
      000000B8H.1 SFRSYM    DATA     BIT       IP_PT0
      000000B8H.3 SFRSYM    DATA     BIT       IP_PT1
      000000C0H.2 SFRSYM    DATA     BIT       SMB0CN0_ARBLOST
      000000B8H.5 SFRSYM    DATA     BIT       IP_PT2
      0000008AH   SFRSYM    DATA     BYTE      TL0
      000000D0H.5 SFRSYM    DATA     BIT       PSW_F0
      000000A8H.6 SFRSYM    DATA     BIT       IE_ESPI0
      0000008BH   SFRSYM    DATA     BYTE      TL1
      000000F9H   SFRSYM    DATA     BYTE      PCA0L
LX51 LINKER/LOCATER V4.66.30.0                                                        01/21/2016  23:03:23  PAGE 71


      000000C0H   SFRSYM    DATA     BIT       SMB0CN0_SI
      000000D0H.1 SFRSYM    DATA     BIT       PSW_F1
      00000080H   SFRSYM    DATA     BIT       P0_B0
      000000B8H   SFRSYM    DATA     BIT       IP_PX0
      00000090H   SFRSYM    DATA     BIT       P1_B0
      00000080H.1 SFRSYM    DATA     BIT       P0_B1
      000000B8H.2 SFRSYM    DATA     BIT       IP_PX1
      0000009EH   SFRSYM    DATA     BYTE      UART1LIN
      0000009BH   SFRSYM    DATA     BYTE      CMP0CN0
      00000088H.1 SFRSYM    DATA     BIT       TCON_IE0
      000000A0H   SFRSYM    DATA     BIT       P2_B0
      00000090H.1 SFRSYM    DATA     BIT       P1_B1
      00000080H.2 SFRSYM    DATA     BIT       P0_B2
      000000BFH   SFRSYM    DATA     BYTE      CMP1CN0
      00000099H   SFRSYM    DATA     BYTE      CMP0CN1
      00000088H.3 SFRSYM    DATA     BIT       TCON_IE1
      000000B0H   SFRSYM    DATA     BIT       P3_B0
      000000A0H.1 SFRSYM    DATA     BIT       P2_B1
      00000090H.2 SFRSYM    DATA     BIT       P1_B2
      00000080H.3 SFRSYM    DATA     BIT       P0_B3
      000000C0H   SFRSYM    DATA     BYTE      SMB0CN0
      000000ACH   SFRSYM    DATA     BYTE      CMP1CN1
      000000B0H.1 SFRSYM    DATA     BIT       P3_B1
      000000A0H.2 SFRSYM    DATA     BIT       P2_B2
      00000090H.3 SFRSYM    DATA     BIT       P1_B3
      00000080H.4 SFRSYM    DATA     BIT       P0_B4
      000000A0H.3 SFRSYM    DATA     BIT       P2_B3
      00000090H.4 SFRSYM    DATA     BIT       P1_B4
      00000080H.5 SFRSYM    DATA     BIT       P0_B5
      000000D8H.1 SFRSYM    DATA     BIT       UART1FCN1_RXTO0
      00000090H.5 SFRSYM    DATA     BIT       P1_B5
      00000080H.6 SFRSYM    DATA     BIT       P0_B6
      000000F5H   SFRSYM    DATA     BYTE      EIP1H
      000000D8H.2 SFRSYM    DATA     BIT       UART1FCN1_RXTO1
      00000090H.6 SFRSYM    DATA     BIT       P1_B6
      00000080H.7 SFRSYM    DATA     BIT       P0_B7
      000000C5H   SFRSYM    DATA     BYTE      SMB0RXLN
      000000F6H   SFRSYM    DATA     BYTE      EIP2H
      00000090H.7 SFRSYM    DATA     BIT       P1_B7
      00000083H   SFRSYM    DATA     BYTE      DPH
      000000C4H   SFRSYM    DATA     BYTE      ADC0GTH
      000000C8H.7 SFRSYM    DATA     BIT       TMR2CN0_TF2H
      000000C8H.3 SFRSYM    DATA     BIT       TMR2CN0_T2SPLIT
      000000D0H.6 SFRSYM    DATA     BIT       PSW_AC
      000000F8H   SFRSYM    DATA     BYTE      SPI0CN0
      000000C7H   SFRSYM    DATA     BYTE      HFO0CAL
      00000088H.5 SFRSYM    DATA     BIT       TCON_TF0
      00000098H   SFRSYM    DATA     BIT       SCON0_RI
      000000D6H   SFRSYM    DATA     BYTE      HFO1CAL
      00000082H   SFRSYM    DATA     BYTE      DPL
      00000088H.7 SFRSYM    DATA     BIT       TCON_TF1
      000000C8H   SFRSYM    DATA     BIT       SCON1_RI
      00000099H   SFRSYM    DATA     BYTE      SBUF0
      00000087H   SFRSYM    DATA     BYTE      PCON0
      000000F2H   SFRSYM    DATA     BYTE      IPH
      000000C3H   SFRSYM    DATA     BYTE      ADC0GTL
      00000098H.7 SFRSYM    DATA     BIT       TMR4CN0_TF4H
      00000098H.3 SFRSYM    DATA     BIT       TMR4CN0_T4SPLIT
      000000C8H.6 SFRSYM    DATA     BIT       TMR2CN0_TF2L
      00000098H.1 SFRSYM    DATA     BIT       SCON0_TI
      000000E8H   SFRSYM    DATA     BIT       ADC0CN0_ADCM0
      00000092H   SFRSYM    DATA     BYTE      SBUF1
LX51 LINKER/LOCATER V4.66.30.0                                                        01/21/2016  23:03:23  PAGE 72


      0000009AH   SFRSYM    DATA     BYTE      PCON1
      000000C6H   SFRSYM    DATA     BYTE      ADC0LTH
      00000088H   SFRSYM    DATA     BIT       TCON_IT0
      000000C8H.1 SFRSYM    DATA     BIT       SCON1_TI
      000000E8H.1 SFRSYM    DATA     BIT       ADC0CN0_ADCM1
      000000EFH   SFRSYM    DATA     BYTE      RSTSRC
      000000FDH   SFRSYM    DATA     BYTE      P0MAT
      000000DEH   SFRSYM    DATA     BYTE      CRC0DAT
      00000088H.2 SFRSYM    DATA     BIT       TCON_IT1
      000000E8H.2 SFRSYM    DATA     BIT       ADC0CN0_ADCM2
      000000D7H   SFRSYM    DATA     BYTE      SFRSTACK
      00000098H   SFRSYM    DATA     BYTE      SCON0
      000000F6H   SFRSYM    DATA     BYTE      PRTDRV
      000000EDH   SFRSYM    DATA     BYTE      P1MAT
      000000E8H.3 SFRSYM    DATA     BIT       ADC0CN0_ADWINT
      00000095H   SFRSYM    DATA     WORD      SBRL1
      000000B2H   SFRSYM    DATA     BYTE      USB0AEC
      00000093H   SFRSYM    DATA     BYTE      SMOD1
      000000C8H   SFRSYM    DATA     BYTE      SCON1
      000000FBH   SFRSYM    DATA     BYTE      P2MAT
      00000098H.6 SFRSYM    DATA     BIT       TMR4CN0_TF4L
      000000E8H.4 SFRSYM    DATA     BIT       ADC0CN0_ADBUSY
      000000D6H   SFRSYM    DATA     BYTE      SMB0ADM
      000000C5H   SFRSYM    DATA     BYTE      ADC0LTL
      000000F8H.5 SFRSYM    DATA     BIT       SPI0CN0_MODF
      000000B8H.6 SFRSYM    DATA     BIT       IP_PSPI0
      0000009CH   SFRSYM    DATA     BYTE      PCA0CLR
      000000C8H   SFRSYM    DATA     BYTE      TMR2CN0
      00000091H   SFRSYM    DATA     BYTE      TMR3CN0
      000000FDH   SFRSYM    DATA     BYTE      TMR2CN1
      00000098H   SFRSYM    DATA     BYTE      TMR4CN0
      000000FEH   SFRSYM    DATA     BYTE      TMR3CN1
      000000FFH   SFRSYM    DATA     BYTE      TMR4CN1
      000000D7H   SFRSYM    DATA     BYTE      SMB0ADR
      00000088H.4 SFRSYM    DATA     BIT       TCON_TR0
      000000C8H.4 SFRSYM    DATA     BIT       TMR2CN0_TF2CEN
      00000088H.6 SFRSYM    DATA     BIT       TCON_TR1
      000000C2H   SFRSYM    DATA     BYTE      SMB0DAT
      000000CDH   SFRSYM    DATA     BYTE      TMR2H
      000000A1H   SFRSYM    DATA     BYTE      SPI0CFG
      00000095H   SFRSYM    DATA     BYTE      TMR3H
      000000EFH   SFRSYM    DATA     BYTE      HFOCN
      000000D3H   SFRSYM    DATA     BYTE      CRC0CNT
      000000A5H   SFRSYM    DATA     BYTE      TMR4H
      00000098H.4 SFRSYM    DATA     BIT       TMR4CN0_TF4CEN
      000000EFH   SFRSYM    DATA     BYTE      SMB0FCT
      00000096H   SFRSYM    DATA     BYTE      PCA0POL
      000000CCH   SFRSYM    DATA     BYTE      TMR2L
      000000F8H.7 SFRSYM    DATA     BIT       SPI0CN0_SPIF
      000000AEH   SFRSYM    DATA     BYTE      USB0ADR
      00000094H   SFRSYM    DATA     BYTE      TMR3L
      000000DFH   SFRSYM    DATA     BYTE      ADC0PWR
      000000A8H.7 SFRSYM    DATA     BIT       IE_EA
      000000A4H   SFRSYM    DATA     BYTE      TMR4L
      000000AFH   SFRSYM    DATA     BYTE      USB0DAT
      000000C8H.5 SFRSYM    DATA     BIT       TMR2CN0_TF2LEN
      000000F8H.6 SFRSYM    DATA     BIT       SPI0CN0_WCOL
      000000F8H.2 SFRSYM    DATA     BIT       SPI0CN0_NSSMD0
      000000D0H.7 SFRSYM    DATA     BIT       PSW_CY
      0000009DH   SFRSYM    DATA     BYTE      UART1FCN0
      000000A3H   SFRSYM    DATA     BYTE      SPI0DAT
      000000ADH   SFRSYM    DATA     BYTE      I2C0FCN0
LX51 LINKER/LOCATER V4.66.30.0                                                        01/21/2016  23:03:23  PAGE 73


      000000F8H.3 SFRSYM    DATA     BIT       SPI0CN0_NSSMD1
      000000BDH   SFRSYM    DATA     WORD      ADC0
      000000D8H   SFRSYM    DATA     BYTE      UART1FCN1
      000000ABH   SFRSYM    DATA     BYTE      I2C0FCN1
      00000098H.5 SFRSYM    DATA     BIT       TMR4CN0_TF4LEN
      000000D0H   SFRSYM    DATA     BYTE      PSW
      000000F7H   SFRSYM    DATA     BYTE      PCA0PWM
      000000F7H   SFRSYM    DATA     BYTE      SPI0FCT
      000000B6H   SFRSYM    DATA     BYTE      REVID
      000000B7H   SFRSYM    DATA     BYTE      FLKEY
      000000B3H   SFRSYM    DATA     BYTE      ADC0AC
      0100116EH   SYMBOL    CODE     ---       SetFeature
      010013DFH   SYMBOL    CODE     ---       GetConfiguration
      01001804H   SYMBOL    CODE     ---       USBD_ActivateAllEps
      01000B8CH   SYMBOL    CODE     ---       SetConfiguration
      01000CCAH   SYMBOL    CODE     ---       GetStatus
      01001782H   SYMBOL    CODE     ---       _EP0_Write
      010014E3H   SYMBOL    CODE     ---       GetInterface
      01001098H   SYMBOL    CODE     ---       ClearFeature
      01001585H   SYMBOL    CODE     ---       SetInterface
      010006CAH   SYMBOL    CODE     ---       GetDescriptor
      0000000BH   SYMBOL    DATA     WORD      pStatus
      01001235H   SYMBOL    CODE     ---       SetAddress

      010016DCH   BLOCK     CODE     ---       LVL=0
      ---         BLOCKEND  ---      ---       LVL=0

      01000F02H   BLOCK     CODE     ---       LVL=0
      01000F02H   BLOCK     CODE     NEAR LAB  LVL=1
      0000003DH   SYMBOL    DATA     CHAR      status
      ---         BLOCKEND  ---      ---       LVL=1
      01000F02H   LINE      CODE     ---       #48
      01000F02H   LINE      CODE     ---       #49
      01000F02H   LINE      CODE     ---       #50
      01000F05H   LINE      CODE     ---       #52
      01000F38H   LINE      CODE     ---       #53
      01000F38H   LINE      CODE     ---       #54
      01000F38H   LINE      CODE     ---       #55
      01000F3DH   LINE      CODE     ---       #56
      01000F3FH   LINE      CODE     ---       #58
      01000F3FH   LINE      CODE     ---       #59
      01000F44H   LINE      CODE     ---       #60
      01000F46H   LINE      CODE     ---       #62
      01000F46H   LINE      CODE     ---       #63
      01000F4BH   LINE      CODE     ---       #64
      01000F4DH   LINE      CODE     ---       #66
      01000F4DH   LINE      CODE     ---       #67
      01000F52H   LINE      CODE     ---       #68
      01000F54H   LINE      CODE     ---       #70
      01000F54H   LINE      CODE     ---       #71
      01000F59H   LINE      CODE     ---       #72
      01000F5BH   LINE      CODE     ---       #74
      01000F5BH   LINE      CODE     ---       #75
      01000F60H   LINE      CODE     ---       #76
      01000F62H   LINE      CODE     ---       #78
      01000F62H   LINE      CODE     ---       #79
      01000F67H   LINE      CODE     ---       #80
      01000F69H   LINE      CODE     ---       #82
      01000F69H   LINE      CODE     ---       #83
      01000F6EH   LINE      CODE     ---       #84
      01000F70H   LINE      CODE     ---       #86
      01000F70H   LINE      CODE     ---       #87
LX51 LINKER/LOCATER V4.66.30.0                                                        01/21/2016  23:03:23  PAGE 74


      01000F75H   LINE      CODE     ---       #88
      01000F77H   LINE      CODE     ---       #90
      01000F77H   LINE      CODE     ---       #91
      01000F7AH   LINE      CODE     ---       #92
      01000F7AH   LINE      CODE     ---       #93
      01000F7AH   LINE      CODE     ---       #96
      01000F7FH   LINE      CODE     ---       #99
      01000F84H   LINE      CODE     ---       #100
      01000F84H   LINE      CODE     ---       #101
      01000F87H   LINE      CODE     ---       #102
      01000F87H   LINE      CODE     ---       #104
      01000F89H   LINE      CODE     ---       #105
      ---         BLOCKEND  ---      ---       LVL=0

      01001098H   BLOCK     CODE     ---       LVL=0
      01001098H   BLOCK     CODE     NEAR LAB  LVL=1
      0000003EH   SYMBOL    DATA     CHAR      retVal
      ---         BLOCKEND  ---      ---       LVL=1
      01001098H   LINE      CODE     ---       #114
      01001098H   LINE      CODE     ---       #115
      01001098H   LINE      CODE     ---       #116
      0100109BH   LINE      CODE     ---       #118
      010010A2H   LINE      CODE     ---       #119
      010010A2H   LINE      CODE     ---       #120
      010010ABH   LINE      CODE     ---       #121
      010010ABH   LINE      CODE     ---       #134
      010010ABH   LINE      CODE     ---       #135
      010010B2H   LINE      CODE     ---       #136
      010010B2H   LINE      CODE     ---       #139
      010010C0H   LINE      CODE     ---       #141
      010010C0H   LINE      CODE     ---       #142
      010010C3H   LINE      CODE     ---       #143
      010010C5H   LINE      CODE     ---       #144
      010010D5H   LINE      CODE     ---       #146
      010010D5H   LINE      CODE     ---       #147
      010010D7H   LINE      CODE     ---       #148
      010010E0H   LINE      CODE     ---       #151
      010010E6H   LINE      CODE     ---       #152
      010010E6H   LINE      CODE     ---       #153
      010010F1H   LINE      CODE     ---       #154
      010010F1H   LINE      CODE     ---       #163
      010010F8H   LINE      CODE     ---       #164
      010010F8H   LINE      CODE     ---       #190
      010010F8H   LINE      CODE     ---       #191
      010010FFH   LINE      CODE     ---       #192
      010010FFH   LINE      CODE     ---       #193
      01001101H   LINE      CODE     ---       #194
      01001101H   LINE      CODE     ---       #195
      01001101H   LINE      CODE     ---       #213
      01001101H   LINE      CODE     ---       #214
      01001101H   LINE      CODE     ---       #215
      01001101H   LINE      CODE     ---       #216
      01001101H   LINE      CODE     ---       #217
      01001101H   LINE      CODE     ---       #218
      01001103H   LINE      CODE     ---       #219
      ---         BLOCKEND  ---      ---       LVL=0

      010013DFH   BLOCK     CODE     ---       LVL=0
      010013DFH   BLOCK     CODE     NEAR LAB  LVL=1
      00000007H   SYMBOL    DATA     CHAR      retVal
      ---         BLOCKEND  ---      ---       LVL=1
      010013DFH   LINE      CODE     ---       #229
LX51 LINKER/LOCATER V4.66.30.0                                                        01/21/2016  23:03:23  PAGE 75


      010013DFH   LINE      CODE     ---       #230
      010013DFH   LINE      CODE     ---       #231
      010013E1H   LINE      CODE     ---       #233
      01001402H   LINE      CODE     ---       #238
      01001402H   LINE      CODE     ---       #239
      01001408H   LINE      CODE     ---       #240
      01001408H   LINE      CODE     ---       #241
      0100140EH   LINE      CODE     ---       #242
      0100140EH   LINE      CODE     ---       #243
      01001410H   LINE      CODE     ---       #244
      01001416H   LINE      CODE     ---       #245
      01001416H   LINE      CODE     ---       #246
      01001423H   LINE      CODE     ---       #247
      01001425H   LINE      CODE     ---       #248
      01001425H   LINE      CODE     ---       #249
      01001425H   LINE      CODE     ---       #250
      01001425H   LINE      CODE     ---       #251
      ---         BLOCKEND  ---      ---       LVL=0

      010006CAH   BLOCK     CODE     ---       LVL=0
      010006CAH   BLOCK     CODE     NEAR LAB  LVL=1
      0000003EH   SYMBOL    DATA     BYTE      index
      00000004H   SYMBOL    DATA     WORD      length
      0000003FH   SYMBOL    DATA     ---       dat
      00000042H   SYMBOL    DATA     CHAR      retVal
      ---         BLOCKEND  ---      ---       LVL=1
      010006CAH   LINE      CODE     ---       #261
      010006CAH   LINE      CODE     ---       #262
      010006CAH   LINE      CODE     ---       #269
      010006CDH   LINE      CODE     ---       #271
      010006D0H   LINE      CODE     ---       #273
      010006DAH   LINE      CODE     ---       #275
      010006DAH   LINE      CODE     ---       #276
      010006DFH   LINE      CODE     ---       #278
      010006F6H   LINE      CODE     ---       #279
      010006F6H   LINE      CODE     ---       #280
      010006F6H   LINE      CODE     ---       #281
      010006FDH   LINE      CODE     ---       #282
      010006FDH   LINE      CODE     ---       #283
      010006FDH   LINE      CODE     ---       #284
      010006FDH   LINE      CODE     ---       #285
      01000708H   LINE      CODE     ---       #286
      0100070EH   LINE      CODE     ---       #287
      01000711H   LINE      CODE     ---       #289
      01000711H   LINE      CODE     ---       #290
      01000718H   LINE      CODE     ---       #291
      01000718H   LINE      CODE     ---       #292
      01000718H   LINE      CODE     ---       #293
      01000718H   LINE      CODE     ---       #294
      01000721H   LINE      CODE     ---       #295
      0100072FH   LINE      CODE     ---       #296
      01000731H   LINE      CODE     ---       #298
      01000731H   LINE      CODE     ---       #301
      0100074AH   LINE      CODE     ---       #305
      0100074EH   LINE      CODE     ---       #306
      0100074EH   LINE      CODE     ---       #307
      01000751H   LINE      CODE     ---       #308
      01000757H   LINE      CODE     ---       #309
      01000759H   LINE      CODE     ---       #312
      0100076AH   LINE      CODE     ---       #313
      0100076AH   LINE      CODE     ---       #315
      01000772H   LINE      CODE     ---       #316
LX51 LINKER/LOCATER V4.66.30.0                                                        01/21/2016  23:03:23  PAGE 76


      01000772H   LINE      CODE     ---       #317
      01000781H   LINE      CODE     ---       #318
      0100078FH   LINE      CODE     ---       #319
      0100079AH   LINE      CODE     ---       #320
      0100079EH   LINE      CODE     ---       #321
      0100079EH   LINE      CODE     ---       #322
      0100079EH   LINE      CODE     ---       #364
      0100079EH   LINE      CODE     ---       #368
      010007A2H   LINE      CODE     ---       #369
      010007A2H   LINE      CODE     ---       #370
      010007B0H   LINE      CODE     ---       #371
      010007B0H   LINE      CODE     ---       #372
      010007B4H   LINE      CODE     ---       #373
      010007B4H   LINE      CODE     ---       #375
      010007BDH   LINE      CODE     ---       #377
      010007C0H   LINE      CODE     ---       #378
      010007C0H   LINE      CODE     ---       #379
      010007C0H   LINE      CODE     ---       #381
      010007C2H   LINE      CODE     ---       #382
      ---         BLOCKEND  ---      ---       LVL=0

      010014E3H   BLOCK     CODE     ---       LVL=0
      010014E3H   BLOCK     CODE     NEAR LAB  LVL=1
      00000006H   SYMBOL    DATA     WORD      interface
      00000005H   SYMBOL    DATA     CHAR      retVal
      ---         BLOCKEND  ---      ---       LVL=1
      010014E3H   LINE      CODE     ---       #391
      010014E3H   LINE      CODE     ---       #392
      010014E3H   LINE      CODE     ---       #393
      010014E6H   LINE      CODE     ---       #394
      010014E8H   LINE      CODE     ---       #399
      01001506H   LINE      CODE     ---       #401
      01001506H   LINE      CODE     ---       #402
      0100150CH   LINE      CODE     ---       #403
      0100150CH   LINE      CODE     ---       #409
      01001519H   LINE      CODE     ---       #411
      0100151BH   LINE      CODE     ---       #412
      0100151BH   LINE      CODE     ---       #413
      0100151BH   LINE      CODE     ---       #414
      0100151DH   LINE      CODE     ---       #415
      ---         BLOCKEND  ---      ---       LVL=0

      01000CCAH   BLOCK     CODE     ---       LVL=0
      01000CCAH   BLOCK     CODE     NEAR LAB  LVL=1
      0000003EH   SYMBOL    DATA     CHAR      retVal
      ---         BLOCKEND  ---      ---       LVL=1
      01000CCAH   LINE      CODE     ---       #424
      01000CCAH   LINE      CODE     ---       #425
      01000CCAH   LINE      CODE     ---       #426
      01000CCDH   LINE      CODE     ---       #428
      01000CECH   LINE      CODE     ---       #432
      01000CECH   LINE      CODE     ---       #433
      01000CF1H   LINE      CODE     ---       #435
      01000CFEH   LINE      CODE     ---       #436
      01000CFEH   LINE      CODE     ---       #437
      01000CFEH   LINE      CODE     ---       #438
      01000D05H   LINE      CODE     ---       #439
      01000D05H   LINE      CODE     ---       #450
      01000D0AH   LINE      CODE     ---       #451
      01000D0AH   LINE      CODE     ---       #452
      01000D0DH   LINE      CODE     ---       #453
      01000D0DH   LINE      CODE     ---       #458
LX51 LINKER/LOCATER V4.66.30.0                                                        01/21/2016  23:03:23  PAGE 77


      01000D0DH   LINE      CODE     ---       #459
      01000D0DH   LINE      CODE     ---       #460
      01000D0FH   LINE      CODE     ---       #462
      01000D0FH   LINE      CODE     ---       #463
      01000D1BH   LINE      CODE     ---       #464
      01000D1BH   LINE      CODE     ---       #465
      01000D1BH   LINE      CODE     ---       #466
      01000D1BH   LINE      CODE     ---       #467
      01000D1DH   LINE      CODE     ---       #470
      01000D1DH   LINE      CODE     ---       #473
      01000D2EH   LINE      CODE     ---       #475
      01000D2EH   LINE      CODE     ---       #476
      01000D2EH   LINE      CODE     ---       #477
      01000D30H   LINE      CODE     ---       #478
      01000D36H   LINE      CODE     ---       #479
      01000D36H   LINE      CODE     ---       #480
      01000D3BH   LINE      CODE     ---       #481
      01000D3BH   LINE      CODE     ---       #510
      01000D3BH   LINE      CODE     ---       #511
      01000D41H   LINE      CODE     ---       #512
      01000D41H   LINE      CODE     ---       #513
      01000D47H   LINE      CODE     ---       #514
      01000D47H   LINE      CODE     ---       #515
      01000D4AH   LINE      CODE     ---       #516
      01000D4AH   LINE      CODE     ---       #536
      01000D4AH   LINE      CODE     ---       #537
      01000D4AH   LINE      CODE     ---       #538
      01000D4AH   LINE      CODE     ---       #539
      01000D4AH   LINE      CODE     ---       #542
      01000D4EH   LINE      CODE     ---       #543
      01000D4EH   LINE      CODE     ---       #544
      01000D59H   LINE      CODE     ---       #545
      01000D59H   LINE      CODE     ---       #546
      01000D59H   LINE      CODE     ---       #548
      01000D5BH   LINE      CODE     ---       #549
      ---         BLOCKEND  ---      ---       LVL=0

      01001235H   BLOCK     CODE     ---       LVL=0
      01001235H   BLOCK     CODE     NEAR LAB  LVL=1
      0000003EH   SYMBOL    DATA     CHAR      retVal
      ---         BLOCKEND  ---      ---       LVL=1
      01001235H   LINE      CODE     ---       #557
      01001235H   LINE      CODE     ---       #558
      01001235H   LINE      CODE     ---       #559
      01001238H   LINE      CODE     ---       #561
      01001259H   LINE      CODE     ---       #565
      01001259H   LINE      CODE     ---       #568
      0100125FH   LINE      CODE     ---       #569
      0100125FH   LINE      CODE     ---       #570
      01001263H   LINE      CODE     ---       #571
      01001263H   LINE      CODE     ---       #572
      01001268H   LINE      CODE     ---       #573
      01001268H   LINE      CODE     ---       #574
      01001268H   LINE      CODE     ---       #575
      0100126AH   LINE      CODE     ---       #578
      01001270H   LINE      CODE     ---       #579
      01001270H   LINE      CODE     ---       #580
      01001277H   LINE      CODE     ---       #581
      01001277H   LINE      CODE     ---       #582
      0100127CH   LINE      CODE     ---       #583
      0100127CH   LINE      CODE     ---       #584
      0100127FH   LINE      CODE     ---       #585
LX51 LINKER/LOCATER V4.66.30.0                                                        01/21/2016  23:03:23  PAGE 78


      0100127FH   LINE      CODE     ---       #588
      01001283H   LINE      CODE     ---       #589
      01001283H   LINE      CODE     ---       #590
      01001291H   LINE      CODE     ---       #591
      01001291H   LINE      CODE     ---       #592
      01001291H   LINE      CODE     ---       #594
      01001293H   LINE      CODE     ---       #595
      ---         BLOCKEND  ---      ---       LVL=0

      01000B8CH   BLOCK     CODE     ---       LVL=0
      01000B8CH   BLOCK     CODE     NEAR LAB  LVL=1
      0000003EH   SYMBOL    DATA     CHAR      retVal
      ---         BLOCKEND  ---      ---       LVL=1
      01000B8CH   LINE      CODE     ---       #603
      01000B8CH   LINE      CODE     ---       #604
      01000B8CH   LINE      CODE     ---       #605
      01000B8FH   LINE      CODE     ---       #607
      01000BB3H   LINE      CODE     ---       #611
      01000BB3H   LINE      CODE     ---       #614
      01000BBAH   LINE      CODE     ---       #615
      01000BBAH   LINE      CODE     ---       #616
      01000BCDH   LINE      CODE     ---       #618
      01000BCDH   LINE      CODE     ---       #619
      01000BD3H   LINE      CODE     ---       #620
      01000BE2H   LINE      CODE     ---       #621
      01000BE2H   LINE      CODE     ---       #622
      01000BE7H   LINE      CODE     ---       #623
      01000BECH   LINE      CODE     ---       #624
      01000BECH   LINE      CODE     ---       #625
      01000BECH   LINE      CODE     ---       #626
      01000BECH   LINE      CODE     ---       #627
      01000BEEH   LINE      CODE     ---       #630
      01000BF5H   LINE      CODE     ---       #631
      01000BF5H   LINE      CODE     ---       #632
      01000C09H   LINE      CODE     ---       #634
      01000C09H   LINE      CODE     ---       #635
      01000C0FH   LINE      CODE     ---       #636
      01000C16H   LINE      CODE     ---       #637
      01000C16H   LINE      CODE     ---       #638
      01000C1BH   LINE      CODE     ---       #639
      01000C1EH   LINE      CODE     ---       #640
      01000C20H   LINE      CODE     ---       #642
      01000C20H   LINE      CODE     ---       #644
      01000C25H   LINE      CODE     ---       #645
      01000C25H   LINE      CODE     ---       #646
      01000C28H   LINE      CODE     ---       #647
      01000C28H   LINE      CODE     ---       #648
      01000C28H   LINE      CODE     ---       #649
      01000C28H   LINE      CODE     ---       #651
      01000C2AH   LINE      CODE     ---       #652
      ---         BLOCKEND  ---      ---       LVL=0

      0100116EH   BLOCK     CODE     ---       LVL=0
      0100116EH   BLOCK     CODE     NEAR LAB  LVL=1
      0000003EH   SYMBOL    DATA     CHAR      retVal
      ---         BLOCKEND  ---      ---       LVL=1
      0100116EH   LINE      CODE     ---       #660
      0100116EH   LINE      CODE     ---       #661
      0100116EH   LINE      CODE     ---       #662
      01001171H   LINE      CODE     ---       #664
      01001178H   LINE      CODE     ---       #665
      01001178H   LINE      CODE     ---       #666
LX51 LINKER/LOCATER V4.66.30.0                                                        01/21/2016  23:03:23  PAGE 79


      01001181H   LINE      CODE     ---       #667
      01001181H   LINE      CODE     ---       #679
      01001181H   LINE      CODE     ---       #682
      0100118FH   LINE      CODE     ---       #684
      0100118FH   LINE      CODE     ---       #685
      01001192H   LINE      CODE     ---       #686
      01001194H   LINE      CODE     ---       #687
      010011ABH   LINE      CODE     ---       #690
      010011ABH   LINE      CODE     ---       #691
      010011ADH   LINE      CODE     ---       #692
      010011B6H   LINE      CODE     ---       #696
      010011BCH   LINE      CODE     ---       #697
      010011BCH   LINE      CODE     ---       #698
      010011C7H   LINE      CODE     ---       #699
      010011C7H   LINE      CODE     ---       #709
      010011CEH   LINE      CODE     ---       #710
      010011CEH   LINE      CODE     ---       #727
      010011CEH   LINE      CODE     ---       #728
      010011D2H   LINE      CODE     ---       #729
      010011D2H   LINE      CODE     ---       #741
      010011D2H   LINE      CODE     ---       #742
      010011D2H   LINE      CODE     ---       #743
      010011D2H   LINE      CODE     ---       #744
      010011D2H   LINE      CODE     ---       #746
      010011D4H   LINE      CODE     ---       #747
      ---         BLOCKEND  ---      ---       LVL=0

      01001585H   BLOCK     CODE     ---       LVL=0
      01001585H   BLOCK     CODE     NEAR LAB  LVL=1
      00000007H   SYMBOL    DATA     CHAR      retVal
      00000006H   SYMBOL    DATA     BYTE      interface
      00000005H   SYMBOL    DATA     BYTE      altSetting
      ---         BLOCKEND  ---      ---       LVL=1
      01001585H   LINE      CODE     ---       #755
      01001585H   LINE      CODE     ---       #756
      01001585H   LINE      CODE     ---       #757
      01001587H   LINE      CODE     ---       #758
      0100158BH   LINE      CODE     ---       #759
      0100158FH   LINE      CODE     ---       #761
      010015AEH   LINE      CODE     ---       #768
      010015AEH   LINE      CODE     ---       #778
      010015B3H   LINE      CODE     ---       #780
      010015B5H   LINE      CODE     ---       #782
      010015B5H   LINE      CODE     ---       #784
      010015B5H   LINE      CODE     ---       #785
      ---         BLOCKEND  ---      ---       LVL=0

      01001804H   BLOCK     CODE     ---       LVL=0
      00000021H.1 SYMBOL    BIT      BIT       forceIdle
      01001804H   LINE      CODE     ---       #796
      01001804H   LINE      CODE     ---       #797
      01001804H   LINE      CODE     ---       #798
      01001807H   LINE      CODE     ---       #799
      01001807H   LINE      CODE     ---       #801
      0100180BH   LINE      CODE     ---       #818
      0100180BH   LINE      CODE     ---       #821
      ---         BLOCKEND  ---      ---       LVL=0

      01001782H   BLOCK     CODE     ---       LVL=0
      00000001H   SYMBOL    DATA     ---       dat
      00000004H   SYMBOL    DATA     WORD      numBytes
      01001782H   LINE      CODE     ---       #871
LX51 LINKER/LOCATER V4.66.30.0                                                        01/21/2016  23:03:23  PAGE 80


      01001782H   LINE      CODE     ---       #872
      01001782H   LINE      CODE     ---       #873
      01001788H   LINE      CODE     ---       #874
      01001788H   LINE      CODE     ---       #875
      01001792H   LINE      CODE     ---       #876
      01001798H   LINE      CODE     ---       #877
      0100179BH   LINE      CODE     ---       #878
      0100179EH   LINE      CODE     ---       #879
      0100179EH   LINE      CODE     ---       #880
      ---         BLOCKEND  ---      ---       LVL=0

      ---         MODULE    ---      ---       EFM8_USBDEP
      00000021H.3 PUBLIC    BIT      BIT       ?_USB_WriteFIFO?BIT
      01001104H   PUBLIC    CODE     ---       _USB_WriteFIFO
      01001468H   PUBLIC    CODE     ---       _USB_ReadFIFO
      01000AE4H   PUBLIC    CODE     ---       handleUsbIn1Int
      000000A2H   SFRSYM    DATA     BYTE      SPI0CKR
      00000080H   SFRSYM    DATA     BYTE      P0
      000000C8H.6 SFRSYM    DATA     BIT       SCON1_PERR
      000000D0H.2 SFRSYM    DATA     BIT       PSW_OV
      00000090H   SFRSYM    DATA     BYTE      P1
      000000F8H.1 SFRSYM    DATA     BIT       SPI0CN0_TXNF
      00000097H   SFRSYM    DATA     BYTE      WDTCN
      000000A0H   SFRSYM    DATA     BYTE      P2
      000000B0H   SFRSYM    DATA     BYTE      P3
      000000BCH   SFRSYM    DATA     BYTE      ADC0CF
      000000C0H.7 SFRSYM    DATA     BIT       SMB0CN0_MASTER
      000000F9H   SFRSYM    DATA     WORD      PCA0
      000000E6H   SFRSYM    DATA     BYTE      EIE1
      000000C0H.1 SFRSYM    DATA     BIT       SMB0CN0_ACK
      000000B3H   SFRSYM    DATA     BYTE      USB0XCN
      000000CEH   SFRSYM    DATA     BYTE      EIE2
      0000008FH   SFRSYM    DATA     BYTE      PSCTL
      000000E4H   SFRSYM    DATA     BYTE      IT01CF
      000000C0H.6 SFRSYM    DATA     BIT       SMB0CN0_TXMODE
      000000ADH   SFRSYM    DATA     BYTE      DERIVID
      000000A7H   SFRSYM    DATA     BYTE      SFRPAGE
      000000A4H   SFRSYM    DATA     BYTE      P0MDOUT
      000000BFH   SFRSYM    DATA     BYTE      USB0CDSTA
      000000A5H   SFRSYM    DATA     BYTE      P1MDOUT
      000000E8H.5 SFRSYM    DATA     BIT       ADC0CN0_ADINT
      000000CBH   SFRSYM    DATA     BYTE      TMR2RLH
      000000A6H   SFRSYM    DATA     BYTE      P2MDOUT
      000000A8H   SFRSYM    DATA     BYTE      IE
      00000093H   SFRSYM    DATA     BYTE      TMR3RLH
      0000009CH   SFRSYM    DATA     BYTE      P3MDOUT
      000000A3H   SFRSYM    DATA     BYTE      TMR4RLH
      000000F3H   SFRSYM    DATA     BYTE      EIP1
      000000F4H   SFRSYM    DATA     BYTE      EIP2
      00000098H.2 SFRSYM    DATA     BIT       SCON0_RB8
      000000CAH   SFRSYM    DATA     BYTE      TMR2RLL
      000000FCH   SFRSYM    DATA     BYTE      PCA0CPH0
      00000092H   SFRSYM    DATA     BYTE      TMR3RLL
      000000EAH   SFRSYM    DATA     BYTE      PCA0CPH1
      00000098H.3 SFRSYM    DATA     BIT       SCON0_TB8
      000000F0H   SFRSYM    DATA     BIT       B_B0
      00000082H   SFRSYM    DATA     WORD      DP
      000000A2H   SFRSYM    DATA     BYTE      TMR4RLL
      000000ECH   SFRSYM    DATA     BYTE      PCA0CPH2
      000000F0H.1 SFRSYM    DATA     BIT       B_B1
      000000C3H   SFRSYM    DATA     WORD      ADC0GT
      000000BDH   SFRSYM    DATA     BYTE      I2C0SLAD
LX51 LINKER/LOCATER V4.66.30.0                                                        01/21/2016  23:03:23  PAGE 81


      000000D8H.3 SFRSYM    DATA     BIT       UART1FCN1_RFRQ
      000000F0H.2 SFRSYM    DATA     BIT       B_B2
      000000CFH   SFRSYM    DATA     BYTE      SFRPGCN
      000000FBH   SFRSYM    DATA     BYTE      PCA0CPL0
      000000F0H.3 SFRSYM    DATA     BIT       B_B3
      000000D9H   SFRSYM    DATA     BYTE      PCA0MD
      000000DAH   SFRSYM    DATA     BYTE      PCA0CPM0
      000000E9H   SFRSYM    DATA     BYTE      PCA0CPL1
      000000D8H.7 SFRSYM    DATA     BIT       UART1FCN1_TFRQ
      000000F0H.4 SFRSYM    DATA     BIT       B_B4
      000000DBH   SFRSYM    DATA     BYTE      PCA0CPM1
      000000EBH   SFRSYM    DATA     BYTE      PCA0CPL2
      000000F0H.5 SFRSYM    DATA     BIT       B_B5
      000000DCH   SFRSYM    DATA     BYTE      PCA0CPM2
      000000B8H   SFRSYM    DATA     BYTE      IP
      000000B9H   SFRSYM    DATA     BYTE      ADC0TK
      000000F0H.6 SFRSYM    DATA     BIT       B_B6
      000000C5H   SFRSYM    DATA     WORD      ADC0LT
      000000D8H.6 SFRSYM    DATA     BIT       UART1FCN1_TXNF
      00000098H.5 SFRSYM    DATA     BIT       SCON0_MCE
      000000F0H.7 SFRSYM    DATA     BIT       B_B7
      000000C3H   SFRSYM    DATA     BYTE      SMB0FCN0
      000000E1H   SFRSYM    DATA     BYTE      XBR0
      000000C4H   SFRSYM    DATA     BYTE      SMB0FCN1
      000000C1H   SFRSYM    DATA     BYTE      SMB0CF
      000000E2H   SFRSYM    DATA     BYTE      XBR1
      000000C1H   SFRSYM    DATA     BYTE      PFE0CN
      000000E7H   SFRSYM    DATA     BYTE      EMI0CN
      000000C0H.5 SFRSYM    DATA     BIT       SMB0CN0_STA
      000000E3H   SFRSYM    DATA     BYTE      XBR2
      000000BBH   SFRSYM    DATA     BYTE      ADC0MX
      000000E0H   SFRSYM    DATA     BIT       ACC_ACC0
      000000D1H   SFRSYM    DATA     BYTE      REF0CN
      0000008EH   SFRSYM    DATA     BYTE      CKCON0
      000000E0H.1 SFRSYM    DATA     BIT       ACC_ACC1
      000000C9H   SFRSYM    DATA     BYTE      REG0CN
      000000DDH   SFRSYM    DATA     BYTE      CRC0IN
      000000A6H   SFRSYM    DATA     BYTE      CKCON1
      000000C8H.2 SFRSYM    DATA     BIT       TMR2CN0_TR2
      000000E0H.2 SFRSYM    DATA     BIT       ACC_ACC2
      000000C6H   SFRSYM    DATA     BYTE      REG1CN
      000000E0H.3 SFRSYM    DATA     BIT       ACC_ACC3
      00000081H   SFRSYM    DATA     BYTE      SP
      0000009DH   SFRSYM    DATA     BYTE      CMP0MD
      000000E0H.4 SFRSYM    DATA     BIT       ACC_ACC4
      000000B1H   SFRSYM    DATA     BYTE      LFO0CN
      000000ABH   SFRSYM    DATA     BYTE      CMP1MD
      000000D8H   SFRSYM    DATA     BIT       PCA0CN0_CCF0
      000000E0H.5 SFRSYM    DATA     BIT       ACC_ACC5
      000000B5H   SFRSYM    DATA     BYTE      USB0CF
      00000098H.2 SFRSYM    DATA     BIT       TMR4CN0_TR4
      000000D8H.1 SFRSYM    DATA     BIT       PCA0CN0_CCF1
      000000E0H.6 SFRSYM    DATA     BIT       ACC_ACC6
      000000CCH   SFRSYM    DATA     WORD      TMR2
      0000009AH   SFRSYM    DATA     BYTE      SPI0FCN0
      000000D8H.2 SFRSYM    DATA     BIT       PCA0CN0_CCF2
      000000E0H.7 SFRSYM    DATA     BIT       ACC_ACC7
      00000094H   SFRSYM    DATA     WORD      TMR3
      0000009BH   SFRSYM    DATA     BYTE      SPI0FCN1
      000000A4H   SFRSYM    DATA     WORD      TMR4
      00000094H   SFRSYM    DATA     BYTE      SBCON1
      000000C0H.3 SFRSYM    DATA     BIT       SMB0CN0_ACKRQ
LX51 LINKER/LOCATER V4.66.30.0                                                        01/21/2016  23:03:23  PAGE 82


      000000FFH   SFRSYM    DATA     BYTE      VDM0CN
      000000F1H   SFRSYM    DATA     BYTE      P0MDIN
      00000098H.4 SFRSYM    DATA     BIT       SCON0_REN
      000000ACH   SFRSYM    DATA     BYTE      SMB0TC
      000000F2H   SFRSYM    DATA     BYTE      P1MDIN
      000000C8H.4 SFRSYM    DATA     BIT       SCON1_REN
      000000F3H   SFRSYM    DATA     BYTE      P2MDIN
      000000C0H.4 SFRSYM    DATA     BIT       SMB0CN0_STO
      000000B6H   SFRSYM    DATA     BYTE      USB0CDCF
      000000F4H   SFRSYM    DATA     BYTE      P3MDIN
      000000B9H   SFRSYM    DATA     BYTE      I2C0STAT
      000000BBH   SFRSYM    DATA     BYTE      I2C0DOUT
      00000096H   SFRSYM    DATA     BYTE      SBRLH1
      000000FEH   SFRSYM    DATA     BYTE      P0MASK
      000000D8H.5 SFRSYM    DATA     BIT       UART1FCN1_TXHOLD
      000000EEH   SFRSYM    DATA     BYTE      P1MASK
      000000FCH   SFRSYM    DATA     BYTE      P2MASK
      000000D0H.3 SFRSYM    DATA     BIT       PSW_RS0
      000000D8H.7 SFRSYM    DATA     BIT       PCA0CN0_CF
      0000009EH   SFRSYM    DATA     BYTE      PCA0CENT
      000000BAH   SFRSYM    DATA     BYTE      I2C0CN0
      000000D2H   SFRSYM    DATA     BYTE      CRC0ST
      000000F8H.4 SFRSYM    DATA     BIT       SPI0CN0_RXOVRN
      000000D0H.4 SFRSYM    DATA     BIT       PSW_RS1
      00000095H   SFRSYM    DATA     BYTE      SBRLL1
      000000C8H.2 SFRSYM    DATA     BIT       SCON1_RBX
      000000C8H   SFRSYM    DATA     BIT       TMR2CN0_T2XCLK0
      000000C8H.1 SFRSYM    DATA     BIT       TMR2CN0_T2XCLK1
      000000C8H.3 SFRSYM    DATA     BIT       SCON1_TBX
      000000E8H.7 SFRSYM    DATA     BIT       ADC0CN0_ADEN
      000000BEH   SFRSYM    DATA     BYTE      USB0CDCN
      00000089H   SFRSYM    DATA     BYTE      TMOD
      00000088H   SFRSYM    DATA     BYTE      TCON
      000000CFH   SFRSYM    DATA     BYTE      CRC0FLIP
      000000D0H   SFRSYM    DATA     BIT       PSW_PARITY
      000000A8H.4 SFRSYM    DATA     BIT       IE_ES0
      0000009FH   SFRSYM    DATA     BYTE      CMP0MX
      00000098H   SFRSYM    DATA     BIT       TMR4CN0_T4XCLK0
      000000A8H.1 SFRSYM    DATA     BIT       IE_ET0
      000000AAH   SFRSYM    DATA     BYTE      CMP1MX
      00000098H.1 SFRSYM    DATA     BIT       TMR4CN0_T4XCLK1
      000000A8H.3 SFRSYM    DATA     BIT       IE_ET1
      000000D4H   SFRSYM    DATA     BYTE      P0SKIP
      000000D8H   SFRSYM    DATA     BIT       UART1FCN1_RIE
      000000A8H.5 SFRSYM    DATA     BIT       IE_ET2
      000000D5H   SFRSYM    DATA     BYTE      P1SKIP
      000000CCH   SFRSYM    DATA     BYTE      P2SKIP
      000000E8H   SFRSYM    DATA     BYTE      ADC0CN0
      000000D8H.4 SFRSYM    DATA     BIT       UART1FCN1_TIE
      000000A8H   SFRSYM    DATA     BIT       IE_EX0
      000000B2H   SFRSYM    DATA     BYTE      ADC0CN1
      000000D8H.6 SFRSYM    DATA     BIT       PCA0CN0_CR
      000000A8H.2 SFRSYM    DATA     BIT       IE_EX1
      000000C8H.7 SFRSYM    DATA     BIT       SCON1_OVR
      00000098H.7 SFRSYM    DATA     BIT       SCON0_SMODE
      000000B5H   SFRSYM    DATA     BYTE      DEVICEID
      000000A9H   SFRSYM    DATA     BYTE      CLKSEL
      000000F8H   SFRSYM    DATA     BIT       SPI0CN0_SPIEN
      000000F0H   SFRSYM    DATA     BYTE      B
      000000BEH   SFRSYM    DATA     BYTE      ADC0H
      000000E8H.6 SFRSYM    DATA     BIT       ADC0CN0_ADBMEN
      000000CAH   SFRSYM    DATA     WORD      TMR2RL
LX51 LINKER/LOCATER V4.66.30.0                                                        01/21/2016  23:03:23  PAGE 83


      000000BDH   SFRSYM    DATA     BYTE      ADC0L
      00000092H   SFRSYM    DATA     WORD      TMR3RL
      000000A2H   SFRSYM    DATA     WORD      TMR4RL
      000000D8H   SFRSYM    DATA     BYTE      PCA0CN0
      000000E0H   SFRSYM    DATA     BYTE      ACC
      000000FBH   SFRSYM    DATA     WORD      PCA0CP0
      000000E9H   SFRSYM    DATA     WORD      PCA0CP1
      000000EBH   SFRSYM    DATA     WORD      PCA0CP2
      000000BCH   SFRSYM    DATA     BYTE      I2C0DIN
      000000CEH   SFRSYM    DATA     BYTE      CRC0CN0
      0000008CH   SFRSYM    DATA     BYTE      TH0
      00000086H   SFRSYM    DATA     BYTE      CRC0CN1
      000000B8H.4 SFRSYM    DATA     BIT       IP_PS0
      000000FAH   SFRSYM    DATA     BYTE      UART1FCT
      0000008DH   SFRSYM    DATA     BYTE      TH1
      000000FAH   SFRSYM    DATA     BYTE      PCA0H
      000000F5H   SFRSYM    DATA     BYTE      I2C0FCT
      000000B8H.1 SFRSYM    DATA     BIT       IP_PT0
      000000B8H.3 SFRSYM    DATA     BIT       IP_PT1
      000000C0H.2 SFRSYM    DATA     BIT       SMB0CN0_ARBLOST
      000000B8H.5 SFRSYM    DATA     BIT       IP_PT2
      0000008AH   SFRSYM    DATA     BYTE      TL0
      000000D0H.5 SFRSYM    DATA     BIT       PSW_F0
      000000A8H.6 SFRSYM    DATA     BIT       IE_ESPI0
      0000008BH   SFRSYM    DATA     BYTE      TL1
      000000F9H   SFRSYM    DATA     BYTE      PCA0L
      000000C0H   SFRSYM    DATA     BIT       SMB0CN0_SI
      000000D0H.1 SFRSYM    DATA     BIT       PSW_F1
      00000080H   SFRSYM    DATA     BIT       P0_B0
      000000B8H   SFRSYM    DATA     BIT       IP_PX0
      00000090H   SFRSYM    DATA     BIT       P1_B0
      00000080H.1 SFRSYM    DATA     BIT       P0_B1
      000000B8H.2 SFRSYM    DATA     BIT       IP_PX1
      0000009EH   SFRSYM    DATA     BYTE      UART1LIN
      0000009BH   SFRSYM    DATA     BYTE      CMP0CN0
      00000088H.1 SFRSYM    DATA     BIT       TCON_IE0
      000000A0H   SFRSYM    DATA     BIT       P2_B0
      00000090H.1 SFRSYM    DATA     BIT       P1_B1
      00000080H.2 SFRSYM    DATA     BIT       P0_B2
      000000BFH   SFRSYM    DATA     BYTE      CMP1CN0
      00000099H   SFRSYM    DATA     BYTE      CMP0CN1
      00000088H.3 SFRSYM    DATA     BIT       TCON_IE1
      000000B0H   SFRSYM    DATA     BIT       P3_B0
      000000A0H.1 SFRSYM    DATA     BIT       P2_B1
      00000090H.2 SFRSYM    DATA     BIT       P1_B2
      00000080H.3 SFRSYM    DATA     BIT       P0_B3
      000000C0H   SFRSYM    DATA     BYTE      SMB0CN0
      000000ACH   SFRSYM    DATA     BYTE      CMP1CN1
      000000B0H.1 SFRSYM    DATA     BIT       P3_B1
      000000A0H.2 SFRSYM    DATA     BIT       P2_B2
      00000090H.3 SFRSYM    DATA     BIT       P1_B3
      00000080H.4 SFRSYM    DATA     BIT       P0_B4
      000000A0H.3 SFRSYM    DATA     BIT       P2_B3
      00000090H.4 SFRSYM    DATA     BIT       P1_B4
      00000080H.5 SFRSYM    DATA     BIT       P0_B5
      000000D8H.1 SFRSYM    DATA     BIT       UART1FCN1_RXTO0
      00000090H.5 SFRSYM    DATA     BIT       P1_B5
      00000080H.6 SFRSYM    DATA     BIT       P0_B6
      000000F5H   SFRSYM    DATA     BYTE      EIP1H
      000000D8H.2 SFRSYM    DATA     BIT       UART1FCN1_RXTO1
      00000090H.6 SFRSYM    DATA     BIT       P1_B6
      00000080H.7 SFRSYM    DATA     BIT       P0_B7
LX51 LINKER/LOCATER V4.66.30.0                                                        01/21/2016  23:03:23  PAGE 84


      000000C5H   SFRSYM    DATA     BYTE      SMB0RXLN
      000000F6H   SFRSYM    DATA     BYTE      EIP2H
      00000090H.7 SFRSYM    DATA     BIT       P1_B7
      00000083H   SFRSYM    DATA     BYTE      DPH
      000000C4H   SFRSYM    DATA     BYTE      ADC0GTH
      000000C8H.7 SFRSYM    DATA     BIT       TMR2CN0_TF2H
      000000C8H.3 SFRSYM    DATA     BIT       TMR2CN0_T2SPLIT
      000000D0H.6 SFRSYM    DATA     BIT       PSW_AC
      000000F8H   SFRSYM    DATA     BYTE      SPI0CN0
      000000C7H   SFRSYM    DATA     BYTE      HFO0CAL
      00000088H.5 SFRSYM    DATA     BIT       TCON_TF0
      00000098H   SFRSYM    DATA     BIT       SCON0_RI
      000000D6H   SFRSYM    DATA     BYTE      HFO1CAL
      00000082H   SFRSYM    DATA     BYTE      DPL
      00000088H.7 SFRSYM    DATA     BIT       TCON_TF1
      000000C8H   SFRSYM    DATA     BIT       SCON1_RI
      00000099H   SFRSYM    DATA     BYTE      SBUF0
      00000087H   SFRSYM    DATA     BYTE      PCON0
      000000F2H   SFRSYM    DATA     BYTE      IPH
      000000C3H   SFRSYM    DATA     BYTE      ADC0GTL
      00000098H.7 SFRSYM    DATA     BIT       TMR4CN0_TF4H
      00000098H.3 SFRSYM    DATA     BIT       TMR4CN0_T4SPLIT
      000000C8H.6 SFRSYM    DATA     BIT       TMR2CN0_TF2L
      00000098H.1 SFRSYM    DATA     BIT       SCON0_TI
      000000E8H   SFRSYM    DATA     BIT       ADC0CN0_ADCM0
      00000092H   SFRSYM    DATA     BYTE      SBUF1
      0000009AH   SFRSYM    DATA     BYTE      PCON1
      000000C6H   SFRSYM    DATA     BYTE      ADC0LTH
      00000088H   SFRSYM    DATA     BIT       TCON_IT0
      000000C8H.1 SFRSYM    DATA     BIT       SCON1_TI
      000000E8H.1 SFRSYM    DATA     BIT       ADC0CN0_ADCM1
      000000EFH   SFRSYM    DATA     BYTE      RSTSRC
      000000FDH   SFRSYM    DATA     BYTE      P0MAT
      000000DEH   SFRSYM    DATA     BYTE      CRC0DAT
      00000088H.2 SFRSYM    DATA     BIT       TCON_IT1
      000000E8H.2 SFRSYM    DATA     BIT       ADC0CN0_ADCM2
      000000D7H   SFRSYM    DATA     BYTE      SFRSTACK
      00000098H   SFRSYM    DATA     BYTE      SCON0
      000000F6H   SFRSYM    DATA     BYTE      PRTDRV
      000000EDH   SFRSYM    DATA     BYTE      P1MAT
      000000E8H.3 SFRSYM    DATA     BIT       ADC0CN0_ADWINT
      00000095H   SFRSYM    DATA     WORD      SBRL1
      000000B2H   SFRSYM    DATA     BYTE      USB0AEC
      00000093H   SFRSYM    DATA     BYTE      SMOD1
      000000C8H   SFRSYM    DATA     BYTE      SCON1
      000000FBH   SFRSYM    DATA     BYTE      P2MAT
      00000098H.6 SFRSYM    DATA     BIT       TMR4CN0_TF4L
      000000E8H.4 SFRSYM    DATA     BIT       ADC0CN0_ADBUSY
      000000D6H   SFRSYM    DATA     BYTE      SMB0ADM
      000000C5H   SFRSYM    DATA     BYTE      ADC0LTL
      000000F8H.5 SFRSYM    DATA     BIT       SPI0CN0_MODF
      000000B8H.6 SFRSYM    DATA     BIT       IP_PSPI0
      0000009CH   SFRSYM    DATA     BYTE      PCA0CLR
      000000C8H   SFRSYM    DATA     BYTE      TMR2CN0
      00000091H   SFRSYM    DATA     BYTE      TMR3CN0
      000000FDH   SFRSYM    DATA     BYTE      TMR2CN1
      00000098H   SFRSYM    DATA     BYTE      TMR4CN0
      000000FEH   SFRSYM    DATA     BYTE      TMR3CN1
      000000FFH   SFRSYM    DATA     BYTE      TMR4CN1
      000000D7H   SFRSYM    DATA     BYTE      SMB0ADR
      00000088H.4 SFRSYM    DATA     BIT       TCON_TR0
      000000C8H.4 SFRSYM    DATA     BIT       TMR2CN0_TF2CEN
LX51 LINKER/LOCATER V4.66.30.0                                                        01/21/2016  23:03:23  PAGE 85


      00000088H.6 SFRSYM    DATA     BIT       TCON_TR1
      000000C2H   SFRSYM    DATA     BYTE      SMB0DAT
      000000CDH   SFRSYM    DATA     BYTE      TMR2H
      000000A1H   SFRSYM    DATA     BYTE      SPI0CFG
      00000095H   SFRSYM    DATA     BYTE      TMR3H
      000000EFH   SFRSYM    DATA     BYTE      HFOCN
      000000D3H   SFRSYM    DATA     BYTE      CRC0CNT
      000000A5H   SFRSYM    DATA     BYTE      TMR4H
      00000098H.4 SFRSYM    DATA     BIT       TMR4CN0_TF4CEN
      000000EFH   SFRSYM    DATA     BYTE      SMB0FCT
      00000096H   SFRSYM    DATA     BYTE      PCA0POL
      000000CCH   SFRSYM    DATA     BYTE      TMR2L
      000000F8H.7 SFRSYM    DATA     BIT       SPI0CN0_SPIF
      000000AEH   SFRSYM    DATA     BYTE      USB0ADR
      00000094H   SFRSYM    DATA     BYTE      TMR3L
      000000DFH   SFRSYM    DATA     BYTE      ADC0PWR
      000000A8H.7 SFRSYM    DATA     BIT       IE_EA
      000000A4H   SFRSYM    DATA     BYTE      TMR4L
      000000AFH   SFRSYM    DATA     BYTE      USB0DAT
      000000C8H.5 SFRSYM    DATA     BIT       TMR2CN0_TF2LEN
      000000F8H.6 SFRSYM    DATA     BIT       SPI0CN0_WCOL
      000000F8H.2 SFRSYM    DATA     BIT       SPI0CN0_NSSMD0
      000000D0H.7 SFRSYM    DATA     BIT       PSW_CY
      0000009DH   SFRSYM    DATA     BYTE      UART1FCN0
      000000A3H   SFRSYM    DATA     BYTE      SPI0DAT
      000000ADH   SFRSYM    DATA     BYTE      I2C0FCN0
      000000F8H.3 SFRSYM    DATA     BIT       SPI0CN0_NSSMD1
      000000BDH   SFRSYM    DATA     WORD      ADC0
      000000D8H   SFRSYM    DATA     BYTE      UART1FCN1
      000000ABH   SFRSYM    DATA     BYTE      I2C0FCN1
      00000098H.5 SFRSYM    DATA     BIT       TMR4CN0_TF4LEN
      000000D0H   SFRSYM    DATA     BYTE      PSW
      000000F7H   SFRSYM    DATA     BYTE      PCA0PWM
      000000F7H   SFRSYM    DATA     BYTE      SPI0FCT
      000000B6H   SFRSYM    DATA     BYTE      REVID
      000000B7H   SFRSYM    DATA     BYTE      FLKEY
      000000B3H   SFRSYM    DATA     BYTE      ADC0AC
      0100179FH   SYMBOL    CODE     ---       _USB_ReadFIFO_Idata
      01001746H   SYMBOL    CODE     ---       _USB_ReadFIFO_Pdata
      01001725H   SYMBOL    CODE     ---       _USB_ReadFIFO_Xdata
      01001883H   SYMBOL    CODE     ---       _USB_WriteFIFO_Idata
      01001897H   SYMBOL    CODE     ---       _USB_WriteFIFO_Pdata
      0100181AH   SYMBOL    CODE     ---       _USB_WriteFIFO_Xdata
      010017EDH   SYMBOL    CODE     ---       _USB_WriteFIFO_Code

      010019FEH   BLOCK     CODE     ---       LVL=0
      ---         BLOCKEND  ---      ---       LVL=0

      01000AE4H   BLOCK     CODE     ---       LVL=0
      01000AE4H   BLOCK     CODE     NEAR LAB  LVL=1
      0000003DH   SYMBOL    DATA     BYTE      xferred
      00000021H.1 SYMBOL    BIT      BIT       callback
      ---         BLOCKEND  ---      ---       LVL=1
      01000AE4H   LINE      CODE     ---       #121
      01000AE4H   LINE      CODE     ---       #122
      01000AE4H   LINE      CODE     ---       #126
      01000AE9H   LINE      CODE     ---       #128
      01000AEEH   LINE      CODE     ---       #129
      01000AEEH   LINE      CODE     ---       #130
      01000AFEH   LINE      CODE     ---       #132
      01000B08H   LINE      CODE     ---       #133
      01000B08H   LINE      CODE     ---       #134
LX51 LINKER/LOCATER V4.66.30.0                                                        01/21/2016  23:03:23  PAGE 86


      01000B1DH   LINE      CODE     ---       #136
      01000B29H   LINE      CODE     ---       #137
      01000B31H   LINE      CODE     ---       #139
      01000B37H   LINE      CODE     ---       #142
      01000B46H   LINE      CODE     ---       #143
      01000B46H   LINE      CODE     ---       #144
      01000B68H   LINE      CODE     ---       #150
      01000B6AH   LINE      CODE     ---       #152
      01000B6AH   LINE      CODE     ---       #153
      01000B70H   LINE      CODE     ---       #154
      01000B73H   LINE      CODE     ---       #155
      01000B73H   LINE      CODE     ---       #157
      01000B76H   LINE      CODE     ---       #158
      01000B76H   LINE      CODE     ---       #159
      01000B8BH   LINE      CODE     ---       #160
      01000B8BH   LINE      CODE     ---       #162
      01000B8BH   LINE      CODE     ---       #163
      ---         BLOCKEND  ---      ---       LVL=0

      01001468H   BLOCK     CODE     ---       LVL=0
      0000003FH   SYMBOL    DATA     BYTE      fifoNum
      00000040H   SYMBOL    DATA     BYTE      numBytes
      00000041H   SYMBOL    DATA     ---       dat
      01001468H   LINE      CODE     ---       #558
      01001472H   LINE      CODE     ---       #559
      01001472H   LINE      CODE     ---       #560
      01001479H   LINE      CODE     ---       #561
      01001479H   LINE      CODE     ---       #562
      01001484H   LINE      CODE     ---       #569
      01001491H   LINE      CODE     ---       #570
      01001491H   LINE      CODE     ---       #571
      01001491H   LINE      CODE     ---       #572
      01001497H   LINE      CODE     ---       #573
      01001497H   LINE      CODE     ---       #584
      01001497H   LINE      CODE     ---       #585
      0100149FH   LINE      CODE     ---       #586
      0100149FH   LINE      CODE     ---       #592
      0100149FH   LINE      CODE     ---       #593
      010014A5H   LINE      CODE     ---       #594
      010014A5H   LINE      CODE     ---       #597
      010014A5H   LINE      CODE     ---       #598
      010014A5H   LINE      CODE     ---       #599
      010014A5H   LINE      CODE     ---       #606
      010014A5H   LINE      CODE     ---       #607
      ---         BLOCKEND  ---      ---       LVL=0

      01001104H   BLOCK     CODE     ---       LVL=0
      00000047H   SYMBOL    DATA     BYTE      fifoNum
      00000048H   SYMBOL    DATA     BYTE      numBytes
      00000049H   SYMBOL    DATA     ---       dat
      00000021H.3 SYMBOL    BIT      BIT       txPacket
      01001104H   LINE      CODE     ---       #623
      0100110EH   LINE      CODE     ---       #624
      0100110EH   LINE      CODE     ---       #625
      01001119H   LINE      CODE     ---       #632
      01001128H   LINE      CODE     ---       #633
      01001128H   LINE      CODE     ---       #634
      01001128H   LINE      CODE     ---       #635
      0100112FH   LINE      CODE     ---       #636
      01001131H   LINE      CODE     ---       #647
      01001131H   LINE      CODE     ---       #648
      0100113AH   LINE      CODE     ---       #649
LX51 LINKER/LOCATER V4.66.30.0                                                        01/21/2016  23:03:23  PAGE 87


      0100113CH   LINE      CODE     ---       #655
      0100113CH   LINE      CODE     ---       #656
      01001143H   LINE      CODE     ---       #657
      01001145H   LINE      CODE     ---       #660
      01001145H   LINE      CODE     ---       #661
      0100114EH   LINE      CODE     ---       #662
      0100114EH   LINE      CODE     ---       #664
      0100114EH   LINE      CODE     ---       #665
      0100114EH   LINE      CODE     ---       #666
      0100114EH   LINE      CODE     ---       #674
      01001158H   LINE      CODE     ---       #675
      01001158H   LINE      CODE     ---       #676
      0100115DH   LINE      CODE     ---       #677
      0100116DH   LINE      CODE     ---       #678
      0100116DH   LINE      CODE     ---       #679
      ---         BLOCKEND  ---      ---       LVL=0

      0100179FH   BLOCK     CODE     ---       LVL=0
      00000007H   SYMBOL    DATA     BYTE      numBytes
      00000000H   SYMBOL    DATA     ---       dat
      00000003H   SYMBOL    DATA     BYTE      fifoNum
      0100179FH   LINE      CODE     ---       #698
      010017A1H   LINE      CODE     ---       #699
      010017A1H   LINE      CODE     ---       #700
      010017A5H   LINE      CODE     ---       #701
      010017A5H   LINE      CODE     ---       #702
      010017ACH   LINE      CODE     ---       #703
      010017ADH   LINE      CODE     ---       #704
      010017AFH   LINE      CODE     ---       #705
      010017BBH   LINE      CODE     ---       #706
      ---         BLOCKEND  ---      ---       LVL=0

      01001883H   BLOCK     CODE     ---       LVL=0
      00000007H   SYMBOL    DATA     BYTE      numBytes
      00000000H   SYMBOL    DATA     ---       dat
      01001883H   LINE      CODE     ---       #717
      01001885H   LINE      CODE     ---       #718
      01001885H   LINE      CODE     ---       #719
      0100188BH   LINE      CODE     ---       #720
      0100188BH   LINE      CODE     ---       #721
      01001893H   LINE      CODE     ---       #722
      01001894H   LINE      CODE     ---       #723
      01001896H   LINE      CODE     ---       #724
      ---         BLOCKEND  ---      ---       LVL=0

      01001725H   BLOCK     CODE     ---       LVL=0
      00000007H   SYMBOL    DATA     BYTE      numBytes
      00000082H   SYMBOL    DATA     ---       dat
      00000003H   SYMBOL    DATA     BYTE      fifoNum
      01001725H   LINE      CODE     ---       #735
      01001729H   LINE      CODE     ---       #736
      01001729H   LINE      CODE     ---       #737
      0100172DH   LINE      CODE     ---       #738
      0100172DH   LINE      CODE     ---       #739
      01001735H   LINE      CODE     ---       #740
      01001736H   LINE      CODE     ---       #741
      01001738H   LINE      CODE     ---       #742
      01001745H   LINE      CODE     ---       #743
      ---         BLOCKEND  ---      ---       LVL=0

      0100181AH   BLOCK     CODE     ---       LVL=0
      00000007H   SYMBOL    DATA     BYTE      numBytes
LX51 LINKER/LOCATER V4.66.30.0                                                        01/21/2016  23:03:23  PAGE 88


      00000082H   SYMBOL    DATA     ---       dat
      0100181AH   LINE      CODE     ---       #754
      0100181EH   LINE      CODE     ---       #755
      0100181EH   LINE      CODE     ---       #756
      01001824H   LINE      CODE     ---       #757
      01001824H   LINE      CODE     ---       #758
      0100182CH   LINE      CODE     ---       #759
      0100182DH   LINE      CODE     ---       #760
      0100182FH   LINE      CODE     ---       #761
      ---         BLOCKEND  ---      ---       LVL=0

      01001746H   BLOCK     CODE     ---       LVL=0
      00000007H   SYMBOL    DATA     BYTE      numBytes
      00000000H   SYMBOL    DATA     ---       dat
      00000003H   SYMBOL    DATA     BYTE      fifoNum
      01001746H   LINE      CODE     ---       #773
      01001748H   LINE      CODE     ---       #774
      01001748H   LINE      CODE     ---       #775
      0100174CH   LINE      CODE     ---       #776
      0100174CH   LINE      CODE     ---       #777
      01001754H   LINE      CODE     ---       #778
      01001755H   LINE      CODE     ---       #779
      01001757H   LINE      CODE     ---       #780
      01001764H   LINE      CODE     ---       #781
      ---         BLOCKEND  ---      ---       LVL=0

      01001897H   BLOCK     CODE     ---       LVL=0
      00000007H   SYMBOL    DATA     BYTE      numBytes
      00000000H   SYMBOL    DATA     ---       dat
      01001897H   LINE      CODE     ---       #792
      01001899H   LINE      CODE     ---       #793
      01001899H   LINE      CODE     ---       #794
      0100189FH   LINE      CODE     ---       #795
      0100189FH   LINE      CODE     ---       #796
      010018A7H   LINE      CODE     ---       #797
      010018A8H   LINE      CODE     ---       #798
      010018AAH   LINE      CODE     ---       #799
      ---         BLOCKEND  ---      ---       LVL=0

      010017EDH   BLOCK     CODE     ---       LVL=0
      00000007H   SYMBOL    DATA     BYTE      numBytes
      00000082H   SYMBOL    DATA     ---       dat
      010017EDH   LINE      CODE     ---       #851
      010017F1H   LINE      CODE     ---       #852
      010017F1H   LINE      CODE     ---       #853
      010017F7H   LINE      CODE     ---       #854
      010017F7H   LINE      CODE     ---       #855
      01001800H   LINE      CODE     ---       #856
      01001801H   LINE      CODE     ---       #857
      01001803H   LINE      CODE     ---       #858
      ---         BLOCKEND  ---      ---       LVL=0

      ---         MODULE    ---      ---       EFM8_USBDINT
      01001A20H   PUBLIC    CODE     ---       forceModuleLoad_usbint
      0100185AH   PUBLIC    CODE     ---       SendEp0Stall
      01001011H   PUBLIC    CODE     ---       handleUsbEp0Rx
      01000A3AH   PUBLIC    CODE     ---       usbIrqHandler
      000000A2H   SFRSYM    DATA     BYTE      SPI0CKR
      00000080H   SFRSYM    DATA     BYTE      P0
      000000C8H.6 SFRSYM    DATA     BIT       SCON1_PERR
      000000D0H.2 SFRSYM    DATA     BIT       PSW_OV
      00000090H   SFRSYM    DATA     BYTE      P1
LX51 LINKER/LOCATER V4.66.30.0                                                        01/21/2016  23:03:23  PAGE 89


      000000F8H.1 SFRSYM    DATA     BIT       SPI0CN0_TXNF
      00000097H   SFRSYM    DATA     BYTE      WDTCN
      000000A0H   SFRSYM    DATA     BYTE      P2
      000000B0H   SFRSYM    DATA     BYTE      P3
      000000BCH   SFRSYM    DATA     BYTE      ADC0CF
      000000C0H.7 SFRSYM    DATA     BIT       SMB0CN0_MASTER
      000000F9H   SFRSYM    DATA     WORD      PCA0
      000000E6H   SFRSYM    DATA     BYTE      EIE1
      000000C0H.1 SFRSYM    DATA     BIT       SMB0CN0_ACK
      000000B3H   SFRSYM    DATA     BYTE      USB0XCN
      000000CEH   SFRSYM    DATA     BYTE      EIE2
      0000008FH   SFRSYM    DATA     BYTE      PSCTL
      000000E4H   SFRSYM    DATA     BYTE      IT01CF
      000000C0H.6 SFRSYM    DATA     BIT       SMB0CN0_TXMODE
      000000ADH   SFRSYM    DATA     BYTE      DERIVID
      000000A7H   SFRSYM    DATA     BYTE      SFRPAGE
      000000A4H   SFRSYM    DATA     BYTE      P0MDOUT
      000000BFH   SFRSYM    DATA     BYTE      USB0CDSTA
      000000A5H   SFRSYM    DATA     BYTE      P1MDOUT
      000000E8H.5 SFRSYM    DATA     BIT       ADC0CN0_ADINT
      000000CBH   SFRSYM    DATA     BYTE      TMR2RLH
      000000A6H   SFRSYM    DATA     BYTE      P2MDOUT
      000000A8H   SFRSYM    DATA     BYTE      IE
      00000093H   SFRSYM    DATA     BYTE      TMR3RLH
      0000009CH   SFRSYM    DATA     BYTE      P3MDOUT
      000000A3H   SFRSYM    DATA     BYTE      TMR4RLH
      000000F3H   SFRSYM    DATA     BYTE      EIP1
      000000F4H   SFRSYM    DATA     BYTE      EIP2
      00000098H.2 SFRSYM    DATA     BIT       SCON0_RB8
      000000CAH   SFRSYM    DATA     BYTE      TMR2RLL
      000000FCH   SFRSYM    DATA     BYTE      PCA0CPH0
      00000092H   SFRSYM    DATA     BYTE      TMR3RLL
      000000EAH   SFRSYM    DATA     BYTE      PCA0CPH1
      00000098H.3 SFRSYM    DATA     BIT       SCON0_TB8
      000000F0H   SFRSYM    DATA     BIT       B_B0
      00000082H   SFRSYM    DATA     WORD      DP
      000000A2H   SFRSYM    DATA     BYTE      TMR4RLL
      000000ECH   SFRSYM    DATA     BYTE      PCA0CPH2
      000000F0H.1 SFRSYM    DATA     BIT       B_B1
      000000C3H   SFRSYM    DATA     WORD      ADC0GT
      000000BDH   SFRSYM    DATA     BYTE      I2C0SLAD
      000000D8H.3 SFRSYM    DATA     BIT       UART1FCN1_RFRQ
      000000F0H.2 SFRSYM    DATA     BIT       B_B2
      000000CFH   SFRSYM    DATA     BYTE      SFRPGCN
      000000FBH   SFRSYM    DATA     BYTE      PCA0CPL0
      000000F0H.3 SFRSYM    DATA     BIT       B_B3
      000000D9H   SFRSYM    DATA     BYTE      PCA0MD
      000000DAH   SFRSYM    DATA     BYTE      PCA0CPM0
      000000E9H   SFRSYM    DATA     BYTE      PCA0CPL1
      000000D8H.7 SFRSYM    DATA     BIT       UART1FCN1_TFRQ
      000000F0H.4 SFRSYM    DATA     BIT       B_B4
      000000DBH   SFRSYM    DATA     BYTE      PCA0CPM1
      000000EBH   SFRSYM    DATA     BYTE      PCA0CPL2
      000000F0H.5 SFRSYM    DATA     BIT       B_B5
      000000DCH   SFRSYM    DATA     BYTE      PCA0CPM2
      000000B8H   SFRSYM    DATA     BYTE      IP
      000000B9H   SFRSYM    DATA     BYTE      ADC0TK
      000000F0H.6 SFRSYM    DATA     BIT       B_B6
      000000C5H   SFRSYM    DATA     WORD      ADC0LT
      000000D8H.6 SFRSYM    DATA     BIT       UART1FCN1_TXNF
      00000098H.5 SFRSYM    DATA     BIT       SCON0_MCE
      000000F0H.7 SFRSYM    DATA     BIT       B_B7
LX51 LINKER/LOCATER V4.66.30.0                                                        01/21/2016  23:03:23  PAGE 90


      000000C3H   SFRSYM    DATA     BYTE      SMB0FCN0
      000000E1H   SFRSYM    DATA     BYTE      XBR0
      000000C4H   SFRSYM    DATA     BYTE      SMB0FCN1
      000000C1H   SFRSYM    DATA     BYTE      SMB0CF
      000000E2H   SFRSYM    DATA     BYTE      XBR1
      000000C1H   SFRSYM    DATA     BYTE      PFE0CN
      000000E7H   SFRSYM    DATA     BYTE      EMI0CN
      000000C0H.5 SFRSYM    DATA     BIT       SMB0CN0_STA
      000000E3H   SFRSYM    DATA     BYTE      XBR2
      000000BBH   SFRSYM    DATA     BYTE      ADC0MX
      000000E0H   SFRSYM    DATA     BIT       ACC_ACC0
      000000D1H   SFRSYM    DATA     BYTE      REF0CN
      0000008EH   SFRSYM    DATA     BYTE      CKCON0
      000000E0H.1 SFRSYM    DATA     BIT       ACC_ACC1
      000000C9H   SFRSYM    DATA     BYTE      REG0CN
      000000DDH   SFRSYM    DATA     BYTE      CRC0IN
      000000A6H   SFRSYM    DATA     BYTE      CKCON1
      000000C8H.2 SFRSYM    DATA     BIT       TMR2CN0_TR2
      000000E0H.2 SFRSYM    DATA     BIT       ACC_ACC2
      000000C6H   SFRSYM    DATA     BYTE      REG1CN
      000000E0H.3 SFRSYM    DATA     BIT       ACC_ACC3
      00000081H   SFRSYM    DATA     BYTE      SP
      0000009DH   SFRSYM    DATA     BYTE      CMP0MD
      000000E0H.4 SFRSYM    DATA     BIT       ACC_ACC4
      000000B1H   SFRSYM    DATA     BYTE      LFO0CN
      000000ABH   SFRSYM    DATA     BYTE      CMP1MD
      000000D8H   SFRSYM    DATA     BIT       PCA0CN0_CCF0
      000000E0H.5 SFRSYM    DATA     BIT       ACC_ACC5
      000000B5H   SFRSYM    DATA     BYTE      USB0CF
      00000098H.2 SFRSYM    DATA     BIT       TMR4CN0_TR4
      000000D8H.1 SFRSYM    DATA     BIT       PCA0CN0_CCF1
      000000E0H.6 SFRSYM    DATA     BIT       ACC_ACC6
      000000CCH   SFRSYM    DATA     WORD      TMR2
      0000009AH   SFRSYM    DATA     BYTE      SPI0FCN0
      000000D8H.2 SFRSYM    DATA     BIT       PCA0CN0_CCF2
      000000E0H.7 SFRSYM    DATA     BIT       ACC_ACC7
      00000094H   SFRSYM    DATA     WORD      TMR3
      0000009BH   SFRSYM    DATA     BYTE      SPI0FCN1
      000000A4H   SFRSYM    DATA     WORD      TMR4
      00000094H   SFRSYM    DATA     BYTE      SBCON1
      000000C0H.3 SFRSYM    DATA     BIT       SMB0CN0_ACKRQ
      000000FFH   SFRSYM    DATA     BYTE      VDM0CN
      000000F1H   SFRSYM    DATA     BYTE      P0MDIN
      00000098H.4 SFRSYM    DATA     BIT       SCON0_REN
      000000ACH   SFRSYM    DATA     BYTE      SMB0TC
      000000F2H   SFRSYM    DATA     BYTE      P1MDIN
      000000C8H.4 SFRSYM    DATA     BIT       SCON1_REN
      000000F3H   SFRSYM    DATA     BYTE      P2MDIN
      000000C0H.4 SFRSYM    DATA     BIT       SMB0CN0_STO
      000000B6H   SFRSYM    DATA     BYTE      USB0CDCF
      000000F4H   SFRSYM    DATA     BYTE      P3MDIN
      000000B9H   SFRSYM    DATA     BYTE      I2C0STAT
      000000BBH   SFRSYM    DATA     BYTE      I2C0DOUT
      00000096H   SFRSYM    DATA     BYTE      SBRLH1
      000000FEH   SFRSYM    DATA     BYTE      P0MASK
      000000D8H.5 SFRSYM    DATA     BIT       UART1FCN1_TXHOLD
      000000EEH   SFRSYM    DATA     BYTE      P1MASK
      000000FCH   SFRSYM    DATA     BYTE      P2MASK
      000000D0H.3 SFRSYM    DATA     BIT       PSW_RS0
      000000D8H.7 SFRSYM    DATA     BIT       PCA0CN0_CF
      0000009EH   SFRSYM    DATA     BYTE      PCA0CENT
      000000BAH   SFRSYM    DATA     BYTE      I2C0CN0
LX51 LINKER/LOCATER V4.66.30.0                                                        01/21/2016  23:03:23  PAGE 91


      000000D2H   SFRSYM    DATA     BYTE      CRC0ST
      000000F8H.4 SFRSYM    DATA     BIT       SPI0CN0_RXOVRN
      000000D0H.4 SFRSYM    DATA     BIT       PSW_RS1
      00000095H   SFRSYM    DATA     BYTE      SBRLL1
      000000C8H.2 SFRSYM    DATA     BIT       SCON1_RBX
      000000C8H   SFRSYM    DATA     BIT       TMR2CN0_T2XCLK0
      000000C8H.1 SFRSYM    DATA     BIT       TMR2CN0_T2XCLK1
      000000C8H.3 SFRSYM    DATA     BIT       SCON1_TBX
      000000E8H.7 SFRSYM    DATA     BIT       ADC0CN0_ADEN
      000000BEH   SFRSYM    DATA     BYTE      USB0CDCN
      00000089H   SFRSYM    DATA     BYTE      TMOD
      00000088H   SFRSYM    DATA     BYTE      TCON
      000000CFH   SFRSYM    DATA     BYTE      CRC0FLIP
      000000D0H   SFRSYM    DATA     BIT       PSW_PARITY
      000000A8H.4 SFRSYM    DATA     BIT       IE_ES0
      0000009FH   SFRSYM    DATA     BYTE      CMP0MX
      00000098H   SFRSYM    DATA     BIT       TMR4CN0_T4XCLK0
      000000A8H.1 SFRSYM    DATA     BIT       IE_ET0
      000000AAH   SFRSYM    DATA     BYTE      CMP1MX
      00000098H.1 SFRSYM    DATA     BIT       TMR4CN0_T4XCLK1
      000000A8H.3 SFRSYM    DATA     BIT       IE_ET1
      000000D4H   SFRSYM    DATA     BYTE      P0SKIP
      000000D8H   SFRSYM    DATA     BIT       UART1FCN1_RIE
      000000A8H.5 SFRSYM    DATA     BIT       IE_ET2
      000000D5H   SFRSYM    DATA     BYTE      P1SKIP
      000000CCH   SFRSYM    DATA     BYTE      P2SKIP
      000000E8H   SFRSYM    DATA     BYTE      ADC0CN0
      000000D8H.4 SFRSYM    DATA     BIT       UART1FCN1_TIE
      000000A8H   SFRSYM    DATA     BIT       IE_EX0
      000000B2H   SFRSYM    DATA     BYTE      ADC0CN1
      000000D8H.6 SFRSYM    DATA     BIT       PCA0CN0_CR
      000000A8H.2 SFRSYM    DATA     BIT       IE_EX1
      000000C8H.7 SFRSYM    DATA     BIT       SCON1_OVR
      00000098H.7 SFRSYM    DATA     BIT       SCON0_SMODE
      000000B5H   SFRSYM    DATA     BYTE      DEVICEID
      000000A9H   SFRSYM    DATA     BYTE      CLKSEL
      000000F8H   SFRSYM    DATA     BIT       SPI0CN0_SPIEN
      000000F0H   SFRSYM    DATA     BYTE      B
      000000BEH   SFRSYM    DATA     BYTE      ADC0H
      000000E8H.6 SFRSYM    DATA     BIT       ADC0CN0_ADBMEN
      000000CAH   SFRSYM    DATA     WORD      TMR2RL
      000000BDH   SFRSYM    DATA     BYTE      ADC0L
      00000092H   SFRSYM    DATA     WORD      TMR3RL
      000000A2H   SFRSYM    DATA     WORD      TMR4RL
      000000D8H   SFRSYM    DATA     BYTE      PCA0CN0
      000000E0H   SFRSYM    DATA     BYTE      ACC
      000000FBH   SFRSYM    DATA     WORD      PCA0CP0
      000000E9H   SFRSYM    DATA     WORD      PCA0CP1
      000000EBH   SFRSYM    DATA     WORD      PCA0CP2
      000000BCH   SFRSYM    DATA     BYTE      I2C0DIN
      000000CEH   SFRSYM    DATA     BYTE      CRC0CN0
      0000008CH   SFRSYM    DATA     BYTE      TH0
      00000086H   SFRSYM    DATA     BYTE      CRC0CN1
      000000B8H.4 SFRSYM    DATA     BIT       IP_PS0
      000000FAH   SFRSYM    DATA     BYTE      UART1FCT
      0000008DH   SFRSYM    DATA     BYTE      TH1
      000000FAH   SFRSYM    DATA     BYTE      PCA0H
      000000F5H   SFRSYM    DATA     BYTE      I2C0FCT
      000000B8H.1 SFRSYM    DATA     BIT       IP_PT0
      000000B8H.3 SFRSYM    DATA     BIT       IP_PT1
      000000C0H.2 SFRSYM    DATA     BIT       SMB0CN0_ARBLOST
      000000B8H.5 SFRSYM    DATA     BIT       IP_PT2
LX51 LINKER/LOCATER V4.66.30.0                                                        01/21/2016  23:03:23  PAGE 92


      0000008AH   SFRSYM    DATA     BYTE      TL0
      000000D0H.5 SFRSYM    DATA     BIT       PSW_F0
      000000A8H.6 SFRSYM    DATA     BIT       IE_ESPI0
      0000008BH   SFRSYM    DATA     BYTE      TL1
      000000F9H   SFRSYM    DATA     BYTE      PCA0L
      000000C0H   SFRSYM    DATA     BIT       SMB0CN0_SI
      000000D0H.1 SFRSYM    DATA     BIT       PSW_F1
      00000080H   SFRSYM    DATA     BIT       P0_B0
      000000B8H   SFRSYM    DATA     BIT       IP_PX0
      00000090H   SFRSYM    DATA     BIT       P1_B0
      00000080H.1 SFRSYM    DATA     BIT       P0_B1
      000000B8H.2 SFRSYM    DATA     BIT       IP_PX1
      0000009EH   SFRSYM    DATA     BYTE      UART1LIN
      0000009BH   SFRSYM    DATA     BYTE      CMP0CN0
      00000088H.1 SFRSYM    DATA     BIT       TCON_IE0
      000000A0H   SFRSYM    DATA     BIT       P2_B0
      00000090H.1 SFRSYM    DATA     BIT       P1_B1
      00000080H.2 SFRSYM    DATA     BIT       P0_B2
      000000BFH   SFRSYM    DATA     BYTE      CMP1CN0
      00000099H   SFRSYM    DATA     BYTE      CMP0CN1
      00000088H.3 SFRSYM    DATA     BIT       TCON_IE1
      000000B0H   SFRSYM    DATA     BIT       P3_B0
      000000A0H.1 SFRSYM    DATA     BIT       P2_B1
      00000090H.2 SFRSYM    DATA     BIT       P1_B2
      00000080H.3 SFRSYM    DATA     BIT       P0_B3
      000000C0H   SFRSYM    DATA     BYTE      SMB0CN0
      000000ACH   SFRSYM    DATA     BYTE      CMP1CN1
      000000B0H.1 SFRSYM    DATA     BIT       P3_B1
      000000A0H.2 SFRSYM    DATA     BIT       P2_B2
      00000090H.3 SFRSYM    DATA     BIT       P1_B3
      00000080H.4 SFRSYM    DATA     BIT       P0_B4
      000000A0H.3 SFRSYM    DATA     BIT       P2_B3
      00000090H.4 SFRSYM    DATA     BIT       P1_B4
      00000080H.5 SFRSYM    DATA     BIT       P0_B5
      000000D8H.1 SFRSYM    DATA     BIT       UART1FCN1_RXTO0
      00000090H.5 SFRSYM    DATA     BIT       P1_B5
      00000080H.6 SFRSYM    DATA     BIT       P0_B6
      000000F5H   SFRSYM    DATA     BYTE      EIP1H
      000000D8H.2 SFRSYM    DATA     BIT       UART1FCN1_RXTO1
      00000090H.6 SFRSYM    DATA     BIT       P1_B6
      00000080H.7 SFRSYM    DATA     BIT       P0_B7
      000000C5H   SFRSYM    DATA     BYTE      SMB0RXLN
      000000F6H   SFRSYM    DATA     BYTE      EIP2H
      00000090H.7 SFRSYM    DATA     BIT       P1_B7
      00000083H   SFRSYM    DATA     BYTE      DPH
      000000C4H   SFRSYM    DATA     BYTE      ADC0GTH
      000000C8H.7 SFRSYM    DATA     BIT       TMR2CN0_TF2H
      000000C8H.3 SFRSYM    DATA     BIT       TMR2CN0_T2SPLIT
      000000D0H.6 SFRSYM    DATA     BIT       PSW_AC
      000000F8H   SFRSYM    DATA     BYTE      SPI0CN0
      000000C7H   SFRSYM    DATA     BYTE      HFO0CAL
      00000088H.5 SFRSYM    DATA     BIT       TCON_TF0
      00000098H   SFRSYM    DATA     BIT       SCON0_RI
      000000D6H   SFRSYM    DATA     BYTE      HFO1CAL
      00000082H   SFRSYM    DATA     BYTE      DPL
      00000088H.7 SFRSYM    DATA     BIT       TCON_TF1
      000000C8H   SFRSYM    DATA     BIT       SCON1_RI
      00000099H   SFRSYM    DATA     BYTE      SBUF0
      00000087H   SFRSYM    DATA     BYTE      PCON0
      000000F2H   SFRSYM    DATA     BYTE      IPH
      000000C3H   SFRSYM    DATA     BYTE      ADC0GTL
      00000098H.7 SFRSYM    DATA     BIT       TMR4CN0_TF4H
LX51 LINKER/LOCATER V4.66.30.0                                                        01/21/2016  23:03:23  PAGE 93


      00000098H.3 SFRSYM    DATA     BIT       TMR4CN0_T4SPLIT
      000000C8H.6 SFRSYM    DATA     BIT       TMR2CN0_TF2L
      00000098H.1 SFRSYM    DATA     BIT       SCON0_TI
      000000E8H   SFRSYM    DATA     BIT       ADC0CN0_ADCM0
      00000092H   SFRSYM    DATA     BYTE      SBUF1
      0000009AH   SFRSYM    DATA     BYTE      PCON1
      000000C6H   SFRSYM    DATA     BYTE      ADC0LTH
      00000088H   SFRSYM    DATA     BIT       TCON_IT0
      000000C8H.1 SFRSYM    DATA     BIT       SCON1_TI
      000000E8H.1 SFRSYM    DATA     BIT       ADC0CN0_ADCM1
      000000EFH   SFRSYM    DATA     BYTE      RSTSRC
      000000FDH   SFRSYM    DATA     BYTE      P0MAT
      000000DEH   SFRSYM    DATA     BYTE      CRC0DAT
      00000088H.2 SFRSYM    DATA     BIT       TCON_IT1
      000000E8H.2 SFRSYM    DATA     BIT       ADC0CN0_ADCM2
      000000D7H   SFRSYM    DATA     BYTE      SFRSTACK
      00000098H   SFRSYM    DATA     BYTE      SCON0
      000000F6H   SFRSYM    DATA     BYTE      PRTDRV
      000000EDH   SFRSYM    DATA     BYTE      P1MAT
      000000E8H.3 SFRSYM    DATA     BIT       ADC0CN0_ADWINT
      00000095H   SFRSYM    DATA     WORD      SBRL1
      000000B2H   SFRSYM    DATA     BYTE      USB0AEC
      00000093H   SFRSYM    DATA     BYTE      SMOD1
      000000C8H   SFRSYM    DATA     BYTE      SCON1
      000000FBH   SFRSYM    DATA     BYTE      P2MAT
      00000098H.6 SFRSYM    DATA     BIT       TMR4CN0_TF4L
      000000E8H.4 SFRSYM    DATA     BIT       ADC0CN0_ADBUSY
      000000D6H   SFRSYM    DATA     BYTE      SMB0ADM
      000000C5H   SFRSYM    DATA     BYTE      ADC0LTL
      000000F8H.5 SFRSYM    DATA     BIT       SPI0CN0_MODF
      000000B8H.6 SFRSYM    DATA     BIT       IP_PSPI0
      0000009CH   SFRSYM    DATA     BYTE      PCA0CLR
      000000C8H   SFRSYM    DATA     BYTE      TMR2CN0
      00000091H   SFRSYM    DATA     BYTE      TMR3CN0
      000000FDH   SFRSYM    DATA     BYTE      TMR2CN1
      00000098H   SFRSYM    DATA     BYTE      TMR4CN0
      000000FEH   SFRSYM    DATA     BYTE      TMR3CN1
      000000FFH   SFRSYM    DATA     BYTE      TMR4CN1
      000000D7H   SFRSYM    DATA     BYTE      SMB0ADR
      00000088H.4 SFRSYM    DATA     BIT       TCON_TR0
      000000C8H.4 SFRSYM    DATA     BIT       TMR2CN0_TF2CEN
      00000088H.6 SFRSYM    DATA     BIT       TCON_TR1
      000000C2H   SFRSYM    DATA     BYTE      SMB0DAT
      000000CDH   SFRSYM    DATA     BYTE      TMR2H
      000000A1H   SFRSYM    DATA     BYTE      SPI0CFG
      00000095H   SFRSYM    DATA     BYTE      TMR3H
      000000EFH   SFRSYM    DATA     BYTE      HFOCN
      000000D3H   SFRSYM    DATA     BYTE      CRC0CNT
      000000A5H   SFRSYM    DATA     BYTE      TMR4H
      00000098H.4 SFRSYM    DATA     BIT       TMR4CN0_TF4CEN
      000000EFH   SFRSYM    DATA     BYTE      SMB0FCT
      00000096H   SFRSYM    DATA     BYTE      PCA0POL
      000000CCH   SFRSYM    DATA     BYTE      TMR2L
      000000F8H.7 SFRSYM    DATA     BIT       SPI0CN0_SPIF
      000000AEH   SFRSYM    DATA     BYTE      USB0ADR
      00000094H   SFRSYM    DATA     BYTE      TMR3L
      000000DFH   SFRSYM    DATA     BYTE      ADC0PWR
      000000A8H.7 SFRSYM    DATA     BIT       IE_EA
      000000A4H   SFRSYM    DATA     BYTE      TMR4L
      000000AFH   SFRSYM    DATA     BYTE      USB0DAT
      000000C8H.5 SFRSYM    DATA     BIT       TMR2CN0_TF2LEN
      000000F8H.6 SFRSYM    DATA     BIT       SPI0CN0_WCOL
LX51 LINKER/LOCATER V4.66.30.0                                                        01/21/2016  23:03:23  PAGE 94


      000000F8H.2 SFRSYM    DATA     BIT       SPI0CN0_NSSMD0
      000000D0H.7 SFRSYM    DATA     BIT       PSW_CY
      0000009DH   SFRSYM    DATA     BYTE      UART1FCN0
      000000A3H   SFRSYM    DATA     BYTE      SPI0DAT
      000000ADH   SFRSYM    DATA     BYTE      I2C0FCN0
      000000F8H.3 SFRSYM    DATA     BIT       SPI0CN0_NSSMD1
      000000BDH   SFRSYM    DATA     WORD      ADC0
      000000D8H   SFRSYM    DATA     BYTE      UART1FCN1
      000000ABH   SFRSYM    DATA     BYTE      I2C0FCN1
      00000098H.5 SFRSYM    DATA     BIT       TMR4CN0_TF4LEN
      000000D0H   SFRSYM    DATA     BYTE      PSW
      000000F7H   SFRSYM    DATA     BYTE      PCA0PWM
      000000F7H   SFRSYM    DATA     BYTE      SPI0FCT
      000000B6H   SFRSYM    DATA     BYTE      REVID
      000000B7H   SFRSYM    DATA     BYTE      FLKEY
      000000B3H   SFRSYM    DATA     BYTE      ADC0AC
      01000003H   SYMBOL    CODE     ---       USB_ReadFIFOSetup
      01000C2BH   SYMBOL    CODE     ---       handleUsbEp0Int
      010018D0H   SYMBOL    CODE     ---       handleUsbSuspendInt
      01001A05H   SYMBOL    CODE     ---       handleUsbResumeInt
      01001011H   SYMBOL    CODE     ---       handleUsbEp0Rx
      010007C3H   SYMBOL    CODE     ---       handleUsbEp0Tx
      010015B6H   SYMBOL    CODE     ---       handleUsbResetInt

      01000046H   BLOCK     CODE     ---       LVL=0
      ---         BLOCKEND  ---      ---       LVL=0

      01000A3AH   BLOCK     CODE     ---       LVL=0
      01000A57H   BLOCK     CODE     NEAR LAB  LVL=1
      00000039H   SYMBOL    DATA     BYTE      statusCommon
      0000003AH   SYMBOL    DATA     BYTE      statusIn
      0000003BH   SYMBOL    DATA     BYTE      statusOut
      0000003CH   SYMBOL    DATA     BYTE      indexSave
      ---         BLOCKEND  ---      ---       LVL=1
      01000A3AH   LINE      CODE     ---       #61
      01000A57H   LINE      CODE     ---       #70
      01000A5AH   LINE      CODE     ---       #74
      01000A5FH   LINE      CODE     ---       #75
      01000A64H   LINE      CODE     ---       #76
      01000A69H   LINE      CODE     ---       #86
      01000A6EH   LINE      CODE     ---       #89
      01000A73H   LINE      CODE     ---       #90
      01000A73H   LINE      CODE     ---       #92
      01000A79H   LINE      CODE     ---       #97
      01000A90H   LINE      CODE     ---       #99
      01000A90H   LINE      CODE     ---       #100
      01000A93H   LINE      CODE     ---       #101
      01000A93H   LINE      CODE     ---       #128
      01000A93H   LINE      CODE     ---       #130
      01000A98H   LINE      CODE     ---       #131
      01000A98H   LINE      CODE     ---       #132
      01000A9BH   LINE      CODE     ---       #136
      01000A9EH   LINE      CODE     ---       #137
      01000A9EH   LINE      CODE     ---       #138
      01000AA1H   LINE      CODE     ---       #139
      01000AA1H   LINE      CODE     ---       #141
      01000AA1H   LINE      CODE     ---       #143
      01000AA6H   LINE      CODE     ---       #144
      01000AA6H   LINE      CODE     ---       #145
      01000AA9H   LINE      CODE     ---       #146
      01000AA9H   LINE      CODE     ---       #148
      01000AAEH   LINE      CODE     ---       #149
LX51 LINKER/LOCATER V4.66.30.0                                                        01/21/2016  23:03:23  PAGE 95


      01000AAEH   LINE      CODE     ---       #150
      01000AB1H   LINE      CODE     ---       #151
      01000AB1H   LINE      CODE     ---       #175
      01000AB6H   LINE      CODE     ---       #176
      01000AB6H   LINE      CODE     ---       #177
      01000AB9H   LINE      CODE     ---       #178
      01000AB9H   LINE      CODE     ---       #196
      01000ABEH   LINE      CODE     ---       #197
      01000ABEH   LINE      CODE     ---       #198
      01000AC1H   LINE      CODE     ---       #199
      01000AC1H   LINE      CODE     ---       #202
      01000AC6H   LINE      CODE     ---       #206
      01000AC9H   LINE      CODE     ---       #208
      ---         BLOCKEND  ---      ---       LVL=0

      01000C2BH   BLOCK     CODE     ---       LVL=0
      01000C2BH   LINE      CODE     ---       #213
      01000C2BH   LINE      CODE     ---       #214
      01000C2BH   LINE      CODE     ---       #215
      01000C30H   LINE      CODE     ---       #217
      01000C3AH   LINE      CODE     ---       #218
      01000C3AH   LINE      CODE     ---       #219
      01000C45H   LINE      CODE     ---       #220
      01000C50H   LINE      CODE     ---       #221
      01000C54H   LINE      CODE     ---       #222
      01000C57H   LINE      CODE     ---       #223
      01000C57H   LINE      CODE     ---       #224
      01000C5CH   LINE      CODE     ---       #225
      01000C5CH   LINE      CODE     ---       #226
      01000C63H   LINE      CODE     ---       #227
      01000C63H   LINE      CODE     ---       #228
      01000C63H   LINE      CODE     ---       #229
      01000C65H   LINE      CODE     ---       #230
      01000C6CH   LINE      CODE     ---       #231
      01000C6CH   LINE      CODE     ---       #232
      01000C6FH   LINE      CODE     ---       #233
      01000C72H   LINE      CODE     ---       #237
      01000C7AH   LINE      CODE     ---       #238
      01000C7AH   LINE      CODE     ---       #240
      01000C84H   LINE      CODE     ---       #241
      01000C84H   LINE      CODE     ---       #242
      01000C87H   LINE      CODE     ---       #243
      01000C89H   LINE      CODE     ---       #245
      01000C89H   LINE      CODE     ---       #246
      01000C8CH   LINE      CODE     ---       #247
      01000C8CH   LINE      CODE     ---       #249
      01000C8EH   LINE      CODE     ---       #251
      01000C8EH   LINE      CODE     ---       #254
      01000CA2H   LINE      CODE     ---       #258
      01000CA2H   LINE      CODE     ---       #259
      01000CA8H   LINE      CODE     ---       #260
      01000CA8H   LINE      CODE     ---       #261
      01000CA8H   LINE      CODE     ---       #263
      01000CAAH   LINE      CODE     ---       #264
      01000CB0H   LINE      CODE     ---       #265
      01000CB0H   LINE      CODE     ---       #266
      01000CB3H   LINE      CODE     ---       #267
      01000CB5H   LINE      CODE     ---       #269
      01000CB5H   LINE      CODE     ---       #270
      01000CBBH   LINE      CODE     ---       #271
      01000CBBH   LINE      CODE     ---       #272
      01000CBBH   LINE      CODE     ---       #273
LX51 LINKER/LOCATER V4.66.30.0                                                        01/21/2016  23:03:23  PAGE 96


      01000CC6H   LINE      CODE     ---       #274
      01000CC6H   LINE      CODE     ---       #275
      01000CC9H   LINE      CODE     ---       #276
      01000CC9H   LINE      CODE     ---       #277
      ---         BLOCKEND  ---      ---       LVL=0

      01000003H   BLOCK     CODE     ---       LVL=0
      01000003H   BLOCK     CODE     NEAR LAB  LVL=1
      0000003DH   SYMBOL    DATA     ---       ptr
      ---         BLOCKEND  ---      ---       LVL=1
      01000003H   LINE      CODE     ---       #282
      01000003H   LINE      CODE     ---       #283
      01000003H   LINE      CODE     ---       #284
      01000006H   LINE      CODE     ---       #286
      01000013H   LINE      CODE     ---       #288
      0100001EH   LINE      CODE     ---       #291
      0100002AH   LINE      CODE     ---       #292
      01000036H   LINE      CODE     ---       #293
      01000042H   LINE      CODE     ---       #294
      ---         BLOCKEND  ---      ---       LVL=0

      010015B6H   BLOCK     CODE     ---       LVL=0
      010015B6H   LINE      CODE     ---       #301
      010015B6H   LINE      CODE     ---       #302
      010015B6H   LINE      CODE     ---       #304
      010015BAH   LINE      CODE     ---       #308
      010015BEH   LINE      CODE     ---       #332
      010015C9H   LINE      CODE     ---       #339
      010015D4H   LINE      CODE     ---       #340
      010015DFH   LINE      CODE     ---       #354
      010015E4H   LINE      CODE     ---       #359
      ---         BLOCKEND  ---      ---       LVL=0

      010018D0H   BLOCK     CODE     ---       LVL=0
      010018D0H   LINE      CODE     ---       #369
      010018D0H   LINE      CODE     ---       #370
      010018D0H   LINE      CODE     ---       #371
      010018D8H   LINE      CODE     ---       #372
      010018D8H   LINE      CODE     ---       #373
      010018DDH   LINE      CODE     ---       #376
      010018E0H   LINE      CODE     ---       #378
      010018E0H   LINE      CODE     ---       #379
      ---         BLOCKEND  ---      ---       LVL=0

      01001A05H   BLOCK     CODE     ---       LVL=0
      01001A05H   LINE      CODE     ---       #385
      01001A05H   LINE      CODE     ---       #386
      01001A05H   LINE      CODE     ---       #387
      ---         BLOCKEND  ---      ---       LVL=0

      010007C3H   BLOCK     CODE     ---       LVL=0
      010007C3H   BLOCK     CODE     NEAR LAB  LVL=1
      0000003DH   SYMBOL    DATA     BYTE      count
      0000003EH   SYMBOL    DATA     BYTE      count_snapshot
      0000003FH   SYMBOL    DATA     BYTE      i
      00000021H.1 SYMBOL    BIT      BIT       callback
      ---         BLOCKEND  ---      ---       LVL=1
      010007C3H   LINE      CODE     ---       #393
      010007C3H   LINE      CODE     ---       #394
      010007C3H   LINE      CODE     ---       #396
      010007C9H   LINE      CODE     ---       #400
      010007DEH   LINE      CODE     ---       #404
LX51 LINKER/LOCATER V4.66.30.0                                                        01/21/2016  23:03:23  PAGE 97


      010007E1H   LINE      CODE     ---       #410
      010007EBH   LINE      CODE     ---       #411
      010007EBH   LINE      CODE     ---       #416
      010007EFH   LINE      CODE     ---       #417
      010007EFH   LINE      CODE     ---       #418
      010007FCH   LINE      CODE     ---       #419
      01000801H   LINE      CODE     ---       #420
      01000805H   LINE      CODE     ---       #421
      0100080BH   LINE      CODE     ---       #422
      0100080BH   LINE      CODE     ---       #425
      01000819H   LINE      CODE     ---       #426
      01000819H   LINE      CODE     ---       #427
      0100081FH   LINE      CODE     ---       #428
      01000824H   LINE      CODE     ---       #429
      0100082DH   LINE      CODE     ---       #430
      01000831H   LINE      CODE     ---       #431
      01000831H   LINE      CODE     ---       #435
      01000831H   LINE      CODE     ---       #436
      0100083DH   LINE      CODE     ---       #437
      01000844H   LINE      CODE     ---       #438
      01000844H   LINE      CODE     ---       #440
      0100084AH   LINE      CODE     ---       #441
      0100085AH   LINE      CODE     ---       #447
      01000863H   LINE      CODE     ---       #448
      01000863H   LINE      CODE     ---       #449
      0100086EH   LINE      CODE     ---       #450
      01000872H   LINE      CODE     ---       #451
      01000876H   LINE      CODE     ---       #452
      01000879H   LINE      CODE     ---       #453
      0100087BH   LINE      CODE     ---       #455
      0100087BH   LINE      CODE     ---       #458
      01000886H   LINE      CODE     ---       #459
      01000886H   LINE      CODE     ---       #461
      01000889H   LINE      CODE     ---       #462
      01000889H   LINE      CODE     ---       #463
      01000894H   LINE      CODE     ---       #464
      01000894H   LINE      CODE     ---       #465
      ---         BLOCKEND  ---      ---       LVL=0

      01001011H   BLOCK     CODE     ---       LVL=0
      01001011H   BLOCK     CODE     NEAR LAB  LVL=1
      0000003DH   SYMBOL    DATA     BYTE      count
      0000003EH   SYMBOL    DATA     CHAR      status
      00000021H.1 SYMBOL    BIT      BIT       callback
      ---         BLOCKEND  ---      ---       LVL=1
      01001011H   LINE      CODE     ---       #470
      01001011H   LINE      CODE     ---       #471
      01001011H   LINE      CODE     ---       #474
      01001017H   LINE      CODE     ---       #477
      0100101CH   LINE      CODE     ---       #481
      01001027H   LINE      CODE     ---       #482
      01001027H   LINE      CODE     ---       #483
      0100102BH   LINE      CODE     ---       #484
      01001030H   LINE      CODE     ---       #485
      01001033H   LINE      CODE     ---       #486
      01001035H   LINE      CODE     ---       #488
      01001035H   LINE      CODE     ---       #489
      0100103FH   LINE      CODE     ---       #490
      0100104CH   LINE      CODE     ---       #491
      0100105AH   LINE      CODE     ---       #492
      0100105DH   LINE      CODE     ---       #498
      01001067H   LINE      CODE     ---       #499
LX51 LINKER/LOCATER V4.66.30.0                                                        01/21/2016  23:03:23  PAGE 98


      01001067H   LINE      CODE     ---       #500
      01001072H   LINE      CODE     ---       #501
      01001076H   LINE      CODE     ---       #502
      0100107BH   LINE      CODE     ---       #503
      0100107DH   LINE      CODE     ---       #505
      0100107DH   LINE      CODE     ---       #507
      01001088H   LINE      CODE     ---       #508
      01001088H   LINE      CODE     ---       #509
      01001088H   LINE      CODE     ---       #512
      0100108BH   LINE      CODE     ---       #513
      0100108BH   LINE      CODE     ---       #514
      01001097H   LINE      CODE     ---       #515
      01001097H   LINE      CODE     ---       #516
      ---         BLOCKEND  ---      ---       LVL=0

      0100185AH   BLOCK     CODE     ---       LVL=0
      0100185AH   LINE      CODE     ---       #522
      0100185AH   LINE      CODE     ---       #523
      0100185AH   LINE      CODE     ---       #524
      0100185FH   LINE      CODE     ---       #525
      01001863H   LINE      CODE     ---       #526
      0100186EH   LINE      CODE     ---       #527
      ---         BLOCKEND  ---      ---       LVL=0

      01001A20H   BLOCK     CODE     ---       LVL=0
      01001A20H   LINE      CODE     ---       #533
      ---         BLOCKEND  ---      ---       LVL=0

      ---         MODULE    ---      ---       ASSERT
      01001A1CH   PUBLIC    CODE     ---       _slab_Assert

      01001A1CH   BLOCK     CODE     ---       LVL=0
      00000000H   SYMBOL    DATA     ---       file
      00000004H   SYMBOL    DATA     INT       line
      01001A1CH   LINE      CODE     ---       #8
      01001A1CH   LINE      CODE     ---       #9
      01001A1CH   LINE      CODE     ---       #10
      01001A1CH   LINE      CODE     ---       #11
      01001A1CH   LINE      CODE     ---       #13
      ---         BLOCKEND  ---      ---       LVL=0

      ---         MODULE    ---      ---       ?C_INIT
      01000E31H   PUBLIC    CODE     ---       ?C_START

      ---         MODULE    ---      ---       ?C?CLDPTR
      0100058DH   PUBLIC    CODE     ---       ?C?CLDPTR

      ---         MODULE    ---      ---       ?C?CLDOPTR
      010005A6H   PUBLIC    CODE     ---       ?C?CLDOPTR

      ---         MODULE    ---      ---       ?C?ILDOPTR
      010005D3H   PUBLIC    CODE     ---       ?C?ILDOPTR

      ---         MODULE    ---      ---       ?C?PLDPTR
      0100060BH   PUBLIC    CODE     ---       ?C?PLDPTR

      ---         MODULE    ---      ---       ?C?PLDOPTR
      0100062BH   PUBLIC    CODE     ---       ?C?PLDOPTR

      ---         MODULE    ---      ---       PRINTF
      00000046H   PUBLIC    DATA     ---       ?_PRINTF517?BYTE
      00000046H   PUBLIC    DATA     ---       ?_PRINTF?BYTE
LX51 LINKER/LOCATER V4.66.30.0                                                        01/21/2016  23:03:23  PAGE 99


      00000046H   PUBLIC    DATA     ---       ?_SPRINTF517?BYTE
      00000046H   PUBLIC    DATA     ---       ?_SPRINTF?BYTE
      010000E0H   PUBLIC    CODE     ---       _PRINTF
      010000E0H   PUBLIC    CODE     ---       _PRINTF517
      010000DAH   PUBLIC    CODE     ---       _SPRINTF
      010000DAH   PUBLIC    CODE     ---       _SPRINTF517

      ---         MODULE    ---      ---       ?C?CSTPTR
      0100065BH   PUBLIC    CODE     ---       ?C?CSTPTR

      ---         MODULE    ---      ---       ?C?PLDIDATA
      0100066DH   PUBLIC    CODE     ---       ?C?PLDIDATA

      ---         MODULE    ---      ---       ?C?PLDIIDATA
      01000676H   PUBLIC    CODE     ---       ?C?PLDIIDATA

      ---         MODULE    ---      ---       ?C?PLDXDATA
      01000686H   PUBLIC    CODE     ---       ?C?PLDXDATA

      ---         MODULE    ---      ---       ?C?PLDPDATA
      0100068FH   PUBLIC    CODE     ---       ?C?PLDPDATA

      ---         MODULE    ---      ---       ?C?PLDCODE
      01000698H   PUBLIC    CODE     ---       ?C?PLDCODE

      ---         MODULE    ---      ---       ?C?CCASE
      010006A4H   PUBLIC    CODE     ---       ?C?CCASE

      ---         MODULE    ---      ---       PUTCHAR
      01001669H   PUBLIC    CODE     ---       _PUTCHAR



*** WARNING L15: MULTIPLE CALL TO FUNCTION
    NAME:    PRINTF/PRINTF
    CALLER1: ?C_C51STARTUP
    CALLER2: USBIRQHANDLER/EFM8_USBDINT

Program Size: data=109.6 xdata=0 const=213 code=6689
LX51 RUN COMPLETE.  1 WARNING(S),  0 ERROR(S)
