LX51 LINKER/LOCATER V4.66.30.0                                                          01/24/2016  18:13:24  PAGE 1


LX51 LINKER/LOCATER V4.66.30.0, INVOKED BY:
Z:\HOME\PP\SIMPLICITYSTUDIO_V3\DEVELOPER\TOOLCHAINS\KEIL_8051\9.53\BIN\LX51.EXE ./src/InitDevice.OBJ, ./src/SILABS_START
>> UP.OBJ, ./src/bsp.OBJ, ./src/callback.OBJ, ./src/callback.old.OBJ, ./src/descriptors.OBJ, ./src/descriptors.old.OBJ, 
>> ./src/idle.OBJ, ./src/u2f-firmware_main.OBJ, ./lib/efm8ub1/peripheralDrivers/src/usb_0.OBJ, ./lib/efm8_usb/src/efm8_u
>> sbd.OBJ, ./lib/efm8_usb/src/efm8_usbdch9.OBJ, ./lib/efm8_usb/src/efm8_usbdep.OBJ, ./lib/efm8_usb/src/efm8_usbdint.OBJ
>> , ./lib/efm8_assert/assert.OBJ TO U2F-FIRMWARE.OMF.CRBUILD REMOVEUNUSED PRINT (.\u2f-firmware.m51) PAGEWIDTH (120) PA
>> GELENGTH (65) CLASSES (CODE (C:0X0-C:0X3FFE), CONST (C:0X0-C:0X3FFE), ECODE (C:0X0-C:0X3FFE), HCONST (C:0X0-C:0X3FFE)
>> , XDATA (X:0X0-X:0X3FF), HDATA (X:0X0-X:0X3FF))


CPU MODE:     8051 MODE
MEMORY MODEL: SMALL


INPUT MODULES INCLUDED:
  ./src/InitDevice.OBJ (INITDEVICE)
         COMMENT TYPE 0: C51 V9.53.0.0
  ./src/SILABS_STARTUP.OBJ (?C_STARTUP)
         COMMENT TYPE 0: AX51 V3.12.0.0
  ./src/bsp.OBJ (BSP)
         COMMENT TYPE 0: C51 V9.53.0.0
  ./src/callback.OBJ (CALLBACK)
         COMMENT TYPE 0: C51 V9.53.0.0
  ./src/callback.old.OBJ (CALLBACK_OLD)
         COMMENT TYPE 0: C51 V9.53.0.0
  ./src/descriptors.OBJ (DESCRIPTORS)
         COMMENT TYPE 0: C51 V9.53.0.0
  ./src/descriptors.old.OBJ (DESCRIPTORS_OLD)
         COMMENT TYPE 0: C51 V9.53.0.0
  ./src/idle.OBJ (IDLE)
         COMMENT TYPE 0: C51 V9.53.0.0
  ./src/u2f-firmware_main.OBJ (U2F_FIRMWARE_MAIN)
         COMMENT TYPE 0: C51 V9.53.0.0
  ./lib/efm8ub1/peripheralDrivers/src/usb_0.OBJ (USB_0)
         COMMENT TYPE 0: C51 V9.53.0.0
  ./lib/efm8_usb/src/efm8_usbd.OBJ (EFM8_USBD)
         COMMENT TYPE 0: C51 V9.53.0.0
  ./lib/efm8_usb/src/efm8_usbdch9.OBJ (EFM8_USBDCH9)
         COMMENT TYPE 0: C51 V9.53.0.0
  ./lib/efm8_usb/src/efm8_usbdep.OBJ (EFM8_USBDEP)
         COMMENT TYPE 0: C51 V9.53.0.0
  ./lib/efm8_usb/src/efm8_usbdint.OBJ (EFM8_USBDINT)
         COMMENT TYPE 0: C51 V9.53.0.0
  ./lib/efm8_assert/assert.OBJ (ASSERT)
         COMMENT TYPE 0: C51 V9.53.0.0
  /HOME/PP/SIMPLICITYSTUDIO_V3/DEVELOPER/TOOLCHAINS/KEIL_8051/9.53/LIB\C51S.LIB (?C_INIT)
         COMMENT TYPE 1: A51 / ASM51 Assembler
  /HOME/PP/SIMPLICITYSTUDIO_V3/DEVELOPER/TOOLCHAINS/KEIL_8051/9.53/LIB\C51S.LIB (?C?CLDPTR)
         COMMENT TYPE 1: A51 / ASM51 Assembler
  /HOME/PP/SIMPLICITYSTUDIO_V3/DEVELOPER/TOOLCHAINS/KEIL_8051/9.53/LIB\C51S.LIB (?C?CLDOPTR)
         COMMENT TYPE 1: A51 / ASM51 Assembler
  /HOME/PP/SIMPLICITYSTUDIO_V3/DEVELOPER/TOOLCHAINS/KEIL_8051/9.53/LIB\C51S.LIB (?C?ILDOPTR)
         COMMENT TYPE 1: A51 / ASM51 Assembler
  /HOME/PP/SIMPLICITYSTUDIO_V3/DEVELOPER/TOOLCHAINS/KEIL_8051/9.53/LIB\C51S.LIB (?C?PLDPTR)
         COMMENT TYPE 1: A51 / ASM51 Assembler
  /HOME/PP/SIMPLICITYSTUDIO_V3/DEVELOPER/TOOLCHAINS/KEIL_8051/9.53/LIB\C51S.LIB (?C?PLDOPTR)
         COMMENT TYPE 1: A51 / ASM51 Assembler
  /HOME/PP/SIMPLICITYSTUDIO_V3/DEVELOPER/TOOLCHAINS/KEIL_8051/9.53/LIB\C51S.LIB (PRINTF)
         COMMENT TYPE 1: A51 / ASM51 Assembler
  /HOME/PP/SIMPLICITYSTUDIO_V3/DEVELOPER/TOOLCHAINS/KEIL_8051/9.53/LIB\C51S.LIB (?C?CSTPTR)
         COMMENT TYPE 1: A51 / ASM51 Assembler
  /HOME/PP/SIMPLICITYSTUDIO_V3/DEVELOPER/TOOLCHAINS/KEIL_8051/9.53/LIB\C51S.LIB (?C?PLDIDATA)
         COMMENT TYPE 1: A51 / ASM51 Assembler
LX51 LINKER/LOCATER V4.66.30.0                                                        01/24/2016  18:13:24  PAGE 2


  /HOME/PP/SIMPLICITYSTUDIO_V3/DEVELOPER/TOOLCHAINS/KEIL_8051/9.53/LIB\C51S.LIB (?C?PLDIIDATA)
         COMMENT TYPE 1: A51 / ASM51 Assembler
  /HOME/PP/SIMPLICITYSTUDIO_V3/DEVELOPER/TOOLCHAINS/KEIL_8051/9.53/LIB\C51S.LIB (?C?PLDXDATA)
         COMMENT TYPE 1: A51 / ASM51 Assembler
  /HOME/PP/SIMPLICITYSTUDIO_V3/DEVELOPER/TOOLCHAINS/KEIL_8051/9.53/LIB\C51S.LIB (?C?PLDPDATA)
         COMMENT TYPE 1: A51 / ASM51 Assembler
  /HOME/PP/SIMPLICITYSTUDIO_V3/DEVELOPER/TOOLCHAINS/KEIL_8051/9.53/LIB\C51S.LIB (?C?PLDCODE)
         COMMENT TYPE 1: A51 / ASM51 Assembler
  /HOME/PP/SIMPLICITYSTUDIO_V3/DEVELOPER/TOOLCHAINS/KEIL_8051/9.53/LIB\C51S.LIB (?C?CCASE)
         COMMENT TYPE 1: A51 / ASM51 Assembler
  /HOME/PP/SIMPLICITYSTUDIO_V3/DEVELOPER/TOOLCHAINS/KEIL_8051/9.53/LIB\C51S.LIB (PUTCHAR)
         COMMENT TYPE 1: A51 / ASM51 Assembler


ACTIVE MEMORY CLASSES OF MODULE:  U2F-FIRMWARE.OMF.CRBUILD (INITDEVICE)

BASE        START       END         USED      MEMORY CLASS
==========================================================
C:000000H   C:000000H   C:003FFEH   001B9CH   CODE
C:000000H   C:000000H   C:003FFEH   0000BCH   CONST
C:000000H   C:000000H   C:003FFEH             ECODE
B00:0000H   C:000000H   C:003FFEH             HCONST
X:000000H   X:000000H   X:0003FFH   000040H   XDATA
X:000000H   X:000000H   X:0003FFH             HDATA
I:000000H   I:000000H   I:00007FH   00004AH   DATA
I:000000H   I:000000H   I:0000FFH   00002CH   IDATA
I:000020H.0 I:000020H.0 I:00002FH.7 000002H.5 BIT


MEMORY MAP OF MODULE:  U2F-FIRMWARE.OMF.CRBUILD (INITDEVICE)


START     STOP      LENGTH    ALIGN  RELOC    MEMORY CLASS   SEGMENT NAME
=========================================================================

* * * * * * * * * * *   D A T A   M E M O R Y   * * * * * * * * * * * * *
000000H   000007H   000008H   ---    AT..     DATA           "REG BANK 0"
000008H   00000AH   000003H   BYTE   UNIT     DATA           ?DT?IDLE
00000BH   00000CH   000002H   BYTE   UNIT     DATA           ?DT?EFM8_USBDCH9
00000DH   00000DH   000001H   BYTE   UNIT     DATA           ?DT?CALLBACK
00000EH   00000EH   000001H   BYTE   UNIT     DATA           ?DT?U2F_FIRMWARE_MAIN
00000FH.0 00001FH.7 000011H.0 ---    ---      **GAP**
000020H.0 000022H.2 000002H.3 BIT    UNIT     BIT            _BIT_GROUP_
000022H.3 000022H.4 000000H.2 BIT    UNIT     BIT            ?BI?U2F_FIRMWARE_MAIN
000022H.5 000022H   000000H.3 ---    ---      **GAP**
000023H   00005DH   00003BH   BYTE   UNIT     DATA           _DATA_GROUP_
00005EH   000088H   00002BH   BYTE   UNIT     IDATA          ?ID?EFM8_USBD
000089H   000089H   000001H   BYTE   UNIT     IDATA          ?STACK

* * * * * * * * * * *   C O D E   M E M O R Y   * * * * * * * * * * * * *
000000H   000002H   000003H   ---    OFFS..   CODE           ?CO?SILABS_STARTUP?3
000003H   000042H   000040H   BYTE   UNIT     CODE           ?PR?USB_READFIFOSETUP?EFM8_USBDINT
000043H   000045H   000003H   BYTE   OFFS..   CODE           ?U2F_FIRMWARE_MAIN?00043
000046H   00007AH   000035H   BYTE   UNIT     CODE           ?PR?HANDLEUSBRESETINT?EFM8_USBDINT
00007BH   00007DH   000003H   BYTE   OFFS..   CODE           ?EFM8_USBDINT?0007B
00007EH   0003D9H   00035CH   BYTE   UNIT     CODE           ?PR?PRINTF?PRINTF
0003DAH   000571H   000198H   BYTE   UNIT     CODE           ?PR?_USBD_SETUPCMDCB?CALLBACK
000572H   0006AEH   00013DH   BYTE   UNIT     CODE           ?C?LIB_CODE
0006AFH   0007C8H   00011AH   BYTE   UNIT     CODE           ?CO?CALLBACK
0007C9H   0008C1H   0000F9H   BYTE   UNIT     CODE           ?PR?GETDESCRIPTOR?EFM8_USBDCH9
0008C2H   00099DH   0000DCH   BYTE   UNIT     CODE           ?PR?HANDLEUSBEP0TX?EFM8_USBDINT
00099EH   000A5FH   0000C2H   BYTE   UNIT     CODE           ?PR?_USBD_WRITE?EFM8_USBD
LX51 LINKER/LOCATER V4.66.30.0                                                        01/24/2016  18:13:24  PAGE 3


000A60H   000B1FH   0000C0H   BYTE   UNIT     CODE           ?PR?USBIRQHANDLER?EFM8_USBDINT
000B20H   000BD7H   0000B8H   BYTE   UNIT     CODE           ?PR?HANDLEUSBOUT1INT?EFM8_USBDEP
000BD8H   000C84H   0000ADH   BYTE   UNIT     CODE           ?PR?GETSTATUS?EFM8_USBDCH9
000C85H   000D23H   00009FH   BYTE   UNIT     CODE           ?PR?CLEARFEATURE?EFM8_USBDCH9
000D24H   000DC2H   00009FH   BYTE   UNIT     CODE           ?PR?SETCONFIGURATION?EFM8_USBDCH9
000DC3H   000E61H   00009FH   BYTE   UNIT     CODE           ?PR?HANDLEUSBEP0INT?EFM8_USBDINT
000E62H   000EF3H   000092H   BYTE   UNIT     CODE           ?PR?_USBD_READ?EFM8_USBD
000EF4H   000F7FH   00008CH   BYTE   UNIT     CODE           ?C_C51STARTUP
000F80H   00100BH   00008CH   BYTE   UNIT     CODE           ?PR?HANDLEUSBIN1INT?EFM8_USBDEP
00100CH   001093H   000088H   BYTE   UNIT     CODE           ?PR?USBDCH9_SETUPCMD?EFM8_USBDCH9
001094H   00111AH   000087H   BYTE   UNIT     CODE           ?PR?_USB_ACTIVATEEP?USB_0
00111BH   0011A1H   000087H   BYTE   UNIT     CODE           ?PR?SETFEATURE?EFM8_USBDCH9
0011A2H   001228H   000087H   BYTE   UNIT     CODE           ?PR?HANDLEUSBEP0RX?EFM8_USBDINT
001229H   0012ADH   000085H   BYTE   UNIT     CODE           ?PR?_USBD_INIT?EFM8_USBD
0012AEH   001319H   00006CH   BYTE   UNIT     CODE           ?PR?_USBD_XFERCOMPLETECB?CALLBACK
00131AH   001383H   00006AH   BYTE   UNIT     CODE           ?PR?_USB_WRITEFIFO?EFM8_USBDEP
001384H   0013EBH   000068H   BYTE   UNIT     CODE           ?PR?_USBD_ABORTTRANSFER?EFM8_USBD
0013ECH   00144AH   00005FH   BYTE   UNIT     CODE           ?PR?SETADDRESS?EFM8_USBDCH9
00144BH   0014A7H   00005DH   BYTE   UNIT     CODE           ?PR?USBD_SUSPEND?EFM8_USBD
0014A8H   0014F7H   000050H   BYTE   UNIT     CODE           ?CO?U2F_FIRMWARE_MAIN
0014F8H   001543H   00004CH   BYTE   UNIT     CODE           ?PR?MAIN?U2F_FIRMWARE_MAIN
001544H   00158AH   000047H   BYTE   UNIT     CODE           ?PR?GETCONFIGURATION?EFM8_USBDCH9
00158BH   0015C8H   00003EH   BYTE   UNIT     CODE           ?PR?_USB_READFIFO?EFM8_USBDEP
0015C9H   001605H   00003DH   BYTE   UNIT     CODE           ?CO?EFM8_USBD
001606H   001640H   00003BH   BYTE   UNIT     CODE           ?PR?GETINTERFACE?EFM8_USBDCH9
001641H   001675H   000035H   BYTE   UNIT     CODE           ?PR?EFM8_USBDINT
001676H   0016A9H   000034H   BYTE   UNIT     CODE           ?PR?_USB_ABORTINEP?USB_0
0016AAH   0016DDH   000034H   BYTE   UNIT     CODE           ?PR?_USB_ABORTOUTEP?USB_0
0016DEH   001710H   000033H   BYTE   UNIT     CODE           ?PR?EFM8_USBD
001711H   001741H   000031H   BYTE   UNIT     CODE           ?PR?SETINTERFACE?EFM8_USBDCH9
001742H   001772H   000031H   BYTE   UNIT     CODE           ?PR?EFM8_USBDCH9
001773H   0017A2H   000030H   BYTE   UNIT     CODE           ?PR?_USBD_SETUSBSTATE?EFM8_USBD
0017A3H   0017CCH   00002AH   BYTE   UNIT     CODE           ?PR?CALLBACK
0017CDH   0017F4H   000028H   BYTE   UNIT     CODE           ?PR?ENTER_DEFAULTMODE_FROM_RESET?INITDEVICE
0017F5H   00181BH   000027H   BYTE   UNIT     CODE           ?PR?PUTCHAR?PUTCHAR
00181CH   001841H   000026H   BYTE   UNIT     CODE           ?PR?_DELAY?U2F_FIRMWARE_MAIN
001842H   001867H   000026H   BYTE   UNIT     CODE           ?PR?USBD_ABORTALLTRANSFERS?EFM8_USBD
001868H   00188CH   000025H   BYTE   UNIT     CODE           ?PR?EFM8_USBDEP
00188DH   0018AFH   000023H   BYTE   UNIT     CODE           ?PR?_USB_GETSHORTREGISTER?USB_0
0018B0H   0018D0H   000021H   BYTE   UNIT     CODE           ?PR?_USB_READFIFO_XDATA?EFM8_USBDEP
0018D1H   0018EFH   00001FH   BYTE   UNIT     CODE           ?PR?_USB_READFIFO_PDATA?EFM8_USBDEP
0018F0H   00190CH   00001DH   BYTE   UNIT     CODE           ?PR?USB_SUSPENDOSCILLATOR?USB_0
00190DH   001929H   00001DH   BYTE   UNIT     CODE           ?PR?_EP0_WRITE?EFM8_USBDCH9
00192AH   001946H   00001DH   BYTE   UNIT     CODE           ?PR?_USB_READFIFO_IDATA?EFM8_USBDEP
001947H   001961H   00001BH   BYTE   UNIT     CODE           ?PR?USBD_ACTIVATEALLEPS?EFM8_USBDCH9
001962H   00197BH   00001AH   BYTE   UNIT     CODE           ?PR?IDLETIMERSTART?IDLE
00197CH   001992H   000017H   BYTE   UNIT     CODE           ?PR?_USB_WRITEFIFO_CODE?EFM8_USBDEP
001993H   0019A8H   000016H   BYTE   UNIT     CODE           ?PR?_USB_WRITEFIFO_XDATA?EFM8_USBDEP
0019A9H   0019BDH   000015H   BYTE   UNIT     CODE           ?PR?PORTS_0_ENTER_DEFAULTMODE_FROM_RESET?INITDEVICE
0019BEH   0019D2H   000015H   BYTE   UNIT     CODE           ?PR?USBD_CONNECT?EFM8_USBD
0019D3H   0019E7H   000015H   BYTE   UNIT     CODE           ?PR?SENDEP0STALL?EFM8_USBDINT
0019E8H   0019FBH   000014H   BYTE   UNIT     CODE           ?PR?_USB_WRITEFIFO_IDATA?EFM8_USBDEP
0019FCH   001A0FH   000014H   BYTE   UNIT     CODE           ?PR?_USB_WRITEFIFO_PDATA?EFM8_USBDEP
001A10H   001A22H   000013H   BYTE   UNIT     CODE           ?PR?TIMER01_0_ENTER_DEFAULTMODE_FROM_RESET?INITDEVICE
001A23H   001A34H   000012H   BYTE   UNIT     CODE           ?PR?_IDLETIMERSET?IDLE
001A35H   001A45H   000011H   BYTE   UNIT     CODE           ?PR?HANDLEUSBSUSPENDINT?EFM8_USBDINT
001A46H   001A53H   00000EH   BYTE   UNIT     CODE           ?PR?CLOCK_0_ENTER_DEFAULTMODE_FROM_RESET?INITDEVICE
001A54H   001A60H   00000DH   BYTE   UNIT     CODE           ?PR?_USBD_DEVICESTATECHANGECB?CALLBACK
001A61H   001A6DH   00000DH   BYTE   UNIT     CODE           ?PR?USB_ISSUSPENDED?USB_0
001A6EH   001A7AH   00000DH   BYTE   UNIT     CODE           ?PR?USB_GETSETUPEND?USB_0
001A7BH   001A87H   00000DH   BYTE   UNIT     CODE           ?PR?USB_EP0SENTSTALL?USB_0
001A88H   001A94H   00000DH   BYTE   UNIT     CODE           ?PR?USB_EP0INPACKETREADY?USB_0
LX51 LINKER/LOCATER V4.66.30.0                                                        01/24/2016  18:13:24  PAGE 4


001A95H   001AA1H   00000DH   BYTE   UNIT     CODE           ?PR?USB_EPNINGETSENTSTALL?USB_0
001AA2H   001AAEH   00000DH   BYTE   UNIT     CODE           ?PR?USB_EPNOUTGETSENTSTALL?USB_0
001AAFH   001ABAH   00000CH   BYTE   UNIT     CODE           ?PR?USB_EP0OUTPACKETREADY?USB_0
001ABBH   001AC6H   00000CH   BYTE   UNIT     CODE           ?PR?USB_EPNGETOUTPACKETREADY?USB_0
001AC7H   001AD1H   00000BH   BYTE   UNIT     CODE           ?PR?USBD_ISSELFPOWEREDCB?CALLBACK
001AD2H   001ADCH   00000BH   BYTE   UNIT     CODE           ?PR?_USB_SETINDEX?USB_0
001ADDH   001AE7H   00000BH   BYTE   UNIT     CODE           ?PR?USB_GETCOMMONINTS?USB_0
001AE8H   001AF2H   00000BH   BYTE   UNIT     CODE           ?PR?USB_GETININTS?USB_0
001AF3H   001AFDH   00000BH   BYTE   UNIT     CODE           ?PR?USB_GETOUTINTS?USB_0
001AFEH   001B08H   00000BH   BYTE   UNIT     CODE           ?PR?USB_GETINDEX?USB_0
001B09H   001B13H   00000BH   BYTE   UNIT     CODE           ?PR?USB_EP0GETCOUNT?USB_0
001B14H   001B1DH   00000AH   BYTE   UNIT     CODE           ?PR?WDT_0_ENTER_DEFAULTMODE_FROM_RESET?INITDEVICE
001B1EH   001B27H   00000AH   BYTE   UNIT     CODE           ?PR?TIMER_SETUP_0_ENTER_DEFAULTMODE_FROM_RESET?INITDEVICE
001B28H   001B30H   000009H   BYTE   UNIT     CODE           ?PR?USBLIB_0_ENTER_DEFAULTMODE_FROM_RESET?INITDEVICE
001B31H   001B39H   000009H   BYTE   UNIT     CODE           ?PR?USBD_RESETCB?CALLBACK
001B3AH   001B41H   000008H   BYTE   UNIT     CODE           ?C_INITSEG
001B42H   001B49H   000008H   BYTE   UNIT     CODE           ?PR?USB_ISPREFETCHENABLED?USB_0
001B4AH   001B51H   000008H   BYTE   UNIT     CODE           ?PR?USB_ISREGULATORENABLED?USB_0
001B52H   001B58H   000007H   BYTE   UNIT     CODE           ?PR?VREG_0_ENTER_DEFAULTMODE_FROM_RESET?INITDEVICE
001B59H   001B5FH   000007H   BYTE   UNIT     CODE           ?PR?PBCFG_0_ENTER_DEFAULTMODE_FROM_RESET?INITDEVICE
001B60H   001B66H   000007H   BYTE   UNIT     CODE           ?PR?CIP51_0_ENTER_DEFAULTMODE_FROM_RESET?INITDEVICE
001B67H   001B6DH   000007H   BYTE   UNIT     CODE           ?PR?INTERRUPT_0_ENTER_DEFAULTMODE_FROM_RESET?INITDEVICE
001B6EH   001B74H   000007H   BYTE   UNIT     CODE           ?PR?USB_GETINTSENABLED?USB_0
001B75H   001B7BH   000007H   BYTE   UNIT     CODE           ?PR?HANDLEUSBRESUMEINT?EFM8_USBDINT
001B7CH   001B81H   000006H   BYTE   UNIT     CODE           ?PR?USB_EPOUTGETCOUNT?USB_0
001B82H   001B87H   000006H   BYTE   UNIT     CODE           ?PR?USB_GETSOFNUMBER?USB_0
001B88H   001B8CH   000005H   BYTE   UNIT     CODE           ?PR?_USBD_SOFCB?CALLBACK
001B8DH   001B90H   000004H   BYTE   UNIT     CODE           ?PR?UART_0_ENTER_DEFAULTMODE_FROM_RESET?INITDEVICE
001B91H   001B93H   000003H   BYTE   UNIT     CODE           ?PR?IDLEGETRATE?IDLE
001B94H   001B96H   000003H   BYTE   UNIT     CODE           ?PR?PMATCH_IRQHANDLER?U2F_FIRMWARE_MAIN
001B97H   001B98H   000002H   BYTE   UNIT     CODE           ?PR?_SLAB_ASSERT?ASSERT
001B99H   001B99H   000001H   BYTE   UNIT     CODE           ?PR?USBD_ENTERHANDLER?CALLBACK
001B9AH   001B9AH   000001H   BYTE   UNIT     CODE           ?PR?USBD_EXITHANDLER?CALLBACK
001B9BH   001B9BH   000001H   BYTE   UNIT     CODE           ?PR?FORCEMODULELOAD_USBINT?EFM8_USBDINT
001B9CH   001C55H   0000BAH   BYTE   UNIT     CONST          ?CO?DESCRIPTORS
001C56H   001C57H   000002H   BYTE   UNIT     CONST          ?CO?EFM8_USBDCH9

* * * * * * * * * * *  X D A T A   M E M O R Y  * * * * * * * * * * * * *
000000H   00003FH   000040H   BYTE   UNIT     XDATA          ?XD?CALLBACK

* * * * * * * * *   R E M O V E D     S E G M E N T S   * * * * * * * *
   *DEL*:           000007H   BYTE   UNIT     CODE           ?PR?ISIDLETIMERINDEFINITE?IDLE
   *DEL*:           00000DH   BYTE   UNIT     CODE           ?PR?ISIDLETIMEREXPIRED?IDLE
   *DEL*:           000014H   BYTE   UNIT     CODE           ?PR?IDLETIMERTICK?IDLE
   *DEL*:           00000BH   BYTE   UNIT     CODE           ?PR?USBD_DISCONNECT?EFM8_USBD
   *DEL*:           000026H   BYTE   UNIT     CODE           ?PR?_USBD_EPISBUSY?EFM8_USBD
   *DEL*:           000001H   BYTE   UNIT     DATA           ?DT?_USBD_EPISBUSY?EFM8_USBD
   *DEL*:           000005H   BYTE   UNIT     CODE           ?PR?USBD_GETUSBSTATE?EFM8_USBD
   *DEL*:           000067H   BYTE   UNIT     CODE           ?PR?_USBD_STALLEP?EFM8_USBD
   *DEL*:           000002H   BYTE   UNIT     DATA           ?DT?_USBD_STALLEP?EFM8_USBD
   *DEL*:           000000H.1 BIT    UNIT     BIT            ?BI?_USBD_STALLEP?EFM8_USBD
   *DEL*:           00000BH   BYTE   UNIT     CODE           ?PR?USBD_STOP?EFM8_USBD
   *DEL*:           000067H   BYTE   UNIT     CODE           ?PR?_USBD_UNSTALLEP?EFM8_USBD
   *DEL*:           000002H   BYTE   UNIT     DATA           ?DT?_USBD_UNSTALLEP?EFM8_USBD
   *DEL*:           000000H.1 BIT    UNIT     BIT            ?BI?_USBD_UNSTALLEP?EFM8_USBD



OVERLAY MAP OF MODULE:   U2F-FIRMWARE.OMF.CRBUILD (INITDEVICE)


FUNCTION/MODULE                                BIT_GROUP   DATA_GROUP 
LX51 LINKER/LOCATER V4.66.30.0                                                        01/24/2016  18:13:24  PAGE 5


--> CALLED FUNCTION/MODULE                    START  STOP  START  STOP
======================================================================
?C_C51STARTUP                                 ----- -----  ----- -----
  +--> MAIN/U2F_FIRMWARE_MAIN
  +--> ?C_INITSEG

MAIN/U2F_FIRMWARE_MAIN                        ----- -----  0023H 0024H
  +--> ENTER_DEFAULTMODE_FROM_RESET/INITDEVICE
  +--> ?CO?U2F_FIRMWARE_MAIN
  +--> PRINTF/PRINTF
  +--> _DELAY/U2F_FIRMWARE_MAIN
  +--> _USBD_READ/EFM8_USBD

ENTER_DEFAULTMODE_FROM_RESET/INITDEVICE       ----- -----  0025H 0025H
  +--> WDT_0_ENTER_DEFAULTMODE_FROM_RESET/INITDEVICE
  +--> VREG_0_ENTER_DEFAULTMODE_FROM_RESET/INITDEVICE
  +--> PORTS_0_ENTER_DEFAULTMODE_FROM_RESET/INITDEVICE
  +--> PBCFG_0_ENTER_DEFAULTMODE_FROM_RESET/INITDEVICE
  +--> CIP51_0_ENTER_DEFAULTMODE_FROM_RESET/INITDEVICE
  +--> CLOCK_0_ENTER_DEFAULTMODE_FROM_RESET/INITDEVICE
  +--> TIMER01_0_ENTER_DEFAULTMODE_FROM_RESET/INITDEVICE
  +--> TIMER_SETUP_0_ENTER_DEFAULTMODE_FROM_RESET/INITDEVICE
  +--> UART_0_ENTER_DEFAULTMODE_FROM_RESET/INITDEVICE
  +--> INTERRUPT_0_ENTER_DEFAULTMODE_FROM_RESET/INITDEVICE
  +--> USBLIB_0_ENTER_DEFAULTMODE_FROM_RESET/INITDEVICE

WDT_0_ENTER_DEFAULTMODE_FROM_RESET/INITD+     ----- -----  ----- -----
... EVICE

VREG_0_ENTER_DEFAULTMODE_FROM_RESET/INIT+     ----- -----  ----- -----
... DEVICE

PORTS_0_ENTER_DEFAULTMODE_FROM_RESET/INI+     ----- -----  ----- -----
... TDEVICE

PBCFG_0_ENTER_DEFAULTMODE_FROM_RESET/INI+     ----- -----  ----- -----
... TDEVICE

CIP51_0_ENTER_DEFAULTMODE_FROM_RESET/INI+     ----- -----  ----- -----
... TDEVICE

CLOCK_0_ENTER_DEFAULTMODE_FROM_RESET/INI+     ----- -----  ----- -----
... TDEVICE

TIMER01_0_ENTER_DEFAULTMODE_FROM_RESET/I+     ----- -----  ----- -----
... NITDEVICE

TIMER_SETUP_0_ENTER_DEFAULTMODE_FROM_RES+     ----- -----  ----- -----
... ET/INITDEVICE

UART_0_ENTER_DEFAULTMODE_FROM_RESET/INIT+     ----- -----  ----- -----
... DEVICE

INTERRUPT_0_ENTER_DEFAULTMODE_FROM_RESET+     ----- -----  ----- -----
... /INITDEVICE

USBLIB_0_ENTER_DEFAULTMODE_FROM_RESET/IN+     ----- -----  ----- -----
... ITDEVICE
  +--> ?CO?DESCRIPTORS
  +--> _USBD_INIT/EFM8_USBD

?CO?DESCRIPTORS                               ----- -----  ----- -----
LX51 LINKER/LOCATER V4.66.30.0                                                        01/24/2016  18:13:24  PAGE 6



_USBD_INIT/EFM8_USBD                          ----- -----  0026H 0029H
  +--> EFM8_USBD
  +--> FORCEMODULELOAD_USBINT/EFM8_USBDINT
  +--> USBD_CONNECT/EFM8_USBD

EFM8_USBD                                     ----- -----  ----- -----
  +--> ?CO?EFM8_USBD

?CO?EFM8_USBD                                 ----- -----  ----- -----

FORCEMODULELOAD_USBINT/EFM8_USBDINT           ----- -----  ----- -----

USBD_CONNECT/EFM8_USBD                        ----- -----  ----- -----

?CO?U2F_FIRMWARE_MAIN                         ----- -----  ----- -----

PRINTF/PRINTF                                 21H.2 22H.2  004AH 005DH
  +--> PUTCHAR/PUTCHAR

PUTCHAR/PUTCHAR                               ----- -----  ----- -----

_DELAY/U2F_FIRMWARE_MAIN                      ----- -----  ----- -----

_USBD_READ/EFM8_USBD                          21H.1 21H.2  0041H 0048H
  +--> EFM8_USBD
  +--> _SLAB_ASSERT/ASSERT
  +--> USB_GETINTSENABLED/USB_0

_SLAB_ASSERT/ASSERT                           ----- -----  ----- -----

USB_GETINTSENABLED/USB_0                      ----- -----  ----- -----

?C_INITSEG                                    ----- -----  ----- -----

*** NEW ROOT ********************************

PMATCH_IRQHANDLER/U2F_FIRMWARE_MAIN           ----- -----  ----- -----

*** NEW ROOT ********************************

USBIRQHANDLER/EFM8_USBDINT                    ----- -----  0039H 003CH
  +--> USBD_ENTERHANDLER/CALLBACK
  +--> USB_GETCOMMONINTS/USB_0
  +--> USB_GETININTS/USB_0
  +--> USB_GETOUTINTS/USB_0
  +--> USB_GETINDEX/USB_0
  +--> USB_GETSOFNUMBER/USB_0
  +--> _USBD_SOFCB/CALLBACK
  +--> HANDLEUSBRESETINT/EFM8_USBDINT
  +--> HANDLEUSBRESUMEINT/EFM8_USBDINT
  +--> HANDLEUSBSUSPENDINT/EFM8_USBDINT
  +--> HANDLEUSBIN1INT/EFM8_USBDEP
  +--> HANDLEUSBOUT1INT/EFM8_USBDEP
  +--> HANDLEUSBEP0INT/EFM8_USBDINT
  +--> _USB_SETINDEX/USB_0
  +--> USBD_EXITHANDLER/CALLBACK

USBD_ENTERHANDLER/CALLBACK                    ----- -----  ----- -----

USB_GETCOMMONINTS/USB_0                       ----- -----  ----- -----

LX51 LINKER/LOCATER V4.66.30.0                                                        01/24/2016  18:13:24  PAGE 7


USB_GETININTS/USB_0                           ----- -----  ----- -----

USB_GETOUTINTS/USB_0                          ----- -----  ----- -----

USB_GETINDEX/USB_0                            ----- -----  ----- -----

USB_GETSOFNUMBER/USB_0                        ----- -----  ----- -----
  +--> _USB_GETSHORTREGISTER/USB_0

_USB_GETSHORTREGISTER/USB_0                   ----- -----  ----- -----

_USBD_SOFCB/CALLBACK                          ----- -----  003DH 003EH

HANDLEUSBRESETINT/EFM8_USBDINT                ----- -----  ----- -----
  +--> _USBD_SETUSBSTATE/EFM8_USBD
  +--> USBD_RESETCB/CALLBACK

_USBD_SETUSBSTATE/EFM8_USBD                   ----- -----  003FH 0040H
  +--> USBD_ABORTALLTRANSFERS/EFM8_USBD
  +--> _USBD_DEVICESTATECHANGECB/CALLBACK

USBD_ABORTALLTRANSFERS/EFM8_USBD              21H.1 21H.1  0041H 0042H
  +--> USB_GETINTSENABLED/USB_0
  +--> EFM8_USBD
  +--> _USBD_ABORTTRANSFER/EFM8_USBD

_USBD_ABORTTRANSFER/EFM8_USBD                 21H.2 21H.2  0043H 0046H
  +--> EFM8_USBD
  +--> _SLAB_ASSERT/ASSERT
  +--> USB_GETINTSENABLED/USB_0
  +--> _USB_ABORTINEP/USB_0
  +--> _USB_ABORTOUTEP/USB_0

_USB_ABORTINEP/USB_0                          ----- -----  ----- -----
  +--> _USB_SETINDEX/USB_0

_USB_SETINDEX/USB_0                           ----- -----  ----- -----

_USB_ABORTOUTEP/USB_0                         ----- -----  ----- -----
  +--> _USB_SETINDEX/USB_0

_USBD_DEVICESTATECHANGECB/CALLBACK            ----- -----  0041H 0042H
  +--> ?CO?CALLBACK
  +--> PRINTF/PRINTF

?CO?CALLBACK                                  ----- -----  ----- -----

USBD_RESETCB/CALLBACK                         ----- -----  ----- -----
  +--> ?CO?CALLBACK
  +--> PRINTF/PRINTF

HANDLEUSBRESUMEINT/EFM8_USBDINT               ----- -----  ----- -----
  +--> _USBD_SETUSBSTATE/EFM8_USBD

HANDLEUSBSUSPENDINT/EFM8_USBDINT              ----- -----  ----- -----
  +--> _USBD_SETUSBSTATE/EFM8_USBD
  +--> USBD_SUSPEND/EFM8_USBD

USBD_SUSPEND/EFM8_USBD                        21H.1 21H.2  003DH 003DH
  +--> USB_ISSUSPENDED/USB_0
  +--> EFM8_USBD
  +--> USB_ISPREFETCHENABLED/USB_0
LX51 LINKER/LOCATER V4.66.30.0                                                        01/24/2016  18:13:24  PAGE 8


  +--> USB_ISREGULATORENABLED/USB_0
  +--> USB_SUSPENDOSCILLATOR/USB_0

USB_ISSUSPENDED/USB_0                         ----- -----  ----- -----

USB_ISPREFETCHENABLED/USB_0                   ----- -----  ----- -----

USB_ISREGULATORENABLED/USB_0                  ----- -----  ----- -----

USB_SUSPENDOSCILLATOR/USB_0                   ----- -----  ----- -----

HANDLEUSBIN1INT/EFM8_USBDEP                   21H.1 21H.1  003DH 003DH
  +--> _USB_SETINDEX/USB_0
  +--> USB_EPNINGETSENTSTALL/USB_0
  +--> EFM8_USBDEP
  +--> _USB_WRITEFIFO/EFM8_USBDEP
  +--> _USBD_XFERCOMPLETECB/CALLBACK

USB_EPNINGETSENTSTALL/USB_0                   ----- -----  ----- -----

EFM8_USBDEP                                   ----- -----  ----- -----

_USB_WRITEFIFO/EFM8_USBDEP                    21H.3 21H.3  0049H 004DH
  +--> _USB_WRITEFIFO_IDATA/EFM8_USBDEP
  +--> _USB_WRITEFIFO_XDATA/EFM8_USBDEP
  +--> _USB_WRITEFIFO_PDATA/EFM8_USBDEP
  +--> _USB_WRITEFIFO_CODE/EFM8_USBDEP
  +--> _USB_SETINDEX/USB_0

_USB_WRITEFIFO_IDATA/EFM8_USBDEP              ----- -----  ----- -----

_USB_WRITEFIFO_XDATA/EFM8_USBDEP              ----- -----  ----- -----

_USB_WRITEFIFO_PDATA/EFM8_USBDEP              ----- -----  ----- -----

_USB_WRITEFIFO_CODE/EFM8_USBDEP               ----- -----  ----- -----

_USBD_XFERCOMPLETECB/CALLBACK                 ----- -----  0040H 0049H
  +--> ?CO?CALLBACK
  +--> PRINTF/PRINTF

HANDLEUSBOUT1INT/EFM8_USBDEP                  21H.1 21H.1  003DH 003EH
  +--> _USB_SETINDEX/USB_0
  +--> USB_EPNOUTGETSENTSTALL/USB_0
  +--> USB_EPNGETOUTPACKETREADY/USB_0
  +--> USB_EPOUTGETCOUNT/USB_0
  +--> _USB_READFIFO/EFM8_USBDEP
  +--> EFM8_USBDEP
  +--> _USBD_XFERCOMPLETECB/CALLBACK

USB_EPNOUTGETSENTSTALL/USB_0                  ----- -----  ----- -----

USB_EPNGETOUTPACKETREADY/USB_0                ----- -----  ----- -----

USB_EPOUTGETCOUNT/USB_0                       ----- -----  ----- -----
  +--> _USB_GETSHORTREGISTER/USB_0

_USB_READFIFO/EFM8_USBDEP                     ----- -----  003FH 0043H
  +--> EFM8_USBDEP
  +--> _USB_READFIFO_IDATA/EFM8_USBDEP
  +--> _USB_READFIFO_XDATA/EFM8_USBDEP
  +--> _USB_READFIFO_PDATA/EFM8_USBDEP
LX51 LINKER/LOCATER V4.66.30.0                                                        01/24/2016  18:13:24  PAGE 9



_USB_READFIFO_IDATA/EFM8_USBDEP               ----- -----  ----- -----

_USB_READFIFO_XDATA/EFM8_USBDEP               ----- -----  ----- -----

_USB_READFIFO_PDATA/EFM8_USBDEP               ----- -----  ----- -----

HANDLEUSBEP0INT/EFM8_USBDINT                  ----- -----  ----- -----
  +--> _USB_SETINDEX/USB_0
  +--> USB_EP0SENTSTALL/USB_0
  +--> USB_GETSETUPEND/USB_0
  +--> USB_EP0OUTPACKETREADY/USB_0
  +--> USB_READFIFOSETUP/EFM8_USBDINT
  +--> _USBD_SETUPCMDCB/CALLBACK
  +--> USBDCH9_SETUPCMD/EFM8_USBDCH9
  +--> SENDEP0STALL/EFM8_USBDINT
  +--> HANDLEUSBEP0RX/EFM8_USBDINT
  +--> USB_EP0INPACKETREADY/USB_0
  +--> HANDLEUSBEP0TX/EFM8_USBDINT

USB_EP0SENTSTALL/USB_0                        ----- -----  ----- -----

USB_GETSETUPEND/USB_0                         ----- -----  ----- -----

USB_EP0OUTPACKETREADY/USB_0                   ----- -----  ----- -----

USB_READFIFOSETUP/EFM8_USBDINT                ----- -----  003DH 003DH
  +--> _USB_READFIFO/EFM8_USBDEP
  +--> EFM8_USBDINT

EFM8_USBDINT                                  ----- -----  ----- -----

_USBD_SETUPCMDCB/CALLBACK                     ----- -----  003DH 0040H
  +--> CALLBACK
  +--> ?CO?DESCRIPTORS
  +--> ?CO?CALLBACK
  +--> PRINTF/PRINTF
  +--> _USBD_READ/EFM8_USBD
  +--> _IDLETIMERSET/IDLE
  +--> IDLEGETRATE/IDLE
  +--> _USBD_WRITE/EFM8_USBD

CALLBACK                                      ----- -----  ----- -----

_IDLETIMERSET/IDLE                            ----- -----  ----- -----
  +--> IDLETIMERSTART/IDLE

IDLETIMERSTART/IDLE                           ----- -----  ----- -----

IDLEGETRATE/IDLE                              ----- -----  ----- -----

_USBD_WRITE/EFM8_USBD                         21H.1 21H.2  0041H 0048H
  +--> EFM8_USBD
  +--> _SLAB_ASSERT/ASSERT
  +--> USB_GETINTSENABLED/USB_0
  +--> _USB_WRITEFIFO/EFM8_USBDEP

USBDCH9_SETUPCMD/EFM8_USBDCH9                 ----- -----  003DH 003DH
  +--> GETSTATUS/EFM8_USBDCH9
  +--> CLEARFEATURE/EFM8_USBDCH9
  +--> SETFEATURE/EFM8_USBDCH9
  +--> SETADDRESS/EFM8_USBDCH9
LX51 LINKER/LOCATER V4.66.30.0                                                        01/24/2016  18:13:24  PAGE 10


  +--> GETDESCRIPTOR/EFM8_USBDCH9
  +--> GETCONFIGURATION/EFM8_USBDCH9
  +--> SETCONFIGURATION/EFM8_USBDCH9
  +--> GETINTERFACE/EFM8_USBDCH9
  +--> SETINTERFACE/EFM8_USBDCH9
  +--> _USB_SETINDEX/USB_0
  +--> SENDEP0STALL/EFM8_USBDINT

GETSTATUS/EFM8_USBDCH9                        ----- -----  003EH 003EH
  +--> EFM8_USBDCH9
  +--> USBD_ISSELFPOWEREDCB/CALLBACK
  +--> _EP0_WRITE/EFM8_USBDCH9

EFM8_USBDCH9                                  ----- -----  ----- -----

USBD_ISSELFPOWEREDCB/CALLBACK                 ----- -----  ----- -----
  +--> ?CO?CALLBACK
  +--> PRINTF/PRINTF

_EP0_WRITE/EFM8_USBDCH9                       ----- -----  ----- -----

CLEARFEATURE/EFM8_USBDCH9                     ----- -----  003EH 003EH
  +--> EFM8_USBDCH9
  +--> _USB_SETINDEX/USB_0

SETFEATURE/EFM8_USBDCH9                       ----- -----  003EH 003EH
  +--> EFM8_USBDCH9
  +--> _USB_SETINDEX/USB_0

SETADDRESS/EFM8_USBDCH9                       ----- -----  003EH 003EH
  +--> EFM8_USBDCH9
  +--> _USBD_SETUSBSTATE/EFM8_USBD

GETDESCRIPTOR/EFM8_USBDCH9                    ----- -----  003EH 0042H
  +--> EFM8_USBDCH9
  +--> _EP0_WRITE/EFM8_USBDCH9

GETCONFIGURATION/EFM8_USBDCH9                 ----- -----  ----- -----
  +--> ?CO?EFM8_USBDCH9
  +--> _EP0_WRITE/EFM8_USBDCH9

?CO?EFM8_USBDCH9                              ----- -----  ----- -----

SETCONFIGURATION/EFM8_USBDCH9                 ----- -----  003EH 003EH
  +--> EFM8_USBDCH9
  +--> USBD_ACTIVATEALLEPS/EFM8_USBDCH9
  +--> _USBD_SETUSBSTATE/EFM8_USBD
  +--> USBD_ABORTALLTRANSFERS/EFM8_USBD

USBD_ACTIVATEALLEPS/EFM8_USBDCH9              21H.1 21H.1  ----- -----
  +--> EFM8_USBDCH9
  +--> _USB_ACTIVATEEP/USB_0

_USB_ACTIVATEEP/USB_0                         21H.2 21H.4  ----- -----
  +--> _USB_SETINDEX/USB_0

GETINTERFACE/EFM8_USBDCH9                     ----- -----  ----- -----
  +--> EFM8_USBDCH9
  +--> ?CO?EFM8_USBDCH9
  +--> _EP0_WRITE/EFM8_USBDCH9

SETINTERFACE/EFM8_USBDCH9                     ----- -----  ----- -----
LX51 LINKER/LOCATER V4.66.30.0                                                        01/24/2016  18:13:24  PAGE 11


  +--> USBD_ACTIVATEALLEPS/EFM8_USBDCH9

SENDEP0STALL/EFM8_USBDINT                     ----- -----  ----- -----
  +--> _USB_SETINDEX/USB_0

HANDLEUSBEP0RX/EFM8_USBDINT                   21H.1 21H.1  003DH 003EH
  +--> USB_EP0GETCOUNT/USB_0
  +--> EFM8_USBDINT
  +--> _USB_READFIFO/EFM8_USBDEP
  +--> _USBD_XFERCOMPLETECB/CALLBACK

USB_EP0GETCOUNT/USB_0                         ----- -----  ----- -----

USB_EP0INPACKETREADY/USB_0                    ----- -----  ----- -----

HANDLEUSBEP0TX/EFM8_USBDINT                   21H.1 21H.1  003DH 003FH
  +--> EFM8_USBDINT
  +--> _USB_WRITEFIFO/EFM8_USBDEP
  +--> ?CO?EFM8_USBDCH9
  +--> _USBD_XFERCOMPLETECB/CALLBACK

USBD_EXITHANDLER/CALLBACK                     ----- -----  ----- -----



PUBLIC SYMBOLS OF MODULE:  U2F-FIRMWARE.OMF.CRBUILD (INITDEVICE)


      VALUE       CLASS    TYPE      PUBLIC SYMBOL NAME
      =================================================
      0000004AH   DATA     ---       ?_PRINTF517?BYTE
      0000004AH   DATA     ---       ?_PRINTF?BYTE
      0000004AH   DATA     ---       ?_SPRINTF517?BYTE
      0000004AH   DATA     ---       ?_SPRINTF?BYTE
      00000021H.2 BIT      BIT       ?_USB_ActivateEp?BIT
      00000021H.3 BIT      BIT       ?_USB_WriteFIFO?BIT
      00000021H.1 BIT      BIT       ?_USBD_Read?BIT
      00000041H   DATA     BYTE      ?_USBD_Read?BYTE
      00000021H.1 BIT      BIT       ?_USBD_Write?BIT
      00000041H   DATA     BYTE      ?_USBD_Write?BYTE
      00000040H   DATA     BYTE      ?_USBD_XferCompleteCb?BYTE
      01000689H   CODE     ---       ?C?CCASE
      0100058BH   CODE     ---       ?C?CLDOPTR
      01000572H   CODE     ---       ?C?CLDPTR
      00000000H   NUMBER   ---       ?C?CODESEG
      01000640H   CODE     ---       ?C?CSTPTR
      010005B8H   CODE     ---       ?C?ILDOPTR
      0100067DH   CODE     ---       ?C?PLDCODE
      01000652H   CODE     ---       ?C?PLDIDATA
      0100065BH   CODE     ---       ?C?PLDIIDATA
      01000610H   CODE     ---       ?C?PLDOPTR
      01000674H   CODE     ---       ?C?PLDPDATA
      010005F0H   CODE     ---       ?C?PLDPTR
      0100066BH   CODE     ---       ?C?PLDXDATA
      00000000H   NUMBER   ---       ?C?XDATASEG
      01000F3BH   CODE     ---       ?C_START
      01000000H   CODE     NEAR LAB  ?C_STARTUP
      0100181CH   CODE     ---       _Delay
      01001A23H   CODE     ---       _idleTimerSet
      010000E0H   CODE     ---       _PRINTF
      010000E0H   CODE     ---       _PRINTF517
      010017F5H   CODE     ---       _PUTCHAR
LX51 LINKER/LOCATER V4.66.30.0                                                        01/24/2016  18:13:24  PAGE 12


      01001B97H   CODE     ---       _slab_Assert
      010000DAH   CODE     ---       _SPRINTF
      010000DAH   CODE     ---       _SPRINTF517
      01001676H   CODE     ---       _USB_AbortInEp
      010016AAH   CODE     ---       _USB_AbortOutEp
      01001094H   CODE     ---       _USB_ActivateEp
      0100158BH   CODE     ---       _USB_ReadFIFO
      01001AD2H   CODE     ---       _USB_SetIndex
      0100131AH   CODE     ---       _USB_WriteFIFO
      01001384H   CODE     ---       _USBD_AbortTransfer
      01001A54H   CODE     ---       _USBD_DeviceStateChangeCb
*DEL*:00000000H   CODE     ---       _USBD_EpIsBusy
      01001229H   CODE     ---       _USBD_Init
      01000E62H   CODE     ---       _USBD_Read
      010003DAH   CODE     ---       _USBD_SetupCmdCb
      01001773H   CODE     ---       _USBD_SetUsbState
      01001B88H   CODE     ---       _USBD_SofCb
*DEL*:00000000H   CODE     ---       _USBD_StallEp
*DEL*:00000000H   CODE     ---       _USBD_UnStallEp
      0100099EH   CODE     ---       _USBD_Write
      010012AEH   CODE     ---       _USBD_XferCompleteCb
*SFR* 000000E0H   DATA     BYTE      ACC
*SFR* 000000E0H   DATA     BIT       ACC_ACC0
*SFR* 000000E0H.1 DATA     BIT       ACC_ACC1
*SFR* 000000E0H.2 DATA     BIT       ACC_ACC2
*SFR* 000000E0H.3 DATA     BIT       ACC_ACC3
*SFR* 000000E0H.4 DATA     BIT       ACC_ACC4
*SFR* 000000E0H.5 DATA     BIT       ACC_ACC5
*SFR* 000000E0H.6 DATA     BIT       ACC_ACC6
*SFR* 000000E0H.7 DATA     BIT       ACC_ACC7
*SFR* 000000BDH   DATA     WORD      ADC0
*SFR* 000000B3H   DATA     BYTE      ADC0AC
*SFR* 000000BCH   DATA     BYTE      ADC0CF
*SFR* 000000E8H   DATA     BYTE      ADC0CN0
*SFR* 000000E8H.6 DATA     BIT       ADC0CN0_ADBMEN
*SFR* 000000E8H.4 DATA     BIT       ADC0CN0_ADBUSY
*SFR* 000000E8H   DATA     BIT       ADC0CN0_ADCM0
*SFR* 000000E8H.1 DATA     BIT       ADC0CN0_ADCM1
*SFR* 000000E8H.2 DATA     BIT       ADC0CN0_ADCM2
*SFR* 000000E8H.7 DATA     BIT       ADC0CN0_ADEN
*SFR* 000000E8H.5 DATA     BIT       ADC0CN0_ADINT
*SFR* 000000E8H.3 DATA     BIT       ADC0CN0_ADWINT
*SFR* 000000B2H   DATA     BYTE      ADC0CN1
*SFR* 000000C3H   DATA     WORD      ADC0GT
*SFR* 000000C4H   DATA     BYTE      ADC0GTH
*SFR* 000000C3H   DATA     BYTE      ADC0GTL
*SFR* 000000BEH   DATA     BYTE      ADC0H
*SFR* 000000BDH   DATA     BYTE      ADC0L
*SFR* 000000C5H   DATA     WORD      ADC0LT
*SFR* 000000C6H   DATA     BYTE      ADC0LTH
*SFR* 000000C5H   DATA     BYTE      ADC0LTL
*SFR* 000000BBH   DATA     BYTE      ADC0MX
*SFR* 000000DFH   DATA     BYTE      ADC0PWR
*SFR* 000000B9H   DATA     BYTE      ADC0TK
*SFR* 000000F0H   DATA     BYTE      B
*SFR* 000000F0H   DATA     BIT       B_B0
*SFR* 000000F0H.1 DATA     BIT       B_B1
*SFR* 000000F0H.2 DATA     BIT       B_B2
*SFR* 000000F0H.3 DATA     BIT       B_B3
*SFR* 000000F0H.4 DATA     BIT       B_B4
*SFR* 000000F0H.5 DATA     BIT       B_B5
*SFR* 000000F0H.6 DATA     BIT       B_B6
LX51 LINKER/LOCATER V4.66.30.0                                                        01/24/2016  18:13:24  PAGE 13


*SFR* 000000F0H.7 DATA     BIT       B_B7
      01001B60H   CODE     ---       CIP51_0_enter_DefaultMode_from_RESET
*SFR* 0000008EH   DATA     BYTE      CKCON0
*SFR* 000000A6H   DATA     BYTE      CKCON1
*SFR* 000000A9H   DATA     BYTE      CLKSEL
      01001A46H   CODE     ---       CLOCK_0_enter_DefaultMode_from_RESET
*SFR* 0000009BH   DATA     BYTE      CMP0CN0
*SFR* 00000099H   DATA     BYTE      CMP0CN1
*SFR* 0000009DH   DATA     BYTE      CMP0MD
*SFR* 0000009FH   DATA     BYTE      CMP0MX
*SFR* 000000BFH   DATA     BYTE      CMP1CN0
*SFR* 000000ACH   DATA     BYTE      CMP1CN1
*SFR* 000000ABH   DATA     BYTE      CMP1MD
*SFR* 000000AAH   DATA     BYTE      CMP1MX
      01001BD0H   CONST    ---       configDesc
*SFR* 000000CEH   DATA     BYTE      CRC0CN0
*SFR* 00000086H   DATA     BYTE      CRC0CN1
*SFR* 000000D3H   DATA     BYTE      CRC0CNT
*SFR* 000000DEH   DATA     BYTE      CRC0DAT
*SFR* 000000CFH   DATA     BYTE      CRC0FLIP
*SFR* 000000DDH   DATA     BYTE      CRC0IN
*SFR* 000000D2H   DATA     BYTE      CRC0ST
*SFR* 000000ADH   DATA     BYTE      DERIVID
      01001BBEH   CONST    ---       deviceDesc
*SFR* 000000B5H   DATA     BYTE      DEVICEID
*SFR* 00000082H   DATA     WORD      DP
*SFR* 00000083H   DATA     BYTE      DPH
*SFR* 00000082H   DATA     BYTE      DPL
*SFR* 000000E6H   DATA     BYTE      EIE1
*SFR* 000000CEH   DATA     BYTE      EIE2
*SFR* 000000F3H   DATA     BYTE      EIP1
*SFR* 000000F5H   DATA     BYTE      EIP1H
*SFR* 000000F4H   DATA     BYTE      EIP2
*SFR* 000000F6H   DATA     BYTE      EIP2H
*SFR* 000000E7H   DATA     BYTE      EMI0CN
      010017CDH   CODE     ---       enter_DefaultMode_from_RESET
*SFR* 000000B7H   DATA     BYTE      FLKEY
      01001B9BH   CODE     ---       forceModuleLoad_usbint
      010011A2H   CODE     ---       handleUsbEp0Rx
      01000F80H   CODE     ---       handleUsbIn1Int
      01000B20H   CODE     ---       handleUsbOut1Int
*SFR* 000000C7H   DATA     BYTE      HFO0CAL
*SFR* 000000D6H   DATA     BYTE      HFO1CAL
*SFR* 000000EFH   DATA     BYTE      HFOCN
*SFR* 000000BAH   DATA     BYTE      I2C0CN0
*SFR* 000000BCH   DATA     BYTE      I2C0DIN
*SFR* 000000BBH   DATA     BYTE      I2C0DOUT
*SFR* 000000ADH   DATA     BYTE      I2C0FCN0
*SFR* 000000ABH   DATA     BYTE      I2C0FCN1
*SFR* 000000F5H   DATA     BYTE      I2C0FCT
*SFR* 000000BDH   DATA     BYTE      I2C0SLAD
*SFR* 000000B9H   DATA     BYTE      I2C0STAT
      01001B91H   CODE     ---       idleGetRate
      01001962H   CODE     ---       idleTimerStart
*DEL*:00000000H   CODE     ---       idleTimerTick
*SFR* 000000A8H   DATA     BYTE      IE
*SFR* 000000A8H.7 DATA     BIT       IE_EA
*SFR* 000000A8H.4 DATA     BIT       IE_ES0
*SFR* 000000A8H.6 DATA     BIT       IE_ESPI0
*SFR* 000000A8H.1 DATA     BIT       IE_ET0
*SFR* 000000A8H.3 DATA     BIT       IE_ET1
*SFR* 000000A8H.5 DATA     BIT       IE_ET2
LX51 LINKER/LOCATER V4.66.30.0                                                        01/24/2016  18:13:24  PAGE 14


*SFR* 000000A8H   DATA     BIT       IE_EX0
*SFR* 000000A8H.2 DATA     BIT       IE_EX1
      01001C4CH   CONST    ---       initstruct
      01001B67H   CODE     ---       INTERRUPT_0_enter_DefaultMode_from_RESET
*SFR* 000000B8H   DATA     BYTE      IP
*SFR* 000000B8H.4 DATA     BIT       IP_PS0
*SFR* 000000B8H.6 DATA     BIT       IP_PSPI0
*SFR* 000000B8H.1 DATA     BIT       IP_PT0
*SFR* 000000B8H.3 DATA     BIT       IP_PT1
*SFR* 000000B8H.5 DATA     BIT       IP_PT2
*SFR* 000000B8H   DATA     BIT       IP_PX0
*SFR* 000000B8H.2 DATA     BIT       IP_PX1
*SFR* 000000F2H   DATA     BYTE      IPH
*DEL*:00000000H   CODE     ---       isIdleTimerExpired
*DEL*:00000000H   CODE     ---       isIdleTimerIndefinite
*SFR* 000000E4H   DATA     BYTE      IT01CF
      00000022H.4 BIT      BIT       keyPushed
      0000000EH   DATA     BYTE      keySeqNo
*SFR* 00000080H.4 DATA     BIT       LED_B
*SFR* 00000080H.5 DATA     BIT       LED_G
*SFR* 00000080H.6 DATA     BIT       LED_R
*SFR* 000000B1H   DATA     BYTE      LFO0CN
      010014F8H   CODE     ---       main
      010014B8H   CODE     ---       mybuf
      0000005EH   IDATA    ---       myUsbDevice
*SFR* 00000080H   DATA     BYTE      P0
*SFR* 00000080H   DATA     BIT       P0_B0
*SFR* 00000080H.1 DATA     BIT       P0_B1
*SFR* 00000080H.2 DATA     BIT       P0_B2
*SFR* 00000080H.3 DATA     BIT       P0_B3
*SFR* 00000080H.4 DATA     BIT       P0_B4
*SFR* 00000080H.5 DATA     BIT       P0_B5
*SFR* 00000080H.6 DATA     BIT       P0_B6
*SFR* 00000080H.7 DATA     BIT       P0_B7
*SFR* 000000FEH   DATA     BYTE      P0MASK
*SFR* 000000FDH   DATA     BYTE      P0MAT
*SFR* 000000F1H   DATA     BYTE      P0MDIN
*SFR* 000000A4H   DATA     BYTE      P0MDOUT
*SFR* 000000D4H   DATA     BYTE      P0SKIP
*SFR* 00000090H   DATA     BYTE      P1
*SFR* 00000090H   DATA     BIT       P1_B0
*SFR* 00000090H.1 DATA     BIT       P1_B1
*SFR* 00000090H.2 DATA     BIT       P1_B2
*SFR* 00000090H.3 DATA     BIT       P1_B3
*SFR* 00000090H.4 DATA     BIT       P1_B4
*SFR* 00000090H.5 DATA     BIT       P1_B5
*SFR* 00000090H.6 DATA     BIT       P1_B6
*SFR* 00000090H.7 DATA     BIT       P1_B7
*SFR* 000000EEH   DATA     BYTE      P1MASK
*SFR* 000000EDH   DATA     BYTE      P1MAT
*SFR* 000000F2H   DATA     BYTE      P1MDIN
*SFR* 000000A5H   DATA     BYTE      P1MDOUT
*SFR* 000000D5H   DATA     BYTE      P1SKIP
*SFR* 000000A0H   DATA     BYTE      P2
*SFR* 000000A0H   DATA     BIT       P2_B0
*SFR* 000000A0H.1 DATA     BIT       P2_B1
*SFR* 000000A0H.2 DATA     BIT       P2_B2
*SFR* 000000A0H.3 DATA     BIT       P2_B3
*SFR* 000000FCH   DATA     BYTE      P2MASK
*SFR* 000000FBH   DATA     BYTE      P2MAT
*SFR* 000000F3H   DATA     BYTE      P2MDIN
*SFR* 000000A6H   DATA     BYTE      P2MDOUT
LX51 LINKER/LOCATER V4.66.30.0                                                        01/24/2016  18:13:24  PAGE 15


*SFR* 000000CCH   DATA     BYTE      P2SKIP
*SFR* 000000B0H   DATA     BYTE      P3
*SFR* 000000B0H   DATA     BIT       P3_B0
*SFR* 000000B0H.1 DATA     BIT       P3_B1
*SFR* 000000F4H   DATA     BYTE      P3MDIN
*SFR* 0000009CH   DATA     BYTE      P3MDOUT
      01001B59H   CODE     ---       PBCFG_0_enter_DefaultMode_from_RESET
*SFR* 000000F9H   DATA     WORD      PCA0
*SFR* 0000009EH   DATA     BYTE      PCA0CENT
*SFR* 0000009CH   DATA     BYTE      PCA0CLR
*SFR* 000000D8H   DATA     BYTE      PCA0CN0
*SFR* 000000D8H   DATA     BIT       PCA0CN0_CCF0
*SFR* 000000D8H.1 DATA     BIT       PCA0CN0_CCF1
*SFR* 000000D8H.2 DATA     BIT       PCA0CN0_CCF2
*SFR* 000000D8H.7 DATA     BIT       PCA0CN0_CF
*SFR* 000000D8H.6 DATA     BIT       PCA0CN0_CR
*SFR* 000000FBH   DATA     WORD      PCA0CP0
*SFR* 000000E9H   DATA     WORD      PCA0CP1
*SFR* 000000EBH   DATA     WORD      PCA0CP2
*SFR* 000000FCH   DATA     BYTE      PCA0CPH0
*SFR* 000000EAH   DATA     BYTE      PCA0CPH1
*SFR* 000000ECH   DATA     BYTE      PCA0CPH2
*SFR* 000000FBH   DATA     BYTE      PCA0CPL0
*SFR* 000000E9H   DATA     BYTE      PCA0CPL1
*SFR* 000000EBH   DATA     BYTE      PCA0CPL2
*SFR* 000000DAH   DATA     BYTE      PCA0CPM0
*SFR* 000000DBH   DATA     BYTE      PCA0CPM1
*SFR* 000000DCH   DATA     BYTE      PCA0CPM2
*SFR* 000000FAH   DATA     BYTE      PCA0H
*SFR* 000000F9H   DATA     BYTE      PCA0L
*SFR* 000000D9H   DATA     BYTE      PCA0MD
*SFR* 00000096H   DATA     BYTE      PCA0POL
*SFR* 000000F7H   DATA     BYTE      PCA0PWM
*SFR* 00000087H   DATA     BYTE      PCON0
*SFR* 0000009AH   DATA     BYTE      PCON1
*SFR* 000000C1H   DATA     BYTE      PFE0CN
      01001B94H   CODE     ---       PMATCH_IrqHandler
      010019A9H   CODE     ---       PORTS_0_enter_DefaultMode_from_RESET
*SFR* 000000A0H   DATA     BYTE      PPAGE_SFR
*SFR* 000000F6H   DATA     BYTE      PRTDRV
*SFR* 0000008FH   DATA     BYTE      PSCTL
*SFR* 000000D0H   DATA     BYTE      PSW
*SFR* 000000D0H.6 DATA     BIT       PSW_AC
*SFR* 000000D0H.7 DATA     BIT       PSW_CY
*SFR* 000000D0H.5 DATA     BIT       PSW_F0
*SFR* 000000D0H.1 DATA     BIT       PSW_F1
*SFR* 000000D0H.2 DATA     BIT       PSW_OV
*SFR* 000000D0H   DATA     BIT       PSW_PARITY
*SFR* 000000D0H.3 DATA     BIT       PSW_RS0
*SFR* 000000D0H.4 DATA     BIT       PSW_RS1
      00000022H.3 BIT      BIT       readpacket
*SFR* 000000D1H   DATA     BYTE      REF0CN
*SFR* 000000C9H   DATA     BYTE      REG0CN
*SFR* 000000C6H   DATA     BYTE      REG1CN
      01001B9CH   CONST    ---       ReportDescriptor0
*SFR* 000000B6H   DATA     BYTE      REVID
*SFR* 000000EFH   DATA     BYTE      RSTSRC
*SFR* 00000094H   DATA     BYTE      SBCON1
*SFR* 00000095H   DATA     WORD      SBRL1
*SFR* 00000096H   DATA     BYTE      SBRLH1
*SFR* 00000095H   DATA     BYTE      SBRLL1
*SFR* 00000099H   DATA     BYTE      SBUF0
LX51 LINKER/LOCATER V4.66.30.0                                                        01/24/2016  18:13:24  PAGE 16


*SFR* 00000092H   DATA     BYTE      SBUF1
*SFR* 00000098H   DATA     BYTE      SCON0
*SFR* 00000098H.5 DATA     BIT       SCON0_MCE
*SFR* 00000098H.2 DATA     BIT       SCON0_RB8
*SFR* 00000098H.4 DATA     BIT       SCON0_REN
*SFR* 00000098H   DATA     BIT       SCON0_RI
*SFR* 00000098H.7 DATA     BIT       SCON0_SMODE
*SFR* 00000098H.3 DATA     BIT       SCON0_TB8
*SFR* 00000098H.1 DATA     BIT       SCON0_TI
*SFR* 000000C8H   DATA     BYTE      SCON1
*SFR* 000000C8H.7 DATA     BIT       SCON1_OVR
*SFR* 000000C8H.6 DATA     BIT       SCON1_PERR
*SFR* 000000C8H.2 DATA     BIT       SCON1_RBX
*SFR* 000000C8H.4 DATA     BIT       SCON1_REN
*SFR* 000000C8H   DATA     BIT       SCON1_RI
*SFR* 000000C8H.3 DATA     BIT       SCON1_TBX
*SFR* 000000C8H.1 DATA     BIT       SCON1_TI
      010019D3H   CODE     ---       SendEp0Stall
*SFR* 000000A7H   DATA     BYTE      SFRPAGE
*SFR* 000000CFH   DATA     BYTE      SFRPGCN
*SFR* 000000D7H   DATA     BYTE      SFRSTACK
*SFR* 000000D6H   DATA     BYTE      SMB0ADM
*SFR* 000000D7H   DATA     BYTE      SMB0ADR
*SFR* 000000C1H   DATA     BYTE      SMB0CF
*SFR* 000000C0H   DATA     BYTE      SMB0CN0
*SFR* 000000C0H.1 DATA     BIT       SMB0CN0_ACK
*SFR* 000000C0H.3 DATA     BIT       SMB0CN0_ACKRQ
*SFR* 000000C0H.2 DATA     BIT       SMB0CN0_ARBLOST
*SFR* 000000C0H.7 DATA     BIT       SMB0CN0_MASTER
*SFR* 000000C0H   DATA     BIT       SMB0CN0_SI
*SFR* 000000C0H.5 DATA     BIT       SMB0CN0_STA
*SFR* 000000C0H.4 DATA     BIT       SMB0CN0_STO
*SFR* 000000C0H.6 DATA     BIT       SMB0CN0_TXMODE
*SFR* 000000C2H   DATA     BYTE      SMB0DAT
*SFR* 000000C3H   DATA     BYTE      SMB0FCN0
*SFR* 000000C4H   DATA     BYTE      SMB0FCN1
*SFR* 000000EFH   DATA     BYTE      SMB0FCT
*SFR* 000000C5H   DATA     BYTE      SMB0RXLN
*SFR* 000000ACH   DATA     BYTE      SMB0TC
*SFR* 00000093H   DATA     BYTE      SMOD1
*SFR* 00000081H   DATA     BYTE      SP
*SFR* 000000A1H   DATA     BYTE      SPI0CFG
*SFR* 000000A2H   DATA     BYTE      SPI0CKR
*SFR* 000000F8H   DATA     BYTE      SPI0CN0
*SFR* 000000F8H.5 DATA     BIT       SPI0CN0_MODF
*SFR* 000000F8H.2 DATA     BIT       SPI0CN0_NSSMD0
*SFR* 000000F8H.3 DATA     BIT       SPI0CN0_NSSMD1
*SFR* 000000F8H.4 DATA     BIT       SPI0CN0_RXOVRN
*SFR* 000000F8H   DATA     BIT       SPI0CN0_SPIEN
*SFR* 000000F8H.7 DATA     BIT       SPI0CN0_SPIF
*SFR* 000000F8H.1 DATA     BIT       SPI0CN0_TXNF
*SFR* 000000F8H.6 DATA     BIT       SPI0CN0_WCOL
*SFR* 000000A3H   DATA     BYTE      SPI0DAT
*SFR* 0000009AH   DATA     BYTE      SPI0FCN0
*SFR* 0000009BH   DATA     BYTE      SPI0FCN1
*SFR* 000000F7H   DATA     BYTE      SPI0FCT
*SFR* 00000088H   DATA     BYTE      TCON
*SFR* 00000088H.1 DATA     BIT       TCON_IE0
*SFR* 00000088H.3 DATA     BIT       TCON_IE1
*SFR* 00000088H   DATA     BIT       TCON_IT0
*SFR* 00000088H.2 DATA     BIT       TCON_IT1
*SFR* 00000088H.5 DATA     BIT       TCON_TF0
LX51 LINKER/LOCATER V4.66.30.0                                                        01/24/2016  18:13:24  PAGE 17


*SFR* 00000088H.7 DATA     BIT       TCON_TF1
*SFR* 00000088H.4 DATA     BIT       TCON_TR0
*SFR* 00000088H.6 DATA     BIT       TCON_TR1
*SFR* 0000008CH   DATA     BYTE      TH0
*SFR* 0000008DH   DATA     BYTE      TH1
      02000000H   XDATA    ---       thebuf1
      01001A10H   CODE     ---       TIMER01_0_enter_DefaultMode_from_RESET
      01001B1EH   CODE     ---       TIMER_SETUP_0_enter_DefaultMode_from_RESET
*SFR* 0000008AH   DATA     BYTE      TL0
*SFR* 0000008BH   DATA     BYTE      TL1
*SFR* 00000089H   DATA     BYTE      TMOD
      0000000DH   DATA     BYTE      tmpBuffer
*SFR* 000000CCH   DATA     WORD      TMR2
*SFR* 000000C8H   DATA     BYTE      TMR2CN0
*SFR* 000000C8H.3 DATA     BIT       TMR2CN0_T2SPLIT
*SFR* 000000C8H   DATA     BIT       TMR2CN0_T2XCLK0
*SFR* 000000C8H.1 DATA     BIT       TMR2CN0_T2XCLK1
*SFR* 000000C8H.4 DATA     BIT       TMR2CN0_TF2CEN
*SFR* 000000C8H.7 DATA     BIT       TMR2CN0_TF2H
*SFR* 000000C8H.6 DATA     BIT       TMR2CN0_TF2L
*SFR* 000000C8H.5 DATA     BIT       TMR2CN0_TF2LEN
*SFR* 000000C8H.2 DATA     BIT       TMR2CN0_TR2
*SFR* 000000FDH   DATA     BYTE      TMR2CN1
*SFR* 000000CDH   DATA     BYTE      TMR2H
*SFR* 000000CCH   DATA     BYTE      TMR2L
*SFR* 000000CAH   DATA     WORD      TMR2RL
*SFR* 000000CBH   DATA     BYTE      TMR2RLH
*SFR* 000000CAH   DATA     BYTE      TMR2RLL
*SFR* 00000094H   DATA     WORD      TMR3
*SFR* 00000091H   DATA     BYTE      TMR3CN0
*SFR* 000000FEH   DATA     BYTE      TMR3CN1
*SFR* 00000095H   DATA     BYTE      TMR3H
*SFR* 00000094H   DATA     BYTE      TMR3L
*SFR* 00000092H   DATA     WORD      TMR3RL
*SFR* 00000093H   DATA     BYTE      TMR3RLH
*SFR* 00000092H   DATA     BYTE      TMR3RLL
*SFR* 000000A4H   DATA     WORD      TMR4
*SFR* 00000098H   DATA     BYTE      TMR4CN0
*SFR* 00000098H.3 DATA     BIT       TMR4CN0_T4SPLIT
*SFR* 00000098H   DATA     BIT       TMR4CN0_T4XCLK0
*SFR* 00000098H.1 DATA     BIT       TMR4CN0_T4XCLK1
*SFR* 00000098H.4 DATA     BIT       TMR4CN0_TF4CEN
*SFR* 00000098H.7 DATA     BIT       TMR4CN0_TF4H
*SFR* 00000098H.6 DATA     BIT       TMR4CN0_TF4L
*SFR* 00000098H.5 DATA     BIT       TMR4CN0_TF4LEN
*SFR* 00000098H.2 DATA     BIT       TMR4CN0_TR4
*SFR* 000000FFH   DATA     BYTE      TMR4CN1
*SFR* 000000A5H   DATA     BYTE      TMR4H
*SFR* 000000A4H   DATA     BYTE      TMR4L
*SFR* 000000A2H   DATA     WORD      TMR4RL
*SFR* 000000A3H   DATA     BYTE      TMR4RLH
*SFR* 000000A2H   DATA     BYTE      TMR4RLL
      01001C56H   CONST    ---       txZero
*SFR* 0000009DH   DATA     BYTE      UART1FCN0
*SFR* 000000D8H   DATA     BYTE      UART1FCN1
*SFR* 000000D8H.3 DATA     BIT       UART1FCN1_RFRQ
*SFR* 000000D8H   DATA     BIT       UART1FCN1_RIE
*SFR* 000000D8H.1 DATA     BIT       UART1FCN1_RXTO0
*SFR* 000000D8H.2 DATA     BIT       UART1FCN1_RXTO1
*SFR* 000000D8H.7 DATA     BIT       UART1FCN1_TFRQ
*SFR* 000000D8H.4 DATA     BIT       UART1FCN1_TIE
*SFR* 000000D8H.5 DATA     BIT       UART1FCN1_TXHOLD
LX51 LINKER/LOCATER V4.66.30.0                                                        01/24/2016  18:13:24  PAGE 18


*SFR* 000000D8H.6 DATA     BIT       UART1FCN1_TXNF
*SFR* 000000FAH   DATA     BYTE      UART1FCT
*SFR* 0000009EH   DATA     BYTE      UART1LIN
      01001B8DH   CODE     ---       UART_0_enter_DefaultMode_from_RESET
*SFR* 000000AEH   DATA     BYTE      USB0ADR
*SFR* 000000B2H   DATA     BYTE      USB0AEC
*SFR* 000000B6H   DATA     BYTE      USB0CDCF
*SFR* 000000BEH   DATA     BYTE      USB0CDCN
*SFR* 000000BFH   DATA     BYTE      USB0CDSTA
*SFR* 000000B5H   DATA     BYTE      USB0CF
*SFR* 000000AFH   DATA     BYTE      USB0DAT
*SFR* 000000B3H   DATA     BYTE      USB0XCN
      01001B09H   CODE     ---       USB_Ep0GetCount
      01001A88H   CODE     ---       USB_Ep0InPacketReady
      01001AAFH   CODE     ---       USB_Ep0OutPacketReady
      01001A7BH   CODE     ---       USB_Ep0SentStall
      01001ABBH   CODE     ---       USB_EpnGetOutPacketReady
      01001A95H   CODE     ---       USB_EpnInGetSentStall
      01001AA2H   CODE     ---       USB_EpnOutGetSentStall
      01001B7CH   CODE     ---       USB_EpOutGetCount
      01001ADDH   CODE     ---       USB_GetCommonInts
      01001AFEH   CODE     ---       USB_GetIndex
      01001AE8H   CODE     ---       USB_GetInInts
      01001B6EH   CODE     ---       USB_GetIntsEnabled
      01001AF3H   CODE     ---       USB_GetOutInts
      01001A6EH   CODE     ---       USB_GetSetupEnd
      01001B82H   CODE     ---       USB_GetSofNumber
      01001B42H   CODE     ---       USB_IsPrefetchEnabled
      01001B4AH   CODE     ---       USB_IsRegulatorEnabled
      01001A61H   CODE     ---       USB_IsSuspended
      010018F0H   CODE     ---       USB_SuspendOscillator
      01001842H   CODE     ---       USBD_AbortAllTransfers
      010019BEH   CODE     ---       USBD_Connect
*DEL*:00000000H   CODE     ---       USBD_Disconnect
      01001B99H   CODE     ---       USBD_EnterHandler
      01001B9AH   CODE     ---       USBD_ExitHandler
*DEL*:00000000H   CODE     ---       USBD_GetUsbState
      01001AC7H   CODE     ---       USBD_IsSelfPoweredCb
      01001B31H   CODE     ---       USBD_ResetCb
*DEL*:00000000H   CODE     ---       USBD_Stop
      0100144BH   CODE     ---       USBD_Suspend
      0100100CH   CODE     ---       USBDCH9_SetupCmd
      01000A60H   CODE     ---       usbIrqHandler
      01001B28H   CODE     ---       USBLIB_0_enter_DefaultMode_from_RESET
*SFR* 000000FFH   DATA     BYTE      VDM0CN
      01001B52H   CODE     ---       VREG_0_enter_DefaultMode_from_RESET
      01001B14H   CODE     ---       WDT_0_enter_DefaultMode_from_RESET
*SFR* 00000097H   DATA     BYTE      WDTCN
*SFR* 000000E1H   DATA     BYTE      XBR0
*SFR* 000000E2H   DATA     BYTE      XBR1
*SFR* 000000E3H   DATA     BYTE      XBR2



SYMBOL TABLE OF MODULE:  U2F-FIRMWARE.OMF.CRBUILD (INITDEVICE)

      VALUE       REP       CLASS    TYPE      SYMBOL NAME
      ====================================================
      ---         MODULE    ---      ---       INITDEVICE
      01001B28H   PUBLIC    CODE     ---       USBLIB_0_enter_DefaultMode_from_RESET
      01001B67H   PUBLIC    CODE     ---       INTERRUPT_0_enter_DefaultMode_from_RESET
      01001B8DH   PUBLIC    CODE     ---       UART_0_enter_DefaultMode_from_RESET
LX51 LINKER/LOCATER V4.66.30.0                                                        01/24/2016  18:13:24  PAGE 19


      01001B1EH   PUBLIC    CODE     ---       TIMER_SETUP_0_enter_DefaultMode_from_RESET
      01001A10H   PUBLIC    CODE     ---       TIMER01_0_enter_DefaultMode_from_RESET
      01001A46H   PUBLIC    CODE     ---       CLOCK_0_enter_DefaultMode_from_RESET
      01001B60H   PUBLIC    CODE     ---       CIP51_0_enter_DefaultMode_from_RESET
      01001B59H   PUBLIC    CODE     ---       PBCFG_0_enter_DefaultMode_from_RESET
      010019A9H   PUBLIC    CODE     ---       PORTS_0_enter_DefaultMode_from_RESET
      01001B52H   PUBLIC    CODE     ---       VREG_0_enter_DefaultMode_from_RESET
      01001B14H   PUBLIC    CODE     ---       WDT_0_enter_DefaultMode_from_RESET
      010017CDH   PUBLIC    CODE     ---       enter_DefaultMode_from_RESET
      000000A2H   SFRSYM    DATA     BYTE      SPI0CKR
      00000080H   SFRSYM    DATA     BYTE      P0
      000000C8H.6 SFRSYM    DATA     BIT       SCON1_PERR
      000000D0H.2 SFRSYM    DATA     BIT       PSW_OV
      00000090H   SFRSYM    DATA     BYTE      P1
      000000F8H.1 SFRSYM    DATA     BIT       SPI0CN0_TXNF
      00000097H   SFRSYM    DATA     BYTE      WDTCN
      000000A0H   SFRSYM    DATA     BYTE      P2
      000000B0H   SFRSYM    DATA     BYTE      P3
      000000BCH   SFRSYM    DATA     BYTE      ADC0CF
      000000C0H.7 SFRSYM    DATA     BIT       SMB0CN0_MASTER
      000000F9H   SFRSYM    DATA     WORD      PCA0
      000000E6H   SFRSYM    DATA     BYTE      EIE1
      000000C0H.1 SFRSYM    DATA     BIT       SMB0CN0_ACK
      000000B3H   SFRSYM    DATA     BYTE      USB0XCN
      000000CEH   SFRSYM    DATA     BYTE      EIE2
      0000008FH   SFRSYM    DATA     BYTE      PSCTL
      000000E4H   SFRSYM    DATA     BYTE      IT01CF
      000000C0H.6 SFRSYM    DATA     BIT       SMB0CN0_TXMODE
      000000ADH   SFRSYM    DATA     BYTE      DERIVID
      000000A7H   SFRSYM    DATA     BYTE      SFRPAGE
      000000A4H   SFRSYM    DATA     BYTE      P0MDOUT
      000000BFH   SFRSYM    DATA     BYTE      USB0CDSTA
      000000A5H   SFRSYM    DATA     BYTE      P1MDOUT
      000000E8H.5 SFRSYM    DATA     BIT       ADC0CN0_ADINT
      000000CBH   SFRSYM    DATA     BYTE      TMR2RLH
      000000A6H   SFRSYM    DATA     BYTE      P2MDOUT
      000000A8H   SFRSYM    DATA     BYTE      IE
      00000093H   SFRSYM    DATA     BYTE      TMR3RLH
      0000009CH   SFRSYM    DATA     BYTE      P3MDOUT
      000000A3H   SFRSYM    DATA     BYTE      TMR4RLH
      000000F3H   SFRSYM    DATA     BYTE      EIP1
      000000F4H   SFRSYM    DATA     BYTE      EIP2
      00000098H.2 SFRSYM    DATA     BIT       SCON0_RB8
      000000CAH   SFRSYM    DATA     BYTE      TMR2RLL
      000000FCH   SFRSYM    DATA     BYTE      PCA0CPH0
      00000092H   SFRSYM    DATA     BYTE      TMR3RLL
      000000EAH   SFRSYM    DATA     BYTE      PCA0CPH1
      00000098H.3 SFRSYM    DATA     BIT       SCON0_TB8
      000000F0H   SFRSYM    DATA     BIT       B_B0
      00000082H   SFRSYM    DATA     WORD      DP
      000000A2H   SFRSYM    DATA     BYTE      TMR4RLL
      000000ECH   SFRSYM    DATA     BYTE      PCA0CPH2
      000000F0H.1 SFRSYM    DATA     BIT       B_B1
      000000C3H   SFRSYM    DATA     WORD      ADC0GT
      000000BDH   SFRSYM    DATA     BYTE      I2C0SLAD
      000000D8H.3 SFRSYM    DATA     BIT       UART1FCN1_RFRQ
      000000F0H.2 SFRSYM    DATA     BIT       B_B2
      000000CFH   SFRSYM    DATA     BYTE      SFRPGCN
      000000FBH   SFRSYM    DATA     BYTE      PCA0CPL0
      000000F0H.3 SFRSYM    DATA     BIT       B_B3
      000000D9H   SFRSYM    DATA     BYTE      PCA0MD
      000000DAH   SFRSYM    DATA     BYTE      PCA0CPM0
LX51 LINKER/LOCATER V4.66.30.0                                                        01/24/2016  18:13:24  PAGE 20


      000000E9H   SFRSYM    DATA     BYTE      PCA0CPL1
      000000D8H.7 SFRSYM    DATA     BIT       UART1FCN1_TFRQ
      000000F0H.4 SFRSYM    DATA     BIT       B_B4
      000000DBH   SFRSYM    DATA     BYTE      PCA0CPM1
      000000EBH   SFRSYM    DATA     BYTE      PCA0CPL2
      000000F0H.5 SFRSYM    DATA     BIT       B_B5
      000000DCH   SFRSYM    DATA     BYTE      PCA0CPM2
      000000B8H   SFRSYM    DATA     BYTE      IP
      000000B9H   SFRSYM    DATA     BYTE      ADC0TK
      000000F0H.6 SFRSYM    DATA     BIT       B_B6
      000000C5H   SFRSYM    DATA     WORD      ADC0LT
      000000D8H.6 SFRSYM    DATA     BIT       UART1FCN1_TXNF
      00000098H.5 SFRSYM    DATA     BIT       SCON0_MCE
      000000F0H.7 SFRSYM    DATA     BIT       B_B7
      000000C3H   SFRSYM    DATA     BYTE      SMB0FCN0
      000000E1H   SFRSYM    DATA     BYTE      XBR0
      000000C4H   SFRSYM    DATA     BYTE      SMB0FCN1
      000000C1H   SFRSYM    DATA     BYTE      SMB0CF
      000000E2H   SFRSYM    DATA     BYTE      XBR1
      000000C1H   SFRSYM    DATA     BYTE      PFE0CN
      000000E7H   SFRSYM    DATA     BYTE      EMI0CN
      000000C0H.5 SFRSYM    DATA     BIT       SMB0CN0_STA
      000000E3H   SFRSYM    DATA     BYTE      XBR2
      000000BBH   SFRSYM    DATA     BYTE      ADC0MX
      000000E0H   SFRSYM    DATA     BIT       ACC_ACC0
      000000D1H   SFRSYM    DATA     BYTE      REF0CN
      0000008EH   SFRSYM    DATA     BYTE      CKCON0
      000000E0H.1 SFRSYM    DATA     BIT       ACC_ACC1
      000000C9H   SFRSYM    DATA     BYTE      REG0CN
      000000DDH   SFRSYM    DATA     BYTE      CRC0IN
      000000A6H   SFRSYM    DATA     BYTE      CKCON1
      000000C8H.2 SFRSYM    DATA     BIT       TMR2CN0_TR2
      000000E0H.2 SFRSYM    DATA     BIT       ACC_ACC2
      000000C6H   SFRSYM    DATA     BYTE      REG1CN
      000000E0H.3 SFRSYM    DATA     BIT       ACC_ACC3
      00000081H   SFRSYM    DATA     BYTE      SP
      0000009DH   SFRSYM    DATA     BYTE      CMP0MD
      000000E0H.4 SFRSYM    DATA     BIT       ACC_ACC4
      000000B1H   SFRSYM    DATA     BYTE      LFO0CN
      000000ABH   SFRSYM    DATA     BYTE      CMP1MD
      000000D8H   SFRSYM    DATA     BIT       PCA0CN0_CCF0
      000000E0H.5 SFRSYM    DATA     BIT       ACC_ACC5
      000000B5H   SFRSYM    DATA     BYTE      USB0CF
      00000098H.2 SFRSYM    DATA     BIT       TMR4CN0_TR4
      000000D8H.1 SFRSYM    DATA     BIT       PCA0CN0_CCF1
      000000E0H.6 SFRSYM    DATA     BIT       ACC_ACC6
      000000CCH   SFRSYM    DATA     WORD      TMR2
      0000009AH   SFRSYM    DATA     BYTE      SPI0FCN0
      000000D8H.2 SFRSYM    DATA     BIT       PCA0CN0_CCF2
      000000E0H.7 SFRSYM    DATA     BIT       ACC_ACC7
      00000094H   SFRSYM    DATA     WORD      TMR3
      0000009BH   SFRSYM    DATA     BYTE      SPI0FCN1
      000000A4H   SFRSYM    DATA     WORD      TMR4
      00000094H   SFRSYM    DATA     BYTE      SBCON1
      000000C0H.3 SFRSYM    DATA     BIT       SMB0CN0_ACKRQ
      000000FFH   SFRSYM    DATA     BYTE      VDM0CN
      000000F1H   SFRSYM    DATA     BYTE      P0MDIN
      00000098H.4 SFRSYM    DATA     BIT       SCON0_REN
      000000ACH   SFRSYM    DATA     BYTE      SMB0TC
      000000F2H   SFRSYM    DATA     BYTE      P1MDIN
      000000C8H.4 SFRSYM    DATA     BIT       SCON1_REN
      000000F3H   SFRSYM    DATA     BYTE      P2MDIN
LX51 LINKER/LOCATER V4.66.30.0                                                        01/24/2016  18:13:24  PAGE 21


      000000C0H.4 SFRSYM    DATA     BIT       SMB0CN0_STO
      000000B6H   SFRSYM    DATA     BYTE      USB0CDCF
      000000F4H   SFRSYM    DATA     BYTE      P3MDIN
      000000B9H   SFRSYM    DATA     BYTE      I2C0STAT
      000000BBH   SFRSYM    DATA     BYTE      I2C0DOUT
      00000096H   SFRSYM    DATA     BYTE      SBRLH1
      000000FEH   SFRSYM    DATA     BYTE      P0MASK
      000000D8H.5 SFRSYM    DATA     BIT       UART1FCN1_TXHOLD
      000000EEH   SFRSYM    DATA     BYTE      P1MASK
      000000FCH   SFRSYM    DATA     BYTE      P2MASK
      000000D0H.3 SFRSYM    DATA     BIT       PSW_RS0
      000000D8H.7 SFRSYM    DATA     BIT       PCA0CN0_CF
      0000009EH   SFRSYM    DATA     BYTE      PCA0CENT
      000000BAH   SFRSYM    DATA     BYTE      I2C0CN0
      000000D2H   SFRSYM    DATA     BYTE      CRC0ST
      000000F8H.4 SFRSYM    DATA     BIT       SPI0CN0_RXOVRN
      000000D0H.4 SFRSYM    DATA     BIT       PSW_RS1
      00000095H   SFRSYM    DATA     BYTE      SBRLL1
      000000C8H.2 SFRSYM    DATA     BIT       SCON1_RBX
      000000C8H   SFRSYM    DATA     BIT       TMR2CN0_T2XCLK0
      000000C8H.1 SFRSYM    DATA     BIT       TMR2CN0_T2XCLK1
      000000C8H.3 SFRSYM    DATA     BIT       SCON1_TBX
      000000E8H.7 SFRSYM    DATA     BIT       ADC0CN0_ADEN
      000000BEH   SFRSYM    DATA     BYTE      USB0CDCN
      00000089H   SFRSYM    DATA     BYTE      TMOD
      00000088H   SFRSYM    DATA     BYTE      TCON
      000000CFH   SFRSYM    DATA     BYTE      CRC0FLIP
      000000D0H   SFRSYM    DATA     BIT       PSW_PARITY
      000000A8H.4 SFRSYM    DATA     BIT       IE_ES0
      0000009FH   SFRSYM    DATA     BYTE      CMP0MX
      00000098H   SFRSYM    DATA     BIT       TMR4CN0_T4XCLK0
      000000A8H.1 SFRSYM    DATA     BIT       IE_ET0
      000000AAH   SFRSYM    DATA     BYTE      CMP1MX
      00000098H.1 SFRSYM    DATA     BIT       TMR4CN0_T4XCLK1
      000000A8H.3 SFRSYM    DATA     BIT       IE_ET1
      000000D4H   SFRSYM    DATA     BYTE      P0SKIP
      000000D8H   SFRSYM    DATA     BIT       UART1FCN1_RIE
      000000A8H.5 SFRSYM    DATA     BIT       IE_ET2
      000000D5H   SFRSYM    DATA     BYTE      P1SKIP
      000000CCH   SFRSYM    DATA     BYTE      P2SKIP
      000000E8H   SFRSYM    DATA     BYTE      ADC0CN0
      000000D8H.4 SFRSYM    DATA     BIT       UART1FCN1_TIE
      000000A8H   SFRSYM    DATA     BIT       IE_EX0
      000000B2H   SFRSYM    DATA     BYTE      ADC0CN1
      000000D8H.6 SFRSYM    DATA     BIT       PCA0CN0_CR
      000000A8H.2 SFRSYM    DATA     BIT       IE_EX1
      000000C8H.7 SFRSYM    DATA     BIT       SCON1_OVR
      00000098H.7 SFRSYM    DATA     BIT       SCON0_SMODE
      000000B5H   SFRSYM    DATA     BYTE      DEVICEID
      000000A9H   SFRSYM    DATA     BYTE      CLKSEL
      000000F8H   SFRSYM    DATA     BIT       SPI0CN0_SPIEN
      000000F0H   SFRSYM    DATA     BYTE      B
      000000BEH   SFRSYM    DATA     BYTE      ADC0H
      000000E8H.6 SFRSYM    DATA     BIT       ADC0CN0_ADBMEN
      000000CAH   SFRSYM    DATA     WORD      TMR2RL
      000000BDH   SFRSYM    DATA     BYTE      ADC0L
      00000092H   SFRSYM    DATA     WORD      TMR3RL
      000000A2H   SFRSYM    DATA     WORD      TMR4RL
      000000D8H   SFRSYM    DATA     BYTE      PCA0CN0
      000000E0H   SFRSYM    DATA     BYTE      ACC
      000000FBH   SFRSYM    DATA     WORD      PCA0CP0
      000000E9H   SFRSYM    DATA     WORD      PCA0CP1
LX51 LINKER/LOCATER V4.66.30.0                                                        01/24/2016  18:13:24  PAGE 22


      000000EBH   SFRSYM    DATA     WORD      PCA0CP2
      000000BCH   SFRSYM    DATA     BYTE      I2C0DIN
      000000CEH   SFRSYM    DATA     BYTE      CRC0CN0
      0000008CH   SFRSYM    DATA     BYTE      TH0
      00000086H   SFRSYM    DATA     BYTE      CRC0CN1
      000000B8H.4 SFRSYM    DATA     BIT       IP_PS0
      000000FAH   SFRSYM    DATA     BYTE      UART1FCT
      0000008DH   SFRSYM    DATA     BYTE      TH1
      000000FAH   SFRSYM    DATA     BYTE      PCA0H
      000000F5H   SFRSYM    DATA     BYTE      I2C0FCT
      000000B8H.1 SFRSYM    DATA     BIT       IP_PT0
      000000B8H.3 SFRSYM    DATA     BIT       IP_PT1
      000000C0H.2 SFRSYM    DATA     BIT       SMB0CN0_ARBLOST
      000000B8H.5 SFRSYM    DATA     BIT       IP_PT2
      0000008AH   SFRSYM    DATA     BYTE      TL0
      000000D0H.5 SFRSYM    DATA     BIT       PSW_F0
      000000A8H.6 SFRSYM    DATA     BIT       IE_ESPI0
      0000008BH   SFRSYM    DATA     BYTE      TL1
      000000F9H   SFRSYM    DATA     BYTE      PCA0L
      000000C0H   SFRSYM    DATA     BIT       SMB0CN0_SI
      000000D0H.1 SFRSYM    DATA     BIT       PSW_F1
      00000080H   SFRSYM    DATA     BIT       P0_B0
      000000B8H   SFRSYM    DATA     BIT       IP_PX0
      00000090H   SFRSYM    DATA     BIT       P1_B0
      00000080H.1 SFRSYM    DATA     BIT       P0_B1
      000000B8H.2 SFRSYM    DATA     BIT       IP_PX1
      0000009EH   SFRSYM    DATA     BYTE      UART1LIN
      0000009BH   SFRSYM    DATA     BYTE      CMP0CN0
      00000088H.1 SFRSYM    DATA     BIT       TCON_IE0
      000000A0H   SFRSYM    DATA     BIT       P2_B0
      00000090H.1 SFRSYM    DATA     BIT       P1_B1
      00000080H.2 SFRSYM    DATA     BIT       P0_B2
      000000BFH   SFRSYM    DATA     BYTE      CMP1CN0
      00000099H   SFRSYM    DATA     BYTE      CMP0CN1
      00000088H.3 SFRSYM    DATA     BIT       TCON_IE1
      000000B0H   SFRSYM    DATA     BIT       P3_B0
      000000A0H.1 SFRSYM    DATA     BIT       P2_B1
      00000090H.2 SFRSYM    DATA     BIT       P1_B2
      00000080H.3 SFRSYM    DATA     BIT       P0_B3
      000000C0H   SFRSYM    DATA     BYTE      SMB0CN0
      000000ACH   SFRSYM    DATA     BYTE      CMP1CN1
      000000B0H.1 SFRSYM    DATA     BIT       P3_B1
      000000A0H.2 SFRSYM    DATA     BIT       P2_B2
      00000090H.3 SFRSYM    DATA     BIT       P1_B3
      00000080H.4 SFRSYM    DATA     BIT       P0_B4
      000000A0H.3 SFRSYM    DATA     BIT       P2_B3
      00000090H.4 SFRSYM    DATA     BIT       P1_B4
      00000080H.5 SFRSYM    DATA     BIT       P0_B5
      000000D8H.1 SFRSYM    DATA     BIT       UART1FCN1_RXTO0
      00000090H.5 SFRSYM    DATA     BIT       P1_B5
      00000080H.6 SFRSYM    DATA     BIT       P0_B6
      000000F5H   SFRSYM    DATA     BYTE      EIP1H
      000000D8H.2 SFRSYM    DATA     BIT       UART1FCN1_RXTO1
      00000090H.6 SFRSYM    DATA     BIT       P1_B6
      00000080H.7 SFRSYM    DATA     BIT       P0_B7
      000000C5H   SFRSYM    DATA     BYTE      SMB0RXLN
      000000F6H   SFRSYM    DATA     BYTE      EIP2H
      00000090H.7 SFRSYM    DATA     BIT       P1_B7
      00000083H   SFRSYM    DATA     BYTE      DPH
      000000C4H   SFRSYM    DATA     BYTE      ADC0GTH
      000000C8H.7 SFRSYM    DATA     BIT       TMR2CN0_TF2H
      000000C8H.3 SFRSYM    DATA     BIT       TMR2CN0_T2SPLIT
LX51 LINKER/LOCATER V4.66.30.0                                                        01/24/2016  18:13:24  PAGE 23


      000000D0H.6 SFRSYM    DATA     BIT       PSW_AC
      000000F8H   SFRSYM    DATA     BYTE      SPI0CN0
      000000C7H   SFRSYM    DATA     BYTE      HFO0CAL
      00000088H.5 SFRSYM    DATA     BIT       TCON_TF0
      00000098H   SFRSYM    DATA     BIT       SCON0_RI
      000000D6H   SFRSYM    DATA     BYTE      HFO1CAL
      00000082H   SFRSYM    DATA     BYTE      DPL
      00000088H.7 SFRSYM    DATA     BIT       TCON_TF1
      000000C8H   SFRSYM    DATA     BIT       SCON1_RI
      00000099H   SFRSYM    DATA     BYTE      SBUF0
      00000087H   SFRSYM    DATA     BYTE      PCON0
      000000F2H   SFRSYM    DATA     BYTE      IPH
      000000C3H   SFRSYM    DATA     BYTE      ADC0GTL
      00000098H.7 SFRSYM    DATA     BIT       TMR4CN0_TF4H
      00000098H.3 SFRSYM    DATA     BIT       TMR4CN0_T4SPLIT
      000000C8H.6 SFRSYM    DATA     BIT       TMR2CN0_TF2L
      00000098H.1 SFRSYM    DATA     BIT       SCON0_TI
      000000E8H   SFRSYM    DATA     BIT       ADC0CN0_ADCM0
      00000092H   SFRSYM    DATA     BYTE      SBUF1
      0000009AH   SFRSYM    DATA     BYTE      PCON1
      000000C6H   SFRSYM    DATA     BYTE      ADC0LTH
      00000088H   SFRSYM    DATA     BIT       TCON_IT0
      000000C8H.1 SFRSYM    DATA     BIT       SCON1_TI
      000000E8H.1 SFRSYM    DATA     BIT       ADC0CN0_ADCM1
      000000EFH   SFRSYM    DATA     BYTE      RSTSRC
      000000FDH   SFRSYM    DATA     BYTE      P0MAT
      000000DEH   SFRSYM    DATA     BYTE      CRC0DAT
      00000088H.2 SFRSYM    DATA     BIT       TCON_IT1
      000000E8H.2 SFRSYM    DATA     BIT       ADC0CN0_ADCM2
      000000D7H   SFRSYM    DATA     BYTE      SFRSTACK
      00000098H   SFRSYM    DATA     BYTE      SCON0
      000000F6H   SFRSYM    DATA     BYTE      PRTDRV
      000000EDH   SFRSYM    DATA     BYTE      P1MAT
      000000E8H.3 SFRSYM    DATA     BIT       ADC0CN0_ADWINT
      00000095H   SFRSYM    DATA     WORD      SBRL1
      000000B2H   SFRSYM    DATA     BYTE      USB0AEC
      00000093H   SFRSYM    DATA     BYTE      SMOD1
      000000C8H   SFRSYM    DATA     BYTE      SCON1
      000000FBH   SFRSYM    DATA     BYTE      P2MAT
      00000098H.6 SFRSYM    DATA     BIT       TMR4CN0_TF4L
      000000E8H.4 SFRSYM    DATA     BIT       ADC0CN0_ADBUSY
      000000D6H   SFRSYM    DATA     BYTE      SMB0ADM
      000000C5H   SFRSYM    DATA     BYTE      ADC0LTL
      000000F8H.5 SFRSYM    DATA     BIT       SPI0CN0_MODF
      000000B8H.6 SFRSYM    DATA     BIT       IP_PSPI0
      0000009CH   SFRSYM    DATA     BYTE      PCA0CLR
      000000C8H   SFRSYM    DATA     BYTE      TMR2CN0
      00000091H   SFRSYM    DATA     BYTE      TMR3CN0
      000000FDH   SFRSYM    DATA     BYTE      TMR2CN1
      00000098H   SFRSYM    DATA     BYTE      TMR4CN0
      000000FEH   SFRSYM    DATA     BYTE      TMR3CN1
      000000FFH   SFRSYM    DATA     BYTE      TMR4CN1
      000000D7H   SFRSYM    DATA     BYTE      SMB0ADR
      00000088H.4 SFRSYM    DATA     BIT       TCON_TR0
      000000C8H.4 SFRSYM    DATA     BIT       TMR2CN0_TF2CEN
      00000088H.6 SFRSYM    DATA     BIT       TCON_TR1
      000000C2H   SFRSYM    DATA     BYTE      SMB0DAT
      000000CDH   SFRSYM    DATA     BYTE      TMR2H
      000000A1H   SFRSYM    DATA     BYTE      SPI0CFG
      00000095H   SFRSYM    DATA     BYTE      TMR3H
      000000EFH   SFRSYM    DATA     BYTE      HFOCN
      000000D3H   SFRSYM    DATA     BYTE      CRC0CNT
LX51 LINKER/LOCATER V4.66.30.0                                                        01/24/2016  18:13:24  PAGE 24


      000000A5H   SFRSYM    DATA     BYTE      TMR4H
      00000098H.4 SFRSYM    DATA     BIT       TMR4CN0_TF4CEN
      000000EFH   SFRSYM    DATA     BYTE      SMB0FCT
      00000096H   SFRSYM    DATA     BYTE      PCA0POL
      000000CCH   SFRSYM    DATA     BYTE      TMR2L
      000000F8H.7 SFRSYM    DATA     BIT       SPI0CN0_SPIF
      000000AEH   SFRSYM    DATA     BYTE      USB0ADR
      00000094H   SFRSYM    DATA     BYTE      TMR3L
      000000DFH   SFRSYM    DATA     BYTE      ADC0PWR
      000000A8H.7 SFRSYM    DATA     BIT       IE_EA
      000000A4H   SFRSYM    DATA     BYTE      TMR4L
      000000AFH   SFRSYM    DATA     BYTE      USB0DAT
      000000C8H.5 SFRSYM    DATA     BIT       TMR2CN0_TF2LEN
      000000F8H.6 SFRSYM    DATA     BIT       SPI0CN0_WCOL
      000000F8H.2 SFRSYM    DATA     BIT       SPI0CN0_NSSMD0
      000000D0H.7 SFRSYM    DATA     BIT       PSW_CY
      0000009DH   SFRSYM    DATA     BYTE      UART1FCN0
      000000A3H   SFRSYM    DATA     BYTE      SPI0DAT
      000000ADH   SFRSYM    DATA     BYTE      I2C0FCN0
      000000F8H.3 SFRSYM    DATA     BIT       SPI0CN0_NSSMD1
      000000BDH   SFRSYM    DATA     WORD      ADC0
      000000D8H   SFRSYM    DATA     BYTE      UART1FCN1
      000000ABH   SFRSYM    DATA     BYTE      I2C0FCN1
      00000098H.5 SFRSYM    DATA     BIT       TMR4CN0_TF4LEN
      000000D0H   SFRSYM    DATA     BYTE      PSW
      000000F7H   SFRSYM    DATA     BYTE      PCA0PWM
      000000F7H   SFRSYM    DATA     BYTE      SPI0FCT
      000000B6H   SFRSYM    DATA     BYTE      REVID
      000000B7H   SFRSYM    DATA     BYTE      FLKEY
      000000B3H   SFRSYM    DATA     BYTE      ADC0AC

      010017CDH   BLOCK     CODE     ---       LVL=0
      010017CDH   BLOCK     CODE     NEAR LAB  LVL=1
      00000025H   SYMBOL    DATA     BYTE      SFRPAGE_save
      ---         BLOCKEND  ---      ---       LVL=1
      010017CDH   LINE      CODE     ---       #25
      010017CDH   LINE      CODE     ---       #28
      010017D0H   LINE      CODE     ---       #29
      010017D3H   LINE      CODE     ---       #30
      010017D6H   LINE      CODE     ---       #31
      010017D9H   LINE      CODE     ---       #32
      010017DCH   LINE      CODE     ---       #33
      010017DFH   LINE      CODE     ---       #34
      010017E2H   LINE      CODE     ---       #35
      010017E5H   LINE      CODE     ---       #36
      010017E8H   LINE      CODE     ---       #37
      010017EBH   LINE      CODE     ---       #38
      010017EEH   LINE      CODE     ---       #39
      010017F1H   LINE      CODE     ---       #41
      010017F4H   LINE      CODE     ---       #44
      ---         BLOCKEND  ---      ---       LVL=0

      01001B14H   BLOCK     CODE     ---       LVL=0
      01001B14H   LINE      CODE     ---       #49
      01001B14H   LINE      CODE     ---       #51
      01001B17H   LINE      CODE     ---       #53
      01001B1AH   LINE      CODE     ---       #54
      01001B1DH   LINE      CODE     ---       #57
      ---         BLOCKEND  ---      ---       LVL=0

      01001B52H   BLOCK     CODE     ---       LVL=0
      01001B52H   LINE      CODE     ---       #62
LX51 LINKER/LOCATER V4.66.30.0                                                        01/24/2016  18:13:24  PAGE 25


      01001B52H   LINE      CODE     ---       #76
      01001B55H   LINE      CODE     ---       #77
      01001B58H   LINE      CODE     ---       #81
      ---         BLOCKEND  ---      ---       LVL=0

      010019A9H   BLOCK     CODE     ---       LVL=0
      010019A9H   LINE      CODE     ---       #86
      010019A9H   LINE      CODE     ---       #106
      010019ACH   LINE      CODE     ---       #107
      010019AFH   LINE      CODE     ---       #129
      010019B2H   LINE      CODE     ---       #154
      010019B5H   LINE      CODE     ---       #178
      010019B7H   LINE      CODE     ---       #203
      010019BAH   LINE      CODE     ---       #227
      010019BDH   LINE      CODE     ---       #231
      ---         BLOCKEND  ---      ---       LVL=0

      01001B59H   BLOCK     CODE     ---       LVL=0
      01001B59H   LINE      CODE     ---       #236
      01001B59H   LINE      CODE     ---       #250
      01001B5CH   LINE      CODE     ---       #276
      01001B5FH   LINE      CODE     ---       #284
      ---         BLOCKEND  ---      ---       LVL=0

      01001B60H   BLOCK     CODE     ---       LVL=0
      01001B60H   LINE      CODE     ---       #289
      01001B60H   LINE      CODE     ---       #296
      01001B63H   LINE      CODE     ---       #297
      01001B66H   LINE      CODE     ---       #300
      ---         BLOCKEND  ---      ---       LVL=0

      01001A46H   BLOCK     CODE     ---       LVL=0
      01001A46H   LINE      CODE     ---       #305
      01001A46H   LINE      CODE     ---       #308
      01001A49H   LINE      CODE     ---       #309
      01001A4BH   LINE      CODE     ---       #310
      01001A4DH   LINE      CODE     ---       #311
      01001A4DH   LINE      CODE     ---       #326
      01001A50H   LINE      CODE     ---       #327
      01001A53H   LINE      CODE     ---       #328
      01001A53H   LINE      CODE     ---       #332
      ---         BLOCKEND  ---      ---       LVL=0

      01001A10H   BLOCK     CODE     ---       LVL=0
      01001A10H   BLOCK     CODE     NEAR LAB  LVL=1
      00000007H   SYMBOL    DATA     BYTE      TCON_save
      ---         BLOCKEND  ---      ---       LVL=1
      01001A10H   LINE      CODE     ---       #337
      01001A10H   LINE      CODE     ---       #341
      01001A12H   LINE      CODE     ---       #343
      01001A15H   LINE      CODE     ---       #357
      01001A18H   LINE      CODE     ---       #365
      01001A22H   LINE      CODE     ---       #369
      ---         BLOCKEND  ---      ---       LVL=0

      01001B1EH   BLOCK     CODE     ---       LVL=0
      01001B1EH   LINE      CODE     ---       #374
      01001B1EH   LINE      CODE     ---       #390
      01001B21H   LINE      CODE     ---       #413
      01001B24H   LINE      CODE     ---       #421
      01001B27H   LINE      CODE     ---       #424
      ---         BLOCKEND  ---      ---       LVL=0
LX51 LINKER/LOCATER V4.66.30.0                                                        01/24/2016  18:13:24  PAGE 26



      01001B8DH   BLOCK     CODE     ---       LVL=0
      01001B8DH   LINE      CODE     ---       #429
      01001B8DH   LINE      CODE     ---       #434
      01001B90H   LINE      CODE     ---       #437
      ---         BLOCKEND  ---      ---       LVL=0

      01001B67H   BLOCK     CODE     ---       LVL=0
      01001B67H   LINE      CODE     ---       #442
      01001B67H   LINE      CODE     ---       #462
      01001B6AH   LINE      CODE     ---       #499
      01001B6DH   LINE      CODE     ---       #510
      ---         BLOCKEND  ---      ---       LVL=0

      01001B28H   BLOCK     CODE     ---       LVL=0
      01001B28H   LINE      CODE     ---       #515
      01001B28H   LINE      CODE     ---       #517
      ---         BLOCKEND  ---      ---       LVL=0

      ---         MODULE    ---      ---       ?C_STARTUP
      01000000H   PUBLIC    CODE     NEAR LAB  ?C_STARTUP
      000000E0H   SFRSYM    DATA     BYTE      ACC
      000000F0H   SFRSYM    DATA     BYTE      B
      00000083H   SFRSYM    DATA     BYTE      DPH
      00000082H   SFRSYM    DATA     BYTE      DPL
      000000A0H   SFRSYM    DATA     BYTE      PPAGE_SFR
      00000081H   SFRSYM    DATA     BYTE      SP
      00000000H   SYMBOL    NUMBER   ---       IBPSTACK
      00000100H   SYMBOL    NUMBER   ---       IBPSTACKTOP
      00000080H   SYMBOL    NUMBER   ---       IDATALEN
      01000EF7H   SYMBOL    CODE     NEAR LAB  IDATALOOP
      00000000H   SYMBOL    NUMBER   ---       PBPSTACK
      00000100H   SYMBOL    NUMBER   ---       PBPSTACKTOP
      00000000H   SYMBOL    NUMBER   ---       PDATALEN
      00000000H   SYMBOL    NUMBER   ---       PDATASTART
      00000000H   SYMBOL    NUMBER   ---       PPAGE
      00000000H   SYMBOL    NUMBER   ---       PPAGEENABLE
      01000EF4H   SYMBOL    CODE     NEAR LAB  STARTUP1
      00000000H   SYMBOL    NUMBER   ---       XBPSTACK
      00010000H   SYMBOL    NUMBER   ---       XBPSTACKTOP
      00000000H   SYMBOL    NUMBER   ---       XDATALEN
      00000000H   SYMBOL    NUMBER   ---       XDATASTART

      01000000H   BLOCK     CODE     NEAR LAB  LVL=0
      01000000H   LINE      CODE     ---       #126
      ---         BLOCKEND  ---      ---       LVL=0

      01000EF4H   BLOCK     CODE     NEAR LAB  LVL=0
      01000EF4H   LINE      CODE     ---       #138
      01000EF6H   LINE      CODE     ---       #139
      01000EF7H   LINE      CODE     ---       #140
      01000EF8H   LINE      CODE     ---       #141
      01000EFAH   LINE      CODE     ---       #190
      01000EFDH   LINE      CODE     ---       #201
      ---         BLOCKEND  ---      ---       LVL=0

      ---         MODULE    ---      ---       BSP

      ---         MODULE    ---      ---       CALLBACK
      02000000H   PUBLIC    XDATA    ---       thebuf1
      0000000DH   PUBLIC    DATA     BYTE      tmpBuffer
      00000040H   PUBLIC    DATA     BYTE      ?_USBD_XferCompleteCb?BYTE
LX51 LINKER/LOCATER V4.66.30.0                                                        01/24/2016  18:13:24  PAGE 27


      010012AEH   PUBLIC    CODE     ---       _USBD_XferCompleteCb
      010003DAH   PUBLIC    CODE     ---       _USBD_SetupCmdCb
      01001AC7H   PUBLIC    CODE     ---       USBD_IsSelfPoweredCb
      01001A54H   PUBLIC    CODE     ---       _USBD_DeviceStateChangeCb
      01001B88H   PUBLIC    CODE     ---       _USBD_SofCb
      01001B31H   PUBLIC    CODE     ---       USBD_ResetCb
      01001B9AH   PUBLIC    CODE     ---       USBD_ExitHandler
      01001B99H   PUBLIC    CODE     ---       USBD_EnterHandler
      000000A2H   SFRSYM    DATA     BYTE      SPI0CKR
      00000080H   SFRSYM    DATA     BYTE      P0
      000000C8H.6 SFRSYM    DATA     BIT       SCON1_PERR
      000000D0H.2 SFRSYM    DATA     BIT       PSW_OV
      00000090H   SFRSYM    DATA     BYTE      P1
      000000F8H.1 SFRSYM    DATA     BIT       SPI0CN0_TXNF
      00000097H   SFRSYM    DATA     BYTE      WDTCN
      000000A0H   SFRSYM    DATA     BYTE      P2
      000000B0H   SFRSYM    DATA     BYTE      P3
      000000BCH   SFRSYM    DATA     BYTE      ADC0CF
      000000C0H.7 SFRSYM    DATA     BIT       SMB0CN0_MASTER
      000000F9H   SFRSYM    DATA     WORD      PCA0
      000000E6H   SFRSYM    DATA     BYTE      EIE1
      000000C0H.1 SFRSYM    DATA     BIT       SMB0CN0_ACK
      000000B3H   SFRSYM    DATA     BYTE      USB0XCN
      000000CEH   SFRSYM    DATA     BYTE      EIE2
      00000080H.6 SFRSYM    DATA     BIT       LED_R
      0000008FH   SFRSYM    DATA     BYTE      PSCTL
      000000E4H   SFRSYM    DATA     BYTE      IT01CF
      000000C0H.6 SFRSYM    DATA     BIT       SMB0CN0_TXMODE
      000000ADH   SFRSYM    DATA     BYTE      DERIVID
      000000A7H   SFRSYM    DATA     BYTE      SFRPAGE
      000000A4H   SFRSYM    DATA     BYTE      P0MDOUT
      000000BFH   SFRSYM    DATA     BYTE      USB0CDSTA
      000000A5H   SFRSYM    DATA     BYTE      P1MDOUT
      000000E8H.5 SFRSYM    DATA     BIT       ADC0CN0_ADINT
      000000CBH   SFRSYM    DATA     BYTE      TMR2RLH
      000000A6H   SFRSYM    DATA     BYTE      P2MDOUT
      000000A8H   SFRSYM    DATA     BYTE      IE
      00000093H   SFRSYM    DATA     BYTE      TMR3RLH
      0000009CH   SFRSYM    DATA     BYTE      P3MDOUT
      000000A3H   SFRSYM    DATA     BYTE      TMR4RLH
      000000F3H   SFRSYM    DATA     BYTE      EIP1
      000000F4H   SFRSYM    DATA     BYTE      EIP2
      00000098H.2 SFRSYM    DATA     BIT       SCON0_RB8
      000000CAH   SFRSYM    DATA     BYTE      TMR2RLL
      000000FCH   SFRSYM    DATA     BYTE      PCA0CPH0
      00000092H   SFRSYM    DATA     BYTE      TMR3RLL
      000000EAH   SFRSYM    DATA     BYTE      PCA0CPH1
      00000098H.3 SFRSYM    DATA     BIT       SCON0_TB8
      000000F0H   SFRSYM    DATA     BIT       B_B0
      00000082H   SFRSYM    DATA     WORD      DP
      000000A2H   SFRSYM    DATA     BYTE      TMR4RLL
      000000ECH   SFRSYM    DATA     BYTE      PCA0CPH2
      000000F0H.1 SFRSYM    DATA     BIT       B_B1
      000000C3H   SFRSYM    DATA     WORD      ADC0GT
      000000BDH   SFRSYM    DATA     BYTE      I2C0SLAD
      000000D8H.3 SFRSYM    DATA     BIT       UART1FCN1_RFRQ
      000000F0H.2 SFRSYM    DATA     BIT       B_B2
      000000CFH   SFRSYM    DATA     BYTE      SFRPGCN
      000000FBH   SFRSYM    DATA     BYTE      PCA0CPL0
      000000F0H.3 SFRSYM    DATA     BIT       B_B3
      000000D9H   SFRSYM    DATA     BYTE      PCA0MD
      000000DAH   SFRSYM    DATA     BYTE      PCA0CPM0
LX51 LINKER/LOCATER V4.66.30.0                                                        01/24/2016  18:13:24  PAGE 28


      000000E9H   SFRSYM    DATA     BYTE      PCA0CPL1
      000000D8H.7 SFRSYM    DATA     BIT       UART1FCN1_TFRQ
      000000F0H.4 SFRSYM    DATA     BIT       B_B4
      000000DBH   SFRSYM    DATA     BYTE      PCA0CPM1
      000000EBH   SFRSYM    DATA     BYTE      PCA0CPL2
      000000F0H.5 SFRSYM    DATA     BIT       B_B5
      000000DCH   SFRSYM    DATA     BYTE      PCA0CPM2
      000000B8H   SFRSYM    DATA     BYTE      IP
      000000B9H   SFRSYM    DATA     BYTE      ADC0TK
      000000F0H.6 SFRSYM    DATA     BIT       B_B6
      000000C5H   SFRSYM    DATA     WORD      ADC0LT
      000000D8H.6 SFRSYM    DATA     BIT       UART1FCN1_TXNF
      00000098H.5 SFRSYM    DATA     BIT       SCON0_MCE
      000000F0H.7 SFRSYM    DATA     BIT       B_B7
      000000C3H   SFRSYM    DATA     BYTE      SMB0FCN0
      000000E1H   SFRSYM    DATA     BYTE      XBR0
      000000C4H   SFRSYM    DATA     BYTE      SMB0FCN1
      000000C1H   SFRSYM    DATA     BYTE      SMB0CF
      000000E2H   SFRSYM    DATA     BYTE      XBR1
      000000C1H   SFRSYM    DATA     BYTE      PFE0CN
      000000E7H   SFRSYM    DATA     BYTE      EMI0CN
      000000C0H.5 SFRSYM    DATA     BIT       SMB0CN0_STA
      000000E3H   SFRSYM    DATA     BYTE      XBR2
      000000BBH   SFRSYM    DATA     BYTE      ADC0MX
      000000E0H   SFRSYM    DATA     BIT       ACC_ACC0
      000000D1H   SFRSYM    DATA     BYTE      REF0CN
      0000008EH   SFRSYM    DATA     BYTE      CKCON0
      000000E0H.1 SFRSYM    DATA     BIT       ACC_ACC1
      000000C9H   SFRSYM    DATA     BYTE      REG0CN
      000000DDH   SFRSYM    DATA     BYTE      CRC0IN
      000000A6H   SFRSYM    DATA     BYTE      CKCON1
      000000C8H.2 SFRSYM    DATA     BIT       TMR2CN0_TR2
      000000E0H.2 SFRSYM    DATA     BIT       ACC_ACC2
      000000C6H   SFRSYM    DATA     BYTE      REG1CN
      000000E0H.3 SFRSYM    DATA     BIT       ACC_ACC3
      00000081H   SFRSYM    DATA     BYTE      SP
      0000009DH   SFRSYM    DATA     BYTE      CMP0MD
      000000E0H.4 SFRSYM    DATA     BIT       ACC_ACC4
      000000B1H   SFRSYM    DATA     BYTE      LFO0CN
      000000ABH   SFRSYM    DATA     BYTE      CMP1MD
      000000D8H   SFRSYM    DATA     BIT       PCA0CN0_CCF0
      000000E0H.5 SFRSYM    DATA     BIT       ACC_ACC5
      000000B5H   SFRSYM    DATA     BYTE      USB0CF
      00000098H.2 SFRSYM    DATA     BIT       TMR4CN0_TR4
      000000D8H.1 SFRSYM    DATA     BIT       PCA0CN0_CCF1
      000000E0H.6 SFRSYM    DATA     BIT       ACC_ACC6
      000000CCH   SFRSYM    DATA     WORD      TMR2
      0000009AH   SFRSYM    DATA     BYTE      SPI0FCN0
      000000D8H.2 SFRSYM    DATA     BIT       PCA0CN0_CCF2
      000000E0H.7 SFRSYM    DATA     BIT       ACC_ACC7
      00000094H   SFRSYM    DATA     WORD      TMR3
      0000009BH   SFRSYM    DATA     BYTE      SPI0FCN1
      000000A4H   SFRSYM    DATA     WORD      TMR4
      00000094H   SFRSYM    DATA     BYTE      SBCON1
      000000C0H.3 SFRSYM    DATA     BIT       SMB0CN0_ACKRQ
      000000FFH   SFRSYM    DATA     BYTE      VDM0CN
      000000F1H   SFRSYM    DATA     BYTE      P0MDIN
      00000098H.4 SFRSYM    DATA     BIT       SCON0_REN
      000000ACH   SFRSYM    DATA     BYTE      SMB0TC
      000000F2H   SFRSYM    DATA     BYTE      P1MDIN
      000000C8H.4 SFRSYM    DATA     BIT       SCON1_REN
      000000F3H   SFRSYM    DATA     BYTE      P2MDIN
LX51 LINKER/LOCATER V4.66.30.0                                                        01/24/2016  18:13:24  PAGE 29


      000000C0H.4 SFRSYM    DATA     BIT       SMB0CN0_STO
      000000B6H   SFRSYM    DATA     BYTE      USB0CDCF
      000000F4H   SFRSYM    DATA     BYTE      P3MDIN
      000000B9H   SFRSYM    DATA     BYTE      I2C0STAT
      000000BBH   SFRSYM    DATA     BYTE      I2C0DOUT
      00000096H   SFRSYM    DATA     BYTE      SBRLH1
      000000FEH   SFRSYM    DATA     BYTE      P0MASK
      000000D8H.5 SFRSYM    DATA     BIT       UART1FCN1_TXHOLD
      000000EEH   SFRSYM    DATA     BYTE      P1MASK
      000000FCH   SFRSYM    DATA     BYTE      P2MASK
      000000D0H.3 SFRSYM    DATA     BIT       PSW_RS0
      000000D8H.7 SFRSYM    DATA     BIT       PCA0CN0_CF
      0000009EH   SFRSYM    DATA     BYTE      PCA0CENT
      000000BAH   SFRSYM    DATA     BYTE      I2C0CN0
      000000D2H   SFRSYM    DATA     BYTE      CRC0ST
      000000F8H.4 SFRSYM    DATA     BIT       SPI0CN0_RXOVRN
      000000D0H.4 SFRSYM    DATA     BIT       PSW_RS1
      00000095H   SFRSYM    DATA     BYTE      SBRLL1
      000000C8H.2 SFRSYM    DATA     BIT       SCON1_RBX
      000000C8H   SFRSYM    DATA     BIT       TMR2CN0_T2XCLK0
      000000C8H.1 SFRSYM    DATA     BIT       TMR2CN0_T2XCLK1
      000000C8H.3 SFRSYM    DATA     BIT       SCON1_TBX
      000000E8H.7 SFRSYM    DATA     BIT       ADC0CN0_ADEN
      000000BEH   SFRSYM    DATA     BYTE      USB0CDCN
      00000089H   SFRSYM    DATA     BYTE      TMOD
      00000088H   SFRSYM    DATA     BYTE      TCON
      000000CFH   SFRSYM    DATA     BYTE      CRC0FLIP
      000000D0H   SFRSYM    DATA     BIT       PSW_PARITY
      000000A8H.4 SFRSYM    DATA     BIT       IE_ES0
      0000009FH   SFRSYM    DATA     BYTE      CMP0MX
      00000098H   SFRSYM    DATA     BIT       TMR4CN0_T4XCLK0
      000000A8H.1 SFRSYM    DATA     BIT       IE_ET0
      000000AAH   SFRSYM    DATA     BYTE      CMP1MX
      00000098H.1 SFRSYM    DATA     BIT       TMR4CN0_T4XCLK1
      000000A8H.3 SFRSYM    DATA     BIT       IE_ET1
      000000D4H   SFRSYM    DATA     BYTE      P0SKIP
      000000D8H   SFRSYM    DATA     BIT       UART1FCN1_RIE
      000000A8H.5 SFRSYM    DATA     BIT       IE_ET2
      000000D5H   SFRSYM    DATA     BYTE      P1SKIP
      000000CCH   SFRSYM    DATA     BYTE      P2SKIP
      000000E8H   SFRSYM    DATA     BYTE      ADC0CN0
      000000D8H.4 SFRSYM    DATA     BIT       UART1FCN1_TIE
      000000A8H   SFRSYM    DATA     BIT       IE_EX0
      000000B2H   SFRSYM    DATA     BYTE      ADC0CN1
      000000D8H.6 SFRSYM    DATA     BIT       PCA0CN0_CR
      000000A8H.2 SFRSYM    DATA     BIT       IE_EX1
      000000C8H.7 SFRSYM    DATA     BIT       SCON1_OVR
      00000098H.7 SFRSYM    DATA     BIT       SCON0_SMODE
      000000B5H   SFRSYM    DATA     BYTE      DEVICEID
      000000A9H   SFRSYM    DATA     BYTE      CLKSEL
      000000F8H   SFRSYM    DATA     BIT       SPI0CN0_SPIEN
      000000F0H   SFRSYM    DATA     BYTE      B
      000000BEH   SFRSYM    DATA     BYTE      ADC0H
      000000E8H.6 SFRSYM    DATA     BIT       ADC0CN0_ADBMEN
      000000CAH   SFRSYM    DATA     WORD      TMR2RL
      000000BDH   SFRSYM    DATA     BYTE      ADC0L
      00000092H   SFRSYM    DATA     WORD      TMR3RL
      000000A2H   SFRSYM    DATA     WORD      TMR4RL
      000000D8H   SFRSYM    DATA     BYTE      PCA0CN0
      000000E0H   SFRSYM    DATA     BYTE      ACC
      000000FBH   SFRSYM    DATA     WORD      PCA0CP0
      000000E9H   SFRSYM    DATA     WORD      PCA0CP1
LX51 LINKER/LOCATER V4.66.30.0                                                        01/24/2016  18:13:24  PAGE 30


      000000EBH   SFRSYM    DATA     WORD      PCA0CP2
      000000BCH   SFRSYM    DATA     BYTE      I2C0DIN
      000000CEH   SFRSYM    DATA     BYTE      CRC0CN0
      0000008CH   SFRSYM    DATA     BYTE      TH0
      00000086H   SFRSYM    DATA     BYTE      CRC0CN1
      000000B8H.4 SFRSYM    DATA     BIT       IP_PS0
      000000FAH   SFRSYM    DATA     BYTE      UART1FCT
      0000008DH   SFRSYM    DATA     BYTE      TH1
      000000FAH   SFRSYM    DATA     BYTE      PCA0H
      000000F5H   SFRSYM    DATA     BYTE      I2C0FCT
      000000B8H.1 SFRSYM    DATA     BIT       IP_PT0
      000000B8H.3 SFRSYM    DATA     BIT       IP_PT1
      000000C0H.2 SFRSYM    DATA     BIT       SMB0CN0_ARBLOST
      000000B8H.5 SFRSYM    DATA     BIT       IP_PT2
      0000008AH   SFRSYM    DATA     BYTE      TL0
      000000D0H.5 SFRSYM    DATA     BIT       PSW_F0
      000000A8H.6 SFRSYM    DATA     BIT       IE_ESPI0
      0000008BH   SFRSYM    DATA     BYTE      TL1
      000000F9H   SFRSYM    DATA     BYTE      PCA0L
      000000C0H   SFRSYM    DATA     BIT       SMB0CN0_SI
      000000D0H.1 SFRSYM    DATA     BIT       PSW_F1
      00000080H   SFRSYM    DATA     BIT       P0_B0
      000000B8H   SFRSYM    DATA     BIT       IP_PX0
      00000090H   SFRSYM    DATA     BIT       P1_B0
      00000080H.1 SFRSYM    DATA     BIT       P0_B1
      000000B8H.2 SFRSYM    DATA     BIT       IP_PX1
      0000009EH   SFRSYM    DATA     BYTE      UART1LIN
      0000009BH   SFRSYM    DATA     BYTE      CMP0CN0
      00000088H.1 SFRSYM    DATA     BIT       TCON_IE0
      000000A0H   SFRSYM    DATA     BIT       P2_B0
      00000090H.1 SFRSYM    DATA     BIT       P1_B1
      00000080H.2 SFRSYM    DATA     BIT       P0_B2
      000000BFH   SFRSYM    DATA     BYTE      CMP1CN0
      00000099H   SFRSYM    DATA     BYTE      CMP0CN1
      00000088H.3 SFRSYM    DATA     BIT       TCON_IE1
      000000B0H   SFRSYM    DATA     BIT       P3_B0
      000000A0H.1 SFRSYM    DATA     BIT       P2_B1
      00000090H.2 SFRSYM    DATA     BIT       P1_B2
      00000080H.3 SFRSYM    DATA     BIT       P0_B3
      000000C0H   SFRSYM    DATA     BYTE      SMB0CN0
      000000ACH   SFRSYM    DATA     BYTE      CMP1CN1
      000000B0H.1 SFRSYM    DATA     BIT       P3_B1
      000000A0H.2 SFRSYM    DATA     BIT       P2_B2
      00000090H.3 SFRSYM    DATA     BIT       P1_B3
      00000080H.4 SFRSYM    DATA     BIT       P0_B4
      000000A0H.3 SFRSYM    DATA     BIT       P2_B3
      00000090H.4 SFRSYM    DATA     BIT       P1_B4
      00000080H.5 SFRSYM    DATA     BIT       P0_B5
      000000D8H.1 SFRSYM    DATA     BIT       UART1FCN1_RXTO0
      00000090H.5 SFRSYM    DATA     BIT       P1_B5
      00000080H.6 SFRSYM    DATA     BIT       P0_B6
      000000F5H   SFRSYM    DATA     BYTE      EIP1H
      000000D8H.2 SFRSYM    DATA     BIT       UART1FCN1_RXTO1
      00000090H.6 SFRSYM    DATA     BIT       P1_B6
      00000080H.7 SFRSYM    DATA     BIT       P0_B7
      000000C5H   SFRSYM    DATA     BYTE      SMB0RXLN
      000000F6H   SFRSYM    DATA     BYTE      EIP2H
      00000090H.7 SFRSYM    DATA     BIT       P1_B7
      00000083H   SFRSYM    DATA     BYTE      DPH
      000000C4H   SFRSYM    DATA     BYTE      ADC0GTH
      000000C8H.7 SFRSYM    DATA     BIT       TMR2CN0_TF2H
      000000C8H.3 SFRSYM    DATA     BIT       TMR2CN0_T2SPLIT
LX51 LINKER/LOCATER V4.66.30.0                                                        01/24/2016  18:13:24  PAGE 31


      000000D0H.6 SFRSYM    DATA     BIT       PSW_AC
      000000F8H   SFRSYM    DATA     BYTE      SPI0CN0
      000000C7H   SFRSYM    DATA     BYTE      HFO0CAL
      00000088H.5 SFRSYM    DATA     BIT       TCON_TF0
      00000098H   SFRSYM    DATA     BIT       SCON0_RI
      000000D6H   SFRSYM    DATA     BYTE      HFO1CAL
      00000082H   SFRSYM    DATA     BYTE      DPL
      00000088H.7 SFRSYM    DATA     BIT       TCON_TF1
      000000C8H   SFRSYM    DATA     BIT       SCON1_RI
      00000099H   SFRSYM    DATA     BYTE      SBUF0
      00000087H   SFRSYM    DATA     BYTE      PCON0
      000000F2H   SFRSYM    DATA     BYTE      IPH
      000000C3H   SFRSYM    DATA     BYTE      ADC0GTL
      00000098H.7 SFRSYM    DATA     BIT       TMR4CN0_TF4H
      00000098H.3 SFRSYM    DATA     BIT       TMR4CN0_T4SPLIT
      000000C8H.6 SFRSYM    DATA     BIT       TMR2CN0_TF2L
      00000098H.1 SFRSYM    DATA     BIT       SCON0_TI
      000000E8H   SFRSYM    DATA     BIT       ADC0CN0_ADCM0
      00000092H   SFRSYM    DATA     BYTE      SBUF1
      0000009AH   SFRSYM    DATA     BYTE      PCON1
      000000C6H   SFRSYM    DATA     BYTE      ADC0LTH
      00000088H   SFRSYM    DATA     BIT       TCON_IT0
      000000C8H.1 SFRSYM    DATA     BIT       SCON1_TI
      000000E8H.1 SFRSYM    DATA     BIT       ADC0CN0_ADCM1
      000000EFH   SFRSYM    DATA     BYTE      RSTSRC
      000000FDH   SFRSYM    DATA     BYTE      P0MAT
      000000DEH   SFRSYM    DATA     BYTE      CRC0DAT
      00000088H.2 SFRSYM    DATA     BIT       TCON_IT1
      000000E8H.2 SFRSYM    DATA     BIT       ADC0CN0_ADCM2
      000000D7H   SFRSYM    DATA     BYTE      SFRSTACK
      00000098H   SFRSYM    DATA     BYTE      SCON0
      000000F6H   SFRSYM    DATA     BYTE      PRTDRV
      000000EDH   SFRSYM    DATA     BYTE      P1MAT
      000000E8H.3 SFRSYM    DATA     BIT       ADC0CN0_ADWINT
      00000095H   SFRSYM    DATA     WORD      SBRL1
      000000B2H   SFRSYM    DATA     BYTE      USB0AEC
      00000093H   SFRSYM    DATA     BYTE      SMOD1
      000000C8H   SFRSYM    DATA     BYTE      SCON1
      000000FBH   SFRSYM    DATA     BYTE      P2MAT
      00000098H.6 SFRSYM    DATA     BIT       TMR4CN0_TF4L
      000000E8H.4 SFRSYM    DATA     BIT       ADC0CN0_ADBUSY
      000000D6H   SFRSYM    DATA     BYTE      SMB0ADM
      000000C5H   SFRSYM    DATA     BYTE      ADC0LTL
      000000F8H.5 SFRSYM    DATA     BIT       SPI0CN0_MODF
      000000B8H.6 SFRSYM    DATA     BIT       IP_PSPI0
      0000009CH   SFRSYM    DATA     BYTE      PCA0CLR
      000000C8H   SFRSYM    DATA     BYTE      TMR2CN0
      00000091H   SFRSYM    DATA     BYTE      TMR3CN0
      000000FDH   SFRSYM    DATA     BYTE      TMR2CN1
      00000098H   SFRSYM    DATA     BYTE      TMR4CN0
      000000FEH   SFRSYM    DATA     BYTE      TMR3CN1
      000000FFH   SFRSYM    DATA     BYTE      TMR4CN1
      000000D7H   SFRSYM    DATA     BYTE      SMB0ADR
      00000088H.4 SFRSYM    DATA     BIT       TCON_TR0
      000000C8H.4 SFRSYM    DATA     BIT       TMR2CN0_TF2CEN
      00000088H.6 SFRSYM    DATA     BIT       TCON_TR1
      000000C2H   SFRSYM    DATA     BYTE      SMB0DAT
      000000CDH   SFRSYM    DATA     BYTE      TMR2H
      000000A1H   SFRSYM    DATA     BYTE      SPI0CFG
      00000095H   SFRSYM    DATA     BYTE      TMR3H
      000000EFH   SFRSYM    DATA     BYTE      HFOCN
      000000D3H   SFRSYM    DATA     BYTE      CRC0CNT
LX51 LINKER/LOCATER V4.66.30.0                                                        01/24/2016  18:13:24  PAGE 32


      000000A5H   SFRSYM    DATA     BYTE      TMR4H
      00000098H.4 SFRSYM    DATA     BIT       TMR4CN0_TF4CEN
      000000EFH   SFRSYM    DATA     BYTE      SMB0FCT
      00000096H   SFRSYM    DATA     BYTE      PCA0POL
      000000CCH   SFRSYM    DATA     BYTE      TMR2L
      000000F8H.7 SFRSYM    DATA     BIT       SPI0CN0_SPIF
      000000AEH   SFRSYM    DATA     BYTE      USB0ADR
      00000094H   SFRSYM    DATA     BYTE      TMR3L
      000000DFH   SFRSYM    DATA     BYTE      ADC0PWR
      000000A8H.7 SFRSYM    DATA     BIT       IE_EA
      000000A4H   SFRSYM    DATA     BYTE      TMR4L
      000000AFH   SFRSYM    DATA     BYTE      USB0DAT
      000000C8H.5 SFRSYM    DATA     BIT       TMR2CN0_TF2LEN
      000000F8H.6 SFRSYM    DATA     BIT       SPI0CN0_WCOL
      00000080H.4 SFRSYM    DATA     BIT       LED_B
      000000F8H.2 SFRSYM    DATA     BIT       SPI0CN0_NSSMD0
      000000D0H.7 SFRSYM    DATA     BIT       PSW_CY
      0000009DH   SFRSYM    DATA     BYTE      UART1FCN0
      000000A3H   SFRSYM    DATA     BYTE      SPI0DAT
      000000ADH   SFRSYM    DATA     BYTE      I2C0FCN0
      000000F8H.3 SFRSYM    DATA     BIT       SPI0CN0_NSSMD1
      000000BDH   SFRSYM    DATA     WORD      ADC0
      000000D8H   SFRSYM    DATA     BYTE      UART1FCN1
      000000ABH   SFRSYM    DATA     BYTE      I2C0FCN1
      00000098H.5 SFRSYM    DATA     BIT       TMR4CN0_TF4LEN
      000000D0H   SFRSYM    DATA     BYTE      PSW
      000000F7H   SFRSYM    DATA     BYTE      PCA0PWM
      000000F7H   SFRSYM    DATA     BYTE      SPI0FCT
      000000B6H   SFRSYM    DATA     BYTE      REVID
      00000080H.5 SFRSYM    DATA     BIT       LED_G
      000000B7H   SFRSYM    DATA     BYTE      FLKEY
      000000B3H   SFRSYM    DATA     BYTE      ADC0AC

      010017A3H   BLOCK     CODE     ---       LVL=0
      ---         BLOCKEND  ---      ---       LVL=0

      01001B99H   BLOCK     CODE     ---       LVL=0
      01001B99H   LINE      CODE     ---       #41
      01001B99H   LINE      CODE     ---       #43
      ---         BLOCKEND  ---      ---       LVL=0

      01001B9AH   BLOCK     CODE     ---       LVL=0
      01001B9AH   LINE      CODE     ---       #45
      01001B9AH   LINE      CODE     ---       #47
      ---         BLOCKEND  ---      ---       LVL=0

      01001B31H   BLOCK     CODE     ---       LVL=0
      01001B31H   LINE      CODE     ---       #49
      01001B31H   LINE      CODE     ---       #50
      ---         BLOCKEND  ---      ---       LVL=0

      01001B88H   BLOCK     CODE     ---       LVL=0
      0000003DH   SYMBOL    DATA     WORD      sofNr
      01001B88H   LINE      CODE     ---       #53
      01001B8CH   LINE      CODE     ---       #55
      ---         BLOCKEND  ---      ---       LVL=0

      01001A54H   BLOCK     CODE     ---       LVL=0
      00000041H   SYMBOL    DATA     BYTE      oldState
      00000042H   SYMBOL    DATA     BYTE      newState
      01001A54H   LINE      CODE     ---       #57
      01001A58H   LINE      CODE     ---       #58
LX51 LINKER/LOCATER V4.66.30.0                                                        01/24/2016  18:13:24  PAGE 33


      01001A58H   LINE      CODE     ---       #59
      ---         BLOCKEND  ---      ---       LVL=0

      01001AC7H   BLOCK     CODE     ---       LVL=0
      01001AC7H   LINE      CODE     ---       #62
      01001AC7H   LINE      CODE     ---       #63
      01001AD0H   LINE      CODE     ---       #64
      01001AD1H   LINE      CODE     ---       #65
      ---         BLOCKEND  ---      ---       LVL=0

      010003DAH   BLOCK     CODE     ---       LVL=0
      0000003DH   SYMBOL    DATA     ---       setup
      010003DCH   BLOCK     CODE     NEAR LAB  LVL=1
      0000003EH   SYMBOL    DATA     CHAR      retVal
      0000003FH   SYMBOL    DATA     INT       i
      ---         BLOCKEND  ---      ---       LVL=1
      010003DAH   LINE      CODE     ---       #70
      010003DCH   LINE      CODE     ---       #71
      010003DCH   LINE      CODE     ---       #72
      010003DFH   LINE      CODE     ---       #80
      010003FAH   LINE      CODE     ---       #82
      010003FAH   LINE      CODE     ---       #86
      01000405H   LINE      CODE     ---       #87
      01000405H   LINE      CODE     ---       #88
      0100040CH   LINE      CODE     ---       #89
      0100041AH   LINE      CODE     ---       #90
      0100041AH   LINE      CODE     ---       #91
      01000432H   LINE      CODE     ---       #94
      01000432H   LINE      CODE     ---       #95
      01000434H   LINE      CODE     ---       #97
      01000434H   LINE      CODE     ---       #98
      01000434H   LINE      CODE     ---       #99
      01000434H   LINE      CODE     ---       #100
      0100043EH   LINE      CODE     ---       #101
      0100044CH   LINE      CODE     ---       #102
      0100044CH   LINE      CODE     ---       #103
      01000468H   LINE      CODE     ---       #105
      01000468H   LINE      CODE     ---       #106
      0100046BH   LINE      CODE     ---       #108
      0100046BH   LINE      CODE     ---       #109
      0100046BH   LINE      CODE     ---       #110
      0100046BH   LINE      CODE     ---       #111
      0100046BH   LINE      CODE     ---       #112
      0100046BH   LINE      CODE     ---       #113
      0100046BH   LINE      CODE     ---       #114
      0100046BH   LINE      CODE     ---       #115
      01000490H   LINE      CODE     ---       #118
      01000490H   LINE      CODE     ---       #120
      010004A4H   LINE      CODE     ---       #121
      010004A4H   LINE      CODE     ---       #122
      010004A4H   LINE      CODE     ---       #123
      010004AAH   LINE      CODE     ---       #124
      010004ADH   LINE      CODE     ---       #126
      010004ADH   LINE      CODE     ---       #127
      010004B6H   LINE      CODE     ---       #128
      010004CFH   LINE      CODE     ---       #129
      010004D5H   LINE      CODE     ---       #131
      010004D8H   LINE      CODE     ---       #133
      010004D8H   LINE      CODE     ---       #134
      010004F1H   LINE      CODE     ---       #137
      010004F1H   LINE      CODE     ---       #138
      010004FAH   LINE      CODE     ---       #139
LX51 LINKER/LOCATER V4.66.30.0                                                        01/24/2016  18:13:24  PAGE 34


      01000501H   LINE      CODE     ---       #140
      01000501H   LINE      CODE     ---       #141
      01000503H   LINE      CODE     ---       #142
      01000509H   LINE      CODE     ---       #143
      0100050BH   LINE      CODE     ---       #145
      0100050BH   LINE      CODE     ---       #146
      01000527H   LINE      CODE     ---       #149
      01000527H   LINE      CODE     ---       #150
      01000530H   LINE      CODE     ---       #151
      01000535H   LINE      CODE     ---       #152
      01000548H   LINE      CODE     ---       #153
      0100054BH   LINE      CODE     ---       #154
      0100054DH   LINE      CODE     ---       #155
      01000553H   LINE      CODE     ---       #156
      01000555H   LINE      CODE     ---       #157
      01000555H   LINE      CODE     ---       #158
      0100055BH   LINE      CODE     ---       #159
      0100055BH   LINE      CODE     ---       #160
      0100055DH   LINE      CODE     ---       #162
      0100055DH   LINE      CODE     ---       #163
      01000566H   LINE      CODE     ---       #164
      0100056FH   LINE      CODE     ---       #166
      0100056FH   LINE      CODE     ---       #168
      01000571H   LINE      CODE     ---       #169
      ---         BLOCKEND  ---      ---       LVL=0

      010012AEH   BLOCK     CODE     ---       LVL=0
      00000007H   SYMBOL    DATA     BYTE      epAddr
      00000041H   SYMBOL    DATA     CHAR      status
      00000082H   SYMBOL    DATA     WORD      xferred
      00000044H   SYMBOL    DATA     WORD      remaining
      010012B4H   BLOCK     CODE     NEAR LAB  LVL=1
      00000046H   SYMBOL    DATA     INT       i
      010012D8H   BLOCK     CODE     NEAR LAB  LVL=2
      00000048H   SYMBOL    DATA     WORD      l
      ---         BLOCKEND  ---      ---       LVL=2
      ---         BLOCKEND  ---      ---       LVL=1
      010012AEH   LINE      CODE     ---       #178
      010012B4H   LINE      CODE     ---       #179
      010012B4H   LINE      CODE     ---       #181
      010012B9H   LINE      CODE     ---       #186
      010012BEH   LINE      CODE     ---       #187
      010012BEH   LINE      CODE     ---       #188
      010012D3H   LINE      CODE     ---       #190
      010012D8H   LINE      CODE     ---       #191
      010012D8H   LINE      CODE     ---       #192
      010012EAH   LINE      CODE     ---       #193
      010012F8H   LINE      CODE     ---       #195
      0100130BH   LINE      CODE     ---       #196
      01001314H   LINE      CODE     ---       #197
      01001316H   LINE      CODE     ---       #199
      01001316H   LINE      CODE     ---       #200
      01001319H   LINE      CODE     ---       #201
      ---         BLOCKEND  ---      ---       LVL=0

      ---         MODULE    ---      ---       CALLBACK_OLD

      ---         MODULE    ---      ---       DESCRIPTORS
      01001C4CH   PUBLIC    CONST    ---       initstruct
      01001BD0H   PUBLIC    CONST    ---       configDesc
      01001BBEH   PUBLIC    CONST    ---       deviceDesc
      01001B9CH   PUBLIC    CONST    ---       ReportDescriptor0
LX51 LINKER/LOCATER V4.66.30.0                                                        01/24/2016  18:13:24  PAGE 35


      000000A2H   SFRSYM    DATA     BYTE      SPI0CKR
      00000080H   SFRSYM    DATA     BYTE      P0
      000000C8H.6 SFRSYM    DATA     BIT       SCON1_PERR
      000000D0H.2 SFRSYM    DATA     BIT       PSW_OV
      00000090H   SFRSYM    DATA     BYTE      P1
      000000F8H.1 SFRSYM    DATA     BIT       SPI0CN0_TXNF
      00000097H   SFRSYM    DATA     BYTE      WDTCN
      000000A0H   SFRSYM    DATA     BYTE      P2
      000000B0H   SFRSYM    DATA     BYTE      P3
      000000BCH   SFRSYM    DATA     BYTE      ADC0CF
      000000C0H.7 SFRSYM    DATA     BIT       SMB0CN0_MASTER
      000000F9H   SFRSYM    DATA     WORD      PCA0
      000000E6H   SFRSYM    DATA     BYTE      EIE1
      000000C0H.1 SFRSYM    DATA     BIT       SMB0CN0_ACK
      000000B3H   SFRSYM    DATA     BYTE      USB0XCN
      000000CEH   SFRSYM    DATA     BYTE      EIE2
      0000008FH   SFRSYM    DATA     BYTE      PSCTL
      000000E4H   SFRSYM    DATA     BYTE      IT01CF
      000000C0H.6 SFRSYM    DATA     BIT       SMB0CN0_TXMODE
      000000ADH   SFRSYM    DATA     BYTE      DERIVID
      000000A7H   SFRSYM    DATA     BYTE      SFRPAGE
      000000A4H   SFRSYM    DATA     BYTE      P0MDOUT
      000000BFH   SFRSYM    DATA     BYTE      USB0CDSTA
      000000A5H   SFRSYM    DATA     BYTE      P1MDOUT
      000000E8H.5 SFRSYM    DATA     BIT       ADC0CN0_ADINT
      000000CBH   SFRSYM    DATA     BYTE      TMR2RLH
      000000A6H   SFRSYM    DATA     BYTE      P2MDOUT
      000000A8H   SFRSYM    DATA     BYTE      IE
      00000093H   SFRSYM    DATA     BYTE      TMR3RLH
      0000009CH   SFRSYM    DATA     BYTE      P3MDOUT
      000000A3H   SFRSYM    DATA     BYTE      TMR4RLH
      000000F3H   SFRSYM    DATA     BYTE      EIP1
      000000F4H   SFRSYM    DATA     BYTE      EIP2
      00000098H.2 SFRSYM    DATA     BIT       SCON0_RB8
      000000CAH   SFRSYM    DATA     BYTE      TMR2RLL
      000000FCH   SFRSYM    DATA     BYTE      PCA0CPH0
      00000092H   SFRSYM    DATA     BYTE      TMR3RLL
      000000EAH   SFRSYM    DATA     BYTE      PCA0CPH1
      00000098H.3 SFRSYM    DATA     BIT       SCON0_TB8
      000000F0H   SFRSYM    DATA     BIT       B_B0
      00000082H   SFRSYM    DATA     WORD      DP
      000000A2H   SFRSYM    DATA     BYTE      TMR4RLL
      000000ECH   SFRSYM    DATA     BYTE      PCA0CPH2
      000000F0H.1 SFRSYM    DATA     BIT       B_B1
      000000C3H   SFRSYM    DATA     WORD      ADC0GT
      000000BDH   SFRSYM    DATA     BYTE      I2C0SLAD
      000000D8H.3 SFRSYM    DATA     BIT       UART1FCN1_RFRQ
      000000F0H.2 SFRSYM    DATA     BIT       B_B2
      000000CFH   SFRSYM    DATA     BYTE      SFRPGCN
      000000FBH   SFRSYM    DATA     BYTE      PCA0CPL0
      000000F0H.3 SFRSYM    DATA     BIT       B_B3
      000000D9H   SFRSYM    DATA     BYTE      PCA0MD
      000000DAH   SFRSYM    DATA     BYTE      PCA0CPM0
      000000E9H   SFRSYM    DATA     BYTE      PCA0CPL1
      000000D8H.7 SFRSYM    DATA     BIT       UART1FCN1_TFRQ
      000000F0H.4 SFRSYM    DATA     BIT       B_B4
      000000DBH   SFRSYM    DATA     BYTE      PCA0CPM1
      000000EBH   SFRSYM    DATA     BYTE      PCA0CPL2
      000000F0H.5 SFRSYM    DATA     BIT       B_B5
      000000DCH   SFRSYM    DATA     BYTE      PCA0CPM2
      000000B8H   SFRSYM    DATA     BYTE      IP
      000000B9H   SFRSYM    DATA     BYTE      ADC0TK
LX51 LINKER/LOCATER V4.66.30.0                                                        01/24/2016  18:13:24  PAGE 36


      000000F0H.6 SFRSYM    DATA     BIT       B_B6
      000000C5H   SFRSYM    DATA     WORD      ADC0LT
      000000D8H.6 SFRSYM    DATA     BIT       UART1FCN1_TXNF
      00000098H.5 SFRSYM    DATA     BIT       SCON0_MCE
      000000F0H.7 SFRSYM    DATA     BIT       B_B7
      000000C3H   SFRSYM    DATA     BYTE      SMB0FCN0
      000000E1H   SFRSYM    DATA     BYTE      XBR0
      000000C4H   SFRSYM    DATA     BYTE      SMB0FCN1
      000000C1H   SFRSYM    DATA     BYTE      SMB0CF
      000000E2H   SFRSYM    DATA     BYTE      XBR1
      000000C1H   SFRSYM    DATA     BYTE      PFE0CN
      000000E7H   SFRSYM    DATA     BYTE      EMI0CN
      000000C0H.5 SFRSYM    DATA     BIT       SMB0CN0_STA
      000000E3H   SFRSYM    DATA     BYTE      XBR2
      000000BBH   SFRSYM    DATA     BYTE      ADC0MX
      000000E0H   SFRSYM    DATA     BIT       ACC_ACC0
      000000D1H   SFRSYM    DATA     BYTE      REF0CN
      0000008EH   SFRSYM    DATA     BYTE      CKCON0
      000000E0H.1 SFRSYM    DATA     BIT       ACC_ACC1
      000000C9H   SFRSYM    DATA     BYTE      REG0CN
      000000DDH   SFRSYM    DATA     BYTE      CRC0IN
      000000A6H   SFRSYM    DATA     BYTE      CKCON1
      000000C8H.2 SFRSYM    DATA     BIT       TMR2CN0_TR2
      000000E0H.2 SFRSYM    DATA     BIT       ACC_ACC2
      000000C6H   SFRSYM    DATA     BYTE      REG1CN
      000000E0H.3 SFRSYM    DATA     BIT       ACC_ACC3
      00000081H   SFRSYM    DATA     BYTE      SP
      0000009DH   SFRSYM    DATA     BYTE      CMP0MD
      000000E0H.4 SFRSYM    DATA     BIT       ACC_ACC4
      000000B1H   SFRSYM    DATA     BYTE      LFO0CN
      000000ABH   SFRSYM    DATA     BYTE      CMP1MD
      000000D8H   SFRSYM    DATA     BIT       PCA0CN0_CCF0
      000000E0H.5 SFRSYM    DATA     BIT       ACC_ACC5
      000000B5H   SFRSYM    DATA     BYTE      USB0CF
      00000098H.2 SFRSYM    DATA     BIT       TMR4CN0_TR4
      000000D8H.1 SFRSYM    DATA     BIT       PCA0CN0_CCF1
      000000E0H.6 SFRSYM    DATA     BIT       ACC_ACC6
      000000CCH   SFRSYM    DATA     WORD      TMR2
      0000009AH   SFRSYM    DATA     BYTE      SPI0FCN0
      000000D8H.2 SFRSYM    DATA     BIT       PCA0CN0_CCF2
      000000E0H.7 SFRSYM    DATA     BIT       ACC_ACC7
      00000094H   SFRSYM    DATA     WORD      TMR3
      0000009BH   SFRSYM    DATA     BYTE      SPI0FCN1
      000000A4H   SFRSYM    DATA     WORD      TMR4
      00000094H   SFRSYM    DATA     BYTE      SBCON1
      000000C0H.3 SFRSYM    DATA     BIT       SMB0CN0_ACKRQ
      000000FFH   SFRSYM    DATA     BYTE      VDM0CN
      000000F1H   SFRSYM    DATA     BYTE      P0MDIN
      00000098H.4 SFRSYM    DATA     BIT       SCON0_REN
      000000ACH   SFRSYM    DATA     BYTE      SMB0TC
      000000F2H   SFRSYM    DATA     BYTE      P1MDIN
      000000C8H.4 SFRSYM    DATA     BIT       SCON1_REN
      000000F3H   SFRSYM    DATA     BYTE      P2MDIN
      000000C0H.4 SFRSYM    DATA     BIT       SMB0CN0_STO
      000000B6H   SFRSYM    DATA     BYTE      USB0CDCF
      000000F4H   SFRSYM    DATA     BYTE      P3MDIN
      000000B9H   SFRSYM    DATA     BYTE      I2C0STAT
      000000BBH   SFRSYM    DATA     BYTE      I2C0DOUT
      00000096H   SFRSYM    DATA     BYTE      SBRLH1
      000000FEH   SFRSYM    DATA     BYTE      P0MASK
      000000D8H.5 SFRSYM    DATA     BIT       UART1FCN1_TXHOLD
      000000EEH   SFRSYM    DATA     BYTE      P1MASK
LX51 LINKER/LOCATER V4.66.30.0                                                        01/24/2016  18:13:24  PAGE 37


      000000FCH   SFRSYM    DATA     BYTE      P2MASK
      000000D0H.3 SFRSYM    DATA     BIT       PSW_RS0
      000000D8H.7 SFRSYM    DATA     BIT       PCA0CN0_CF
      0000009EH   SFRSYM    DATA     BYTE      PCA0CENT
      000000BAH   SFRSYM    DATA     BYTE      I2C0CN0
      000000D2H   SFRSYM    DATA     BYTE      CRC0ST
      000000F8H.4 SFRSYM    DATA     BIT       SPI0CN0_RXOVRN
      000000D0H.4 SFRSYM    DATA     BIT       PSW_RS1
      00000095H   SFRSYM    DATA     BYTE      SBRLL1
      000000C8H.2 SFRSYM    DATA     BIT       SCON1_RBX
      000000C8H   SFRSYM    DATA     BIT       TMR2CN0_T2XCLK0
      000000C8H.1 SFRSYM    DATA     BIT       TMR2CN0_T2XCLK1
      000000C8H.3 SFRSYM    DATA     BIT       SCON1_TBX
      000000E8H.7 SFRSYM    DATA     BIT       ADC0CN0_ADEN
      000000BEH   SFRSYM    DATA     BYTE      USB0CDCN
      00000089H   SFRSYM    DATA     BYTE      TMOD
      00000088H   SFRSYM    DATA     BYTE      TCON
      000000CFH   SFRSYM    DATA     BYTE      CRC0FLIP
      000000D0H   SFRSYM    DATA     BIT       PSW_PARITY
      000000A8H.4 SFRSYM    DATA     BIT       IE_ES0
      0000009FH   SFRSYM    DATA     BYTE      CMP0MX
      00000098H   SFRSYM    DATA     BIT       TMR4CN0_T4XCLK0
      000000A8H.1 SFRSYM    DATA     BIT       IE_ET0
      000000AAH   SFRSYM    DATA     BYTE      CMP1MX
      00000098H.1 SFRSYM    DATA     BIT       TMR4CN0_T4XCLK1
      000000A8H.3 SFRSYM    DATA     BIT       IE_ET1
      000000D4H   SFRSYM    DATA     BYTE      P0SKIP
      000000D8H   SFRSYM    DATA     BIT       UART1FCN1_RIE
      000000A8H.5 SFRSYM    DATA     BIT       IE_ET2
      000000D5H   SFRSYM    DATA     BYTE      P1SKIP
      000000CCH   SFRSYM    DATA     BYTE      P2SKIP
      000000E8H   SFRSYM    DATA     BYTE      ADC0CN0
      000000D8H.4 SFRSYM    DATA     BIT       UART1FCN1_TIE
      000000A8H   SFRSYM    DATA     BIT       IE_EX0
      000000B2H   SFRSYM    DATA     BYTE      ADC0CN1
      000000D8H.6 SFRSYM    DATA     BIT       PCA0CN0_CR
      000000A8H.2 SFRSYM    DATA     BIT       IE_EX1
      000000C8H.7 SFRSYM    DATA     BIT       SCON1_OVR
      00000098H.7 SFRSYM    DATA     BIT       SCON0_SMODE
      000000B5H   SFRSYM    DATA     BYTE      DEVICEID
      000000A9H   SFRSYM    DATA     BYTE      CLKSEL
      000000F8H   SFRSYM    DATA     BIT       SPI0CN0_SPIEN
      000000F0H   SFRSYM    DATA     BYTE      B
      000000BEH   SFRSYM    DATA     BYTE      ADC0H
      000000E8H.6 SFRSYM    DATA     BIT       ADC0CN0_ADBMEN
      000000CAH   SFRSYM    DATA     WORD      TMR2RL
      000000BDH   SFRSYM    DATA     BYTE      ADC0L
      00000092H   SFRSYM    DATA     WORD      TMR3RL
      000000A2H   SFRSYM    DATA     WORD      TMR4RL
      000000D8H   SFRSYM    DATA     BYTE      PCA0CN0
      000000E0H   SFRSYM    DATA     BYTE      ACC
      000000FBH   SFRSYM    DATA     WORD      PCA0CP0
      000000E9H   SFRSYM    DATA     WORD      PCA0CP1
      000000EBH   SFRSYM    DATA     WORD      PCA0CP2
      000000BCH   SFRSYM    DATA     BYTE      I2C0DIN
      000000CEH   SFRSYM    DATA     BYTE      CRC0CN0
      0000008CH   SFRSYM    DATA     BYTE      TH0
      00000086H   SFRSYM    DATA     BYTE      CRC0CN1
      000000B8H.4 SFRSYM    DATA     BIT       IP_PS0
      000000FAH   SFRSYM    DATA     BYTE      UART1FCT
      0000008DH   SFRSYM    DATA     BYTE      TH1
      000000FAH   SFRSYM    DATA     BYTE      PCA0H
LX51 LINKER/LOCATER V4.66.30.0                                                        01/24/2016  18:13:24  PAGE 38


      000000F5H   SFRSYM    DATA     BYTE      I2C0FCT
      000000B8H.1 SFRSYM    DATA     BIT       IP_PT0
      000000B8H.3 SFRSYM    DATA     BIT       IP_PT1
      000000C0H.2 SFRSYM    DATA     BIT       SMB0CN0_ARBLOST
      000000B8H.5 SFRSYM    DATA     BIT       IP_PT2
      0000008AH   SFRSYM    DATA     BYTE      TL0
      000000D0H.5 SFRSYM    DATA     BIT       PSW_F0
      000000A8H.6 SFRSYM    DATA     BIT       IE_ESPI0
      0000008BH   SFRSYM    DATA     BYTE      TL1
      000000F9H   SFRSYM    DATA     BYTE      PCA0L
      000000C0H   SFRSYM    DATA     BIT       SMB0CN0_SI
      000000D0H.1 SFRSYM    DATA     BIT       PSW_F1
      00000080H   SFRSYM    DATA     BIT       P0_B0
      000000B8H   SFRSYM    DATA     BIT       IP_PX0
      00000090H   SFRSYM    DATA     BIT       P1_B0
      00000080H.1 SFRSYM    DATA     BIT       P0_B1
      000000B8H.2 SFRSYM    DATA     BIT       IP_PX1
      0000009EH   SFRSYM    DATA     BYTE      UART1LIN
      0000009BH   SFRSYM    DATA     BYTE      CMP0CN0
      00000088H.1 SFRSYM    DATA     BIT       TCON_IE0
      000000A0H   SFRSYM    DATA     BIT       P2_B0
      00000090H.1 SFRSYM    DATA     BIT       P1_B1
      00000080H.2 SFRSYM    DATA     BIT       P0_B2
      000000BFH   SFRSYM    DATA     BYTE      CMP1CN0
      00000099H   SFRSYM    DATA     BYTE      CMP0CN1
      00000088H.3 SFRSYM    DATA     BIT       TCON_IE1
      000000B0H   SFRSYM    DATA     BIT       P3_B0
      000000A0H.1 SFRSYM    DATA     BIT       P2_B1
      00000090H.2 SFRSYM    DATA     BIT       P1_B2
      00000080H.3 SFRSYM    DATA     BIT       P0_B3
      000000C0H   SFRSYM    DATA     BYTE      SMB0CN0
      000000ACH   SFRSYM    DATA     BYTE      CMP1CN1
      000000B0H.1 SFRSYM    DATA     BIT       P3_B1
      000000A0H.2 SFRSYM    DATA     BIT       P2_B2
      00000090H.3 SFRSYM    DATA     BIT       P1_B3
      00000080H.4 SFRSYM    DATA     BIT       P0_B4
      000000A0H.3 SFRSYM    DATA     BIT       P2_B3
      00000090H.4 SFRSYM    DATA     BIT       P1_B4
      00000080H.5 SFRSYM    DATA     BIT       P0_B5
      000000D8H.1 SFRSYM    DATA     BIT       UART1FCN1_RXTO0
      00000090H.5 SFRSYM    DATA     BIT       P1_B5
      00000080H.6 SFRSYM    DATA     BIT       P0_B6
      000000F5H   SFRSYM    DATA     BYTE      EIP1H
      000000D8H.2 SFRSYM    DATA     BIT       UART1FCN1_RXTO1
      00000090H.6 SFRSYM    DATA     BIT       P1_B6
      00000080H.7 SFRSYM    DATA     BIT       P0_B7
      000000C5H   SFRSYM    DATA     BYTE      SMB0RXLN
      000000F6H   SFRSYM    DATA     BYTE      EIP2H
      00000090H.7 SFRSYM    DATA     BIT       P1_B7
      00000083H   SFRSYM    DATA     BYTE      DPH
      000000C4H   SFRSYM    DATA     BYTE      ADC0GTH
      000000C8H.7 SFRSYM    DATA     BIT       TMR2CN0_TF2H
      000000C8H.3 SFRSYM    DATA     BIT       TMR2CN0_T2SPLIT
      000000D0H.6 SFRSYM    DATA     BIT       PSW_AC
      000000F8H   SFRSYM    DATA     BYTE      SPI0CN0
      000000C7H   SFRSYM    DATA     BYTE      HFO0CAL
      00000088H.5 SFRSYM    DATA     BIT       TCON_TF0
      00000098H   SFRSYM    DATA     BIT       SCON0_RI
      000000D6H   SFRSYM    DATA     BYTE      HFO1CAL
      00000082H   SFRSYM    DATA     BYTE      DPL
      00000088H.7 SFRSYM    DATA     BIT       TCON_TF1
      000000C8H   SFRSYM    DATA     BIT       SCON1_RI
LX51 LINKER/LOCATER V4.66.30.0                                                        01/24/2016  18:13:24  PAGE 39


      00000099H   SFRSYM    DATA     BYTE      SBUF0
      00000087H   SFRSYM    DATA     BYTE      PCON0
      000000F2H   SFRSYM    DATA     BYTE      IPH
      000000C3H   SFRSYM    DATA     BYTE      ADC0GTL
      00000098H.7 SFRSYM    DATA     BIT       TMR4CN0_TF4H
      00000098H.3 SFRSYM    DATA     BIT       TMR4CN0_T4SPLIT
      000000C8H.6 SFRSYM    DATA     BIT       TMR2CN0_TF2L
      00000098H.1 SFRSYM    DATA     BIT       SCON0_TI
      000000E8H   SFRSYM    DATA     BIT       ADC0CN0_ADCM0
      00000092H   SFRSYM    DATA     BYTE      SBUF1
      0000009AH   SFRSYM    DATA     BYTE      PCON1
      000000C6H   SFRSYM    DATA     BYTE      ADC0LTH
      00000088H   SFRSYM    DATA     BIT       TCON_IT0
      000000C8H.1 SFRSYM    DATA     BIT       SCON1_TI
      000000E8H.1 SFRSYM    DATA     BIT       ADC0CN0_ADCM1
      000000EFH   SFRSYM    DATA     BYTE      RSTSRC
      000000FDH   SFRSYM    DATA     BYTE      P0MAT
      000000DEH   SFRSYM    DATA     BYTE      CRC0DAT
      00000088H.2 SFRSYM    DATA     BIT       TCON_IT1
      000000E8H.2 SFRSYM    DATA     BIT       ADC0CN0_ADCM2
      000000D7H   SFRSYM    DATA     BYTE      SFRSTACK
      00000098H   SFRSYM    DATA     BYTE      SCON0
      000000F6H   SFRSYM    DATA     BYTE      PRTDRV
      000000EDH   SFRSYM    DATA     BYTE      P1MAT
      000000E8H.3 SFRSYM    DATA     BIT       ADC0CN0_ADWINT
      00000095H   SFRSYM    DATA     WORD      SBRL1
      000000B2H   SFRSYM    DATA     BYTE      USB0AEC
      00000093H   SFRSYM    DATA     BYTE      SMOD1
      000000C8H   SFRSYM    DATA     BYTE      SCON1
      000000FBH   SFRSYM    DATA     BYTE      P2MAT
      00000098H.6 SFRSYM    DATA     BIT       TMR4CN0_TF4L
      000000E8H.4 SFRSYM    DATA     BIT       ADC0CN0_ADBUSY
      000000D6H   SFRSYM    DATA     BYTE      SMB0ADM
      000000C5H   SFRSYM    DATA     BYTE      ADC0LTL
      000000F8H.5 SFRSYM    DATA     BIT       SPI0CN0_MODF
      000000B8H.6 SFRSYM    DATA     BIT       IP_PSPI0
      0000009CH   SFRSYM    DATA     BYTE      PCA0CLR
      000000C8H   SFRSYM    DATA     BYTE      TMR2CN0
      00000091H   SFRSYM    DATA     BYTE      TMR3CN0
      000000FDH   SFRSYM    DATA     BYTE      TMR2CN1
      00000098H   SFRSYM    DATA     BYTE      TMR4CN0
      000000FEH   SFRSYM    DATA     BYTE      TMR3CN1
      000000FFH   SFRSYM    DATA     BYTE      TMR4CN1
      000000D7H   SFRSYM    DATA     BYTE      SMB0ADR
      00000088H.4 SFRSYM    DATA     BIT       TCON_TR0
      000000C8H.4 SFRSYM    DATA     BIT       TMR2CN0_TF2CEN
      00000088H.6 SFRSYM    DATA     BIT       TCON_TR1
      000000C2H   SFRSYM    DATA     BYTE      SMB0DAT
      000000CDH   SFRSYM    DATA     BYTE      TMR2H
      000000A1H   SFRSYM    DATA     BYTE      SPI0CFG
      00000095H   SFRSYM    DATA     BYTE      TMR3H
      000000EFH   SFRSYM    DATA     BYTE      HFOCN
      000000D3H   SFRSYM    DATA     BYTE      CRC0CNT
      000000A5H   SFRSYM    DATA     BYTE      TMR4H
      00000098H.4 SFRSYM    DATA     BIT       TMR4CN0_TF4CEN
      000000EFH   SFRSYM    DATA     BYTE      SMB0FCT
      00000096H   SFRSYM    DATA     BYTE      PCA0POL
      000000CCH   SFRSYM    DATA     BYTE      TMR2L
      000000F8H.7 SFRSYM    DATA     BIT       SPI0CN0_SPIF
      000000AEH   SFRSYM    DATA     BYTE      USB0ADR
      00000094H   SFRSYM    DATA     BYTE      TMR3L
      000000DFH   SFRSYM    DATA     BYTE      ADC0PWR
LX51 LINKER/LOCATER V4.66.30.0                                                        01/24/2016  18:13:24  PAGE 40


      000000A8H.7 SFRSYM    DATA     BIT       IE_EA
      000000A4H   SFRSYM    DATA     BYTE      TMR4L
      000000AFH   SFRSYM    DATA     BYTE      USB0DAT
      000000C8H.5 SFRSYM    DATA     BIT       TMR2CN0_TF2LEN
      000000F8H.6 SFRSYM    DATA     BIT       SPI0CN0_WCOL
      000000F8H.2 SFRSYM    DATA     BIT       SPI0CN0_NSSMD0
      000000D0H.7 SFRSYM    DATA     BIT       PSW_CY
      0000009DH   SFRSYM    DATA     BYTE      UART1FCN0
      000000A3H   SFRSYM    DATA     BYTE      SPI0DAT
      000000ADH   SFRSYM    DATA     BYTE      I2C0FCN0
      000000F8H.3 SFRSYM    DATA     BIT       SPI0CN0_NSSMD1
      000000BDH   SFRSYM    DATA     WORD      ADC0
      000000D8H   SFRSYM    DATA     BYTE      UART1FCN1
      000000ABH   SFRSYM    DATA     BYTE      I2C0FCN1
      00000098H.5 SFRSYM    DATA     BIT       TMR4CN0_TF4LEN
      000000D0H   SFRSYM    DATA     BYTE      PSW
      000000F7H   SFRSYM    DATA     BYTE      PCA0PWM
      000000F7H   SFRSYM    DATA     BYTE      SPI0FCT
      000000B6H   SFRSYM    DATA     BYTE      REVID
      000000B7H   SFRSYM    DATA     BYTE      FLKEY
      000000B3H   SFRSYM    DATA     BYTE      ADC0AC
      01001C2DH   SYMBOL    CONST    ---       int0Desc
      01001BF9H   SYMBOL    CONST    ---       langDesc
      01001C0DH   SYMBOL    CONST    ---       prodDesc
      01001BFDH   SYMBOL    CONST    ---       mfrDesc
      01001C19H   SYMBOL    CONST    ---       serDesc
      01001C3DH   SYMBOL    CONST    ---       myUsbStringTable_USEnglish

      ---         MODULE    ---      ---       DESCRIPTORS_OLD

      ---         MODULE    ---      ---       IDLE
      01001B91H   PUBLIC    CODE     ---       idleGetRate
      01001A23H   PUBLIC    CODE     ---       _idleTimerSet
      01001962H   PUBLIC    CODE     ---       idleTimerStart
      00000008H   SYMBOL    DATA     ---       idle

      01001962H   BLOCK     CODE     ---       LVL=0
      01001962H   LINE      CODE     ---       #19
      01001962H   LINE      CODE     ---       #20
      01001962H   LINE      CODE     ---       #21
      01001969H   LINE      CODE     ---       #22
      01001969H   LINE      CODE     ---       #23
      01001974H   LINE      CODE     ---       #24
      01001975H   LINE      CODE     ---       #26
      01001975H   LINE      CODE     ---       #27
      0100197BH   LINE      CODE     ---       #28
      0100197BH   LINE      CODE     ---       #29
      ---         BLOCKEND  ---      ---       LVL=0

      01001A23H   BLOCK     CODE     ---       LVL=0
      00000007H   SYMBOL    DATA     BYTE      rate
      01001A23H   LINE      CODE     ---       #52
      01001A23H   LINE      CODE     ---       #53
      01001A23H   LINE      CODE     ---       #54
      01001A2BH   LINE      CODE     ---       #55
      01001A2BH   LINE      CODE     ---       #56
      01001A2EH   LINE      CODE     ---       #57
      01001A30H   LINE      CODE     ---       #59
      01001A30H   LINE      CODE     ---       #60
      01001A32H   LINE      CODE     ---       #61
      01001A32H   LINE      CODE     ---       #63
      ---         BLOCKEND  ---      ---       LVL=0
LX51 LINKER/LOCATER V4.66.30.0                                                        01/24/2016  18:13:24  PAGE 41



      01001B91H   BLOCK     CODE     ---       LVL=0
      01001B91H   LINE      CODE     ---       #74
      01001B91H   LINE      CODE     ---       #75
      01001B91H   LINE      CODE     ---       #76
      01001B93H   LINE      CODE     ---       #77
      ---         BLOCKEND  ---      ---       LVL=0

      ---         MODULE    ---      ---       U2F_FIRMWARE_MAIN
      00000022H.4 PUBLIC    BIT      BIT       keyPushed
      0000000EH   PUBLIC    DATA     BYTE      keySeqNo
      00000022H.3 PUBLIC    BIT      BIT       readpacket
      010014B8H   PUBLIC    CODE     ---       mybuf
      01001B94H   PUBLIC    CODE     ---       PMATCH_IrqHandler
      010014F8H   PUBLIC    CODE     ---       main
      0100181CH   PUBLIC    CODE     ---       _Delay
      000000A2H   SFRSYM    DATA     BYTE      SPI0CKR
      00000080H   SFRSYM    DATA     BYTE      P0
      000000C8H.6 SFRSYM    DATA     BIT       SCON1_PERR
      000000D0H.2 SFRSYM    DATA     BIT       PSW_OV
      00000090H   SFRSYM    DATA     BYTE      P1
      000000F8H.1 SFRSYM    DATA     BIT       SPI0CN0_TXNF
      00000097H   SFRSYM    DATA     BYTE      WDTCN
      000000A0H   SFRSYM    DATA     BYTE      P2
      000000B0H   SFRSYM    DATA     BYTE      P3
      000000BCH   SFRSYM    DATA     BYTE      ADC0CF
      000000C0H.7 SFRSYM    DATA     BIT       SMB0CN0_MASTER
      000000F9H   SFRSYM    DATA     WORD      PCA0
      000000E6H   SFRSYM    DATA     BYTE      EIE1
      000000C0H.1 SFRSYM    DATA     BIT       SMB0CN0_ACK
      000000B3H   SFRSYM    DATA     BYTE      USB0XCN
      000000CEH   SFRSYM    DATA     BYTE      EIE2
      00000080H.6 SFRSYM    DATA     BIT       LED_R
      0000008FH   SFRSYM    DATA     BYTE      PSCTL
      000000E4H   SFRSYM    DATA     BYTE      IT01CF
      000000C0H.6 SFRSYM    DATA     BIT       SMB0CN0_TXMODE
      000000ADH   SFRSYM    DATA     BYTE      DERIVID
      000000A7H   SFRSYM    DATA     BYTE      SFRPAGE
      000000A4H   SFRSYM    DATA     BYTE      P0MDOUT
      000000BFH   SFRSYM    DATA     BYTE      USB0CDSTA
      000000A5H   SFRSYM    DATA     BYTE      P1MDOUT
      000000E8H.5 SFRSYM    DATA     BIT       ADC0CN0_ADINT
      000000CBH   SFRSYM    DATA     BYTE      TMR2RLH
      000000A6H   SFRSYM    DATA     BYTE      P2MDOUT
      000000A8H   SFRSYM    DATA     BYTE      IE
      00000093H   SFRSYM    DATA     BYTE      TMR3RLH
      0000009CH   SFRSYM    DATA     BYTE      P3MDOUT
      000000A3H   SFRSYM    DATA     BYTE      TMR4RLH
      000000F3H   SFRSYM    DATA     BYTE      EIP1
      000000F4H   SFRSYM    DATA     BYTE      EIP2
      00000098H.2 SFRSYM    DATA     BIT       SCON0_RB8
      000000CAH   SFRSYM    DATA     BYTE      TMR2RLL
      000000FCH   SFRSYM    DATA     BYTE      PCA0CPH0
      00000092H   SFRSYM    DATA     BYTE      TMR3RLL
      000000EAH   SFRSYM    DATA     BYTE      PCA0CPH1
      00000098H.3 SFRSYM    DATA     BIT       SCON0_TB8
      000000F0H   SFRSYM    DATA     BIT       B_B0
      00000082H   SFRSYM    DATA     WORD      DP
      000000A2H   SFRSYM    DATA     BYTE      TMR4RLL
      000000ECH   SFRSYM    DATA     BYTE      PCA0CPH2
      000000F0H.1 SFRSYM    DATA     BIT       B_B1
      000000C3H   SFRSYM    DATA     WORD      ADC0GT
LX51 LINKER/LOCATER V4.66.30.0                                                        01/24/2016  18:13:24  PAGE 42


      000000BDH   SFRSYM    DATA     BYTE      I2C0SLAD
      000000D8H.3 SFRSYM    DATA     BIT       UART1FCN1_RFRQ
      000000F0H.2 SFRSYM    DATA     BIT       B_B2
      000000CFH   SFRSYM    DATA     BYTE      SFRPGCN
      000000FBH   SFRSYM    DATA     BYTE      PCA0CPL0
      000000F0H.3 SFRSYM    DATA     BIT       B_B3
      000000D9H   SFRSYM    DATA     BYTE      PCA0MD
      000000DAH   SFRSYM    DATA     BYTE      PCA0CPM0
      000000E9H   SFRSYM    DATA     BYTE      PCA0CPL1
      000000D8H.7 SFRSYM    DATA     BIT       UART1FCN1_TFRQ
      000000F0H.4 SFRSYM    DATA     BIT       B_B4
      000000DBH   SFRSYM    DATA     BYTE      PCA0CPM1
      000000EBH   SFRSYM    DATA     BYTE      PCA0CPL2
      000000F0H.5 SFRSYM    DATA     BIT       B_B5
      000000DCH   SFRSYM    DATA     BYTE      PCA0CPM2
      000000B8H   SFRSYM    DATA     BYTE      IP
      000000B9H   SFRSYM    DATA     BYTE      ADC0TK
      000000F0H.6 SFRSYM    DATA     BIT       B_B6
      000000C5H   SFRSYM    DATA     WORD      ADC0LT
      000000D8H.6 SFRSYM    DATA     BIT       UART1FCN1_TXNF
      00000098H.5 SFRSYM    DATA     BIT       SCON0_MCE
      000000F0H.7 SFRSYM    DATA     BIT       B_B7
      000000C3H   SFRSYM    DATA     BYTE      SMB0FCN0
      000000E1H   SFRSYM    DATA     BYTE      XBR0
      000000C4H   SFRSYM    DATA     BYTE      SMB0FCN1
      000000C1H   SFRSYM    DATA     BYTE      SMB0CF
      000000E2H   SFRSYM    DATA     BYTE      XBR1
      000000C1H   SFRSYM    DATA     BYTE      PFE0CN
      000000E7H   SFRSYM    DATA     BYTE      EMI0CN
      000000C0H.5 SFRSYM    DATA     BIT       SMB0CN0_STA
      000000E3H   SFRSYM    DATA     BYTE      XBR2
      000000BBH   SFRSYM    DATA     BYTE      ADC0MX
      000000E0H   SFRSYM    DATA     BIT       ACC_ACC0
      000000D1H   SFRSYM    DATA     BYTE      REF0CN
      0000008EH   SFRSYM    DATA     BYTE      CKCON0
      000000E0H.1 SFRSYM    DATA     BIT       ACC_ACC1
      000000C9H   SFRSYM    DATA     BYTE      REG0CN
      000000DDH   SFRSYM    DATA     BYTE      CRC0IN
      000000A6H   SFRSYM    DATA     BYTE      CKCON1
      000000C8H.2 SFRSYM    DATA     BIT       TMR2CN0_TR2
      000000E0H.2 SFRSYM    DATA     BIT       ACC_ACC2
      000000C6H   SFRSYM    DATA     BYTE      REG1CN
      000000E0H.3 SFRSYM    DATA     BIT       ACC_ACC3
      00000081H   SFRSYM    DATA     BYTE      SP
      0000009DH   SFRSYM    DATA     BYTE      CMP0MD
      000000E0H.4 SFRSYM    DATA     BIT       ACC_ACC4
      000000B1H   SFRSYM    DATA     BYTE      LFO0CN
      000000ABH   SFRSYM    DATA     BYTE      CMP1MD
      000000D8H   SFRSYM    DATA     BIT       PCA0CN0_CCF0
      000000E0H.5 SFRSYM    DATA     BIT       ACC_ACC5
      000000B5H   SFRSYM    DATA     BYTE      USB0CF
      00000098H.2 SFRSYM    DATA     BIT       TMR4CN0_TR4
      000000D8H.1 SFRSYM    DATA     BIT       PCA0CN0_CCF1
      000000E0H.6 SFRSYM    DATA     BIT       ACC_ACC6
      000000CCH   SFRSYM    DATA     WORD      TMR2
      0000009AH   SFRSYM    DATA     BYTE      SPI0FCN0
      000000D8H.2 SFRSYM    DATA     BIT       PCA0CN0_CCF2
      000000E0H.7 SFRSYM    DATA     BIT       ACC_ACC7
      00000094H   SFRSYM    DATA     WORD      TMR3
      0000009BH   SFRSYM    DATA     BYTE      SPI0FCN1
      000000A4H   SFRSYM    DATA     WORD      TMR4
      00000094H   SFRSYM    DATA     BYTE      SBCON1
LX51 LINKER/LOCATER V4.66.30.0                                                        01/24/2016  18:13:24  PAGE 43


      000000C0H.3 SFRSYM    DATA     BIT       SMB0CN0_ACKRQ
      000000FFH   SFRSYM    DATA     BYTE      VDM0CN
      000000F1H   SFRSYM    DATA     BYTE      P0MDIN
      00000098H.4 SFRSYM    DATA     BIT       SCON0_REN
      000000ACH   SFRSYM    DATA     BYTE      SMB0TC
      000000F2H   SFRSYM    DATA     BYTE      P1MDIN
      000000C8H.4 SFRSYM    DATA     BIT       SCON1_REN
      000000F3H   SFRSYM    DATA     BYTE      P2MDIN
      000000C0H.4 SFRSYM    DATA     BIT       SMB0CN0_STO
      000000B6H   SFRSYM    DATA     BYTE      USB0CDCF
      000000F4H   SFRSYM    DATA     BYTE      P3MDIN
      000000B9H   SFRSYM    DATA     BYTE      I2C0STAT
      000000BBH   SFRSYM    DATA     BYTE      I2C0DOUT
      00000096H   SFRSYM    DATA     BYTE      SBRLH1
      000000FEH   SFRSYM    DATA     BYTE      P0MASK
      000000D8H.5 SFRSYM    DATA     BIT       UART1FCN1_TXHOLD
      000000EEH   SFRSYM    DATA     BYTE      P1MASK
      000000FCH   SFRSYM    DATA     BYTE      P2MASK
      000000D0H.3 SFRSYM    DATA     BIT       PSW_RS0
      000000D8H.7 SFRSYM    DATA     BIT       PCA0CN0_CF
      0000009EH   SFRSYM    DATA     BYTE      PCA0CENT
      000000BAH   SFRSYM    DATA     BYTE      I2C0CN0
      000000D2H   SFRSYM    DATA     BYTE      CRC0ST
      000000F8H.4 SFRSYM    DATA     BIT       SPI0CN0_RXOVRN
      000000D0H.4 SFRSYM    DATA     BIT       PSW_RS1
      00000095H   SFRSYM    DATA     BYTE      SBRLL1
      000000C8H.2 SFRSYM    DATA     BIT       SCON1_RBX
      000000C8H   SFRSYM    DATA     BIT       TMR2CN0_T2XCLK0
      000000C8H.1 SFRSYM    DATA     BIT       TMR2CN0_T2XCLK1
      000000C8H.3 SFRSYM    DATA     BIT       SCON1_TBX
      000000E8H.7 SFRSYM    DATA     BIT       ADC0CN0_ADEN
      000000BEH   SFRSYM    DATA     BYTE      USB0CDCN
      00000089H   SFRSYM    DATA     BYTE      TMOD
      00000088H   SFRSYM    DATA     BYTE      TCON
      000000CFH   SFRSYM    DATA     BYTE      CRC0FLIP
      000000D0H   SFRSYM    DATA     BIT       PSW_PARITY
      000000A8H.4 SFRSYM    DATA     BIT       IE_ES0
      0000009FH   SFRSYM    DATA     BYTE      CMP0MX
      00000098H   SFRSYM    DATA     BIT       TMR4CN0_T4XCLK0
      000000A8H.1 SFRSYM    DATA     BIT       IE_ET0
      000000AAH   SFRSYM    DATA     BYTE      CMP1MX
      00000098H.1 SFRSYM    DATA     BIT       TMR4CN0_T4XCLK1
      000000A8H.3 SFRSYM    DATA     BIT       IE_ET1
      000000D4H   SFRSYM    DATA     BYTE      P0SKIP
      000000D8H   SFRSYM    DATA     BIT       UART1FCN1_RIE
      000000A8H.5 SFRSYM    DATA     BIT       IE_ET2
      000000D5H   SFRSYM    DATA     BYTE      P1SKIP
      000000CCH   SFRSYM    DATA     BYTE      P2SKIP
      000000E8H   SFRSYM    DATA     BYTE      ADC0CN0
      000000D8H.4 SFRSYM    DATA     BIT       UART1FCN1_TIE
      000000A8H   SFRSYM    DATA     BIT       IE_EX0
      000000B2H   SFRSYM    DATA     BYTE      ADC0CN1
      000000D8H.6 SFRSYM    DATA     BIT       PCA0CN0_CR
      000000A8H.2 SFRSYM    DATA     BIT       IE_EX1
      000000C8H.7 SFRSYM    DATA     BIT       SCON1_OVR
      00000098H.7 SFRSYM    DATA     BIT       SCON0_SMODE
      000000B5H   SFRSYM    DATA     BYTE      DEVICEID
      000000A9H   SFRSYM    DATA     BYTE      CLKSEL
      000000F8H   SFRSYM    DATA     BIT       SPI0CN0_SPIEN
      000000F0H   SFRSYM    DATA     BYTE      B
      000000BEH   SFRSYM    DATA     BYTE      ADC0H
      000000E8H.6 SFRSYM    DATA     BIT       ADC0CN0_ADBMEN
LX51 LINKER/LOCATER V4.66.30.0                                                        01/24/2016  18:13:24  PAGE 44


      000000CAH   SFRSYM    DATA     WORD      TMR2RL
      000000BDH   SFRSYM    DATA     BYTE      ADC0L
      00000092H   SFRSYM    DATA     WORD      TMR3RL
      000000A2H   SFRSYM    DATA     WORD      TMR4RL
      000000D8H   SFRSYM    DATA     BYTE      PCA0CN0
      000000E0H   SFRSYM    DATA     BYTE      ACC
      000000FBH   SFRSYM    DATA     WORD      PCA0CP0
      000000E9H   SFRSYM    DATA     WORD      PCA0CP1
      000000EBH   SFRSYM    DATA     WORD      PCA0CP2
      000000BCH   SFRSYM    DATA     BYTE      I2C0DIN
      000000CEH   SFRSYM    DATA     BYTE      CRC0CN0
      0000008CH   SFRSYM    DATA     BYTE      TH0
      00000086H   SFRSYM    DATA     BYTE      CRC0CN1
      000000B8H.4 SFRSYM    DATA     BIT       IP_PS0
      000000FAH   SFRSYM    DATA     BYTE      UART1FCT
      0000008DH   SFRSYM    DATA     BYTE      TH1
      000000FAH   SFRSYM    DATA     BYTE      PCA0H
      000000F5H   SFRSYM    DATA     BYTE      I2C0FCT
      000000B8H.1 SFRSYM    DATA     BIT       IP_PT0
      000000B8H.3 SFRSYM    DATA     BIT       IP_PT1
      000000C0H.2 SFRSYM    DATA     BIT       SMB0CN0_ARBLOST
      000000B8H.5 SFRSYM    DATA     BIT       IP_PT2
      0000008AH   SFRSYM    DATA     BYTE      TL0
      000000D0H.5 SFRSYM    DATA     BIT       PSW_F0
      000000A8H.6 SFRSYM    DATA     BIT       IE_ESPI0
      0000008BH   SFRSYM    DATA     BYTE      TL1
      000000F9H   SFRSYM    DATA     BYTE      PCA0L
      000000C0H   SFRSYM    DATA     BIT       SMB0CN0_SI
      000000D0H.1 SFRSYM    DATA     BIT       PSW_F1
      00000080H   SFRSYM    DATA     BIT       P0_B0
      000000B8H   SFRSYM    DATA     BIT       IP_PX0
      00000090H   SFRSYM    DATA     BIT       P1_B0
      00000080H.1 SFRSYM    DATA     BIT       P0_B1
      000000B8H.2 SFRSYM    DATA     BIT       IP_PX1
      0000009EH   SFRSYM    DATA     BYTE      UART1LIN
      0000009BH   SFRSYM    DATA     BYTE      CMP0CN0
      00000088H.1 SFRSYM    DATA     BIT       TCON_IE0
      000000A0H   SFRSYM    DATA     BIT       P2_B0
      00000090H.1 SFRSYM    DATA     BIT       P1_B1
      00000080H.2 SFRSYM    DATA     BIT       P0_B2
      000000BFH   SFRSYM    DATA     BYTE      CMP1CN0
      00000099H   SFRSYM    DATA     BYTE      CMP0CN1
      00000088H.3 SFRSYM    DATA     BIT       TCON_IE1
      000000B0H   SFRSYM    DATA     BIT       P3_B0
      000000A0H.1 SFRSYM    DATA     BIT       P2_B1
      00000090H.2 SFRSYM    DATA     BIT       P1_B2
      00000080H.3 SFRSYM    DATA     BIT       P0_B3
      000000C0H   SFRSYM    DATA     BYTE      SMB0CN0
      000000ACH   SFRSYM    DATA     BYTE      CMP1CN1
      000000B0H.1 SFRSYM    DATA     BIT       P3_B1
      000000A0H.2 SFRSYM    DATA     BIT       P2_B2
      00000090H.3 SFRSYM    DATA     BIT       P1_B3
      00000080H.4 SFRSYM    DATA     BIT       P0_B4
      000000A0H.3 SFRSYM    DATA     BIT       P2_B3
      00000090H.4 SFRSYM    DATA     BIT       P1_B4
      00000080H.5 SFRSYM    DATA     BIT       P0_B5
      000000D8H.1 SFRSYM    DATA     BIT       UART1FCN1_RXTO0
      00000090H.5 SFRSYM    DATA     BIT       P1_B5
      00000080H.6 SFRSYM    DATA     BIT       P0_B6
      000000F5H   SFRSYM    DATA     BYTE      EIP1H
      000000D8H.2 SFRSYM    DATA     BIT       UART1FCN1_RXTO1
      00000090H.6 SFRSYM    DATA     BIT       P1_B6
LX51 LINKER/LOCATER V4.66.30.0                                                        01/24/2016  18:13:24  PAGE 45


      00000080H.7 SFRSYM    DATA     BIT       P0_B7
      000000C5H   SFRSYM    DATA     BYTE      SMB0RXLN
      000000F6H   SFRSYM    DATA     BYTE      EIP2H
      00000090H.7 SFRSYM    DATA     BIT       P1_B7
      00000083H   SFRSYM    DATA     BYTE      DPH
      000000C4H   SFRSYM    DATA     BYTE      ADC0GTH
      000000C8H.7 SFRSYM    DATA     BIT       TMR2CN0_TF2H
      000000C8H.3 SFRSYM    DATA     BIT       TMR2CN0_T2SPLIT
      000000D0H.6 SFRSYM    DATA     BIT       PSW_AC
      000000F8H   SFRSYM    DATA     BYTE      SPI0CN0
      000000C7H   SFRSYM    DATA     BYTE      HFO0CAL
      00000088H.5 SFRSYM    DATA     BIT       TCON_TF0
      00000098H   SFRSYM    DATA     BIT       SCON0_RI
      000000D6H   SFRSYM    DATA     BYTE      HFO1CAL
      00000082H   SFRSYM    DATA     BYTE      DPL
      00000088H.7 SFRSYM    DATA     BIT       TCON_TF1
      000000C8H   SFRSYM    DATA     BIT       SCON1_RI
      00000099H   SFRSYM    DATA     BYTE      SBUF0
      00000087H   SFRSYM    DATA     BYTE      PCON0
      000000F2H   SFRSYM    DATA     BYTE      IPH
      000000C3H   SFRSYM    DATA     BYTE      ADC0GTL
      00000098H.7 SFRSYM    DATA     BIT       TMR4CN0_TF4H
      00000098H.3 SFRSYM    DATA     BIT       TMR4CN0_T4SPLIT
      000000C8H.6 SFRSYM    DATA     BIT       TMR2CN0_TF2L
      00000098H.1 SFRSYM    DATA     BIT       SCON0_TI
      000000E8H   SFRSYM    DATA     BIT       ADC0CN0_ADCM0
      00000092H   SFRSYM    DATA     BYTE      SBUF1
      0000009AH   SFRSYM    DATA     BYTE      PCON1
      000000C6H   SFRSYM    DATA     BYTE      ADC0LTH
      00000088H   SFRSYM    DATA     BIT       TCON_IT0
      000000C8H.1 SFRSYM    DATA     BIT       SCON1_TI
      000000E8H.1 SFRSYM    DATA     BIT       ADC0CN0_ADCM1
      000000EFH   SFRSYM    DATA     BYTE      RSTSRC
      000000FDH   SFRSYM    DATA     BYTE      P0MAT
      000000DEH   SFRSYM    DATA     BYTE      CRC0DAT
      00000088H.2 SFRSYM    DATA     BIT       TCON_IT1
      000000E8H.2 SFRSYM    DATA     BIT       ADC0CN0_ADCM2
      000000D7H   SFRSYM    DATA     BYTE      SFRSTACK
      00000098H   SFRSYM    DATA     BYTE      SCON0
      000000F6H   SFRSYM    DATA     BYTE      PRTDRV
      000000EDH   SFRSYM    DATA     BYTE      P1MAT
      000000E8H.3 SFRSYM    DATA     BIT       ADC0CN0_ADWINT
      00000095H   SFRSYM    DATA     WORD      SBRL1
      000000B2H   SFRSYM    DATA     BYTE      USB0AEC
      00000093H   SFRSYM    DATA     BYTE      SMOD1
      000000C8H   SFRSYM    DATA     BYTE      SCON1
      000000FBH   SFRSYM    DATA     BYTE      P2MAT
      00000098H.6 SFRSYM    DATA     BIT       TMR4CN0_TF4L
      000000E8H.4 SFRSYM    DATA     BIT       ADC0CN0_ADBUSY
      000000D6H   SFRSYM    DATA     BYTE      SMB0ADM
      000000C5H   SFRSYM    DATA     BYTE      ADC0LTL
      000000F8H.5 SFRSYM    DATA     BIT       SPI0CN0_MODF
      000000B8H.6 SFRSYM    DATA     BIT       IP_PSPI0
      0000009CH   SFRSYM    DATA     BYTE      PCA0CLR
      000000C8H   SFRSYM    DATA     BYTE      TMR2CN0
      00000091H   SFRSYM    DATA     BYTE      TMR3CN0
      000000FDH   SFRSYM    DATA     BYTE      TMR2CN1
      00000098H   SFRSYM    DATA     BYTE      TMR4CN0
      000000FEH   SFRSYM    DATA     BYTE      TMR3CN1
      000000FFH   SFRSYM    DATA     BYTE      TMR4CN1
      000000D7H   SFRSYM    DATA     BYTE      SMB0ADR
      00000088H.4 SFRSYM    DATA     BIT       TCON_TR0
LX51 LINKER/LOCATER V4.66.30.0                                                        01/24/2016  18:13:24  PAGE 46


      000000C8H.4 SFRSYM    DATA     BIT       TMR2CN0_TF2CEN
      00000088H.6 SFRSYM    DATA     BIT       TCON_TR1
      000000C2H   SFRSYM    DATA     BYTE      SMB0DAT
      000000CDH   SFRSYM    DATA     BYTE      TMR2H
      000000A1H   SFRSYM    DATA     BYTE      SPI0CFG
      00000095H   SFRSYM    DATA     BYTE      TMR3H
      000000EFH   SFRSYM    DATA     BYTE      HFOCN
      000000D3H   SFRSYM    DATA     BYTE      CRC0CNT
      000000A5H   SFRSYM    DATA     BYTE      TMR4H
      00000098H.4 SFRSYM    DATA     BIT       TMR4CN0_TF4CEN
      000000EFH   SFRSYM    DATA     BYTE      SMB0FCT
      00000096H   SFRSYM    DATA     BYTE      PCA0POL
      000000CCH   SFRSYM    DATA     BYTE      TMR2L
      000000F8H.7 SFRSYM    DATA     BIT       SPI0CN0_SPIF
      000000AEH   SFRSYM    DATA     BYTE      USB0ADR
      00000094H   SFRSYM    DATA     BYTE      TMR3L
      000000DFH   SFRSYM    DATA     BYTE      ADC0PWR
      000000A8H.7 SFRSYM    DATA     BIT       IE_EA
      000000A4H   SFRSYM    DATA     BYTE      TMR4L
      000000AFH   SFRSYM    DATA     BYTE      USB0DAT
      000000C8H.5 SFRSYM    DATA     BIT       TMR2CN0_TF2LEN
      000000F8H.6 SFRSYM    DATA     BIT       SPI0CN0_WCOL
      00000080H.4 SFRSYM    DATA     BIT       LED_B
      000000F8H.2 SFRSYM    DATA     BIT       SPI0CN0_NSSMD0
      000000D0H.7 SFRSYM    DATA     BIT       PSW_CY
      0000009DH   SFRSYM    DATA     BYTE      UART1FCN0
      000000A3H   SFRSYM    DATA     BYTE      SPI0DAT
      000000ADH   SFRSYM    DATA     BYTE      I2C0FCN0
      000000F8H.3 SFRSYM    DATA     BIT       SPI0CN0_NSSMD1
      000000BDH   SFRSYM    DATA     WORD      ADC0
      000000D8H   SFRSYM    DATA     BYTE      UART1FCN1
      000000ABH   SFRSYM    DATA     BYTE      I2C0FCN1
      00000098H.5 SFRSYM    DATA     BIT       TMR4CN0_TF4LEN
      000000D0H   SFRSYM    DATA     BYTE      PSW
      000000F7H   SFRSYM    DATA     BYTE      PCA0PWM
      000000F7H   SFRSYM    DATA     BYTE      SPI0FCT
      000000B6H   SFRSYM    DATA     BYTE      REVID
      00000080H.5 SFRSYM    DATA     BIT       LED_G
      000000B7H   SFRSYM    DATA     BYTE      FLKEY
      000000B3H   SFRSYM    DATA     BYTE      ADC0AC

      0100181CH   BLOCK     CODE     ---       LVL=0
      00000006H   SYMBOL    DATA     INT       ms
      0100181CH   BLOCK     CODE     NEAR LAB  LVL=1
      00000002H   SYMBOL    DATA     INT       x
      00000004H   SYMBOL    DATA     INT       y
      ---         BLOCKEND  ---      ---       LVL=1
      0100181CH   LINE      CODE     ---       #64
      0100181CH   LINE      CODE     ---       #67
      0100182CH   LINE      CODE     ---       #68
      0100182FH   LINE      CODE     ---       #69
      01001834H   LINE      CODE     ---       #70
      0100183AH   LINE      CODE     ---       #71
      01001841H   LINE      CODE     ---       #72
      ---         BLOCKEND  ---      ---       LVL=0

      010014F8H   BLOCK     CODE     ---       LVL=0
      010014F8H   BLOCK     CODE     NEAR LAB  LVL=1
      00000023H   SYMBOL    DATA     INT       i
      ---         BLOCKEND  ---      ---       LVL=1
      010014F8H   LINE      CODE     ---       #76
      010014F8H   LINE      CODE     ---       #77
LX51 LINKER/LOCATER V4.66.30.0                                                        01/24/2016  18:13:24  PAGE 47


      010014FDH   LINE      CODE     ---       #79
      01001500H   LINE      CODE     ---       #81
      01001502H   LINE      CODE     ---       #83
      01001504H   LINE      CODE     ---       #85
      0100150DH   LINE      CODE     ---       #87
      0100150DH   LINE      CODE     ---       #88
      01001515H   LINE      CODE     ---       #90
      01001523H   LINE      CODE     ---       #91
      0100152AH   LINE      CODE     ---       #93
      0100152DH   LINE      CODE     ---       #94
      0100152DH   LINE      CODE     ---       #95
      01001540H   LINE      CODE     ---       #96
      01001542H   LINE      CODE     ---       #97
      01001542H   LINE      CODE     ---       #99
      ---         BLOCKEND  ---      ---       LVL=0

      01001B94H   BLOCK     CODE     ---       LVL=0
      01001B94H   LINE      CODE     ---       #102
      01001B94H   LINE      CODE     ---       #103
      01001B96H   LINE      CODE     ---       #104
      ---         BLOCKEND  ---      ---       LVL=0

      ---         MODULE    ---      ---       USB_0
      010018F0H   PUBLIC    CODE     ---       USB_SuspendOscillator
      01001B4AH   PUBLIC    CODE     ---       USB_IsRegulatorEnabled
      01001B42H   PUBLIC    CODE     ---       USB_IsPrefetchEnabled
      01001B6EH   PUBLIC    CODE     ---       USB_GetIntsEnabled
      01001B82H   PUBLIC    CODE     ---       USB_GetSofNumber
      00000021H.2 PUBLIC    BIT      BIT       ?_USB_ActivateEp?BIT
      01001094H   PUBLIC    CODE     ---       _USB_ActivateEp
      010016AAH   PUBLIC    CODE     ---       _USB_AbortOutEp
      01001B7CH   PUBLIC    CODE     ---       USB_EpOutGetCount
      01001ABBH   PUBLIC    CODE     ---       USB_EpnGetOutPacketReady
      01001AA2H   PUBLIC    CODE     ---       USB_EpnOutGetSentStall
      01001676H   PUBLIC    CODE     ---       _USB_AbortInEp
      01001A95H   PUBLIC    CODE     ---       USB_EpnInGetSentStall
      01001B09H   PUBLIC    CODE     ---       USB_Ep0GetCount
      01001A88H   PUBLIC    CODE     ---       USB_Ep0InPacketReady
      01001AAFH   PUBLIC    CODE     ---       USB_Ep0OutPacketReady
      01001A7BH   PUBLIC    CODE     ---       USB_Ep0SentStall
      01001A6EH   PUBLIC    CODE     ---       USB_GetSetupEnd
      01001A61H   PUBLIC    CODE     ---       USB_IsSuspended
      01001AFEH   PUBLIC    CODE     ---       USB_GetIndex
      01001AF3H   PUBLIC    CODE     ---       USB_GetOutInts
      01001AE8H   PUBLIC    CODE     ---       USB_GetInInts
      01001ADDH   PUBLIC    CODE     ---       USB_GetCommonInts
      01001AD2H   PUBLIC    CODE     ---       _USB_SetIndex
      000000A2H   SFRSYM    DATA     BYTE      SPI0CKR
      00000080H   SFRSYM    DATA     BYTE      P0
      000000C8H.6 SFRSYM    DATA     BIT       SCON1_PERR
      000000D0H.2 SFRSYM    DATA     BIT       PSW_OV
      00000090H   SFRSYM    DATA     BYTE      P1
      000000F8H.1 SFRSYM    DATA     BIT       SPI0CN0_TXNF
      00000097H   SFRSYM    DATA     BYTE      WDTCN
      000000A0H   SFRSYM    DATA     BYTE      P2
      000000B0H   SFRSYM    DATA     BYTE      P3
      000000BCH   SFRSYM    DATA     BYTE      ADC0CF
      000000C0H.7 SFRSYM    DATA     BIT       SMB0CN0_MASTER
      000000F9H   SFRSYM    DATA     WORD      PCA0
      000000E6H   SFRSYM    DATA     BYTE      EIE1
      000000C0H.1 SFRSYM    DATA     BIT       SMB0CN0_ACK
      000000B3H   SFRSYM    DATA     BYTE      USB0XCN
LX51 LINKER/LOCATER V4.66.30.0                                                        01/24/2016  18:13:24  PAGE 48


      000000CEH   SFRSYM    DATA     BYTE      EIE2
      0000008FH   SFRSYM    DATA     BYTE      PSCTL
      000000E4H   SFRSYM    DATA     BYTE      IT01CF
      000000C0H.6 SFRSYM    DATA     BIT       SMB0CN0_TXMODE
      000000ADH   SFRSYM    DATA     BYTE      DERIVID
      000000A7H   SFRSYM    DATA     BYTE      SFRPAGE
      000000A4H   SFRSYM    DATA     BYTE      P0MDOUT
      000000BFH   SFRSYM    DATA     BYTE      USB0CDSTA
      000000A5H   SFRSYM    DATA     BYTE      P1MDOUT
      000000E8H.5 SFRSYM    DATA     BIT       ADC0CN0_ADINT
      000000CBH   SFRSYM    DATA     BYTE      TMR2RLH
      000000A6H   SFRSYM    DATA     BYTE      P2MDOUT
      000000A8H   SFRSYM    DATA     BYTE      IE
      00000093H   SFRSYM    DATA     BYTE      TMR3RLH
      0000009CH   SFRSYM    DATA     BYTE      P3MDOUT
      000000A3H   SFRSYM    DATA     BYTE      TMR4RLH
      000000F3H   SFRSYM    DATA     BYTE      EIP1
      000000F4H   SFRSYM    DATA     BYTE      EIP2
      00000098H.2 SFRSYM    DATA     BIT       SCON0_RB8
      000000CAH   SFRSYM    DATA     BYTE      TMR2RLL
      000000FCH   SFRSYM    DATA     BYTE      PCA0CPH0
      00000092H   SFRSYM    DATA     BYTE      TMR3RLL
      000000EAH   SFRSYM    DATA     BYTE      PCA0CPH1
      00000098H.3 SFRSYM    DATA     BIT       SCON0_TB8
      000000F0H   SFRSYM    DATA     BIT       B_B0
      00000082H   SFRSYM    DATA     WORD      DP
      000000A2H   SFRSYM    DATA     BYTE      TMR4RLL
      000000ECH   SFRSYM    DATA     BYTE      PCA0CPH2
      000000F0H.1 SFRSYM    DATA     BIT       B_B1
      000000C3H   SFRSYM    DATA     WORD      ADC0GT
      000000BDH   SFRSYM    DATA     BYTE      I2C0SLAD
      000000D8H.3 SFRSYM    DATA     BIT       UART1FCN1_RFRQ
      000000F0H.2 SFRSYM    DATA     BIT       B_B2
      000000CFH   SFRSYM    DATA     BYTE      SFRPGCN
      000000FBH   SFRSYM    DATA     BYTE      PCA0CPL0
      000000F0H.3 SFRSYM    DATA     BIT       B_B3
      000000D9H   SFRSYM    DATA     BYTE      PCA0MD
      000000DAH   SFRSYM    DATA     BYTE      PCA0CPM0
      000000E9H   SFRSYM    DATA     BYTE      PCA0CPL1
      000000D8H.7 SFRSYM    DATA     BIT       UART1FCN1_TFRQ
      000000F0H.4 SFRSYM    DATA     BIT       B_B4
      000000DBH   SFRSYM    DATA     BYTE      PCA0CPM1
      000000EBH   SFRSYM    DATA     BYTE      PCA0CPL2
      000000F0H.5 SFRSYM    DATA     BIT       B_B5
      000000DCH   SFRSYM    DATA     BYTE      PCA0CPM2
      000000B8H   SFRSYM    DATA     BYTE      IP
      000000B9H   SFRSYM    DATA     BYTE      ADC0TK
      000000F0H.6 SFRSYM    DATA     BIT       B_B6
      000000C5H   SFRSYM    DATA     WORD      ADC0LT
      000000D8H.6 SFRSYM    DATA     BIT       UART1FCN1_TXNF
      00000098H.5 SFRSYM    DATA     BIT       SCON0_MCE
      000000F0H.7 SFRSYM    DATA     BIT       B_B7
      000000C3H   SFRSYM    DATA     BYTE      SMB0FCN0
      000000E1H   SFRSYM    DATA     BYTE      XBR0
      000000C4H   SFRSYM    DATA     BYTE      SMB0FCN1
      000000C1H   SFRSYM    DATA     BYTE      SMB0CF
      000000E2H   SFRSYM    DATA     BYTE      XBR1
      000000C1H   SFRSYM    DATA     BYTE      PFE0CN
      000000E7H   SFRSYM    DATA     BYTE      EMI0CN
      000000C0H.5 SFRSYM    DATA     BIT       SMB0CN0_STA
      000000E3H   SFRSYM    DATA     BYTE      XBR2
      000000BBH   SFRSYM    DATA     BYTE      ADC0MX
LX51 LINKER/LOCATER V4.66.30.0                                                        01/24/2016  18:13:24  PAGE 49


      000000E0H   SFRSYM    DATA     BIT       ACC_ACC0
      000000D1H   SFRSYM    DATA     BYTE      REF0CN
      0000008EH   SFRSYM    DATA     BYTE      CKCON0
      000000E0H.1 SFRSYM    DATA     BIT       ACC_ACC1
      000000C9H   SFRSYM    DATA     BYTE      REG0CN
      000000DDH   SFRSYM    DATA     BYTE      CRC0IN
      000000A6H   SFRSYM    DATA     BYTE      CKCON1
      000000C8H.2 SFRSYM    DATA     BIT       TMR2CN0_TR2
      000000E0H.2 SFRSYM    DATA     BIT       ACC_ACC2
      000000C6H   SFRSYM    DATA     BYTE      REG1CN
      000000E0H.3 SFRSYM    DATA     BIT       ACC_ACC3
      00000081H   SFRSYM    DATA     BYTE      SP
      0000009DH   SFRSYM    DATA     BYTE      CMP0MD
      000000E0H.4 SFRSYM    DATA     BIT       ACC_ACC4
      000000B1H   SFRSYM    DATA     BYTE      LFO0CN
      000000ABH   SFRSYM    DATA     BYTE      CMP1MD
      000000D8H   SFRSYM    DATA     BIT       PCA0CN0_CCF0
      000000E0H.5 SFRSYM    DATA     BIT       ACC_ACC5
      000000B5H   SFRSYM    DATA     BYTE      USB0CF
      00000098H.2 SFRSYM    DATA     BIT       TMR4CN0_TR4
      000000D8H.1 SFRSYM    DATA     BIT       PCA0CN0_CCF1
      000000E0H.6 SFRSYM    DATA     BIT       ACC_ACC6
      000000CCH   SFRSYM    DATA     WORD      TMR2
      0000009AH   SFRSYM    DATA     BYTE      SPI0FCN0
      000000D8H.2 SFRSYM    DATA     BIT       PCA0CN0_CCF2
      000000E0H.7 SFRSYM    DATA     BIT       ACC_ACC7
      00000094H   SFRSYM    DATA     WORD      TMR3
      0000009BH   SFRSYM    DATA     BYTE      SPI0FCN1
      000000A4H   SFRSYM    DATA     WORD      TMR4
      00000094H   SFRSYM    DATA     BYTE      SBCON1
      000000C0H.3 SFRSYM    DATA     BIT       SMB0CN0_ACKRQ
      000000FFH   SFRSYM    DATA     BYTE      VDM0CN
      000000F1H   SFRSYM    DATA     BYTE      P0MDIN
      00000098H.4 SFRSYM    DATA     BIT       SCON0_REN
      000000ACH   SFRSYM    DATA     BYTE      SMB0TC
      000000F2H   SFRSYM    DATA     BYTE      P1MDIN
      000000C8H.4 SFRSYM    DATA     BIT       SCON1_REN
      000000F3H   SFRSYM    DATA     BYTE      P2MDIN
      000000C0H.4 SFRSYM    DATA     BIT       SMB0CN0_STO
      000000B6H   SFRSYM    DATA     BYTE      USB0CDCF
      000000F4H   SFRSYM    DATA     BYTE      P3MDIN
      000000B9H   SFRSYM    DATA     BYTE      I2C0STAT
      000000BBH   SFRSYM    DATA     BYTE      I2C0DOUT
      00000096H   SFRSYM    DATA     BYTE      SBRLH1
      000000FEH   SFRSYM    DATA     BYTE      P0MASK
      000000D8H.5 SFRSYM    DATA     BIT       UART1FCN1_TXHOLD
      000000EEH   SFRSYM    DATA     BYTE      P1MASK
      000000FCH   SFRSYM    DATA     BYTE      P2MASK
      000000D0H.3 SFRSYM    DATA     BIT       PSW_RS0
      000000D8H.7 SFRSYM    DATA     BIT       PCA0CN0_CF
      0000009EH   SFRSYM    DATA     BYTE      PCA0CENT
      000000BAH   SFRSYM    DATA     BYTE      I2C0CN0
      000000D2H   SFRSYM    DATA     BYTE      CRC0ST
      000000F8H.4 SFRSYM    DATA     BIT       SPI0CN0_RXOVRN
      000000D0H.4 SFRSYM    DATA     BIT       PSW_RS1
      00000095H   SFRSYM    DATA     BYTE      SBRLL1
      000000C8H.2 SFRSYM    DATA     BIT       SCON1_RBX
      000000C8H   SFRSYM    DATA     BIT       TMR2CN0_T2XCLK0
      000000C8H.1 SFRSYM    DATA     BIT       TMR2CN0_T2XCLK1
      000000C8H.3 SFRSYM    DATA     BIT       SCON1_TBX
      000000E8H.7 SFRSYM    DATA     BIT       ADC0CN0_ADEN
      000000BEH   SFRSYM    DATA     BYTE      USB0CDCN
LX51 LINKER/LOCATER V4.66.30.0                                                        01/24/2016  18:13:24  PAGE 50


      00000089H   SFRSYM    DATA     BYTE      TMOD
      00000088H   SFRSYM    DATA     BYTE      TCON
      000000CFH   SFRSYM    DATA     BYTE      CRC0FLIP
      000000D0H   SFRSYM    DATA     BIT       PSW_PARITY
      000000A8H.4 SFRSYM    DATA     BIT       IE_ES0
      0000009FH   SFRSYM    DATA     BYTE      CMP0MX
      00000098H   SFRSYM    DATA     BIT       TMR4CN0_T4XCLK0
      000000A8H.1 SFRSYM    DATA     BIT       IE_ET0
      000000AAH   SFRSYM    DATA     BYTE      CMP1MX
      00000098H.1 SFRSYM    DATA     BIT       TMR4CN0_T4XCLK1
      000000A8H.3 SFRSYM    DATA     BIT       IE_ET1
      000000D4H   SFRSYM    DATA     BYTE      P0SKIP
      000000D8H   SFRSYM    DATA     BIT       UART1FCN1_RIE
      000000A8H.5 SFRSYM    DATA     BIT       IE_ET2
      000000D5H   SFRSYM    DATA     BYTE      P1SKIP
      000000CCH   SFRSYM    DATA     BYTE      P2SKIP
      000000E8H   SFRSYM    DATA     BYTE      ADC0CN0
      000000D8H.4 SFRSYM    DATA     BIT       UART1FCN1_TIE
      000000A8H   SFRSYM    DATA     BIT       IE_EX0
      000000B2H   SFRSYM    DATA     BYTE      ADC0CN1
      000000D8H.6 SFRSYM    DATA     BIT       PCA0CN0_CR
      000000A8H.2 SFRSYM    DATA     BIT       IE_EX1
      000000C8H.7 SFRSYM    DATA     BIT       SCON1_OVR
      00000098H.7 SFRSYM    DATA     BIT       SCON0_SMODE
      000000B5H   SFRSYM    DATA     BYTE      DEVICEID
      000000A9H   SFRSYM    DATA     BYTE      CLKSEL
      000000F8H   SFRSYM    DATA     BIT       SPI0CN0_SPIEN
      000000F0H   SFRSYM    DATA     BYTE      B
      000000BEH   SFRSYM    DATA     BYTE      ADC0H
      000000E8H.6 SFRSYM    DATA     BIT       ADC0CN0_ADBMEN
      000000CAH   SFRSYM    DATA     WORD      TMR2RL
      000000BDH   SFRSYM    DATA     BYTE      ADC0L
      00000092H   SFRSYM    DATA     WORD      TMR3RL
      000000A2H   SFRSYM    DATA     WORD      TMR4RL
      000000D8H   SFRSYM    DATA     BYTE      PCA0CN0
      000000E0H   SFRSYM    DATA     BYTE      ACC
      000000FBH   SFRSYM    DATA     WORD      PCA0CP0
      000000E9H   SFRSYM    DATA     WORD      PCA0CP1
      000000EBH   SFRSYM    DATA     WORD      PCA0CP2
      000000BCH   SFRSYM    DATA     BYTE      I2C0DIN
      000000CEH   SFRSYM    DATA     BYTE      CRC0CN0
      0000008CH   SFRSYM    DATA     BYTE      TH0
      00000086H   SFRSYM    DATA     BYTE      CRC0CN1
      000000B8H.4 SFRSYM    DATA     BIT       IP_PS0
      000000FAH   SFRSYM    DATA     BYTE      UART1FCT
      0000008DH   SFRSYM    DATA     BYTE      TH1
      000000FAH   SFRSYM    DATA     BYTE      PCA0H
      000000F5H   SFRSYM    DATA     BYTE      I2C0FCT
      000000B8H.1 SFRSYM    DATA     BIT       IP_PT0
      000000B8H.3 SFRSYM    DATA     BIT       IP_PT1
      000000C0H.2 SFRSYM    DATA     BIT       SMB0CN0_ARBLOST
      000000B8H.5 SFRSYM    DATA     BIT       IP_PT2
      0000008AH   SFRSYM    DATA     BYTE      TL0
      000000D0H.5 SFRSYM    DATA     BIT       PSW_F0
      000000A8H.6 SFRSYM    DATA     BIT       IE_ESPI0
      0000008BH   SFRSYM    DATA     BYTE      TL1
      000000F9H   SFRSYM    DATA     BYTE      PCA0L
      000000C0H   SFRSYM    DATA     BIT       SMB0CN0_SI
      000000D0H.1 SFRSYM    DATA     BIT       PSW_F1
      00000080H   SFRSYM    DATA     BIT       P0_B0
      000000B8H   SFRSYM    DATA     BIT       IP_PX0
      00000090H   SFRSYM    DATA     BIT       P1_B0
LX51 LINKER/LOCATER V4.66.30.0                                                        01/24/2016  18:13:24  PAGE 51


      00000080H.1 SFRSYM    DATA     BIT       P0_B1
      000000B8H.2 SFRSYM    DATA     BIT       IP_PX1
      0000009EH   SFRSYM    DATA     BYTE      UART1LIN
      0000009BH   SFRSYM    DATA     BYTE      CMP0CN0
      00000088H.1 SFRSYM    DATA     BIT       TCON_IE0
      000000A0H   SFRSYM    DATA     BIT       P2_B0
      00000090H.1 SFRSYM    DATA     BIT       P1_B1
      00000080H.2 SFRSYM    DATA     BIT       P0_B2
      000000BFH   SFRSYM    DATA     BYTE      CMP1CN0
      00000099H   SFRSYM    DATA     BYTE      CMP0CN1
      00000088H.3 SFRSYM    DATA     BIT       TCON_IE1
      000000B0H   SFRSYM    DATA     BIT       P3_B0
      000000A0H.1 SFRSYM    DATA     BIT       P2_B1
      00000090H.2 SFRSYM    DATA     BIT       P1_B2
      00000080H.3 SFRSYM    DATA     BIT       P0_B3
      000000C0H   SFRSYM    DATA     BYTE      SMB0CN0
      000000ACH   SFRSYM    DATA     BYTE      CMP1CN1
      000000B0H.1 SFRSYM    DATA     BIT       P3_B1
      000000A0H.2 SFRSYM    DATA     BIT       P2_B2
      00000090H.3 SFRSYM    DATA     BIT       P1_B3
      00000080H.4 SFRSYM    DATA     BIT       P0_B4
      000000A0H.3 SFRSYM    DATA     BIT       P2_B3
      00000090H.4 SFRSYM    DATA     BIT       P1_B4
      00000080H.5 SFRSYM    DATA     BIT       P0_B5
      000000D8H.1 SFRSYM    DATA     BIT       UART1FCN1_RXTO0
      00000090H.5 SFRSYM    DATA     BIT       P1_B5
      00000080H.6 SFRSYM    DATA     BIT       P0_B6
      000000F5H   SFRSYM    DATA     BYTE      EIP1H
      000000D8H.2 SFRSYM    DATA     BIT       UART1FCN1_RXTO1
      00000090H.6 SFRSYM    DATA     BIT       P1_B6
      00000080H.7 SFRSYM    DATA     BIT       P0_B7
      000000C5H   SFRSYM    DATA     BYTE      SMB0RXLN
      000000F6H   SFRSYM    DATA     BYTE      EIP2H
      00000090H.7 SFRSYM    DATA     BIT       P1_B7
      00000083H   SFRSYM    DATA     BYTE      DPH
      000000C4H   SFRSYM    DATA     BYTE      ADC0GTH
      000000C8H.7 SFRSYM    DATA     BIT       TMR2CN0_TF2H
      000000C8H.3 SFRSYM    DATA     BIT       TMR2CN0_T2SPLIT
      000000D0H.6 SFRSYM    DATA     BIT       PSW_AC
      000000F8H   SFRSYM    DATA     BYTE      SPI0CN0
      000000C7H   SFRSYM    DATA     BYTE      HFO0CAL
      00000088H.5 SFRSYM    DATA     BIT       TCON_TF0
      00000098H   SFRSYM    DATA     BIT       SCON0_RI
      000000D6H   SFRSYM    DATA     BYTE      HFO1CAL
      00000082H   SFRSYM    DATA     BYTE      DPL
      00000088H.7 SFRSYM    DATA     BIT       TCON_TF1
      000000C8H   SFRSYM    DATA     BIT       SCON1_RI
      00000099H   SFRSYM    DATA     BYTE      SBUF0
      00000087H   SFRSYM    DATA     BYTE      PCON0
      000000F2H   SFRSYM    DATA     BYTE      IPH
      000000C3H   SFRSYM    DATA     BYTE      ADC0GTL
      00000098H.7 SFRSYM    DATA     BIT       TMR4CN0_TF4H
      00000098H.3 SFRSYM    DATA     BIT       TMR4CN0_T4SPLIT
      000000C8H.6 SFRSYM    DATA     BIT       TMR2CN0_TF2L
      00000098H.1 SFRSYM    DATA     BIT       SCON0_TI
      000000E8H   SFRSYM    DATA     BIT       ADC0CN0_ADCM0
      00000092H   SFRSYM    DATA     BYTE      SBUF1
      0000009AH   SFRSYM    DATA     BYTE      PCON1
      000000C6H   SFRSYM    DATA     BYTE      ADC0LTH
      00000088H   SFRSYM    DATA     BIT       TCON_IT0
      000000C8H.1 SFRSYM    DATA     BIT       SCON1_TI
      000000E8H.1 SFRSYM    DATA     BIT       ADC0CN0_ADCM1
LX51 LINKER/LOCATER V4.66.30.0                                                        01/24/2016  18:13:24  PAGE 52


      000000EFH   SFRSYM    DATA     BYTE      RSTSRC
      000000FDH   SFRSYM    DATA     BYTE      P0MAT
      000000DEH   SFRSYM    DATA     BYTE      CRC0DAT
      00000088H.2 SFRSYM    DATA     BIT       TCON_IT1
      000000E8H.2 SFRSYM    DATA     BIT       ADC0CN0_ADCM2
      000000D7H   SFRSYM    DATA     BYTE      SFRSTACK
      00000098H   SFRSYM    DATA     BYTE      SCON0
      000000F6H   SFRSYM    DATA     BYTE      PRTDRV
      000000EDH   SFRSYM    DATA     BYTE      P1MAT
      000000E8H.3 SFRSYM    DATA     BIT       ADC0CN0_ADWINT
      00000095H   SFRSYM    DATA     WORD      SBRL1
      000000B2H   SFRSYM    DATA     BYTE      USB0AEC
      00000093H   SFRSYM    DATA     BYTE      SMOD1
      000000C8H   SFRSYM    DATA     BYTE      SCON1
      000000FBH   SFRSYM    DATA     BYTE      P2MAT
      00000098H.6 SFRSYM    DATA     BIT       TMR4CN0_TF4L
      000000E8H.4 SFRSYM    DATA     BIT       ADC0CN0_ADBUSY
      000000D6H   SFRSYM    DATA     BYTE      SMB0ADM
      000000C5H   SFRSYM    DATA     BYTE      ADC0LTL
      000000F8H.5 SFRSYM    DATA     BIT       SPI0CN0_MODF
      000000B8H.6 SFRSYM    DATA     BIT       IP_PSPI0
      0000009CH   SFRSYM    DATA     BYTE      PCA0CLR
      000000C8H   SFRSYM    DATA     BYTE      TMR2CN0
      00000091H   SFRSYM    DATA     BYTE      TMR3CN0
      000000FDH   SFRSYM    DATA     BYTE      TMR2CN1
      00000098H   SFRSYM    DATA     BYTE      TMR4CN0
      000000FEH   SFRSYM    DATA     BYTE      TMR3CN1
      000000FFH   SFRSYM    DATA     BYTE      TMR4CN1
      000000D7H   SFRSYM    DATA     BYTE      SMB0ADR
      00000088H.4 SFRSYM    DATA     BIT       TCON_TR0
      000000C8H.4 SFRSYM    DATA     BIT       TMR2CN0_TF2CEN
      00000088H.6 SFRSYM    DATA     BIT       TCON_TR1
      000000C2H   SFRSYM    DATA     BYTE      SMB0DAT
      000000CDH   SFRSYM    DATA     BYTE      TMR2H
      000000A1H   SFRSYM    DATA     BYTE      SPI0CFG
      00000095H   SFRSYM    DATA     BYTE      TMR3H
      000000EFH   SFRSYM    DATA     BYTE      HFOCN
      000000D3H   SFRSYM    DATA     BYTE      CRC0CNT
      000000A5H   SFRSYM    DATA     BYTE      TMR4H
      00000098H.4 SFRSYM    DATA     BIT       TMR4CN0_TF4CEN
      000000EFH   SFRSYM    DATA     BYTE      SMB0FCT
      00000096H   SFRSYM    DATA     BYTE      PCA0POL
      000000CCH   SFRSYM    DATA     BYTE      TMR2L
      000000F8H.7 SFRSYM    DATA     BIT       SPI0CN0_SPIF
      000000AEH   SFRSYM    DATA     BYTE      USB0ADR
      00000094H   SFRSYM    DATA     BYTE      TMR3L
      000000DFH   SFRSYM    DATA     BYTE      ADC0PWR
      000000A8H.7 SFRSYM    DATA     BIT       IE_EA
      000000A4H   SFRSYM    DATA     BYTE      TMR4L
      000000AFH   SFRSYM    DATA     BYTE      USB0DAT
      000000C8H.5 SFRSYM    DATA     BIT       TMR2CN0_TF2LEN
      000000F8H.6 SFRSYM    DATA     BIT       SPI0CN0_WCOL
      000000F8H.2 SFRSYM    DATA     BIT       SPI0CN0_NSSMD0
      000000D0H.7 SFRSYM    DATA     BIT       PSW_CY
      0000009DH   SFRSYM    DATA     BYTE      UART1FCN0
      000000A3H   SFRSYM    DATA     BYTE      SPI0DAT
      000000ADH   SFRSYM    DATA     BYTE      I2C0FCN0
      000000F8H.3 SFRSYM    DATA     BIT       SPI0CN0_NSSMD1
      000000BDH   SFRSYM    DATA     WORD      ADC0
      000000D8H   SFRSYM    DATA     BYTE      UART1FCN1
      000000ABH   SFRSYM    DATA     BYTE      I2C0FCN1
      00000098H.5 SFRSYM    DATA     BIT       TMR4CN0_TF4LEN
LX51 LINKER/LOCATER V4.66.30.0                                                        01/24/2016  18:13:24  PAGE 53


      000000D0H   SFRSYM    DATA     BYTE      PSW
      000000F7H   SFRSYM    DATA     BYTE      PCA0PWM
      000000F7H   SFRSYM    DATA     BYTE      SPI0FCT
      000000B6H   SFRSYM    DATA     BYTE      REVID
      000000B7H   SFRSYM    DATA     BYTE      FLKEY
      000000B3H   SFRSYM    DATA     BYTE      ADC0AC
      0100188DH   SYMBOL    CODE     ---       _USB_GetShortRegister

      0100188DH   BLOCK     CODE     ---       LVL=0
      00000005H   SYMBOL    DATA     BYTE      regAddr
      0100188FH   BLOCK     CODE     NEAR LAB  LVL=1
      00000006H   SYMBOL    DATA     WORD      retVal
      ---         BLOCKEND  ---      ---       LVL=1
      0100188DH   LINE      CODE     ---       #25
      0100188FH   LINE      CODE     ---       #26
      0100188FH   LINE      CODE     ---       #29
      01001899H   LINE      CODE     ---       #30
      0100189FH   LINE      CODE     ---       #31
      010018AAH   LINE      CODE     ---       #32
      010018AFH   LINE      CODE     ---       #34
      010018AFH   LINE      CODE     ---       #35
      ---         BLOCKEND  ---      ---       LVL=0

      01001AD2H   BLOCK     CODE     ---       LVL=0
      00000007H   SYMBOL    DATA     BYTE      epsel
      01001AD2H   LINE      CODE     ---       #40
      01001AD2H   LINE      CODE     ---       #41
      01001AD2H   LINE      CODE     ---       #42
      01001ADCH   LINE      CODE     ---       #43
      ---         BLOCKEND  ---      ---       LVL=0

      01001ADDH   BLOCK     CODE     ---       LVL=0
      01001ADDH   LINE      CODE     ---       #45
      01001ADDH   LINE      CODE     ---       #46
      01001ADDH   LINE      CODE     ---       #47
      01001AE5H   LINE      CODE     ---       #48
      01001AE7H   LINE      CODE     ---       #49
      ---         BLOCKEND  ---      ---       LVL=0

      01001AE8H   BLOCK     CODE     ---       LVL=0
      01001AE8H   LINE      CODE     ---       #51
      01001AE8H   LINE      CODE     ---       #52
      01001AE8H   LINE      CODE     ---       #53
      01001AF0H   LINE      CODE     ---       #54
      01001AF2H   LINE      CODE     ---       #55
      ---         BLOCKEND  ---      ---       LVL=0

      01001AF3H   BLOCK     CODE     ---       LVL=0
      01001AF3H   LINE      CODE     ---       #57
      01001AF3H   LINE      CODE     ---       #58
      01001AF3H   LINE      CODE     ---       #59
      01001AFBH   LINE      CODE     ---       #60
      01001AFDH   LINE      CODE     ---       #61
      ---         BLOCKEND  ---      ---       LVL=0

      01001AFEH   BLOCK     CODE     ---       LVL=0
      01001AFEH   LINE      CODE     ---       #63
      01001AFEH   LINE      CODE     ---       #64
      01001AFEH   LINE      CODE     ---       #65
      01001B06H   LINE      CODE     ---       #66
      01001B08H   LINE      CODE     ---       #67
      ---         BLOCKEND  ---      ---       LVL=0
LX51 LINKER/LOCATER V4.66.30.0                                                        01/24/2016  18:13:24  PAGE 54



      01001A61H   BLOCK     CODE     ---       LVL=0
      01001A61H   LINE      CODE     ---       #69
      01001A61H   LINE      CODE     ---       #70
      01001A61H   LINE      CODE     ---       #71
      01001A69H   LINE      CODE     ---       #72
      01001A6DH   LINE      CODE     ---       #73
      ---         BLOCKEND  ---      ---       LVL=0

      01001A6EH   BLOCK     CODE     ---       LVL=0
      01001A6EH   LINE      CODE     ---       #75
      01001A6EH   LINE      CODE     ---       #76
      01001A6EH   LINE      CODE     ---       #77
      01001A76H   LINE      CODE     ---       #78
      01001A7AH   LINE      CODE     ---       #79
      ---         BLOCKEND  ---      ---       LVL=0

      01001A7BH   BLOCK     CODE     ---       LVL=0
      01001A7BH   LINE      CODE     ---       #81
      01001A7BH   LINE      CODE     ---       #82
      01001A7BH   LINE      CODE     ---       #83
      01001A83H   LINE      CODE     ---       #84
      01001A87H   LINE      CODE     ---       #85
      ---         BLOCKEND  ---      ---       LVL=0

      01001AAFH   BLOCK     CODE     ---       LVL=0
      01001AAFH   LINE      CODE     ---       #87
      01001AAFH   LINE      CODE     ---       #88
      01001AAFH   LINE      CODE     ---       #89
      01001AB7H   LINE      CODE     ---       #90
      01001ABAH   LINE      CODE     ---       #91
      ---         BLOCKEND  ---      ---       LVL=0

      01001A88H   BLOCK     CODE     ---       LVL=0
      01001A88H   LINE      CODE     ---       #93
      01001A88H   LINE      CODE     ---       #94
      01001A88H   LINE      CODE     ---       #95
      01001A90H   LINE      CODE     ---       #96
      01001A94H   LINE      CODE     ---       #97
      ---         BLOCKEND  ---      ---       LVL=0

      01001B09H   BLOCK     CODE     ---       LVL=0
      01001B09H   LINE      CODE     ---       #99
      01001B09H   LINE      CODE     ---       #100
      01001B09H   LINE      CODE     ---       #101
      01001B11H   LINE      CODE     ---       #102
      01001B13H   LINE      CODE     ---       #103
      ---         BLOCKEND  ---      ---       LVL=0

      01001A95H   BLOCK     CODE     ---       LVL=0
      01001A95H   LINE      CODE     ---       #105
      01001A95H   LINE      CODE     ---       #106
      01001A95H   LINE      CODE     ---       #107
      01001A9DH   LINE      CODE     ---       #108
      01001AA1H   LINE      CODE     ---       #109
      ---         BLOCKEND  ---      ---       LVL=0

      01001676H   BLOCK     CODE     ---       LVL=0
      00000007H   SYMBOL    DATA     BYTE      fifoNum
      01001676H   LINE      CODE     ---       #111
      01001676H   LINE      CODE     ---       #112
      01001676H   LINE      CODE     ---       #113
LX51 LINKER/LOCATER V4.66.30.0                                                        01/24/2016  18:13:24  PAGE 55


      01001679H   LINE      CODE     ---       #114
      01001691H   LINE      CODE     ---       #115
      010016A9H   LINE      CODE     ---       #116
      ---         BLOCKEND  ---      ---       LVL=0

      01001AA2H   BLOCK     CODE     ---       LVL=0
      01001AA2H   LINE      CODE     ---       #118
      01001AA2H   LINE      CODE     ---       #119
      01001AA2H   LINE      CODE     ---       #120
      01001AAAH   LINE      CODE     ---       #121
      01001AAEH   LINE      CODE     ---       #122
      ---         BLOCKEND  ---      ---       LVL=0

      01001ABBH   BLOCK     CODE     ---       LVL=0
      01001ABBH   LINE      CODE     ---       #124
      01001ABBH   LINE      CODE     ---       #125
      01001ABBH   LINE      CODE     ---       #126
      01001AC3H   LINE      CODE     ---       #127
      01001AC6H   LINE      CODE     ---       #128
      ---         BLOCKEND  ---      ---       LVL=0

      01001B7CH   BLOCK     CODE     ---       LVL=0
      01001B7CH   LINE      CODE     ---       #130
      01001B7CH   LINE      CODE     ---       #131
      01001B7CH   LINE      CODE     ---       #132
      01001B81H   LINE      CODE     ---       #133
      ---         BLOCKEND  ---      ---       LVL=0

      010016AAH   BLOCK     CODE     ---       LVL=0
      00000007H   SYMBOL    DATA     BYTE      fifoNum
      010016AAH   LINE      CODE     ---       #135
      010016AAH   LINE      CODE     ---       #136
      010016AAH   LINE      CODE     ---       #137
      010016ADH   LINE      CODE     ---       #138
      010016C5H   LINE      CODE     ---       #139
      010016DDH   LINE      CODE     ---       #140
      ---         BLOCKEND  ---      ---       LVL=0

      01001094H   BLOCK     CODE     ---       LVL=0
      00000006H   SYMBOL    DATA     BYTE      ep
      00000004H   SYMBOL    DATA     WORD      packetSize
      00000021H.2 SYMBOL    BIT      BIT       inDir
      00000021H.3 SYMBOL    BIT      BIT       splitMode
      00000021H.4 SYMBOL    BIT      BIT       isoMode
      01001096H   BLOCK     CODE     NEAR LAB  LVL=1
      00000003H   SYMBOL    DATA     BYTE      CSRH_mask
      00000006H   SYMBOL    DATA     WORD      fifoSize
      ---         BLOCKEND  ---      ---       LVL=1
      01001094H   LINE      CODE     ---       #142
      01001096H   LINE      CODE     ---       #147
      01001096H   LINE      CODE     ---       #148
      01001098H   LINE      CODE     ---       #151
      0100109BH   LINE      CODE     ---       #155
      010010C4H   LINE      CODE     ---       #157
      010010CBH   LINE      CODE     ---       #158
      010010CBH   LINE      CODE     ---       #159
      010010CEH   LINE      CODE     ---       #160
      010010CEH   LINE      CODE     ---       #162
      010010D1H   LINE      CODE     ---       #163
      010010D1H   LINE      CODE     ---       #164
      010010D4H   LINE      CODE     ---       #165
      010010D4H   LINE      CODE     ---       #167
LX51 LINKER/LOCATER V4.66.30.0                                                        01/24/2016  18:13:24  PAGE 56


      010010D7H   LINE      CODE     ---       #168
      010010D7H   LINE      CODE     ---       #169
      010010DAH   LINE      CODE     ---       #171
      010010DDH   LINE      CODE     ---       #172
      010010DDH   LINE      CODE     ---       #173
      010010E0H   LINE      CODE     ---       #174
      010010E0H   LINE      CODE     ---       #175
      010010EBH   LINE      CODE     ---       #176
      010010F7H   LINE      CODE     ---       #179
      010010F7H   LINE      CODE     ---       #180
      01001102H   LINE      CODE     ---       #181
      0100110CH   LINE      CODE     ---       #183
      0100110FH   LINE      CODE     ---       #184
      0100110FH   LINE      CODE     ---       #185
      0100111AH   LINE      CODE     ---       #186
      0100111AH   LINE      CODE     ---       #187
      0100111AH   LINE      CODE     ---       #188
      ---         BLOCKEND  ---      ---       LVL=0

      01001B82H   BLOCK     CODE     ---       LVL=0
      01001B82H   LINE      CODE     ---       #190
      01001B82H   LINE      CODE     ---       #191
      01001B82H   LINE      CODE     ---       #192
      01001B87H   LINE      CODE     ---       #193
      ---         BLOCKEND  ---      ---       LVL=0

      01001B6EH   BLOCK     CODE     ---       LVL=0
      01001B6EH   LINE      CODE     ---       #195
      01001B6EH   LINE      CODE     ---       #196
      01001B6EH   LINE      CODE     ---       #197
      01001B71H   LINE      CODE     ---       #198
      01001B74H   LINE      CODE     ---       #199
      ---         BLOCKEND  ---      ---       LVL=0

      01001B42H   BLOCK     CODE     ---       LVL=0
      01001B42H   LINE      CODE     ---       #201
      01001B42H   LINE      CODE     ---       #202
      01001B42H   LINE      CODE     ---       #203
      01001B45H   LINE      CODE     ---       #204
      01001B49H   LINE      CODE     ---       #205
      ---         BLOCKEND  ---      ---       LVL=0

      01001B4AH   BLOCK     CODE     ---       LVL=0
      01001B4AH   LINE      CODE     ---       #207
      01001B4AH   LINE      CODE     ---       #208
      01001B4AH   LINE      CODE     ---       #209
      01001B4DH   LINE      CODE     ---       #210
      01001B51H   LINE      CODE     ---       #211
      ---         BLOCKEND  ---      ---       LVL=0

      010018F0H   BLOCK     CODE     ---       LVL=0
      010018F0H   BLOCK     CODE     NEAR LAB  LVL=1
      00000007H   SYMBOL    DATA     BYTE      clkSelSave
      ---         BLOCKEND  ---      ---       LVL=1
      010018F0H   LINE      CODE     ---       #213
      010018F0H   LINE      CODE     ---       #214
      010018F0H   LINE      CODE     ---       #215
      010018F5H   LINE      CODE     ---       #217
      010018F8H   LINE      CODE     ---       #218
      010018FBH   LINE      CODE     ---       #219
      010018FEH   LINE      CODE     ---       #220
      01001900H   LINE      CODE     ---       #225
LX51 LINKER/LOCATER V4.66.30.0                                                        01/24/2016  18:13:24  PAGE 57


      01001907H   LINE      CODE     ---       #226
      01001907H   LINE      CODE     ---       #227
      0100190AH   LINE      CODE     ---       #228
      0100190CH   LINE      CODE     ---       #229
      0100190CH   LINE      CODE     ---       #230
      ---         BLOCKEND  ---      ---       LVL=0

      ---         MODULE    ---      ---       EFM8_USBD
      0000005EH   PUBLIC    IDATA    ---       myUsbDevice
      01001773H   PUBLIC    CODE     ---       _USBD_SetUsbState
      00000021H.1 PUBLIC    BIT      BIT       ?_USBD_Write?BIT
      00000041H   PUBLIC    DATA     BYTE      ?_USBD_Write?BYTE
      0100099EH   PUBLIC    CODE     ---       _USBD_Write
      0100144BH   PUBLIC    CODE     ---       USBD_Suspend
      00000021H.1 PUBLIC    BIT      BIT       ?_USBD_Read?BIT
      00000041H   PUBLIC    DATA     BYTE      ?_USBD_Read?BYTE
      01000E62H   PUBLIC    CODE     ---       _USBD_Read
      01001229H   PUBLIC    CODE     ---       _USBD_Init
      010019BEH   PUBLIC    CODE     ---       USBD_Connect
      01001384H   PUBLIC    CODE     ---       _USBD_AbortTransfer
      01001842H   PUBLIC    CODE     ---       USBD_AbortAllTransfers
      000000A2H   SFRSYM    DATA     BYTE      SPI0CKR
      00000080H   SFRSYM    DATA     BYTE      P0
      000000C8H.6 SFRSYM    DATA     BIT       SCON1_PERR
      000000D0H.2 SFRSYM    DATA     BIT       PSW_OV
      00000090H   SFRSYM    DATA     BYTE      P1
      000000F8H.1 SFRSYM    DATA     BIT       SPI0CN0_TXNF
      00000097H   SFRSYM    DATA     BYTE      WDTCN
      000000A0H   SFRSYM    DATA     BYTE      P2
      000000B0H   SFRSYM    DATA     BYTE      P3
      000000BCH   SFRSYM    DATA     BYTE      ADC0CF
      000000C0H.7 SFRSYM    DATA     BIT       SMB0CN0_MASTER
      000000F9H   SFRSYM    DATA     WORD      PCA0
      000000E6H   SFRSYM    DATA     BYTE      EIE1
      000000C0H.1 SFRSYM    DATA     BIT       SMB0CN0_ACK
      000000B3H   SFRSYM    DATA     BYTE      USB0XCN
      000000CEH   SFRSYM    DATA     BYTE      EIE2
      0000008FH   SFRSYM    DATA     BYTE      PSCTL
      000000E4H   SFRSYM    DATA     BYTE      IT01CF
      000000C0H.6 SFRSYM    DATA     BIT       SMB0CN0_TXMODE
      000000ADH   SFRSYM    DATA     BYTE      DERIVID
      000000A7H   SFRSYM    DATA     BYTE      SFRPAGE
      000000A4H   SFRSYM    DATA     BYTE      P0MDOUT
      000000BFH   SFRSYM    DATA     BYTE      USB0CDSTA
      000000A5H   SFRSYM    DATA     BYTE      P1MDOUT
      000000E8H.5 SFRSYM    DATA     BIT       ADC0CN0_ADINT
      000000CBH   SFRSYM    DATA     BYTE      TMR2RLH
      000000A6H   SFRSYM    DATA     BYTE      P2MDOUT
      000000A8H   SFRSYM    DATA     BYTE      IE
      00000093H   SFRSYM    DATA     BYTE      TMR3RLH
      0000009CH   SFRSYM    DATA     BYTE      P3MDOUT
      000000A3H   SFRSYM    DATA     BYTE      TMR4RLH
      000000F3H   SFRSYM    DATA     BYTE      EIP1
      000000F4H   SFRSYM    DATA     BYTE      EIP2
      00000098H.2 SFRSYM    DATA     BIT       SCON0_RB8
      000000CAH   SFRSYM    DATA     BYTE      TMR2RLL
      000000FCH   SFRSYM    DATA     BYTE      PCA0CPH0
      00000092H   SFRSYM    DATA     BYTE      TMR3RLL
      000000EAH   SFRSYM    DATA     BYTE      PCA0CPH1
      00000098H.3 SFRSYM    DATA     BIT       SCON0_TB8
      000000F0H   SFRSYM    DATA     BIT       B_B0
      00000082H   SFRSYM    DATA     WORD      DP
LX51 LINKER/LOCATER V4.66.30.0                                                        01/24/2016  18:13:24  PAGE 58


      000000A2H   SFRSYM    DATA     BYTE      TMR4RLL
      000000ECH   SFRSYM    DATA     BYTE      PCA0CPH2
      000000F0H.1 SFRSYM    DATA     BIT       B_B1
      000000C3H   SFRSYM    DATA     WORD      ADC0GT
      000000BDH   SFRSYM    DATA     BYTE      I2C0SLAD
      000000D8H.3 SFRSYM    DATA     BIT       UART1FCN1_RFRQ
      000000F0H.2 SFRSYM    DATA     BIT       B_B2
      000000CFH   SFRSYM    DATA     BYTE      SFRPGCN
      000000FBH   SFRSYM    DATA     BYTE      PCA0CPL0
      000000F0H.3 SFRSYM    DATA     BIT       B_B3
      000000D9H   SFRSYM    DATA     BYTE      PCA0MD
      000000DAH   SFRSYM    DATA     BYTE      PCA0CPM0
      000000E9H   SFRSYM    DATA     BYTE      PCA0CPL1
      000000D8H.7 SFRSYM    DATA     BIT       UART1FCN1_TFRQ
      000000F0H.4 SFRSYM    DATA     BIT       B_B4
      000000DBH   SFRSYM    DATA     BYTE      PCA0CPM1
      000000EBH   SFRSYM    DATA     BYTE      PCA0CPL2
      000000F0H.5 SFRSYM    DATA     BIT       B_B5
      000000DCH   SFRSYM    DATA     BYTE      PCA0CPM2
      000000B8H   SFRSYM    DATA     BYTE      IP
      000000B9H   SFRSYM    DATA     BYTE      ADC0TK
      000000F0H.6 SFRSYM    DATA     BIT       B_B6
      000000C5H   SFRSYM    DATA     WORD      ADC0LT
      000000D8H.6 SFRSYM    DATA     BIT       UART1FCN1_TXNF
      00000098H.5 SFRSYM    DATA     BIT       SCON0_MCE
      000000F0H.7 SFRSYM    DATA     BIT       B_B7
      000000C3H   SFRSYM    DATA     BYTE      SMB0FCN0
      000000E1H   SFRSYM    DATA     BYTE      XBR0
      000000C4H   SFRSYM    DATA     BYTE      SMB0FCN1
      000000C1H   SFRSYM    DATA     BYTE      SMB0CF
      000000E2H   SFRSYM    DATA     BYTE      XBR1
      000000C1H   SFRSYM    DATA     BYTE      PFE0CN
      000000E7H   SFRSYM    DATA     BYTE      EMI0CN
      000000C0H.5 SFRSYM    DATA     BIT       SMB0CN0_STA
      000000E3H   SFRSYM    DATA     BYTE      XBR2
      000000BBH   SFRSYM    DATA     BYTE      ADC0MX
      000000E0H   SFRSYM    DATA     BIT       ACC_ACC0
      000000D1H   SFRSYM    DATA     BYTE      REF0CN
      0000008EH   SFRSYM    DATA     BYTE      CKCON0
      000000E0H.1 SFRSYM    DATA     BIT       ACC_ACC1
      000000C9H   SFRSYM    DATA     BYTE      REG0CN
      000000DDH   SFRSYM    DATA     BYTE      CRC0IN
      000000A6H   SFRSYM    DATA     BYTE      CKCON1
      000000C8H.2 SFRSYM    DATA     BIT       TMR2CN0_TR2
      000000E0H.2 SFRSYM    DATA     BIT       ACC_ACC2
      000000C6H   SFRSYM    DATA     BYTE      REG1CN
      000000E0H.3 SFRSYM    DATA     BIT       ACC_ACC3
      00000081H   SFRSYM    DATA     BYTE      SP
      0000009DH   SFRSYM    DATA     BYTE      CMP0MD
      000000E0H.4 SFRSYM    DATA     BIT       ACC_ACC4
      000000B1H   SFRSYM    DATA     BYTE      LFO0CN
      000000ABH   SFRSYM    DATA     BYTE      CMP1MD
      000000D8H   SFRSYM    DATA     BIT       PCA0CN0_CCF0
      000000E0H.5 SFRSYM    DATA     BIT       ACC_ACC5
      000000B5H   SFRSYM    DATA     BYTE      USB0CF
      00000098H.2 SFRSYM    DATA     BIT       TMR4CN0_TR4
      000000D8H.1 SFRSYM    DATA     BIT       PCA0CN0_CCF1
      000000E0H.6 SFRSYM    DATA     BIT       ACC_ACC6
      000000CCH   SFRSYM    DATA     WORD      TMR2
      0000009AH   SFRSYM    DATA     BYTE      SPI0FCN0
      000000D8H.2 SFRSYM    DATA     BIT       PCA0CN0_CCF2
      000000E0H.7 SFRSYM    DATA     BIT       ACC_ACC7
LX51 LINKER/LOCATER V4.66.30.0                                                        01/24/2016  18:13:24  PAGE 59


      00000094H   SFRSYM    DATA     WORD      TMR3
      0000009BH   SFRSYM    DATA     BYTE      SPI0FCN1
      000000A4H   SFRSYM    DATA     WORD      TMR4
      00000094H   SFRSYM    DATA     BYTE      SBCON1
      000000C0H.3 SFRSYM    DATA     BIT       SMB0CN0_ACKRQ
      000000FFH   SFRSYM    DATA     BYTE      VDM0CN
      000000F1H   SFRSYM    DATA     BYTE      P0MDIN
      00000098H.4 SFRSYM    DATA     BIT       SCON0_REN
      000000ACH   SFRSYM    DATA     BYTE      SMB0TC
      000000F2H   SFRSYM    DATA     BYTE      P1MDIN
      000000C8H.4 SFRSYM    DATA     BIT       SCON1_REN
      000000F3H   SFRSYM    DATA     BYTE      P2MDIN
      000000C0H.4 SFRSYM    DATA     BIT       SMB0CN0_STO
      000000B6H   SFRSYM    DATA     BYTE      USB0CDCF
      000000F4H   SFRSYM    DATA     BYTE      P3MDIN
      000000B9H   SFRSYM    DATA     BYTE      I2C0STAT
      000000BBH   SFRSYM    DATA     BYTE      I2C0DOUT
      00000096H   SFRSYM    DATA     BYTE      SBRLH1
      000000FEH   SFRSYM    DATA     BYTE      P0MASK
      000000D8H.5 SFRSYM    DATA     BIT       UART1FCN1_TXHOLD
      000000EEH   SFRSYM    DATA     BYTE      P1MASK
      000000FCH   SFRSYM    DATA     BYTE      P2MASK
      000000D0H.3 SFRSYM    DATA     BIT       PSW_RS0
      000000D8H.7 SFRSYM    DATA     BIT       PCA0CN0_CF
      0000009EH   SFRSYM    DATA     BYTE      PCA0CENT
      000000BAH   SFRSYM    DATA     BYTE      I2C0CN0
      000000D2H   SFRSYM    DATA     BYTE      CRC0ST
      000000F8H.4 SFRSYM    DATA     BIT       SPI0CN0_RXOVRN
      000000D0H.4 SFRSYM    DATA     BIT       PSW_RS1
      00000095H   SFRSYM    DATA     BYTE      SBRLL1
      000000C8H.2 SFRSYM    DATA     BIT       SCON1_RBX
      000000C8H   SFRSYM    DATA     BIT       TMR2CN0_T2XCLK0
      000000C8H.1 SFRSYM    DATA     BIT       TMR2CN0_T2XCLK1
      000000C8H.3 SFRSYM    DATA     BIT       SCON1_TBX
      000000E8H.7 SFRSYM    DATA     BIT       ADC0CN0_ADEN
      000000BEH   SFRSYM    DATA     BYTE      USB0CDCN
      00000089H   SFRSYM    DATA     BYTE      TMOD
      00000088H   SFRSYM    DATA     BYTE      TCON
      000000CFH   SFRSYM    DATA     BYTE      CRC0FLIP
      000000D0H   SFRSYM    DATA     BIT       PSW_PARITY
      000000A8H.4 SFRSYM    DATA     BIT       IE_ES0
      0000009FH   SFRSYM    DATA     BYTE      CMP0MX
      00000098H   SFRSYM    DATA     BIT       TMR4CN0_T4XCLK0
      000000A8H.1 SFRSYM    DATA     BIT       IE_ET0
      000000AAH   SFRSYM    DATA     BYTE      CMP1MX
      00000098H.1 SFRSYM    DATA     BIT       TMR4CN0_T4XCLK1
      000000A8H.3 SFRSYM    DATA     BIT       IE_ET1
      000000D4H   SFRSYM    DATA     BYTE      P0SKIP
      000000D8H   SFRSYM    DATA     BIT       UART1FCN1_RIE
      000000A8H.5 SFRSYM    DATA     BIT       IE_ET2
      000000D5H   SFRSYM    DATA     BYTE      P1SKIP
      000000CCH   SFRSYM    DATA     BYTE      P2SKIP
      000000E8H   SFRSYM    DATA     BYTE      ADC0CN0
      000000D8H.4 SFRSYM    DATA     BIT       UART1FCN1_TIE
      000000A8H   SFRSYM    DATA     BIT       IE_EX0
      000000B2H   SFRSYM    DATA     BYTE      ADC0CN1
      000000D8H.6 SFRSYM    DATA     BIT       PCA0CN0_CR
      000000A8H.2 SFRSYM    DATA     BIT       IE_EX1
      000000C8H.7 SFRSYM    DATA     BIT       SCON1_OVR
      00000098H.7 SFRSYM    DATA     BIT       SCON0_SMODE
      000000B5H   SFRSYM    DATA     BYTE      DEVICEID
      000000A9H   SFRSYM    DATA     BYTE      CLKSEL
LX51 LINKER/LOCATER V4.66.30.0                                                        01/24/2016  18:13:24  PAGE 60


      000000F8H   SFRSYM    DATA     BIT       SPI0CN0_SPIEN
      000000F0H   SFRSYM    DATA     BYTE      B
      000000BEH   SFRSYM    DATA     BYTE      ADC0H
      000000E8H.6 SFRSYM    DATA     BIT       ADC0CN0_ADBMEN
      000000CAH   SFRSYM    DATA     WORD      TMR2RL
      000000BDH   SFRSYM    DATA     BYTE      ADC0L
      00000092H   SFRSYM    DATA     WORD      TMR3RL
      000000A2H   SFRSYM    DATA     WORD      TMR4RL
      000000D8H   SFRSYM    DATA     BYTE      PCA0CN0
      000000E0H   SFRSYM    DATA     BYTE      ACC
      000000FBH   SFRSYM    DATA     WORD      PCA0CP0
      000000E9H   SFRSYM    DATA     WORD      PCA0CP1
      000000EBH   SFRSYM    DATA     WORD      PCA0CP2
      000000BCH   SFRSYM    DATA     BYTE      I2C0DIN
      000000CEH   SFRSYM    DATA     BYTE      CRC0CN0
      0000008CH   SFRSYM    DATA     BYTE      TH0
      00000086H   SFRSYM    DATA     BYTE      CRC0CN1
      000000B8H.4 SFRSYM    DATA     BIT       IP_PS0
      000000FAH   SFRSYM    DATA     BYTE      UART1FCT
      0000008DH   SFRSYM    DATA     BYTE      TH1
      000000FAH   SFRSYM    DATA     BYTE      PCA0H
      000000F5H   SFRSYM    DATA     BYTE      I2C0FCT
      000000B8H.1 SFRSYM    DATA     BIT       IP_PT0
      000000B8H.3 SFRSYM    DATA     BIT       IP_PT1
      000000C0H.2 SFRSYM    DATA     BIT       SMB0CN0_ARBLOST
      000000B8H.5 SFRSYM    DATA     BIT       IP_PT2
      0000008AH   SFRSYM    DATA     BYTE      TL0
      000000D0H.5 SFRSYM    DATA     BIT       PSW_F0
      000000A8H.6 SFRSYM    DATA     BIT       IE_ESPI0
      0000008BH   SFRSYM    DATA     BYTE      TL1
      000000F9H   SFRSYM    DATA     BYTE      PCA0L
      000000C0H   SFRSYM    DATA     BIT       SMB0CN0_SI
      000000D0H.1 SFRSYM    DATA     BIT       PSW_F1
      00000080H   SFRSYM    DATA     BIT       P0_B0
      000000B8H   SFRSYM    DATA     BIT       IP_PX0
      00000090H   SFRSYM    DATA     BIT       P1_B0
      00000080H.1 SFRSYM    DATA     BIT       P0_B1
      000000B8H.2 SFRSYM    DATA     BIT       IP_PX1
      0000009EH   SFRSYM    DATA     BYTE      UART1LIN
      0000009BH   SFRSYM    DATA     BYTE      CMP0CN0
      00000088H.1 SFRSYM    DATA     BIT       TCON_IE0
      000000A0H   SFRSYM    DATA     BIT       P2_B0
      00000090H.1 SFRSYM    DATA     BIT       P1_B1
      00000080H.2 SFRSYM    DATA     BIT       P0_B2
      000000BFH   SFRSYM    DATA     BYTE      CMP1CN0
      00000099H   SFRSYM    DATA     BYTE      CMP0CN1
      00000088H.3 SFRSYM    DATA     BIT       TCON_IE1
      000000B0H   SFRSYM    DATA     BIT       P3_B0
      000000A0H.1 SFRSYM    DATA     BIT       P2_B1
      00000090H.2 SFRSYM    DATA     BIT       P1_B2
      00000080H.3 SFRSYM    DATA     BIT       P0_B3
      000000C0H   SFRSYM    DATA     BYTE      SMB0CN0
      000000ACH   SFRSYM    DATA     BYTE      CMP1CN1
      000000B0H.1 SFRSYM    DATA     BIT       P3_B1
      000000A0H.2 SFRSYM    DATA     BIT       P2_B2
      00000090H.3 SFRSYM    DATA     BIT       P1_B3
      00000080H.4 SFRSYM    DATA     BIT       P0_B4
      000000A0H.3 SFRSYM    DATA     BIT       P2_B3
      00000090H.4 SFRSYM    DATA     BIT       P1_B4
      00000080H.5 SFRSYM    DATA     BIT       P0_B5
      000000D8H.1 SFRSYM    DATA     BIT       UART1FCN1_RXTO0
      00000090H.5 SFRSYM    DATA     BIT       P1_B5
LX51 LINKER/LOCATER V4.66.30.0                                                        01/24/2016  18:13:24  PAGE 61


      00000080H.6 SFRSYM    DATA     BIT       P0_B6
      000000F5H   SFRSYM    DATA     BYTE      EIP1H
      000000D8H.2 SFRSYM    DATA     BIT       UART1FCN1_RXTO1
      00000090H.6 SFRSYM    DATA     BIT       P1_B6
      00000080H.7 SFRSYM    DATA     BIT       P0_B7
      000000C5H   SFRSYM    DATA     BYTE      SMB0RXLN
      000000F6H   SFRSYM    DATA     BYTE      EIP2H
      00000090H.7 SFRSYM    DATA     BIT       P1_B7
      00000083H   SFRSYM    DATA     BYTE      DPH
      000000C4H   SFRSYM    DATA     BYTE      ADC0GTH
      000000C8H.7 SFRSYM    DATA     BIT       TMR2CN0_TF2H
      000000C8H.3 SFRSYM    DATA     BIT       TMR2CN0_T2SPLIT
      000000D0H.6 SFRSYM    DATA     BIT       PSW_AC
      000000F8H   SFRSYM    DATA     BYTE      SPI0CN0
      000000C7H   SFRSYM    DATA     BYTE      HFO0CAL
      00000088H.5 SFRSYM    DATA     BIT       TCON_TF0
      00000098H   SFRSYM    DATA     BIT       SCON0_RI
      000000D6H   SFRSYM    DATA     BYTE      HFO1CAL
      00000082H   SFRSYM    DATA     BYTE      DPL
      00000088H.7 SFRSYM    DATA     BIT       TCON_TF1
      000000C8H   SFRSYM    DATA     BIT       SCON1_RI
      00000099H   SFRSYM    DATA     BYTE      SBUF0
      00000087H   SFRSYM    DATA     BYTE      PCON0
      000000F2H   SFRSYM    DATA     BYTE      IPH
      000000C3H   SFRSYM    DATA     BYTE      ADC0GTL
      00000098H.7 SFRSYM    DATA     BIT       TMR4CN0_TF4H
      00000098H.3 SFRSYM    DATA     BIT       TMR4CN0_T4SPLIT
      000000C8H.6 SFRSYM    DATA     BIT       TMR2CN0_TF2L
      00000098H.1 SFRSYM    DATA     BIT       SCON0_TI
      000000E8H   SFRSYM    DATA     BIT       ADC0CN0_ADCM0
      00000092H   SFRSYM    DATA     BYTE      SBUF1
      0000009AH   SFRSYM    DATA     BYTE      PCON1
      000000C6H   SFRSYM    DATA     BYTE      ADC0LTH
      00000088H   SFRSYM    DATA     BIT       TCON_IT0
      000000C8H.1 SFRSYM    DATA     BIT       SCON1_TI
      000000E8H.1 SFRSYM    DATA     BIT       ADC0CN0_ADCM1
      000000EFH   SFRSYM    DATA     BYTE      RSTSRC
      000000FDH   SFRSYM    DATA     BYTE      P0MAT
      000000DEH   SFRSYM    DATA     BYTE      CRC0DAT
      00000088H.2 SFRSYM    DATA     BIT       TCON_IT1
      000000E8H.2 SFRSYM    DATA     BIT       ADC0CN0_ADCM2
      000000D7H   SFRSYM    DATA     BYTE      SFRSTACK
      00000098H   SFRSYM    DATA     BYTE      SCON0
      000000F6H   SFRSYM    DATA     BYTE      PRTDRV
      000000EDH   SFRSYM    DATA     BYTE      P1MAT
      000000E8H.3 SFRSYM    DATA     BIT       ADC0CN0_ADWINT
      00000095H   SFRSYM    DATA     WORD      SBRL1
      000000B2H   SFRSYM    DATA     BYTE      USB0AEC
      00000093H   SFRSYM    DATA     BYTE      SMOD1
      000000C8H   SFRSYM    DATA     BYTE      SCON1
      000000FBH   SFRSYM    DATA     BYTE      P2MAT
      00000098H.6 SFRSYM    DATA     BIT       TMR4CN0_TF4L
      000000E8H.4 SFRSYM    DATA     BIT       ADC0CN0_ADBUSY
      000000D6H   SFRSYM    DATA     BYTE      SMB0ADM
      000000C5H   SFRSYM    DATA     BYTE      ADC0LTL
      000000F8H.5 SFRSYM    DATA     BIT       SPI0CN0_MODF
      000000B8H.6 SFRSYM    DATA     BIT       IP_PSPI0
      0000009CH   SFRSYM    DATA     BYTE      PCA0CLR
      000000C8H   SFRSYM    DATA     BYTE      TMR2CN0
      00000091H   SFRSYM    DATA     BYTE      TMR3CN0
      000000FDH   SFRSYM    DATA     BYTE      TMR2CN1
      00000098H   SFRSYM    DATA     BYTE      TMR4CN0
LX51 LINKER/LOCATER V4.66.30.0                                                        01/24/2016  18:13:24  PAGE 62


      000000FEH   SFRSYM    DATA     BYTE      TMR3CN1
      000000FFH   SFRSYM    DATA     BYTE      TMR4CN1
      000000D7H   SFRSYM    DATA     BYTE      SMB0ADR
      00000088H.4 SFRSYM    DATA     BIT       TCON_TR0
      000000C8H.4 SFRSYM    DATA     BIT       TMR2CN0_TF2CEN
      00000088H.6 SFRSYM    DATA     BIT       TCON_TR1
      000000C2H   SFRSYM    DATA     BYTE      SMB0DAT
      000000CDH   SFRSYM    DATA     BYTE      TMR2H
      000000A1H   SFRSYM    DATA     BYTE      SPI0CFG
      00000095H   SFRSYM    DATA     BYTE      TMR3H
      000000EFH   SFRSYM    DATA     BYTE      HFOCN
      000000D3H   SFRSYM    DATA     BYTE      CRC0CNT
      000000A5H   SFRSYM    DATA     BYTE      TMR4H
      00000098H.4 SFRSYM    DATA     BIT       TMR4CN0_TF4CEN
      000000EFH   SFRSYM    DATA     BYTE      SMB0FCT
      00000096H   SFRSYM    DATA     BYTE      PCA0POL
      000000CCH   SFRSYM    DATA     BYTE      TMR2L
      000000F8H.7 SFRSYM    DATA     BIT       SPI0CN0_SPIF
      000000AEH   SFRSYM    DATA     BYTE      USB0ADR
      00000094H   SFRSYM    DATA     BYTE      TMR3L
      000000DFH   SFRSYM    DATA     BYTE      ADC0PWR
      000000A8H.7 SFRSYM    DATA     BIT       IE_EA
      000000A4H   SFRSYM    DATA     BYTE      TMR4L
      000000AFH   SFRSYM    DATA     BYTE      USB0DAT
      000000C8H.5 SFRSYM    DATA     BIT       TMR2CN0_TF2LEN
      000000F8H.6 SFRSYM    DATA     BIT       SPI0CN0_WCOL
      000000F8H.2 SFRSYM    DATA     BIT       SPI0CN0_NSSMD0
      000000D0H.7 SFRSYM    DATA     BIT       PSW_CY
      0000009DH   SFRSYM    DATA     BYTE      UART1FCN0
      000000A3H   SFRSYM    DATA     BYTE      SPI0DAT
      000000ADH   SFRSYM    DATA     BYTE      I2C0FCN0
      000000F8H.3 SFRSYM    DATA     BIT       SPI0CN0_NSSMD1
      000000BDH   SFRSYM    DATA     WORD      ADC0
      000000D8H   SFRSYM    DATA     BYTE      UART1FCN1
      000000ABH   SFRSYM    DATA     BYTE      I2C0FCN1
      00000098H.5 SFRSYM    DATA     BIT       TMR4CN0_TF4LEN
      000000D0H   SFRSYM    DATA     BYTE      PSW
      000000F7H   SFRSYM    DATA     BYTE      PCA0PWM
      000000F7H   SFRSYM    DATA     BYTE      SPI0FCT
      000000B6H   SFRSYM    DATA     BYTE      REVID
      000000B7H   SFRSYM    DATA     BYTE      FLKEY
      000000B3H   SFRSYM    DATA     BYTE      ADC0AC

      010016DEH   BLOCK     CODE     ---       LVL=0
      ---         BLOCKEND  ---      ---       LVL=0

      01001842H   BLOCK     CODE     ---       LVL=0
      01001842H   BLOCK     CODE     NEAR LAB  LVL=1
      00000041H   SYMBOL    DATA     BYTE      i
      00000021H.1 SYMBOL    BIT      BIT       usbIntsEnabled
      00000042H   SYMBOL    DATA     BYTE      SfrPageSave
      ---         BLOCKEND  ---      ---       LVL=1
      01001842H   LINE      CODE     ---       #48
      01001842H   LINE      CODE     ---       #49
      01001842H   LINE      CODE     ---       #53
      01001845H   LINE      CODE     ---       #54
      0100184DH   LINE      CODE     ---       #57
      01001850H   LINE      CODE     ---       #58
      01001850H   LINE      CODE     ---       #59
      01001855H   LINE      CODE     ---       #60
      0100185EH   LINE      CODE     ---       #62
      01001864H   LINE      CODE     ---       #63
LX51 LINKER/LOCATER V4.66.30.0                                                        01/24/2016  18:13:24  PAGE 63


      01001867H   LINE      CODE     ---       #64
      ---         BLOCKEND  ---      ---       LVL=0

      01001384H   BLOCK     CODE     ---       LVL=0
      00000043H   SYMBOL    DATA     BYTE      epAddr
      01001386H   BLOCK     CODE     NEAR LAB  LVL=1
      00000044H   SYMBOL    DATA     ---       ep
      00000045H   SYMBOL    DATA     BYTE      retVal
      00000021H.2 SYMBOL    BIT      BIT       usbIntsEnabled
      00000046H   SYMBOL    DATA     BYTE      SfrPageSave
      ---         BLOCKEND  ---      ---       LVL=1
      01001384H   LINE      CODE     ---       #66
      01001386H   LINE      CODE     ---       #67
      01001386H   LINE      CODE     ---       #69
      01001389H   LINE      CODE     ---       #72
      0100138CH   LINE      CODE     ---       #75
      01001395H   LINE      CODE     ---       #76
      01001395H   LINE      CODE     ---       #77
      0100139FH   LINE      CODE     ---       #78
      010013A2H   LINE      CODE     ---       #79
      010013A4H   LINE      CODE     ---       #81
      010013A4H   LINE      CODE     ---       #82
      010013ACH   LINE      CODE     ---       #83
      010013B3H   LINE      CODE     ---       #87
      010013BDH   LINE      CODE     ---       #88
      010013BDH   LINE      CODE     ---       #89
      010013C6H   LINE      CODE     ---       #90
      010013C6H   LINE      CODE     ---       #92
      010013C6H   LINE      CODE     ---       #93
      010013CBH   LINE      CODE     ---       #94
      010013CDH   LINE      CODE     ---       #107
      010013CDH   LINE      CODE     ---       #108
      010013D2H   LINE      CODE     ---       #109
      010013D2H   LINE      CODE     ---       #121
      010013D2H   LINE      CODE     ---       #124
      010013D9H   LINE      CODE     ---       #125
      010013E0H   LINE      CODE     ---       #126
      010013E0H   LINE      CODE     ---       #127
      010013E0H   LINE      CODE     ---       #129
      010013E6H   LINE      CODE     ---       #130
      010013E9H   LINE      CODE     ---       #132
      010013EBH   LINE      CODE     ---       #133
      ---         BLOCKEND  ---      ---       LVL=0

      010019BEH   BLOCK     CODE     ---       LVL=0
      010019BEH   BLOCK     CODE     NEAR LAB  LVL=1
      00000007H   SYMBOL    DATA     BYTE      SfrPageSave
      ---         BLOCKEND  ---      ---       LVL=1
      010019BEH   LINE      CODE     ---       #135
      010019BEH   LINE      CODE     ---       #136
      010019BEH   LINE      CODE     ---       #137
      010019C0H   LINE      CODE     ---       #138
      010019C4H   LINE      CODE     ---       #139
      010019CAH   LINE      CODE     ---       #140
      010019D0H   LINE      CODE     ---       #141
      010019D2H   LINE      CODE     ---       #142
      ---         BLOCKEND  ---      ---       LVL=0
      00000007H   SYMBOL    DATA     BYTE      SfrPageSave
      00000000H   SYMBOL    DATA     ---       ep

      01001229H   BLOCK     CODE     ---       LVL=0
      00000026H   SYMBOL    DATA     ---       p
LX51 LINKER/LOCATER V4.66.30.0                                                        01/24/2016  18:13:24  PAGE 64


      0100122FH   BLOCK     CODE     NEAR LAB  LVL=1
      00000007H   SYMBOL    DATA     BYTE      i
      00000029H   SYMBOL    DATA     BYTE      SfrPageSave
      ---         BLOCKEND  ---      ---       LVL=1
      01001229H   LINE      CODE     ---       #177
      0100122FH   LINE      CODE     ---       #178
      0100122FH   LINE      CODE     ---       #181
      01001232H   LINE      CODE     ---       #182
      01001235H   LINE      CODE     ---       #187
      01001238H   LINE      CODE     ---       #191
      0100123AH   LINE      CODE     ---       #192
      0100123AH   LINE      CODE     ---       #193
      01001240H   LINE      CODE     ---       #194
      01001244H   LINE      CODE     ---       #197
      0100124CH   LINE      CODE     ---       #198
      01001257H   LINE      CODE     ---       #199
      01001262H   LINE      CODE     ---       #200
      0100126EH   LINE      CODE     ---       #204
      01001271H   LINE      CODE     ---       #205
      01001277H   LINE      CODE     ---       #213
      0100127DH   LINE      CODE     ---       #218
      01001288H   LINE      CODE     ---       #219
      01001293H   LINE      CODE     ---       #220
      01001296H   LINE      CODE     ---       #225
      0100129AH   LINE      CODE     ---       #239
      0100129DH   LINE      CODE     ---       #242
      010012A0H   LINE      CODE     ---       #243
      010012ABH   LINE      CODE     ---       #245
      010012ADH   LINE      CODE     ---       #246
      ---         BLOCKEND  ---      ---       LVL=0

      01000E62H   BLOCK     CODE     ---       LVL=0
      00000041H   SYMBOL    DATA     BYTE      epAddr
      00000042H   SYMBOL    DATA     ---       dat
      00000045H   SYMBOL    DATA     WORD      byteCount
      00000021H.1 SYMBOL    BIT      BIT       callback
      01000E6AH   BLOCK     CODE     NEAR LAB  LVL=1
      00000021H.2 SYMBOL    BIT      BIT       usbIntsEnabled
      00000047H   SYMBOL    DATA     ---       ep
      00000048H   SYMBOL    DATA     BYTE      SfrPageSave
      ---         BLOCKEND  ---      ---       LVL=1
      01000E62H   LINE      CODE     ---       #248
      01000E6AH   LINE      CODE     ---       #252
      01000E6AH   LINE      CODE     ---       #256
      01000E6DH   LINE      CODE     ---       #259
      01000E77H   LINE      CODE     ---       #260
      01000E77H   LINE      CODE     ---       #261
      01000E77H   LINE      CODE     ---       #263
      01000E77H   LINE      CODE     ---       #271
      01000E77H   LINE      CODE     ---       #273
      01000E77H   LINE      CODE     ---       #281
      01000E77H   LINE      CODE     ---       #282
      01000E81H   LINE      CODE     ---       #283
      01000E84H   LINE      CODE     ---       #284
      01000E84H   LINE      CODE     ---       #287
      01000E8FH   LINE      CODE     ---       #288
      01000E8FH   LINE      CODE     ---       #289
      01000E92H   LINE      CODE     ---       #290
      01000E92H   LINE      CODE     ---       #292
      01000E99H   LINE      CODE     ---       #296
      01000EA4H   LINE      CODE     ---       #297
      01000EA4H   LINE      CODE     ---       #298
LX51 LINKER/LOCATER V4.66.30.0                                                        01/24/2016  18:13:24  PAGE 65


      01000EAAH   LINE      CODE     ---       #299
      01000EAAH   LINE      CODE     ---       #300
      01000EACH   LINE      CODE     ---       #301
      01000EACH   LINE      CODE     ---       #303
      01000EACH   LINE      CODE     ---       #304
      01000EADH   LINE      CODE     ---       #305
      01000EADH   LINE      CODE     ---       #306
      01000EADH   LINE      CODE     ---       #308
      01000EB5H   LINE      CODE     ---       #310
      01000EC3H   LINE      CODE     ---       #311
      01000ECDH   LINE      CODE     ---       #312
      01000ED4H   LINE      CODE     ---       #313
      01000EE5H   LINE      CODE     ---       #314
      01000EE8H   LINE      CODE     ---       #324
      01000EEEH   LINE      CODE     ---       #325
      01000EF1H   LINE      CODE     ---       #327
      01000EF3H   LINE      CODE     ---       #328
      ---         BLOCKEND  ---      ---       LVL=0

      0100144BH   BLOCK     CODE     ---       LVL=0
      0100144BH   BLOCK     CODE     NEAR LAB  LVL=1
      00000007H   SYMBOL    DATA     BYTE      i
      00000021H.1 SYMBOL    BIT      BIT       regulatorEnabled
      00000021H.2 SYMBOL    BIT      BIT       prefetchEnabled
      0000003DH   SYMBOL    DATA     BYTE      SfrPageSave
      ---         BLOCKEND  ---      ---       LVL=1
      0100144BH   LINE      CODE     ---       #433
      0100144BH   LINE      CODE     ---       #434
      0100144BH   LINE      CODE     ---       #438
      0100144EH   LINE      CODE     ---       #444
      01001453H   LINE      CODE     ---       #448
      01001453H   LINE      CODE     ---       #449
      01001459H   LINE      CODE     ---       #452
      0100145FH   LINE      CODE     ---       #457
      01001464H   LINE      CODE     ---       #458
      0100146AH   LINE      CODE     ---       #461
      0100146FH   LINE      CODE     ---       #462
      0100146FH   LINE      CODE     ---       #463
      01001471H   LINE      CODE     ---       #468
      01001477H   LINE      CODE     ---       #471
      01001479H   LINE      CODE     ---       #472
      01001479H   LINE      CODE     ---       #473
      0100147FH   LINE      CODE     ---       #475
      0100147FH   LINE      CODE     ---       #477
      0100147FH   LINE      CODE     ---       #478
      01001481H   LINE      CODE     ---       #479
      01001481H   LINE      CODE     ---       #482
      01001481H   LINE      CODE     ---       #483
      01001484H   LINE      CODE     ---       #507
      01001489H   LINE      CODE     ---       #510
      0100148CH   LINE      CODE     ---       #511
      0100148CH   LINE      CODE     ---       #512
      01001492H   LINE      CODE     ---       #513
      01001492H   LINE      CODE     ---       #516
      01001495H   LINE      CODE     ---       #517
      01001495H   LINE      CODE     ---       #518
      0100149BH   LINE      CODE     ---       #519
      0100149BH   LINE      CODE     ---       #523
      0100149EH   LINE      CODE     ---       #525
      010014A4H   LINE      CODE     ---       #526
      010014A4H   LINE      CODE     ---       #528
      010014A7H   LINE      CODE     ---       #529
LX51 LINKER/LOCATER V4.66.30.0                                                        01/24/2016  18:13:24  PAGE 66


      ---         BLOCKEND  ---      ---       LVL=0

      0100099EH   BLOCK     CODE     ---       LVL=0
      00000041H   SYMBOL    DATA     BYTE      epAddr
      00000042H   SYMBOL    DATA     ---       dat
      00000045H   SYMBOL    DATA     WORD      byteCount
      00000021H.1 SYMBOL    BIT      BIT       callback
      010009A6H   BLOCK     CODE     NEAR LAB  LVL=1
      00000021H.2 SYMBOL    BIT      BIT       usbIntsEnabled
      00000047H   SYMBOL    DATA     ---       ep
      00000048H   SYMBOL    DATA     BYTE      SfrPageSave
      ---         BLOCKEND  ---      ---       LVL=1
      0100099EH   LINE      CODE     ---       #601
      010009A6H   LINE      CODE     ---       #605
      010009A6H   LINE      CODE     ---       #609
      010009A9H   LINE      CODE     ---       #612
      010009B2H   LINE      CODE     ---       #613
      010009B2H   LINE      CODE     ---       #614
      010009B2H   LINE      CODE     ---       #616
      010009B2H   LINE      CODE     ---       #624
      010009B2H   LINE      CODE     ---       #626
      010009B2H   LINE      CODE     ---       #634
      010009B2H   LINE      CODE     ---       #635
      010009BCH   LINE      CODE     ---       #636
      010009BFH   LINE      CODE     ---       #637
      010009BFH   LINE      CODE     ---       #641
      010009CAH   LINE      CODE     ---       #642
      010009CAH   LINE      CODE     ---       #643
      010009CDH   LINE      CODE     ---       #644
      010009CDH   LINE      CODE     ---       #646
      010009D4H   LINE      CODE     ---       #650
      010009DFH   LINE      CODE     ---       #651
      010009DFH   LINE      CODE     ---       #652
      010009E5H   LINE      CODE     ---       #653
      010009E5H   LINE      CODE     ---       #654
      010009E7H   LINE      CODE     ---       #655
      010009E7H   LINE      CODE     ---       #657
      010009E7H   LINE      CODE     ---       #658
      010009E8H   LINE      CODE     ---       #659
      010009E8H   LINE      CODE     ---       #660
      010009E8H   LINE      CODE     ---       #662
      010009F0H   LINE      CODE     ---       #664
      010009FEH   LINE      CODE     ---       #665
      01000A08H   LINE      CODE     ---       #666
      01000A0FH   LINE      CODE     ---       #667
      01000A20H   LINE      CODE     ---       #669
      01000A28H   LINE      CODE     ---       #670
      01000A28H   LINE      CODE     ---       #673
      01000A28H   LINE      CODE     ---       #674
      01000A2EH   LINE      CODE     ---       #675
      01000A30H   LINE      CODE     ---       #680
      01000A30H   LINE      CODE     ---       #681
      01000A54H   LINE      CODE     ---       #685
      01000A54H   LINE      CODE     ---       #708
      01000A54H   LINE      CODE     ---       #710
      01000A5AH   LINE      CODE     ---       #711
      01000A5DH   LINE      CODE     ---       #713
      01000A5FH   LINE      CODE     ---       #714
      ---         BLOCKEND  ---      ---       LVL=0

      01001773H   BLOCK     CODE     ---       LVL=0
      0000003FH   SYMBOL    DATA     BYTE      newState
LX51 LINKER/LOCATER V4.66.30.0                                                        01/24/2016  18:13:24  PAGE 67


      01001775H   BLOCK     CODE     NEAR LAB  LVL=1
      00000040H   SYMBOL    DATA     BYTE      currentState
      ---         BLOCKEND  ---      ---       LVL=1
      01001773H   LINE      CODE     ---       #719
      01001775H   LINE      CODE     ---       #720
      01001775H   LINE      CODE     ---       #726
      0100177AH   LINE      CODE     ---       #730
      01001785H   LINE      CODE     ---       #732
      01001785H   LINE      CODE     ---       #733
      01001788H   LINE      CODE     ---       #741
      01001788H   LINE      CODE     ---       #742
      0100178DH   LINE      CODE     ---       #743
      0100178DH   LINE      CODE     ---       #744
      01001791H   LINE      CODE     ---       #745
      01001791H   LINE      CODE     ---       #747
      01001795H   LINE      CODE     ---       #750
      0100179BH   LINE      CODE     ---       #751
      0100179BH   LINE      CODE     ---       #752
      010017A2H   LINE      CODE     ---       #753
      010017A2H   LINE      CODE     ---       #755
      ---         BLOCKEND  ---      ---       LVL=0

      ---         MODULE    ---      ---       EFM8_USBDCH9
      01001C56H   PUBLIC    CONST    ---       txZero
      0100100CH   PUBLIC    CODE     ---       USBDCH9_SetupCmd
      000000A2H   SFRSYM    DATA     BYTE      SPI0CKR
      00000080H   SFRSYM    DATA     BYTE      P0
      000000C8H.6 SFRSYM    DATA     BIT       SCON1_PERR
      000000D0H.2 SFRSYM    DATA     BIT       PSW_OV
      00000090H   SFRSYM    DATA     BYTE      P1
      000000F8H.1 SFRSYM    DATA     BIT       SPI0CN0_TXNF
      00000097H   SFRSYM    DATA     BYTE      WDTCN
      000000A0H   SFRSYM    DATA     BYTE      P2
      000000B0H   SFRSYM    DATA     BYTE      P3
      000000BCH   SFRSYM    DATA     BYTE      ADC0CF
      000000C0H.7 SFRSYM    DATA     BIT       SMB0CN0_MASTER
      000000F9H   SFRSYM    DATA     WORD      PCA0
      000000E6H   SFRSYM    DATA     BYTE      EIE1
      000000C0H.1 SFRSYM    DATA     BIT       SMB0CN0_ACK
      000000B3H   SFRSYM    DATA     BYTE      USB0XCN
      000000CEH   SFRSYM    DATA     BYTE      EIE2
      0000008FH   SFRSYM    DATA     BYTE      PSCTL
      000000E4H   SFRSYM    DATA     BYTE      IT01CF
      000000C0H.6 SFRSYM    DATA     BIT       SMB0CN0_TXMODE
      000000ADH   SFRSYM    DATA     BYTE      DERIVID
      000000A7H   SFRSYM    DATA     BYTE      SFRPAGE
      000000A4H   SFRSYM    DATA     BYTE      P0MDOUT
      000000BFH   SFRSYM    DATA     BYTE      USB0CDSTA
      000000A5H   SFRSYM    DATA     BYTE      P1MDOUT
      000000E8H.5 SFRSYM    DATA     BIT       ADC0CN0_ADINT
      000000CBH   SFRSYM    DATA     BYTE      TMR2RLH
      000000A6H   SFRSYM    DATA     BYTE      P2MDOUT
      000000A8H   SFRSYM    DATA     BYTE      IE
      00000093H   SFRSYM    DATA     BYTE      TMR3RLH
      0000009CH   SFRSYM    DATA     BYTE      P3MDOUT
      000000A3H   SFRSYM    DATA     BYTE      TMR4RLH
      000000F3H   SFRSYM    DATA     BYTE      EIP1
      000000F4H   SFRSYM    DATA     BYTE      EIP2
      00000098H.2 SFRSYM    DATA     BIT       SCON0_RB8
      000000CAH   SFRSYM    DATA     BYTE      TMR2RLL
      000000FCH   SFRSYM    DATA     BYTE      PCA0CPH0
      00000092H   SFRSYM    DATA     BYTE      TMR3RLL
LX51 LINKER/LOCATER V4.66.30.0                                                        01/24/2016  18:13:24  PAGE 68


      000000EAH   SFRSYM    DATA     BYTE      PCA0CPH1
      00000098H.3 SFRSYM    DATA     BIT       SCON0_TB8
      000000F0H   SFRSYM    DATA     BIT       B_B0
      00000082H   SFRSYM    DATA     WORD      DP
      000000A2H   SFRSYM    DATA     BYTE      TMR4RLL
      000000ECH   SFRSYM    DATA     BYTE      PCA0CPH2
      000000F0H.1 SFRSYM    DATA     BIT       B_B1
      000000C3H   SFRSYM    DATA     WORD      ADC0GT
      000000BDH   SFRSYM    DATA     BYTE      I2C0SLAD
      000000D8H.3 SFRSYM    DATA     BIT       UART1FCN1_RFRQ
      000000F0H.2 SFRSYM    DATA     BIT       B_B2
      000000CFH   SFRSYM    DATA     BYTE      SFRPGCN
      000000FBH   SFRSYM    DATA     BYTE      PCA0CPL0
      000000F0H.3 SFRSYM    DATA     BIT       B_B3
      000000D9H   SFRSYM    DATA     BYTE      PCA0MD
      000000DAH   SFRSYM    DATA     BYTE      PCA0CPM0
      000000E9H   SFRSYM    DATA     BYTE      PCA0CPL1
      000000D8H.7 SFRSYM    DATA     BIT       UART1FCN1_TFRQ
      000000F0H.4 SFRSYM    DATA     BIT       B_B4
      000000DBH   SFRSYM    DATA     BYTE      PCA0CPM1
      000000EBH   SFRSYM    DATA     BYTE      PCA0CPL2
      000000F0H.5 SFRSYM    DATA     BIT       B_B5
      000000DCH   SFRSYM    DATA     BYTE      PCA0CPM2
      000000B8H   SFRSYM    DATA     BYTE      IP
      000000B9H   SFRSYM    DATA     BYTE      ADC0TK
      000000F0H.6 SFRSYM    DATA     BIT       B_B6
      000000C5H   SFRSYM    DATA     WORD      ADC0LT
      000000D8H.6 SFRSYM    DATA     BIT       UART1FCN1_TXNF
      00000098H.5 SFRSYM    DATA     BIT       SCON0_MCE
      000000F0H.7 SFRSYM    DATA     BIT       B_B7
      000000C3H   SFRSYM    DATA     BYTE      SMB0FCN0
      000000E1H   SFRSYM    DATA     BYTE      XBR0
      000000C4H   SFRSYM    DATA     BYTE      SMB0FCN1
      000000C1H   SFRSYM    DATA     BYTE      SMB0CF
      000000E2H   SFRSYM    DATA     BYTE      XBR1
      000000C1H   SFRSYM    DATA     BYTE      PFE0CN
      000000E7H   SFRSYM    DATA     BYTE      EMI0CN
      000000C0H.5 SFRSYM    DATA     BIT       SMB0CN0_STA
      000000E3H   SFRSYM    DATA     BYTE      XBR2
      000000BBH   SFRSYM    DATA     BYTE      ADC0MX
      000000E0H   SFRSYM    DATA     BIT       ACC_ACC0
      000000D1H   SFRSYM    DATA     BYTE      REF0CN
      0000008EH   SFRSYM    DATA     BYTE      CKCON0
      000000E0H.1 SFRSYM    DATA     BIT       ACC_ACC1
      000000C9H   SFRSYM    DATA     BYTE      REG0CN
      000000DDH   SFRSYM    DATA     BYTE      CRC0IN
      000000A6H   SFRSYM    DATA     BYTE      CKCON1
      000000C8H.2 SFRSYM    DATA     BIT       TMR2CN0_TR2
      000000E0H.2 SFRSYM    DATA     BIT       ACC_ACC2
      000000C6H   SFRSYM    DATA     BYTE      REG1CN
      000000E0H.3 SFRSYM    DATA     BIT       ACC_ACC3
      00000081H   SFRSYM    DATA     BYTE      SP
      0000009DH   SFRSYM    DATA     BYTE      CMP0MD
      000000E0H.4 SFRSYM    DATA     BIT       ACC_ACC4
      000000B1H   SFRSYM    DATA     BYTE      LFO0CN
      000000ABH   SFRSYM    DATA     BYTE      CMP1MD
      000000D8H   SFRSYM    DATA     BIT       PCA0CN0_CCF0
      000000E0H.5 SFRSYM    DATA     BIT       ACC_ACC5
      000000B5H   SFRSYM    DATA     BYTE      USB0CF
      00000098H.2 SFRSYM    DATA     BIT       TMR4CN0_TR4
      000000D8H.1 SFRSYM    DATA     BIT       PCA0CN0_CCF1
      000000E0H.6 SFRSYM    DATA     BIT       ACC_ACC6
LX51 LINKER/LOCATER V4.66.30.0                                                        01/24/2016  18:13:24  PAGE 69


      000000CCH   SFRSYM    DATA     WORD      TMR2
      0000009AH   SFRSYM    DATA     BYTE      SPI0FCN0
      000000D8H.2 SFRSYM    DATA     BIT       PCA0CN0_CCF2
      000000E0H.7 SFRSYM    DATA     BIT       ACC_ACC7
      00000094H   SFRSYM    DATA     WORD      TMR3
      0000009BH   SFRSYM    DATA     BYTE      SPI0FCN1
      000000A4H   SFRSYM    DATA     WORD      TMR4
      00000094H   SFRSYM    DATA     BYTE      SBCON1
      000000C0H.3 SFRSYM    DATA     BIT       SMB0CN0_ACKRQ
      000000FFH   SFRSYM    DATA     BYTE      VDM0CN
      000000F1H   SFRSYM    DATA     BYTE      P0MDIN
      00000098H.4 SFRSYM    DATA     BIT       SCON0_REN
      000000ACH   SFRSYM    DATA     BYTE      SMB0TC
      000000F2H   SFRSYM    DATA     BYTE      P1MDIN
      000000C8H.4 SFRSYM    DATA     BIT       SCON1_REN
      000000F3H   SFRSYM    DATA     BYTE      P2MDIN
      000000C0H.4 SFRSYM    DATA     BIT       SMB0CN0_STO
      000000B6H   SFRSYM    DATA     BYTE      USB0CDCF
      000000F4H   SFRSYM    DATA     BYTE      P3MDIN
      000000B9H   SFRSYM    DATA     BYTE      I2C0STAT
      000000BBH   SFRSYM    DATA     BYTE      I2C0DOUT
      00000096H   SFRSYM    DATA     BYTE      SBRLH1
      000000FEH   SFRSYM    DATA     BYTE      P0MASK
      000000D8H.5 SFRSYM    DATA     BIT       UART1FCN1_TXHOLD
      000000EEH   SFRSYM    DATA     BYTE      P1MASK
      000000FCH   SFRSYM    DATA     BYTE      P2MASK
      000000D0H.3 SFRSYM    DATA     BIT       PSW_RS0
      000000D8H.7 SFRSYM    DATA     BIT       PCA0CN0_CF
      0000009EH   SFRSYM    DATA     BYTE      PCA0CENT
      000000BAH   SFRSYM    DATA     BYTE      I2C0CN0
      000000D2H   SFRSYM    DATA     BYTE      CRC0ST
      000000F8H.4 SFRSYM    DATA     BIT       SPI0CN0_RXOVRN
      000000D0H.4 SFRSYM    DATA     BIT       PSW_RS1
      00000095H   SFRSYM    DATA     BYTE      SBRLL1
      000000C8H.2 SFRSYM    DATA     BIT       SCON1_RBX
      000000C8H   SFRSYM    DATA     BIT       TMR2CN0_T2XCLK0
      000000C8H.1 SFRSYM    DATA     BIT       TMR2CN0_T2XCLK1
      000000C8H.3 SFRSYM    DATA     BIT       SCON1_TBX
      000000E8H.7 SFRSYM    DATA     BIT       ADC0CN0_ADEN
      000000BEH   SFRSYM    DATA     BYTE      USB0CDCN
      00000089H   SFRSYM    DATA     BYTE      TMOD
      00000088H   SFRSYM    DATA     BYTE      TCON
      000000CFH   SFRSYM    DATA     BYTE      CRC0FLIP
      000000D0H   SFRSYM    DATA     BIT       PSW_PARITY
      000000A8H.4 SFRSYM    DATA     BIT       IE_ES0
      0000009FH   SFRSYM    DATA     BYTE      CMP0MX
      00000098H   SFRSYM    DATA     BIT       TMR4CN0_T4XCLK0
      000000A8H.1 SFRSYM    DATA     BIT       IE_ET0
      000000AAH   SFRSYM    DATA     BYTE      CMP1MX
      00000098H.1 SFRSYM    DATA     BIT       TMR4CN0_T4XCLK1
      000000A8H.3 SFRSYM    DATA     BIT       IE_ET1
      000000D4H   SFRSYM    DATA     BYTE      P0SKIP
      000000D8H   SFRSYM    DATA     BIT       UART1FCN1_RIE
      000000A8H.5 SFRSYM    DATA     BIT       IE_ET2
      000000D5H   SFRSYM    DATA     BYTE      P1SKIP
      000000CCH   SFRSYM    DATA     BYTE      P2SKIP
      000000E8H   SFRSYM    DATA     BYTE      ADC0CN0
      000000D8H.4 SFRSYM    DATA     BIT       UART1FCN1_TIE
      000000A8H   SFRSYM    DATA     BIT       IE_EX0
      000000B2H   SFRSYM    DATA     BYTE      ADC0CN1
      000000D8H.6 SFRSYM    DATA     BIT       PCA0CN0_CR
      000000A8H.2 SFRSYM    DATA     BIT       IE_EX1
LX51 LINKER/LOCATER V4.66.30.0                                                        01/24/2016  18:13:24  PAGE 70


      000000C8H.7 SFRSYM    DATA     BIT       SCON1_OVR
      00000098H.7 SFRSYM    DATA     BIT       SCON0_SMODE
      000000B5H   SFRSYM    DATA     BYTE      DEVICEID
      000000A9H   SFRSYM    DATA     BYTE      CLKSEL
      000000F8H   SFRSYM    DATA     BIT       SPI0CN0_SPIEN
      000000F0H   SFRSYM    DATA     BYTE      B
      000000BEH   SFRSYM    DATA     BYTE      ADC0H
      000000E8H.6 SFRSYM    DATA     BIT       ADC0CN0_ADBMEN
      000000CAH   SFRSYM    DATA     WORD      TMR2RL
      000000BDH   SFRSYM    DATA     BYTE      ADC0L
      00000092H   SFRSYM    DATA     WORD      TMR3RL
      000000A2H   SFRSYM    DATA     WORD      TMR4RL
      000000D8H   SFRSYM    DATA     BYTE      PCA0CN0
      000000E0H   SFRSYM    DATA     BYTE      ACC
      000000FBH   SFRSYM    DATA     WORD      PCA0CP0
      000000E9H   SFRSYM    DATA     WORD      PCA0CP1
      000000EBH   SFRSYM    DATA     WORD      PCA0CP2
      000000BCH   SFRSYM    DATA     BYTE      I2C0DIN
      000000CEH   SFRSYM    DATA     BYTE      CRC0CN0
      0000008CH   SFRSYM    DATA     BYTE      TH0
      00000086H   SFRSYM    DATA     BYTE      CRC0CN1
      000000B8H.4 SFRSYM    DATA     BIT       IP_PS0
      000000FAH   SFRSYM    DATA     BYTE      UART1FCT
      0000008DH   SFRSYM    DATA     BYTE      TH1
      000000FAH   SFRSYM    DATA     BYTE      PCA0H
      000000F5H   SFRSYM    DATA     BYTE      I2C0FCT
      000000B8H.1 SFRSYM    DATA     BIT       IP_PT0
      000000B8H.3 SFRSYM    DATA     BIT       IP_PT1
      000000C0H.2 SFRSYM    DATA     BIT       SMB0CN0_ARBLOST
      000000B8H.5 SFRSYM    DATA     BIT       IP_PT2
      0000008AH   SFRSYM    DATA     BYTE      TL0
      000000D0H.5 SFRSYM    DATA     BIT       PSW_F0
      000000A8H.6 SFRSYM    DATA     BIT       IE_ESPI0
      0000008BH   SFRSYM    DATA     BYTE      TL1
      000000F9H   SFRSYM    DATA     BYTE      PCA0L
      000000C0H   SFRSYM    DATA     BIT       SMB0CN0_SI
      000000D0H.1 SFRSYM    DATA     BIT       PSW_F1
      00000080H   SFRSYM    DATA     BIT       P0_B0
      000000B8H   SFRSYM    DATA     BIT       IP_PX0
      00000090H   SFRSYM    DATA     BIT       P1_B0
      00000080H.1 SFRSYM    DATA     BIT       P0_B1
      000000B8H.2 SFRSYM    DATA     BIT       IP_PX1
      0000009EH   SFRSYM    DATA     BYTE      UART1LIN
      0000009BH   SFRSYM    DATA     BYTE      CMP0CN0
      00000088H.1 SFRSYM    DATA     BIT       TCON_IE0
      000000A0H   SFRSYM    DATA     BIT       P2_B0
      00000090H.1 SFRSYM    DATA     BIT       P1_B1
      00000080H.2 SFRSYM    DATA     BIT       P0_B2
      000000BFH   SFRSYM    DATA     BYTE      CMP1CN0
      00000099H   SFRSYM    DATA     BYTE      CMP0CN1
      00000088H.3 SFRSYM    DATA     BIT       TCON_IE1
      000000B0H   SFRSYM    DATA     BIT       P3_B0
      000000A0H.1 SFRSYM    DATA     BIT       P2_B1
      00000090H.2 SFRSYM    DATA     BIT       P1_B2
      00000080H.3 SFRSYM    DATA     BIT       P0_B3
      000000C0H   SFRSYM    DATA     BYTE      SMB0CN0
      000000ACH   SFRSYM    DATA     BYTE      CMP1CN1
      000000B0H.1 SFRSYM    DATA     BIT       P3_B1
      000000A0H.2 SFRSYM    DATA     BIT       P2_B2
      00000090H.3 SFRSYM    DATA     BIT       P1_B3
      00000080H.4 SFRSYM    DATA     BIT       P0_B4
      000000A0H.3 SFRSYM    DATA     BIT       P2_B3
LX51 LINKER/LOCATER V4.66.30.0                                                        01/24/2016  18:13:24  PAGE 71


      00000090H.4 SFRSYM    DATA     BIT       P1_B4
      00000080H.5 SFRSYM    DATA     BIT       P0_B5
      000000D8H.1 SFRSYM    DATA     BIT       UART1FCN1_RXTO0
      00000090H.5 SFRSYM    DATA     BIT       P1_B5
      00000080H.6 SFRSYM    DATA     BIT       P0_B6
      000000F5H   SFRSYM    DATA     BYTE      EIP1H
      000000D8H.2 SFRSYM    DATA     BIT       UART1FCN1_RXTO1
      00000090H.6 SFRSYM    DATA     BIT       P1_B6
      00000080H.7 SFRSYM    DATA     BIT       P0_B7
      000000C5H   SFRSYM    DATA     BYTE      SMB0RXLN
      000000F6H   SFRSYM    DATA     BYTE      EIP2H
      00000090H.7 SFRSYM    DATA     BIT       P1_B7
      00000083H   SFRSYM    DATA     BYTE      DPH
      000000C4H   SFRSYM    DATA     BYTE      ADC0GTH
      000000C8H.7 SFRSYM    DATA     BIT       TMR2CN0_TF2H
      000000C8H.3 SFRSYM    DATA     BIT       TMR2CN0_T2SPLIT
      000000D0H.6 SFRSYM    DATA     BIT       PSW_AC
      000000F8H   SFRSYM    DATA     BYTE      SPI0CN0
      000000C7H   SFRSYM    DATA     BYTE      HFO0CAL
      00000088H.5 SFRSYM    DATA     BIT       TCON_TF0
      00000098H   SFRSYM    DATA     BIT       SCON0_RI
      000000D6H   SFRSYM    DATA     BYTE      HFO1CAL
      00000082H   SFRSYM    DATA     BYTE      DPL
      00000088H.7 SFRSYM    DATA     BIT       TCON_TF1
      000000C8H   SFRSYM    DATA     BIT       SCON1_RI
      00000099H   SFRSYM    DATA     BYTE      SBUF0
      00000087H   SFRSYM    DATA     BYTE      PCON0
      000000F2H   SFRSYM    DATA     BYTE      IPH
      000000C3H   SFRSYM    DATA     BYTE      ADC0GTL
      00000098H.7 SFRSYM    DATA     BIT       TMR4CN0_TF4H
      00000098H.3 SFRSYM    DATA     BIT       TMR4CN0_T4SPLIT
      000000C8H.6 SFRSYM    DATA     BIT       TMR2CN0_TF2L
      00000098H.1 SFRSYM    DATA     BIT       SCON0_TI
      000000E8H   SFRSYM    DATA     BIT       ADC0CN0_ADCM0
      00000092H   SFRSYM    DATA     BYTE      SBUF1
      0000009AH   SFRSYM    DATA     BYTE      PCON1
      000000C6H   SFRSYM    DATA     BYTE      ADC0LTH
      00000088H   SFRSYM    DATA     BIT       TCON_IT0
      000000C8H.1 SFRSYM    DATA     BIT       SCON1_TI
      000000E8H.1 SFRSYM    DATA     BIT       ADC0CN0_ADCM1
      000000EFH   SFRSYM    DATA     BYTE      RSTSRC
      000000FDH   SFRSYM    DATA     BYTE      P0MAT
      000000DEH   SFRSYM    DATA     BYTE      CRC0DAT
      00000088H.2 SFRSYM    DATA     BIT       TCON_IT1
      000000E8H.2 SFRSYM    DATA     BIT       ADC0CN0_ADCM2
      000000D7H   SFRSYM    DATA     BYTE      SFRSTACK
      00000098H   SFRSYM    DATA     BYTE      SCON0
      000000F6H   SFRSYM    DATA     BYTE      PRTDRV
      000000EDH   SFRSYM    DATA     BYTE      P1MAT
      000000E8H.3 SFRSYM    DATA     BIT       ADC0CN0_ADWINT
      00000095H   SFRSYM    DATA     WORD      SBRL1
      000000B2H   SFRSYM    DATA     BYTE      USB0AEC
      00000093H   SFRSYM    DATA     BYTE      SMOD1
      000000C8H   SFRSYM    DATA     BYTE      SCON1
      000000FBH   SFRSYM    DATA     BYTE      P2MAT
      00000098H.6 SFRSYM    DATA     BIT       TMR4CN0_TF4L
      000000E8H.4 SFRSYM    DATA     BIT       ADC0CN0_ADBUSY
      000000D6H   SFRSYM    DATA     BYTE      SMB0ADM
      000000C5H   SFRSYM    DATA     BYTE      ADC0LTL
      000000F8H.5 SFRSYM    DATA     BIT       SPI0CN0_MODF
      000000B8H.6 SFRSYM    DATA     BIT       IP_PSPI0
      0000009CH   SFRSYM    DATA     BYTE      PCA0CLR
LX51 LINKER/LOCATER V4.66.30.0                                                        01/24/2016  18:13:24  PAGE 72


      000000C8H   SFRSYM    DATA     BYTE      TMR2CN0
      00000091H   SFRSYM    DATA     BYTE      TMR3CN0
      000000FDH   SFRSYM    DATA     BYTE      TMR2CN1
      00000098H   SFRSYM    DATA     BYTE      TMR4CN0
      000000FEH   SFRSYM    DATA     BYTE      TMR3CN1
      000000FFH   SFRSYM    DATA     BYTE      TMR4CN1
      000000D7H   SFRSYM    DATA     BYTE      SMB0ADR
      00000088H.4 SFRSYM    DATA     BIT       TCON_TR0
      000000C8H.4 SFRSYM    DATA     BIT       TMR2CN0_TF2CEN
      00000088H.6 SFRSYM    DATA     BIT       TCON_TR1
      000000C2H   SFRSYM    DATA     BYTE      SMB0DAT
      000000CDH   SFRSYM    DATA     BYTE      TMR2H
      000000A1H   SFRSYM    DATA     BYTE      SPI0CFG
      00000095H   SFRSYM    DATA     BYTE      TMR3H
      000000EFH   SFRSYM    DATA     BYTE      HFOCN
      000000D3H   SFRSYM    DATA     BYTE      CRC0CNT
      000000A5H   SFRSYM    DATA     BYTE      TMR4H
      00000098H.4 SFRSYM    DATA     BIT       TMR4CN0_TF4CEN
      000000EFH   SFRSYM    DATA     BYTE      SMB0FCT
      00000096H   SFRSYM    DATA     BYTE      PCA0POL
      000000CCH   SFRSYM    DATA     BYTE      TMR2L
      000000F8H.7 SFRSYM    DATA     BIT       SPI0CN0_SPIF
      000000AEH   SFRSYM    DATA     BYTE      USB0ADR
      00000094H   SFRSYM    DATA     BYTE      TMR3L
      000000DFH   SFRSYM    DATA     BYTE      ADC0PWR
      000000A8H.7 SFRSYM    DATA     BIT       IE_EA
      000000A4H   SFRSYM    DATA     BYTE      TMR4L
      000000AFH   SFRSYM    DATA     BYTE      USB0DAT
      000000C8H.5 SFRSYM    DATA     BIT       TMR2CN0_TF2LEN
      000000F8H.6 SFRSYM    DATA     BIT       SPI0CN0_WCOL
      000000F8H.2 SFRSYM    DATA     BIT       SPI0CN0_NSSMD0
      000000D0H.7 SFRSYM    DATA     BIT       PSW_CY
      0000009DH   SFRSYM    DATA     BYTE      UART1FCN0
      000000A3H   SFRSYM    DATA     BYTE      SPI0DAT
      000000ADH   SFRSYM    DATA     BYTE      I2C0FCN0
      000000F8H.3 SFRSYM    DATA     BIT       SPI0CN0_NSSMD1
      000000BDH   SFRSYM    DATA     WORD      ADC0
      000000D8H   SFRSYM    DATA     BYTE      UART1FCN1
      000000ABH   SFRSYM    DATA     BYTE      I2C0FCN1
      00000098H.5 SFRSYM    DATA     BIT       TMR4CN0_TF4LEN
      000000D0H   SFRSYM    DATA     BYTE      PSW
      000000F7H   SFRSYM    DATA     BYTE      PCA0PWM
      000000F7H   SFRSYM    DATA     BYTE      SPI0FCT
      000000B6H   SFRSYM    DATA     BYTE      REVID
      000000B7H   SFRSYM    DATA     BYTE      FLKEY
      000000B3H   SFRSYM    DATA     BYTE      ADC0AC
      0100111BH   SYMBOL    CODE     ---       SetFeature
      01001544H   SYMBOL    CODE     ---       GetConfiguration
      01001947H   SYMBOL    CODE     ---       USBD_ActivateAllEps
      01000D24H   SYMBOL    CODE     ---       SetConfiguration
      01000BD8H   SYMBOL    CODE     ---       GetStatus
      0100190DH   SYMBOL    CODE     ---       _EP0_Write
      01001606H   SYMBOL    CODE     ---       GetInterface
      01000C85H   SYMBOL    CODE     ---       ClearFeature
      01001711H   SYMBOL    CODE     ---       SetInterface
      010007C9H   SYMBOL    CODE     ---       GetDescriptor
      0000000BH   SYMBOL    DATA     WORD      pStatus
      010013ECH   SYMBOL    CODE     ---       SetAddress

      01001742H   BLOCK     CODE     ---       LVL=0
      ---         BLOCKEND  ---      ---       LVL=0

LX51 LINKER/LOCATER V4.66.30.0                                                        01/24/2016  18:13:24  PAGE 73


      0100100CH   BLOCK     CODE     ---       LVL=0
      0100100CH   BLOCK     CODE     NEAR LAB  LVL=1
      0000003DH   SYMBOL    DATA     CHAR      status
      ---         BLOCKEND  ---      ---       LVL=1
      0100100CH   LINE      CODE     ---       #48
      0100100CH   LINE      CODE     ---       #49
      0100100CH   LINE      CODE     ---       #50
      0100100FH   LINE      CODE     ---       #52
      01001042H   LINE      CODE     ---       #53
      01001042H   LINE      CODE     ---       #54
      01001042H   LINE      CODE     ---       #55
      01001047H   LINE      CODE     ---       #56
      01001049H   LINE      CODE     ---       #58
      01001049H   LINE      CODE     ---       #59
      0100104EH   LINE      CODE     ---       #60
      01001050H   LINE      CODE     ---       #62
      01001050H   LINE      CODE     ---       #63
      01001055H   LINE      CODE     ---       #64
      01001057H   LINE      CODE     ---       #66
      01001057H   LINE      CODE     ---       #67
      0100105CH   LINE      CODE     ---       #68
      0100105EH   LINE      CODE     ---       #70
      0100105EH   LINE      CODE     ---       #71
      01001063H   LINE      CODE     ---       #72
      01001065H   LINE      CODE     ---       #74
      01001065H   LINE      CODE     ---       #75
      0100106AH   LINE      CODE     ---       #76
      0100106CH   LINE      CODE     ---       #78
      0100106CH   LINE      CODE     ---       #79
      01001071H   LINE      CODE     ---       #80
      01001073H   LINE      CODE     ---       #82
      01001073H   LINE      CODE     ---       #83
      01001078H   LINE      CODE     ---       #84
      0100107AH   LINE      CODE     ---       #86
      0100107AH   LINE      CODE     ---       #87
      0100107FH   LINE      CODE     ---       #88
      01001081H   LINE      CODE     ---       #90
      01001081H   LINE      CODE     ---       #91
      01001084H   LINE      CODE     ---       #92
      01001084H   LINE      CODE     ---       #93
      01001084H   LINE      CODE     ---       #96
      01001089H   LINE      CODE     ---       #99
      0100108EH   LINE      CODE     ---       #100
      0100108EH   LINE      CODE     ---       #101
      01001091H   LINE      CODE     ---       #102
      01001091H   LINE      CODE     ---       #104
      01001093H   LINE      CODE     ---       #105
      ---         BLOCKEND  ---      ---       LVL=0

      01000C85H   BLOCK     CODE     ---       LVL=0
      01000C85H   BLOCK     CODE     NEAR LAB  LVL=1
      0000003EH   SYMBOL    DATA     CHAR      retVal
      ---         BLOCKEND  ---      ---       LVL=1
      01000C85H   LINE      CODE     ---       #114
      01000C85H   LINE      CODE     ---       #115
      01000C85H   LINE      CODE     ---       #116
      01000C88H   LINE      CODE     ---       #118
      01000C92H   LINE      CODE     ---       #119
      01000C92H   LINE      CODE     ---       #120
      01000C9EH   LINE      CODE     ---       #121
      01000C9EH   LINE      CODE     ---       #134
      01000C9EH   LINE      CODE     ---       #135
LX51 LINKER/LOCATER V4.66.30.0                                                        01/24/2016  18:13:24  PAGE 74


      01000CA5H   LINE      CODE     ---       #136
      01000CA5H   LINE      CODE     ---       #139
      01000CB3H   LINE      CODE     ---       #141
      01000CB3H   LINE      CODE     ---       #142
      01000CB6H   LINE      CODE     ---       #143
      01000CB8H   LINE      CODE     ---       #144
      01000CC8H   LINE      CODE     ---       #146
      01000CC8H   LINE      CODE     ---       #147
      01000CCAH   LINE      CODE     ---       #148
      01000CD3H   LINE      CODE     ---       #151
      01000CD9H   LINE      CODE     ---       #152
      01000CD9H   LINE      CODE     ---       #153
      01000CE4H   LINE      CODE     ---       #154
      01000CE4H   LINE      CODE     ---       #157
      01000CEAH   LINE      CODE     ---       #158
      01000CEAH   LINE      CODE     ---       #159
      01000D02H   LINE      CODE     ---       #160
      01000D02H   LINE      CODE     ---       #163
      01000D0DH   LINE      CODE     ---       #164
      01000D0DH   LINE      CODE     ---       #166
      01000D0DH   LINE      CODE     ---       #167
      01000D14H   LINE      CODE     ---       #168
      01000D14H   LINE      CODE     ---       #169
      01000D16H   LINE      CODE     ---       #170
      01000D16H   LINE      CODE     ---       #171
      01000D18H   LINE      CODE     ---       #190
      01000D18H   LINE      CODE     ---       #191
      01000D1FH   LINE      CODE     ---       #192
      01000D1FH   LINE      CODE     ---       #193
      01000D21H   LINE      CODE     ---       #194
      01000D21H   LINE      CODE     ---       #195
      01000D21H   LINE      CODE     ---       #213
      01000D21H   LINE      CODE     ---       #214
      01000D21H   LINE      CODE     ---       #215
      01000D21H   LINE      CODE     ---       #216
      01000D21H   LINE      CODE     ---       #217
      01000D21H   LINE      CODE     ---       #218
      01000D23H   LINE      CODE     ---       #219
      ---         BLOCKEND  ---      ---       LVL=0

      01001544H   BLOCK     CODE     ---       LVL=0
      01001544H   BLOCK     CODE     NEAR LAB  LVL=1
      00000007H   SYMBOL    DATA     CHAR      retVal
      ---         BLOCKEND  ---      ---       LVL=1
      01001544H   LINE      CODE     ---       #229
      01001544H   LINE      CODE     ---       #230
      01001544H   LINE      CODE     ---       #231
      01001546H   LINE      CODE     ---       #233
      01001567H   LINE      CODE     ---       #238
      01001567H   LINE      CODE     ---       #239
      0100156DH   LINE      CODE     ---       #240
      0100156DH   LINE      CODE     ---       #241
      01001573H   LINE      CODE     ---       #242
      01001573H   LINE      CODE     ---       #243
      01001575H   LINE      CODE     ---       #244
      0100157BH   LINE      CODE     ---       #245
      0100157BH   LINE      CODE     ---       #246
      01001588H   LINE      CODE     ---       #247
      0100158AH   LINE      CODE     ---       #248
      0100158AH   LINE      CODE     ---       #249
      0100158AH   LINE      CODE     ---       #250
      0100158AH   LINE      CODE     ---       #251
LX51 LINKER/LOCATER V4.66.30.0                                                        01/24/2016  18:13:24  PAGE 75


      ---         BLOCKEND  ---      ---       LVL=0

      010007C9H   BLOCK     CODE     ---       LVL=0
      010007C9H   BLOCK     CODE     NEAR LAB  LVL=1
      0000003EH   SYMBOL    DATA     BYTE      index
      00000004H   SYMBOL    DATA     WORD      length
      0000003FH   SYMBOL    DATA     ---       dat
      00000042H   SYMBOL    DATA     CHAR      retVal
      ---         BLOCKEND  ---      ---       LVL=1
      010007C9H   LINE      CODE     ---       #261
      010007C9H   LINE      CODE     ---       #262
      010007C9H   LINE      CODE     ---       #269
      010007CCH   LINE      CODE     ---       #271
      010007CFH   LINE      CODE     ---       #273
      010007D9H   LINE      CODE     ---       #275
      010007D9H   LINE      CODE     ---       #276
      010007DEH   LINE      CODE     ---       #278
      010007F5H   LINE      CODE     ---       #279
      010007F5H   LINE      CODE     ---       #280
      010007F5H   LINE      CODE     ---       #281
      010007FCH   LINE      CODE     ---       #282
      010007FCH   LINE      CODE     ---       #283
      010007FCH   LINE      CODE     ---       #284
      010007FCH   LINE      CODE     ---       #285
      01000807H   LINE      CODE     ---       #286
      0100080DH   LINE      CODE     ---       #287
      01000810H   LINE      CODE     ---       #289
      01000810H   LINE      CODE     ---       #290
      01000817H   LINE      CODE     ---       #291
      01000817H   LINE      CODE     ---       #292
      01000817H   LINE      CODE     ---       #293
      01000817H   LINE      CODE     ---       #294
      01000820H   LINE      CODE     ---       #295
      0100082EH   LINE      CODE     ---       #296
      01000830H   LINE      CODE     ---       #298
      01000830H   LINE      CODE     ---       #301
      01000849H   LINE      CODE     ---       #305
      0100084DH   LINE      CODE     ---       #306
      0100084DH   LINE      CODE     ---       #307
      01000850H   LINE      CODE     ---       #308
      01000856H   LINE      CODE     ---       #309
      01000858H   LINE      CODE     ---       #312
      01000869H   LINE      CODE     ---       #313
      01000869H   LINE      CODE     ---       #315
      01000871H   LINE      CODE     ---       #316
      01000871H   LINE      CODE     ---       #317
      01000880H   LINE      CODE     ---       #318
      0100088EH   LINE      CODE     ---       #319
      01000899H   LINE      CODE     ---       #320
      0100089DH   LINE      CODE     ---       #321
      0100089DH   LINE      CODE     ---       #322
      0100089DH   LINE      CODE     ---       #364
      0100089DH   LINE      CODE     ---       #368
      010008A1H   LINE      CODE     ---       #369
      010008A1H   LINE      CODE     ---       #370
      010008AFH   LINE      CODE     ---       #371
      010008AFH   LINE      CODE     ---       #372
      010008B3H   LINE      CODE     ---       #373
      010008B3H   LINE      CODE     ---       #375
      010008BCH   LINE      CODE     ---       #377
      010008BFH   LINE      CODE     ---       #378
      010008BFH   LINE      CODE     ---       #379
LX51 LINKER/LOCATER V4.66.30.0                                                        01/24/2016  18:13:24  PAGE 76


      010008BFH   LINE      CODE     ---       #381
      010008C1H   LINE      CODE     ---       #382
      ---         BLOCKEND  ---      ---       LVL=0

      01001606H   BLOCK     CODE     ---       LVL=0
      01001606H   BLOCK     CODE     NEAR LAB  LVL=1
      00000006H   SYMBOL    DATA     WORD      interface
      00000005H   SYMBOL    DATA     CHAR      retVal
      ---         BLOCKEND  ---      ---       LVL=1
      01001606H   LINE      CODE     ---       #391
      01001606H   LINE      CODE     ---       #392
      01001606H   LINE      CODE     ---       #393
      01001609H   LINE      CODE     ---       #394
      0100160BH   LINE      CODE     ---       #399
      01001629H   LINE      CODE     ---       #401
      01001629H   LINE      CODE     ---       #402
      0100162FH   LINE      CODE     ---       #403
      0100162FH   LINE      CODE     ---       #409
      0100163CH   LINE      CODE     ---       #411
      0100163EH   LINE      CODE     ---       #412
      0100163EH   LINE      CODE     ---       #413
      0100163EH   LINE      CODE     ---       #414
      01001640H   LINE      CODE     ---       #415
      ---         BLOCKEND  ---      ---       LVL=0

      01000BD8H   BLOCK     CODE     ---       LVL=0
      01000BD8H   BLOCK     CODE     NEAR LAB  LVL=1
      0000003EH   SYMBOL    DATA     CHAR      retVal
      ---         BLOCKEND  ---      ---       LVL=1
      01000BD8H   LINE      CODE     ---       #424
      01000BD8H   LINE      CODE     ---       #425
      01000BD8H   LINE      CODE     ---       #426
      01000BDBH   LINE      CODE     ---       #428
      01000C03H   LINE      CODE     ---       #432
      01000C03H   LINE      CODE     ---       #433
      01000C08H   LINE      CODE     ---       #435
      01000C15H   LINE      CODE     ---       #436
      01000C15H   LINE      CODE     ---       #437
      01000C15H   LINE      CODE     ---       #438
      01000C1CH   LINE      CODE     ---       #439
      01000C1CH   LINE      CODE     ---       #450
      01000C21H   LINE      CODE     ---       #451
      01000C21H   LINE      CODE     ---       #452
      01000C24H   LINE      CODE     ---       #453
      01000C24H   LINE      CODE     ---       #458
      01000C24H   LINE      CODE     ---       #459
      01000C24H   LINE      CODE     ---       #460
      01000C26H   LINE      CODE     ---       #462
      01000C26H   LINE      CODE     ---       #463
      01000C32H   LINE      CODE     ---       #464
      01000C32H   LINE      CODE     ---       #465
      01000C32H   LINE      CODE     ---       #466
      01000C32H   LINE      CODE     ---       #467
      01000C34H   LINE      CODE     ---       #470
      01000C34H   LINE      CODE     ---       #473
      01000C45H   LINE      CODE     ---       #475
      01000C45H   LINE      CODE     ---       #476
      01000C45H   LINE      CODE     ---       #477
      01000C47H   LINE      CODE     ---       #478
      01000C4DH   LINE      CODE     ---       #479
      01000C4DH   LINE      CODE     ---       #480
      01000C56H   LINE      CODE     ---       #481
LX51 LINKER/LOCATER V4.66.30.0                                                        01/24/2016  18:13:24  PAGE 77


      01000C56H   LINE      CODE     ---       #483
      01000C56H   LINE      CODE     ---       #484
      01000C5CH   LINE      CODE     ---       #485
      01000C5CH   LINE      CODE     ---       #486
      01000C62H   LINE      CODE     ---       #487
      01000C62H   LINE      CODE     ---       #488
      01000C62H   LINE      CODE     ---       #489
      01000C64H   LINE      CODE     ---       #510
      01000C64H   LINE      CODE     ---       #511
      01000C6AH   LINE      CODE     ---       #512
      01000C6AH   LINE      CODE     ---       #513
      01000C70H   LINE      CODE     ---       #514
      01000C70H   LINE      CODE     ---       #515
      01000C73H   LINE      CODE     ---       #516
      01000C73H   LINE      CODE     ---       #536
      01000C73H   LINE      CODE     ---       #537
      01000C73H   LINE      CODE     ---       #538
      01000C73H   LINE      CODE     ---       #539
      01000C73H   LINE      CODE     ---       #542
      01000C77H   LINE      CODE     ---       #543
      01000C77H   LINE      CODE     ---       #544
      01000C82H   LINE      CODE     ---       #545
      01000C82H   LINE      CODE     ---       #546
      01000C82H   LINE      CODE     ---       #548
      01000C84H   LINE      CODE     ---       #549
      ---         BLOCKEND  ---      ---       LVL=0

      010013ECH   BLOCK     CODE     ---       LVL=0
      010013ECH   BLOCK     CODE     NEAR LAB  LVL=1
      0000003EH   SYMBOL    DATA     CHAR      retVal
      ---         BLOCKEND  ---      ---       LVL=1
      010013ECH   LINE      CODE     ---       #557
      010013ECH   LINE      CODE     ---       #558
      010013ECH   LINE      CODE     ---       #559
      010013EFH   LINE      CODE     ---       #561
      01001410H   LINE      CODE     ---       #565
      01001410H   LINE      CODE     ---       #568
      01001416H   LINE      CODE     ---       #569
      01001416H   LINE      CODE     ---       #570
      0100141AH   LINE      CODE     ---       #571
      0100141AH   LINE      CODE     ---       #572
      0100141FH   LINE      CODE     ---       #573
      0100141FH   LINE      CODE     ---       #574
      0100141FH   LINE      CODE     ---       #575
      01001421H   LINE      CODE     ---       #578
      01001427H   LINE      CODE     ---       #579
      01001427H   LINE      CODE     ---       #580
      0100142EH   LINE      CODE     ---       #581
      0100142EH   LINE      CODE     ---       #582
      01001433H   LINE      CODE     ---       #583
      01001433H   LINE      CODE     ---       #584
      01001436H   LINE      CODE     ---       #585
      01001436H   LINE      CODE     ---       #588
      0100143AH   LINE      CODE     ---       #589
      0100143AH   LINE      CODE     ---       #590
      01001448H   LINE      CODE     ---       #591
      01001448H   LINE      CODE     ---       #592
      01001448H   LINE      CODE     ---       #594
      0100144AH   LINE      CODE     ---       #595
      ---         BLOCKEND  ---      ---       LVL=0

      01000D24H   BLOCK     CODE     ---       LVL=0
LX51 LINKER/LOCATER V4.66.30.0                                                        01/24/2016  18:13:24  PAGE 78


      01000D24H   BLOCK     CODE     NEAR LAB  LVL=1
      0000003EH   SYMBOL    DATA     CHAR      retVal
      ---         BLOCKEND  ---      ---       LVL=1
      01000D24H   LINE      CODE     ---       #603
      01000D24H   LINE      CODE     ---       #604
      01000D24H   LINE      CODE     ---       #605
      01000D27H   LINE      CODE     ---       #607
      01000D4BH   LINE      CODE     ---       #611
      01000D4BH   LINE      CODE     ---       #614
      01000D52H   LINE      CODE     ---       #615
      01000D52H   LINE      CODE     ---       #616
      01000D65H   LINE      CODE     ---       #618
      01000D65H   LINE      CODE     ---       #619
      01000D6BH   LINE      CODE     ---       #620
      01000D7AH   LINE      CODE     ---       #621
      01000D7AH   LINE      CODE     ---       #622
      01000D7FH   LINE      CODE     ---       #623
      01000D84H   LINE      CODE     ---       #624
      01000D84H   LINE      CODE     ---       #625
      01000D84H   LINE      CODE     ---       #626
      01000D84H   LINE      CODE     ---       #627
      01000D86H   LINE      CODE     ---       #630
      01000D8DH   LINE      CODE     ---       #631
      01000D8DH   LINE      CODE     ---       #632
      01000DA1H   LINE      CODE     ---       #634
      01000DA1H   LINE      CODE     ---       #635
      01000DA7H   LINE      CODE     ---       #636
      01000DAEH   LINE      CODE     ---       #637
      01000DAEH   LINE      CODE     ---       #638
      01000DB3H   LINE      CODE     ---       #639
      01000DB6H   LINE      CODE     ---       #640
      01000DB8H   LINE      CODE     ---       #642
      01000DB8H   LINE      CODE     ---       #644
      01000DBDH   LINE      CODE     ---       #645
      01000DBDH   LINE      CODE     ---       #646
      01000DC0H   LINE      CODE     ---       #647
      01000DC0H   LINE      CODE     ---       #648
      01000DC0H   LINE      CODE     ---       #649
      01000DC0H   LINE      CODE     ---       #651
      01000DC2H   LINE      CODE     ---       #652
      ---         BLOCKEND  ---      ---       LVL=0

      0100111BH   BLOCK     CODE     ---       LVL=0
      0100111BH   BLOCK     CODE     NEAR LAB  LVL=1
      0000003EH   SYMBOL    DATA     CHAR      retVal
      ---         BLOCKEND  ---      ---       LVL=1
      0100111BH   LINE      CODE     ---       #660
      0100111BH   LINE      CODE     ---       #661
      0100111BH   LINE      CODE     ---       #662
      0100111EH   LINE      CODE     ---       #664
      01001125H   LINE      CODE     ---       #665
      01001125H   LINE      CODE     ---       #666
      0100112EH   LINE      CODE     ---       #667
      0100112EH   LINE      CODE     ---       #679
      0100112EH   LINE      CODE     ---       #682
      0100113CH   LINE      CODE     ---       #684
      0100113CH   LINE      CODE     ---       #685
      0100113FH   LINE      CODE     ---       #686
      01001141H   LINE      CODE     ---       #687
      01001158H   LINE      CODE     ---       #690
      01001158H   LINE      CODE     ---       #691
      0100115AH   LINE      CODE     ---       #692
LX51 LINKER/LOCATER V4.66.30.0                                                        01/24/2016  18:13:24  PAGE 79


      01001163H   LINE      CODE     ---       #696
      01001169H   LINE      CODE     ---       #697
      01001169H   LINE      CODE     ---       #698
      01001174H   LINE      CODE     ---       #699
      01001174H   LINE      CODE     ---       #702
      0100117AH   LINE      CODE     ---       #703
      0100117AH   LINE      CODE     ---       #704
      0100118AH   LINE      CODE     ---       #705
      0100118AH   LINE      CODE     ---       #709
      01001195H   LINE      CODE     ---       #710
      01001195H   LINE      CODE     ---       #712
      01001195H   LINE      CODE     ---       #713
      01001199H   LINE      CODE     ---       #714
      0100119BH   LINE      CODE     ---       #727
      0100119BH   LINE      CODE     ---       #728
      0100119FH   LINE      CODE     ---       #729
      0100119FH   LINE      CODE     ---       #741
      0100119FH   LINE      CODE     ---       #742
      0100119FH   LINE      CODE     ---       #743
      0100119FH   LINE      CODE     ---       #744
      0100119FH   LINE      CODE     ---       #746
      010011A1H   LINE      CODE     ---       #747
      ---         BLOCKEND  ---      ---       LVL=0

      01001711H   BLOCK     CODE     ---       LVL=0
      01001711H   BLOCK     CODE     NEAR LAB  LVL=1
      00000007H   SYMBOL    DATA     CHAR      retVal
      00000006H   SYMBOL    DATA     BYTE      interface
      00000005H   SYMBOL    DATA     BYTE      altSetting
      ---         BLOCKEND  ---      ---       LVL=1
      01001711H   LINE      CODE     ---       #755
      01001711H   LINE      CODE     ---       #756
      01001711H   LINE      CODE     ---       #757
      01001713H   LINE      CODE     ---       #758
      01001717H   LINE      CODE     ---       #759
      0100171BH   LINE      CODE     ---       #761
      0100173AH   LINE      CODE     ---       #768
      0100173AH   LINE      CODE     ---       #778
      0100173FH   LINE      CODE     ---       #780
      01001741H   LINE      CODE     ---       #782
      01001741H   LINE      CODE     ---       #784
      01001741H   LINE      CODE     ---       #785
      ---         BLOCKEND  ---      ---       LVL=0

      01001947H   BLOCK     CODE     ---       LVL=0
      00000021H.1 SYMBOL    BIT      BIT       forceIdle
      01001947H   LINE      CODE     ---       #796
      01001947H   LINE      CODE     ---       #797
      01001947H   LINE      CODE     ---       #798
      0100194AH   LINE      CODE     ---       #799
      0100194AH   LINE      CODE     ---       #801
      0100194EH   LINE      CODE     ---       #810
      01001952H   LINE      CODE     ---       #818
      01001952H   LINE      CODE     ---       #821
      0100195AH   LINE      CODE     ---       #842
      ---         BLOCKEND  ---      ---       LVL=0

      0100190DH   BLOCK     CODE     ---       LVL=0
      00000001H   SYMBOL    DATA     ---       dat
      00000004H   SYMBOL    DATA     WORD      numBytes
      0100190DH   LINE      CODE     ---       #871
      0100190DH   LINE      CODE     ---       #872
LX51 LINKER/LOCATER V4.66.30.0                                                        01/24/2016  18:13:24  PAGE 80


      0100190DH   LINE      CODE     ---       #873
      01001913H   LINE      CODE     ---       #874
      01001913H   LINE      CODE     ---       #875
      0100191DH   LINE      CODE     ---       #876
      01001923H   LINE      CODE     ---       #877
      01001926H   LINE      CODE     ---       #878
      01001929H   LINE      CODE     ---       #879
      01001929H   LINE      CODE     ---       #880
      ---         BLOCKEND  ---      ---       LVL=0

      ---         MODULE    ---      ---       EFM8_USBDEP
      00000021H.3 PUBLIC    BIT      BIT       ?_USB_WriteFIFO?BIT
      0100131AH   PUBLIC    CODE     ---       _USB_WriteFIFO
      0100158BH   PUBLIC    CODE     ---       _USB_ReadFIFO
      01000B20H   PUBLIC    CODE     ---       handleUsbOut1Int
      01000F80H   PUBLIC    CODE     ---       handleUsbIn1Int
      000000A2H   SFRSYM    DATA     BYTE      SPI0CKR
      00000080H   SFRSYM    DATA     BYTE      P0
      000000C8H.6 SFRSYM    DATA     BIT       SCON1_PERR
      000000D0H.2 SFRSYM    DATA     BIT       PSW_OV
      00000090H   SFRSYM    DATA     BYTE      P1
      000000F8H.1 SFRSYM    DATA     BIT       SPI0CN0_TXNF
      00000097H   SFRSYM    DATA     BYTE      WDTCN
      000000A0H   SFRSYM    DATA     BYTE      P2
      000000B0H   SFRSYM    DATA     BYTE      P3
      000000BCH   SFRSYM    DATA     BYTE      ADC0CF
      000000C0H.7 SFRSYM    DATA     BIT       SMB0CN0_MASTER
      000000F9H   SFRSYM    DATA     WORD      PCA0
      000000E6H   SFRSYM    DATA     BYTE      EIE1
      000000C0H.1 SFRSYM    DATA     BIT       SMB0CN0_ACK
      000000B3H   SFRSYM    DATA     BYTE      USB0XCN
      000000CEH   SFRSYM    DATA     BYTE      EIE2
      0000008FH   SFRSYM    DATA     BYTE      PSCTL
      000000E4H   SFRSYM    DATA     BYTE      IT01CF
      000000C0H.6 SFRSYM    DATA     BIT       SMB0CN0_TXMODE
      000000ADH   SFRSYM    DATA     BYTE      DERIVID
      000000A7H   SFRSYM    DATA     BYTE      SFRPAGE
      000000A4H   SFRSYM    DATA     BYTE      P0MDOUT
      000000BFH   SFRSYM    DATA     BYTE      USB0CDSTA
      000000A5H   SFRSYM    DATA     BYTE      P1MDOUT
      000000E8H.5 SFRSYM    DATA     BIT       ADC0CN0_ADINT
      000000CBH   SFRSYM    DATA     BYTE      TMR2RLH
      000000A6H   SFRSYM    DATA     BYTE      P2MDOUT
      000000A8H   SFRSYM    DATA     BYTE      IE
      00000093H   SFRSYM    DATA     BYTE      TMR3RLH
      0000009CH   SFRSYM    DATA     BYTE      P3MDOUT
      000000A3H   SFRSYM    DATA     BYTE      TMR4RLH
      000000F3H   SFRSYM    DATA     BYTE      EIP1
      000000F4H   SFRSYM    DATA     BYTE      EIP2
      00000098H.2 SFRSYM    DATA     BIT       SCON0_RB8
      000000CAH   SFRSYM    DATA     BYTE      TMR2RLL
      000000FCH   SFRSYM    DATA     BYTE      PCA0CPH0
      00000092H   SFRSYM    DATA     BYTE      TMR3RLL
      000000EAH   SFRSYM    DATA     BYTE      PCA0CPH1
      00000098H.3 SFRSYM    DATA     BIT       SCON0_TB8
      000000F0H   SFRSYM    DATA     BIT       B_B0
      00000082H   SFRSYM    DATA     WORD      DP
      000000A2H   SFRSYM    DATA     BYTE      TMR4RLL
      000000ECH   SFRSYM    DATA     BYTE      PCA0CPH2
      000000F0H.1 SFRSYM    DATA     BIT       B_B1
      000000C3H   SFRSYM    DATA     WORD      ADC0GT
      000000BDH   SFRSYM    DATA     BYTE      I2C0SLAD
LX51 LINKER/LOCATER V4.66.30.0                                                        01/24/2016  18:13:24  PAGE 81


      000000D8H.3 SFRSYM    DATA     BIT       UART1FCN1_RFRQ
      000000F0H.2 SFRSYM    DATA     BIT       B_B2
      000000CFH   SFRSYM    DATA     BYTE      SFRPGCN
      000000FBH   SFRSYM    DATA     BYTE      PCA0CPL0
      000000F0H.3 SFRSYM    DATA     BIT       B_B3
      000000D9H   SFRSYM    DATA     BYTE      PCA0MD
      000000DAH   SFRSYM    DATA     BYTE      PCA0CPM0
      000000E9H   SFRSYM    DATA     BYTE      PCA0CPL1
      000000D8H.7 SFRSYM    DATA     BIT       UART1FCN1_TFRQ
      000000F0H.4 SFRSYM    DATA     BIT       B_B4
      000000DBH   SFRSYM    DATA     BYTE      PCA0CPM1
      000000EBH   SFRSYM    DATA     BYTE      PCA0CPL2
      000000F0H.5 SFRSYM    DATA     BIT       B_B5
      000000DCH   SFRSYM    DATA     BYTE      PCA0CPM2
      000000B8H   SFRSYM    DATA     BYTE      IP
      000000B9H   SFRSYM    DATA     BYTE      ADC0TK
      000000F0H.6 SFRSYM    DATA     BIT       B_B6
      000000C5H   SFRSYM    DATA     WORD      ADC0LT
      000000D8H.6 SFRSYM    DATA     BIT       UART1FCN1_TXNF
      00000098H.5 SFRSYM    DATA     BIT       SCON0_MCE
      000000F0H.7 SFRSYM    DATA     BIT       B_B7
      000000C3H   SFRSYM    DATA     BYTE      SMB0FCN0
      000000E1H   SFRSYM    DATA     BYTE      XBR0
      000000C4H   SFRSYM    DATA     BYTE      SMB0FCN1
      000000C1H   SFRSYM    DATA     BYTE      SMB0CF
      000000E2H   SFRSYM    DATA     BYTE      XBR1
      000000C1H   SFRSYM    DATA     BYTE      PFE0CN
      000000E7H   SFRSYM    DATA     BYTE      EMI0CN
      000000C0H.5 SFRSYM    DATA     BIT       SMB0CN0_STA
      000000E3H   SFRSYM    DATA     BYTE      XBR2
      000000BBH   SFRSYM    DATA     BYTE      ADC0MX
      000000E0H   SFRSYM    DATA     BIT       ACC_ACC0
      000000D1H   SFRSYM    DATA     BYTE      REF0CN
      0000008EH   SFRSYM    DATA     BYTE      CKCON0
      000000E0H.1 SFRSYM    DATA     BIT       ACC_ACC1
      000000C9H   SFRSYM    DATA     BYTE      REG0CN
      000000DDH   SFRSYM    DATA     BYTE      CRC0IN
      000000A6H   SFRSYM    DATA     BYTE      CKCON1
      000000C8H.2 SFRSYM    DATA     BIT       TMR2CN0_TR2
      000000E0H.2 SFRSYM    DATA     BIT       ACC_ACC2
      000000C6H   SFRSYM    DATA     BYTE      REG1CN
      000000E0H.3 SFRSYM    DATA     BIT       ACC_ACC3
      00000081H   SFRSYM    DATA     BYTE      SP
      0000009DH   SFRSYM    DATA     BYTE      CMP0MD
      000000E0H.4 SFRSYM    DATA     BIT       ACC_ACC4
      000000B1H   SFRSYM    DATA     BYTE      LFO0CN
      000000ABH   SFRSYM    DATA     BYTE      CMP1MD
      000000D8H   SFRSYM    DATA     BIT       PCA0CN0_CCF0
      000000E0H.5 SFRSYM    DATA     BIT       ACC_ACC5
      000000B5H   SFRSYM    DATA     BYTE      USB0CF
      00000098H.2 SFRSYM    DATA     BIT       TMR4CN0_TR4
      000000D8H.1 SFRSYM    DATA     BIT       PCA0CN0_CCF1
      000000E0H.6 SFRSYM    DATA     BIT       ACC_ACC6
      000000CCH   SFRSYM    DATA     WORD      TMR2
      0000009AH   SFRSYM    DATA     BYTE      SPI0FCN0
      000000D8H.2 SFRSYM    DATA     BIT       PCA0CN0_CCF2
      000000E0H.7 SFRSYM    DATA     BIT       ACC_ACC7
      00000094H   SFRSYM    DATA     WORD      TMR3
      0000009BH   SFRSYM    DATA     BYTE      SPI0FCN1
      000000A4H   SFRSYM    DATA     WORD      TMR4
      00000094H   SFRSYM    DATA     BYTE      SBCON1
      000000C0H.3 SFRSYM    DATA     BIT       SMB0CN0_ACKRQ
LX51 LINKER/LOCATER V4.66.30.0                                                        01/24/2016  18:13:24  PAGE 82


      000000FFH   SFRSYM    DATA     BYTE      VDM0CN
      000000F1H   SFRSYM    DATA     BYTE      P0MDIN
      00000098H.4 SFRSYM    DATA     BIT       SCON0_REN
      000000ACH   SFRSYM    DATA     BYTE      SMB0TC
      000000F2H   SFRSYM    DATA     BYTE      P1MDIN
      000000C8H.4 SFRSYM    DATA     BIT       SCON1_REN
      000000F3H   SFRSYM    DATA     BYTE      P2MDIN
      000000C0H.4 SFRSYM    DATA     BIT       SMB0CN0_STO
      000000B6H   SFRSYM    DATA     BYTE      USB0CDCF
      000000F4H   SFRSYM    DATA     BYTE      P3MDIN
      000000B9H   SFRSYM    DATA     BYTE      I2C0STAT
      000000BBH   SFRSYM    DATA     BYTE      I2C0DOUT
      00000096H   SFRSYM    DATA     BYTE      SBRLH1
      000000FEH   SFRSYM    DATA     BYTE      P0MASK
      000000D8H.5 SFRSYM    DATA     BIT       UART1FCN1_TXHOLD
      000000EEH   SFRSYM    DATA     BYTE      P1MASK
      000000FCH   SFRSYM    DATA     BYTE      P2MASK
      000000D0H.3 SFRSYM    DATA     BIT       PSW_RS0
      000000D8H.7 SFRSYM    DATA     BIT       PCA0CN0_CF
      0000009EH   SFRSYM    DATA     BYTE      PCA0CENT
      000000BAH   SFRSYM    DATA     BYTE      I2C0CN0
      000000D2H   SFRSYM    DATA     BYTE      CRC0ST
      000000F8H.4 SFRSYM    DATA     BIT       SPI0CN0_RXOVRN
      000000D0H.4 SFRSYM    DATA     BIT       PSW_RS1
      00000095H   SFRSYM    DATA     BYTE      SBRLL1
      000000C8H.2 SFRSYM    DATA     BIT       SCON1_RBX
      000000C8H   SFRSYM    DATA     BIT       TMR2CN0_T2XCLK0
      000000C8H.1 SFRSYM    DATA     BIT       TMR2CN0_T2XCLK1
      000000C8H.3 SFRSYM    DATA     BIT       SCON1_TBX
      000000E8H.7 SFRSYM    DATA     BIT       ADC0CN0_ADEN
      000000BEH   SFRSYM    DATA     BYTE      USB0CDCN
      00000089H   SFRSYM    DATA     BYTE      TMOD
      00000088H   SFRSYM    DATA     BYTE      TCON
      000000CFH   SFRSYM    DATA     BYTE      CRC0FLIP
      000000D0H   SFRSYM    DATA     BIT       PSW_PARITY
      000000A8H.4 SFRSYM    DATA     BIT       IE_ES0
      0000009FH   SFRSYM    DATA     BYTE      CMP0MX
      00000098H   SFRSYM    DATA     BIT       TMR4CN0_T4XCLK0
      000000A8H.1 SFRSYM    DATA     BIT       IE_ET0
      000000AAH   SFRSYM    DATA     BYTE      CMP1MX
      00000098H.1 SFRSYM    DATA     BIT       TMR4CN0_T4XCLK1
      000000A8H.3 SFRSYM    DATA     BIT       IE_ET1
      000000D4H   SFRSYM    DATA     BYTE      P0SKIP
      000000D8H   SFRSYM    DATA     BIT       UART1FCN1_RIE
      000000A8H.5 SFRSYM    DATA     BIT       IE_ET2
      000000D5H   SFRSYM    DATA     BYTE      P1SKIP
      000000CCH   SFRSYM    DATA     BYTE      P2SKIP
      000000E8H   SFRSYM    DATA     BYTE      ADC0CN0
      000000D8H.4 SFRSYM    DATA     BIT       UART1FCN1_TIE
      000000A8H   SFRSYM    DATA     BIT       IE_EX0
      000000B2H   SFRSYM    DATA     BYTE      ADC0CN1
      000000D8H.6 SFRSYM    DATA     BIT       PCA0CN0_CR
      000000A8H.2 SFRSYM    DATA     BIT       IE_EX1
      000000C8H.7 SFRSYM    DATA     BIT       SCON1_OVR
      00000098H.7 SFRSYM    DATA     BIT       SCON0_SMODE
      000000B5H   SFRSYM    DATA     BYTE      DEVICEID
      000000A9H   SFRSYM    DATA     BYTE      CLKSEL
      000000F8H   SFRSYM    DATA     BIT       SPI0CN0_SPIEN
      000000F0H   SFRSYM    DATA     BYTE      B
      000000BEH   SFRSYM    DATA     BYTE      ADC0H
      000000E8H.6 SFRSYM    DATA     BIT       ADC0CN0_ADBMEN
      000000CAH   SFRSYM    DATA     WORD      TMR2RL
LX51 LINKER/LOCATER V4.66.30.0                                                        01/24/2016  18:13:24  PAGE 83


      000000BDH   SFRSYM    DATA     BYTE      ADC0L
      00000092H   SFRSYM    DATA     WORD      TMR3RL
      000000A2H   SFRSYM    DATA     WORD      TMR4RL
      000000D8H   SFRSYM    DATA     BYTE      PCA0CN0
      000000E0H   SFRSYM    DATA     BYTE      ACC
      000000FBH   SFRSYM    DATA     WORD      PCA0CP0
      000000E9H   SFRSYM    DATA     WORD      PCA0CP1
      000000EBH   SFRSYM    DATA     WORD      PCA0CP2
      000000BCH   SFRSYM    DATA     BYTE      I2C0DIN
      000000CEH   SFRSYM    DATA     BYTE      CRC0CN0
      0000008CH   SFRSYM    DATA     BYTE      TH0
      00000086H   SFRSYM    DATA     BYTE      CRC0CN1
      000000B8H.4 SFRSYM    DATA     BIT       IP_PS0
      000000FAH   SFRSYM    DATA     BYTE      UART1FCT
      0000008DH   SFRSYM    DATA     BYTE      TH1
      000000FAH   SFRSYM    DATA     BYTE      PCA0H
      000000F5H   SFRSYM    DATA     BYTE      I2C0FCT
      000000B8H.1 SFRSYM    DATA     BIT       IP_PT0
      000000B8H.3 SFRSYM    DATA     BIT       IP_PT1
      000000C0H.2 SFRSYM    DATA     BIT       SMB0CN0_ARBLOST
      000000B8H.5 SFRSYM    DATA     BIT       IP_PT2
      0000008AH   SFRSYM    DATA     BYTE      TL0
      000000D0H.5 SFRSYM    DATA     BIT       PSW_F0
      000000A8H.6 SFRSYM    DATA     BIT       IE_ESPI0
      0000008BH   SFRSYM    DATA     BYTE      TL1
      000000F9H   SFRSYM    DATA     BYTE      PCA0L
      000000C0H   SFRSYM    DATA     BIT       SMB0CN0_SI
      000000D0H.1 SFRSYM    DATA     BIT       PSW_F1
      00000080H   SFRSYM    DATA     BIT       P0_B0
      000000B8H   SFRSYM    DATA     BIT       IP_PX0
      00000090H   SFRSYM    DATA     BIT       P1_B0
      00000080H.1 SFRSYM    DATA     BIT       P0_B1
      000000B8H.2 SFRSYM    DATA     BIT       IP_PX1
      0000009EH   SFRSYM    DATA     BYTE      UART1LIN
      0000009BH   SFRSYM    DATA     BYTE      CMP0CN0
      00000088H.1 SFRSYM    DATA     BIT       TCON_IE0
      000000A0H   SFRSYM    DATA     BIT       P2_B0
      00000090H.1 SFRSYM    DATA     BIT       P1_B1
      00000080H.2 SFRSYM    DATA     BIT       P0_B2
      000000BFH   SFRSYM    DATA     BYTE      CMP1CN0
      00000099H   SFRSYM    DATA     BYTE      CMP0CN1
      00000088H.3 SFRSYM    DATA     BIT       TCON_IE1
      000000B0H   SFRSYM    DATA     BIT       P3_B0
      000000A0H.1 SFRSYM    DATA     BIT       P2_B1
      00000090H.2 SFRSYM    DATA     BIT       P1_B2
      00000080H.3 SFRSYM    DATA     BIT       P0_B3
      000000C0H   SFRSYM    DATA     BYTE      SMB0CN0
      000000ACH   SFRSYM    DATA     BYTE      CMP1CN1
      000000B0H.1 SFRSYM    DATA     BIT       P3_B1
      000000A0H.2 SFRSYM    DATA     BIT       P2_B2
      00000090H.3 SFRSYM    DATA     BIT       P1_B3
      00000080H.4 SFRSYM    DATA     BIT       P0_B4
      000000A0H.3 SFRSYM    DATA     BIT       P2_B3
      00000090H.4 SFRSYM    DATA     BIT       P1_B4
      00000080H.5 SFRSYM    DATA     BIT       P0_B5
      000000D8H.1 SFRSYM    DATA     BIT       UART1FCN1_RXTO0
      00000090H.5 SFRSYM    DATA     BIT       P1_B5
      00000080H.6 SFRSYM    DATA     BIT       P0_B6
      000000F5H   SFRSYM    DATA     BYTE      EIP1H
      000000D8H.2 SFRSYM    DATA     BIT       UART1FCN1_RXTO1
      00000090H.6 SFRSYM    DATA     BIT       P1_B6
      00000080H.7 SFRSYM    DATA     BIT       P0_B7
LX51 LINKER/LOCATER V4.66.30.0                                                        01/24/2016  18:13:24  PAGE 84


      000000C5H   SFRSYM    DATA     BYTE      SMB0RXLN
      000000F6H   SFRSYM    DATA     BYTE      EIP2H
      00000090H.7 SFRSYM    DATA     BIT       P1_B7
      00000083H   SFRSYM    DATA     BYTE      DPH
      000000C4H   SFRSYM    DATA     BYTE      ADC0GTH
      000000C8H.7 SFRSYM    DATA     BIT       TMR2CN0_TF2H
      000000C8H.3 SFRSYM    DATA     BIT       TMR2CN0_T2SPLIT
      000000D0H.6 SFRSYM    DATA     BIT       PSW_AC
      000000F8H   SFRSYM    DATA     BYTE      SPI0CN0
      000000C7H   SFRSYM    DATA     BYTE      HFO0CAL
      00000088H.5 SFRSYM    DATA     BIT       TCON_TF0
      00000098H   SFRSYM    DATA     BIT       SCON0_RI
      000000D6H   SFRSYM    DATA     BYTE      HFO1CAL
      00000082H   SFRSYM    DATA     BYTE      DPL
      00000088H.7 SFRSYM    DATA     BIT       TCON_TF1
      000000C8H   SFRSYM    DATA     BIT       SCON1_RI
      00000099H   SFRSYM    DATA     BYTE      SBUF0
      00000087H   SFRSYM    DATA     BYTE      PCON0
      000000F2H   SFRSYM    DATA     BYTE      IPH
      000000C3H   SFRSYM    DATA     BYTE      ADC0GTL
      00000098H.7 SFRSYM    DATA     BIT       TMR4CN0_TF4H
      00000098H.3 SFRSYM    DATA     BIT       TMR4CN0_T4SPLIT
      000000C8H.6 SFRSYM    DATA     BIT       TMR2CN0_TF2L
      00000098H.1 SFRSYM    DATA     BIT       SCON0_TI
      000000E8H   SFRSYM    DATA     BIT       ADC0CN0_ADCM0
      00000092H   SFRSYM    DATA     BYTE      SBUF1
      0000009AH   SFRSYM    DATA     BYTE      PCON1
      000000C6H   SFRSYM    DATA     BYTE      ADC0LTH
      00000088H   SFRSYM    DATA     BIT       TCON_IT0
      000000C8H.1 SFRSYM    DATA     BIT       SCON1_TI
      000000E8H.1 SFRSYM    DATA     BIT       ADC0CN0_ADCM1
      000000EFH   SFRSYM    DATA     BYTE      RSTSRC
      000000FDH   SFRSYM    DATA     BYTE      P0MAT
      000000DEH   SFRSYM    DATA     BYTE      CRC0DAT
      00000088H.2 SFRSYM    DATA     BIT       TCON_IT1
      000000E8H.2 SFRSYM    DATA     BIT       ADC0CN0_ADCM2
      000000D7H   SFRSYM    DATA     BYTE      SFRSTACK
      00000098H   SFRSYM    DATA     BYTE      SCON0
      000000F6H   SFRSYM    DATA     BYTE      PRTDRV
      000000EDH   SFRSYM    DATA     BYTE      P1MAT
      000000E8H.3 SFRSYM    DATA     BIT       ADC0CN0_ADWINT
      00000095H   SFRSYM    DATA     WORD      SBRL1
      000000B2H   SFRSYM    DATA     BYTE      USB0AEC
      00000093H   SFRSYM    DATA     BYTE      SMOD1
      000000C8H   SFRSYM    DATA     BYTE      SCON1
      000000FBH   SFRSYM    DATA     BYTE      P2MAT
      00000098H.6 SFRSYM    DATA     BIT       TMR4CN0_TF4L
      000000E8H.4 SFRSYM    DATA     BIT       ADC0CN0_ADBUSY
      000000D6H   SFRSYM    DATA     BYTE      SMB0ADM
      000000C5H   SFRSYM    DATA     BYTE      ADC0LTL
      000000F8H.5 SFRSYM    DATA     BIT       SPI0CN0_MODF
      000000B8H.6 SFRSYM    DATA     BIT       IP_PSPI0
      0000009CH   SFRSYM    DATA     BYTE      PCA0CLR
      000000C8H   SFRSYM    DATA     BYTE      TMR2CN0
      00000091H   SFRSYM    DATA     BYTE      TMR3CN0
      000000FDH   SFRSYM    DATA     BYTE      TMR2CN1
      00000098H   SFRSYM    DATA     BYTE      TMR4CN0
      000000FEH   SFRSYM    DATA     BYTE      TMR3CN1
      000000FFH   SFRSYM    DATA     BYTE      TMR4CN1
      000000D7H   SFRSYM    DATA     BYTE      SMB0ADR
      00000088H.4 SFRSYM    DATA     BIT       TCON_TR0
      000000C8H.4 SFRSYM    DATA     BIT       TMR2CN0_TF2CEN
LX51 LINKER/LOCATER V4.66.30.0                                                        01/24/2016  18:13:24  PAGE 85


      00000088H.6 SFRSYM    DATA     BIT       TCON_TR1
      000000C2H   SFRSYM    DATA     BYTE      SMB0DAT
      000000CDH   SFRSYM    DATA     BYTE      TMR2H
      000000A1H   SFRSYM    DATA     BYTE      SPI0CFG
      00000095H   SFRSYM    DATA     BYTE      TMR3H
      000000EFH   SFRSYM    DATA     BYTE      HFOCN
      000000D3H   SFRSYM    DATA     BYTE      CRC0CNT
      000000A5H   SFRSYM    DATA     BYTE      TMR4H
      00000098H.4 SFRSYM    DATA     BIT       TMR4CN0_TF4CEN
      000000EFH   SFRSYM    DATA     BYTE      SMB0FCT
      00000096H   SFRSYM    DATA     BYTE      PCA0POL
      000000CCH   SFRSYM    DATA     BYTE      TMR2L
      000000F8H.7 SFRSYM    DATA     BIT       SPI0CN0_SPIF
      000000AEH   SFRSYM    DATA     BYTE      USB0ADR
      00000094H   SFRSYM    DATA     BYTE      TMR3L
      000000DFH   SFRSYM    DATA     BYTE      ADC0PWR
      000000A8H.7 SFRSYM    DATA     BIT       IE_EA
      000000A4H   SFRSYM    DATA     BYTE      TMR4L
      000000AFH   SFRSYM    DATA     BYTE      USB0DAT
      000000C8H.5 SFRSYM    DATA     BIT       TMR2CN0_TF2LEN
      000000F8H.6 SFRSYM    DATA     BIT       SPI0CN0_WCOL
      000000F8H.2 SFRSYM    DATA     BIT       SPI0CN0_NSSMD0
      000000D0H.7 SFRSYM    DATA     BIT       PSW_CY
      0000009DH   SFRSYM    DATA     BYTE      UART1FCN0
      000000A3H   SFRSYM    DATA     BYTE      SPI0DAT
      000000ADH   SFRSYM    DATA     BYTE      I2C0FCN0
      000000F8H.3 SFRSYM    DATA     BIT       SPI0CN0_NSSMD1
      000000BDH   SFRSYM    DATA     WORD      ADC0
      000000D8H   SFRSYM    DATA     BYTE      UART1FCN1
      000000ABH   SFRSYM    DATA     BYTE      I2C0FCN1
      00000098H.5 SFRSYM    DATA     BIT       TMR4CN0_TF4LEN
      000000D0H   SFRSYM    DATA     BYTE      PSW
      000000F7H   SFRSYM    DATA     BYTE      PCA0PWM
      000000F7H   SFRSYM    DATA     BYTE      SPI0FCT
      000000B6H   SFRSYM    DATA     BYTE      REVID
      000000B7H   SFRSYM    DATA     BYTE      FLKEY
      000000B3H   SFRSYM    DATA     BYTE      ADC0AC
      0100192AH   SYMBOL    CODE     ---       _USB_ReadFIFO_Idata
      010018D1H   SYMBOL    CODE     ---       _USB_ReadFIFO_Pdata
      010018B0H   SYMBOL    CODE     ---       _USB_ReadFIFO_Xdata
      010019E8H   SYMBOL    CODE     ---       _USB_WriteFIFO_Idata
      010019FCH   SYMBOL    CODE     ---       _USB_WriteFIFO_Pdata
      01001993H   SYMBOL    CODE     ---       _USB_WriteFIFO_Xdata
      0100197CH   SYMBOL    CODE     ---       _USB_WriteFIFO_Code

      01001868H   BLOCK     CODE     ---       LVL=0
      ---         BLOCKEND  ---      ---       LVL=0

      01000F80H   BLOCK     CODE     ---       LVL=0
      01000F80H   BLOCK     CODE     NEAR LAB  LVL=1
      0000003DH   SYMBOL    DATA     BYTE      xferred
      00000021H.1 SYMBOL    BIT      BIT       callback
      ---         BLOCKEND  ---      ---       LVL=1
      01000F80H   LINE      CODE     ---       #121
      01000F80H   LINE      CODE     ---       #122
      01000F80H   LINE      CODE     ---       #126
      01000F85H   LINE      CODE     ---       #128
      01000F8AH   LINE      CODE     ---       #129
      01000F8AH   LINE      CODE     ---       #130
      01000F97H   LINE      CODE     ---       #132
      01000F9EH   LINE      CODE     ---       #133
      01000F9EH   LINE      CODE     ---       #134
LX51 LINKER/LOCATER V4.66.30.0                                                        01/24/2016  18:13:24  PAGE 86


      01000FB3H   LINE      CODE     ---       #136
      01000FB5H   LINE      CODE     ---       #137
      01000FB8H   LINE      CODE     ---       #139
      01000FBEH   LINE      CODE     ---       #142
      01000FCDH   LINE      CODE     ---       #143
      01000FCDH   LINE      CODE     ---       #144
      01000FEFH   LINE      CODE     ---       #150
      01000FF1H   LINE      CODE     ---       #152
      01000FF1H   LINE      CODE     ---       #153
      01000FF7H   LINE      CODE     ---       #154
      01000FFAH   LINE      CODE     ---       #155
      01000FFAH   LINE      CODE     ---       #157
      01000FFDH   LINE      CODE     ---       #158
      01000FFDH   LINE      CODE     ---       #159
      0100100BH   LINE      CODE     ---       #160
      0100100BH   LINE      CODE     ---       #162
      0100100BH   LINE      CODE     ---       #163
      ---         BLOCKEND  ---      ---       LVL=0

      01000B20H   BLOCK     CODE     ---       LVL=0
      01000B20H   BLOCK     CODE     NEAR LAB  LVL=1
      0000003DH   SYMBOL    DATA     BYTE      count
      0000003EH   SYMBOL    DATA     CHAR      status
      00000021H.1 SYMBOL    BIT      BIT       xferComplete
      ---         BLOCKEND  ---      ---       LVL=1
      01000B20H   LINE      CODE     ---       #317
      01000B20H   LINE      CODE     ---       #318
      01000B20H   LINE      CODE     ---       #322
      01000B22H   LINE      CODE     ---       #324
      01000B27H   LINE      CODE     ---       #326
      01000B2CH   LINE      CODE     ---       #327
      01000B2CH   LINE      CODE     ---       #328
      01000B41H   LINE      CODE     ---       #330
      01000B49H   LINE      CODE     ---       #331
      01000B49H   LINE      CODE     ---       #332
      01000B4EH   LINE      CODE     ---       #335
      01000B55H   LINE      CODE     ---       #336
      01000B55H   LINE      CODE     ---       #337
      01000B5AH   LINE      CODE     ---       #338
      01000B5DH   LINE      CODE     ---       #339
      01000B5FH   LINE      CODE     ---       #341
      01000B6BH   LINE      CODE     ---       #342
      01000B6BH   LINE      CODE     ---       #343
      01000B6FH   LINE      CODE     ---       #344
      01000B74H   LINE      CODE     ---       #345
      01000B77H   LINE      CODE     ---       #346
      01000B79H   LINE      CODE     ---       #348
      01000B79H   LINE      CODE     ---       #349
      01000B8AH   LINE      CODE     ---       #351
      01000B90H   LINE      CODE     ---       #352
      01000B94H   LINE      CODE     ---       #353
      01000B97H   LINE      CODE     ---       #355
      01000BA4H   LINE      CODE     ---       #356
      01000BA4H   LINE      CODE     ---       #357
      01000BA8H   LINE      CODE     ---       #358
      01000BAAH   LINE      CODE     ---       #359
      01000BAAH   LINE      CODE     ---       #360
      01000BADH   LINE      CODE     ---       #361
      01000BBDH   LINE      CODE     ---       #362
      01000BBDH   LINE      CODE     ---       #363
      01000BC3H   LINE      CODE     ---       #364
      01000BC3H   LINE      CODE     ---       #365
LX51 LINKER/LOCATER V4.66.30.0                                                        01/24/2016  18:13:24  PAGE 87


      01000BC6H   LINE      CODE     ---       #366
      01000BC6H   LINE      CODE     ---       #367
      01000BC9H   LINE      CODE     ---       #368
      01000BC9H   LINE      CODE     ---       #369
      01000BD7H   LINE      CODE     ---       #370
      01000BD7H   LINE      CODE     ---       #371
      01000BD7H   LINE      CODE     ---       #372
      ---         BLOCKEND  ---      ---       LVL=0

      0100158BH   BLOCK     CODE     ---       LVL=0
      0000003FH   SYMBOL    DATA     BYTE      fifoNum
      00000040H   SYMBOL    DATA     BYTE      numBytes
      00000041H   SYMBOL    DATA     ---       dat
      0100158BH   LINE      CODE     ---       #556
      01001595H   LINE      CODE     ---       #557
      01001595H   LINE      CODE     ---       #558
      0100159CH   LINE      CODE     ---       #559
      0100159CH   LINE      CODE     ---       #560
      010015A7H   LINE      CODE     ---       #567
      010015B4H   LINE      CODE     ---       #568
      010015B4H   LINE      CODE     ---       #569
      010015B4H   LINE      CODE     ---       #570
      010015BAH   LINE      CODE     ---       #571
      010015BAH   LINE      CODE     ---       #582
      010015BAH   LINE      CODE     ---       #583
      010015C2H   LINE      CODE     ---       #584
      010015C2H   LINE      CODE     ---       #590
      010015C2H   LINE      CODE     ---       #591
      010015C8H   LINE      CODE     ---       #592
      010015C8H   LINE      CODE     ---       #595
      010015C8H   LINE      CODE     ---       #596
      010015C8H   LINE      CODE     ---       #597
      010015C8H   LINE      CODE     ---       #604
      010015C8H   LINE      CODE     ---       #605
      ---         BLOCKEND  ---      ---       LVL=0

      0100131AH   BLOCK     CODE     ---       LVL=0
      00000049H   SYMBOL    DATA     BYTE      fifoNum
      0000004AH   SYMBOL    DATA     BYTE      numBytes
      0000004BH   SYMBOL    DATA     ---       dat
      00000021H.3 SYMBOL    BIT      BIT       txPacket
      0100131AH   LINE      CODE     ---       #621
      01001324H   LINE      CODE     ---       #622
      01001324H   LINE      CODE     ---       #623
      0100132FH   LINE      CODE     ---       #630
      0100133EH   LINE      CODE     ---       #631
      0100133EH   LINE      CODE     ---       #632
      0100133EH   LINE      CODE     ---       #633
      01001345H   LINE      CODE     ---       #634
      01001347H   LINE      CODE     ---       #645
      01001347H   LINE      CODE     ---       #646
      01001350H   LINE      CODE     ---       #647
      01001352H   LINE      CODE     ---       #653
      01001352H   LINE      CODE     ---       #654
      01001359H   LINE      CODE     ---       #655
      0100135BH   LINE      CODE     ---       #658
      0100135BH   LINE      CODE     ---       #659
      01001364H   LINE      CODE     ---       #660
      01001364H   LINE      CODE     ---       #662
      01001364H   LINE      CODE     ---       #663
      01001364H   LINE      CODE     ---       #664
      01001364H   LINE      CODE     ---       #672
LX51 LINKER/LOCATER V4.66.30.0                                                        01/24/2016  18:13:24  PAGE 88


      0100136EH   LINE      CODE     ---       #673
      0100136EH   LINE      CODE     ---       #674
      01001373H   LINE      CODE     ---       #675
      01001383H   LINE      CODE     ---       #676
      01001383H   LINE      CODE     ---       #677
      ---         BLOCKEND  ---      ---       LVL=0

      0100192AH   BLOCK     CODE     ---       LVL=0
      00000007H   SYMBOL    DATA     BYTE      numBytes
      00000000H   SYMBOL    DATA     ---       dat
      00000003H   SYMBOL    DATA     BYTE      fifoNum
      0100192AH   LINE      CODE     ---       #696
      0100192CH   LINE      CODE     ---       #697
      0100192CH   LINE      CODE     ---       #698
      01001930H   LINE      CODE     ---       #699
      01001930H   LINE      CODE     ---       #700
      01001937H   LINE      CODE     ---       #701
      01001938H   LINE      CODE     ---       #702
      0100193AH   LINE      CODE     ---       #703
      01001946H   LINE      CODE     ---       #704
      ---         BLOCKEND  ---      ---       LVL=0

      010019E8H   BLOCK     CODE     ---       LVL=0
      00000007H   SYMBOL    DATA     BYTE      numBytes
      00000000H   SYMBOL    DATA     ---       dat
      010019E8H   LINE      CODE     ---       #715
      010019EAH   LINE      CODE     ---       #716
      010019EAH   LINE      CODE     ---       #717
      010019F0H   LINE      CODE     ---       #718
      010019F0H   LINE      CODE     ---       #719
      010019F8H   LINE      CODE     ---       #720
      010019F9H   LINE      CODE     ---       #721
      010019FBH   LINE      CODE     ---       #722
      ---         BLOCKEND  ---      ---       LVL=0

      010018B0H   BLOCK     CODE     ---       LVL=0
      00000007H   SYMBOL    DATA     BYTE      numBytes
      00000082H   SYMBOL    DATA     ---       dat
      00000003H   SYMBOL    DATA     BYTE      fifoNum
      010018B0H   LINE      CODE     ---       #733
      010018B4H   LINE      CODE     ---       #734
      010018B4H   LINE      CODE     ---       #735
      010018B8H   LINE      CODE     ---       #736
      010018B8H   LINE      CODE     ---       #737
      010018C0H   LINE      CODE     ---       #738
      010018C1H   LINE      CODE     ---       #739
      010018C3H   LINE      CODE     ---       #740
      010018D0H   LINE      CODE     ---       #741
      ---         BLOCKEND  ---      ---       LVL=0

      01001993H   BLOCK     CODE     ---       LVL=0
      00000007H   SYMBOL    DATA     BYTE      numBytes
      00000082H   SYMBOL    DATA     ---       dat
      01001993H   LINE      CODE     ---       #752
      01001997H   LINE      CODE     ---       #753
      01001997H   LINE      CODE     ---       #754
      0100199DH   LINE      CODE     ---       #755
      0100199DH   LINE      CODE     ---       #756
      010019A5H   LINE      CODE     ---       #757
      010019A6H   LINE      CODE     ---       #758
      010019A8H   LINE      CODE     ---       #759
      ---         BLOCKEND  ---      ---       LVL=0
LX51 LINKER/LOCATER V4.66.30.0                                                        01/24/2016  18:13:24  PAGE 89



      010018D1H   BLOCK     CODE     ---       LVL=0
      00000007H   SYMBOL    DATA     BYTE      numBytes
      00000000H   SYMBOL    DATA     ---       dat
      00000003H   SYMBOL    DATA     BYTE      fifoNum
      010018D1H   LINE      CODE     ---       #771
      010018D3H   LINE      CODE     ---       #772
      010018D3H   LINE      CODE     ---       #773
      010018D7H   LINE      CODE     ---       #774
      010018D7H   LINE      CODE     ---       #775
      010018DFH   LINE      CODE     ---       #776
      010018E0H   LINE      CODE     ---       #777
      010018E2H   LINE      CODE     ---       #778
      010018EFH   LINE      CODE     ---       #779
      ---         BLOCKEND  ---      ---       LVL=0

      010019FCH   BLOCK     CODE     ---       LVL=0
      00000007H   SYMBOL    DATA     BYTE      numBytes
      00000000H   SYMBOL    DATA     ---       dat
      010019FCH   LINE      CODE     ---       #790
      010019FEH   LINE      CODE     ---       #791
      010019FEH   LINE      CODE     ---       #792
      01001A04H   LINE      CODE     ---       #793
      01001A04H   LINE      CODE     ---       #794
      01001A0CH   LINE      CODE     ---       #795
      01001A0DH   LINE      CODE     ---       #796
      01001A0FH   LINE      CODE     ---       #797
      ---         BLOCKEND  ---      ---       LVL=0

      0100197CH   BLOCK     CODE     ---       LVL=0
      00000007H   SYMBOL    DATA     BYTE      numBytes
      00000082H   SYMBOL    DATA     ---       dat
      0100197CH   LINE      CODE     ---       #849
      01001980H   LINE      CODE     ---       #850
      01001980H   LINE      CODE     ---       #851
      01001986H   LINE      CODE     ---       #852
      01001986H   LINE      CODE     ---       #853
      0100198FH   LINE      CODE     ---       #854
      01001990H   LINE      CODE     ---       #855
      01001992H   LINE      CODE     ---       #856
      ---         BLOCKEND  ---      ---       LVL=0

      ---         MODULE    ---      ---       EFM8_USBDINT
      01001B9BH   PUBLIC    CODE     ---       forceModuleLoad_usbint
      010019D3H   PUBLIC    CODE     ---       SendEp0Stall
      010011A2H   PUBLIC    CODE     ---       handleUsbEp0Rx
      01000A60H   PUBLIC    CODE     ---       usbIrqHandler
      000000A2H   SFRSYM    DATA     BYTE      SPI0CKR
      00000080H   SFRSYM    DATA     BYTE      P0
      000000C8H.6 SFRSYM    DATA     BIT       SCON1_PERR
      000000D0H.2 SFRSYM    DATA     BIT       PSW_OV
      00000090H   SFRSYM    DATA     BYTE      P1
      000000F8H.1 SFRSYM    DATA     BIT       SPI0CN0_TXNF
      00000097H   SFRSYM    DATA     BYTE      WDTCN
      000000A0H   SFRSYM    DATA     BYTE      P2
      000000B0H   SFRSYM    DATA     BYTE      P3
      000000BCH   SFRSYM    DATA     BYTE      ADC0CF
      000000C0H.7 SFRSYM    DATA     BIT       SMB0CN0_MASTER
      000000F9H   SFRSYM    DATA     WORD      PCA0
      000000E6H   SFRSYM    DATA     BYTE      EIE1
      000000C0H.1 SFRSYM    DATA     BIT       SMB0CN0_ACK
      000000B3H   SFRSYM    DATA     BYTE      USB0XCN
LX51 LINKER/LOCATER V4.66.30.0                                                        01/24/2016  18:13:24  PAGE 90


      000000CEH   SFRSYM    DATA     BYTE      EIE2
      0000008FH   SFRSYM    DATA     BYTE      PSCTL
      000000E4H   SFRSYM    DATA     BYTE      IT01CF
      000000C0H.6 SFRSYM    DATA     BIT       SMB0CN0_TXMODE
      000000ADH   SFRSYM    DATA     BYTE      DERIVID
      000000A7H   SFRSYM    DATA     BYTE      SFRPAGE
      000000A4H   SFRSYM    DATA     BYTE      P0MDOUT
      000000BFH   SFRSYM    DATA     BYTE      USB0CDSTA
      000000A5H   SFRSYM    DATA     BYTE      P1MDOUT
      000000E8H.5 SFRSYM    DATA     BIT       ADC0CN0_ADINT
      000000CBH   SFRSYM    DATA     BYTE      TMR2RLH
      000000A6H   SFRSYM    DATA     BYTE      P2MDOUT
      000000A8H   SFRSYM    DATA     BYTE      IE
      00000093H   SFRSYM    DATA     BYTE      TMR3RLH
      0000009CH   SFRSYM    DATA     BYTE      P3MDOUT
      000000A3H   SFRSYM    DATA     BYTE      TMR4RLH
      000000F3H   SFRSYM    DATA     BYTE      EIP1
      000000F4H   SFRSYM    DATA     BYTE      EIP2
      00000098H.2 SFRSYM    DATA     BIT       SCON0_RB8
      000000CAH   SFRSYM    DATA     BYTE      TMR2RLL
      000000FCH   SFRSYM    DATA     BYTE      PCA0CPH0
      00000092H   SFRSYM    DATA     BYTE      TMR3RLL
      000000EAH   SFRSYM    DATA     BYTE      PCA0CPH1
      00000098H.3 SFRSYM    DATA     BIT       SCON0_TB8
      000000F0H   SFRSYM    DATA     BIT       B_B0
      00000082H   SFRSYM    DATA     WORD      DP
      000000A2H   SFRSYM    DATA     BYTE      TMR4RLL
      000000ECH   SFRSYM    DATA     BYTE      PCA0CPH2
      000000F0H.1 SFRSYM    DATA     BIT       B_B1
      000000C3H   SFRSYM    DATA     WORD      ADC0GT
      000000BDH   SFRSYM    DATA     BYTE      I2C0SLAD
      000000D8H.3 SFRSYM    DATA     BIT       UART1FCN1_RFRQ
      000000F0H.2 SFRSYM    DATA     BIT       B_B2
      000000CFH   SFRSYM    DATA     BYTE      SFRPGCN
      000000FBH   SFRSYM    DATA     BYTE      PCA0CPL0
      000000F0H.3 SFRSYM    DATA     BIT       B_B3
      000000D9H   SFRSYM    DATA     BYTE      PCA0MD
      000000DAH   SFRSYM    DATA     BYTE      PCA0CPM0
      000000E9H   SFRSYM    DATA     BYTE      PCA0CPL1
      000000D8H.7 SFRSYM    DATA     BIT       UART1FCN1_TFRQ
      000000F0H.4 SFRSYM    DATA     BIT       B_B4
      000000DBH   SFRSYM    DATA     BYTE      PCA0CPM1
      000000EBH   SFRSYM    DATA     BYTE      PCA0CPL2
      000000F0H.5 SFRSYM    DATA     BIT       B_B5
      000000DCH   SFRSYM    DATA     BYTE      PCA0CPM2
      000000B8H   SFRSYM    DATA     BYTE      IP
      000000B9H   SFRSYM    DATA     BYTE      ADC0TK
      000000F0H.6 SFRSYM    DATA     BIT       B_B6
      000000C5H   SFRSYM    DATA     WORD      ADC0LT
      000000D8H.6 SFRSYM    DATA     BIT       UART1FCN1_TXNF
      00000098H.5 SFRSYM    DATA     BIT       SCON0_MCE
      000000F0H.7 SFRSYM    DATA     BIT       B_B7
      000000C3H   SFRSYM    DATA     BYTE      SMB0FCN0
      000000E1H   SFRSYM    DATA     BYTE      XBR0
      000000C4H   SFRSYM    DATA     BYTE      SMB0FCN1
      000000C1H   SFRSYM    DATA     BYTE      SMB0CF
      000000E2H   SFRSYM    DATA     BYTE      XBR1
      000000C1H   SFRSYM    DATA     BYTE      PFE0CN
      000000E7H   SFRSYM    DATA     BYTE      EMI0CN
      000000C0H.5 SFRSYM    DATA     BIT       SMB0CN0_STA
      000000E3H   SFRSYM    DATA     BYTE      XBR2
      000000BBH   SFRSYM    DATA     BYTE      ADC0MX
LX51 LINKER/LOCATER V4.66.30.0                                                        01/24/2016  18:13:24  PAGE 91


      000000E0H   SFRSYM    DATA     BIT       ACC_ACC0
      000000D1H   SFRSYM    DATA     BYTE      REF0CN
      0000008EH   SFRSYM    DATA     BYTE      CKCON0
      000000E0H.1 SFRSYM    DATA     BIT       ACC_ACC1
      000000C9H   SFRSYM    DATA     BYTE      REG0CN
      000000DDH   SFRSYM    DATA     BYTE      CRC0IN
      000000A6H   SFRSYM    DATA     BYTE      CKCON1
      000000C8H.2 SFRSYM    DATA     BIT       TMR2CN0_TR2
      000000E0H.2 SFRSYM    DATA     BIT       ACC_ACC2
      000000C6H   SFRSYM    DATA     BYTE      REG1CN
      000000E0H.3 SFRSYM    DATA     BIT       ACC_ACC3
      00000081H   SFRSYM    DATA     BYTE      SP
      0000009DH   SFRSYM    DATA     BYTE      CMP0MD
      000000E0H.4 SFRSYM    DATA     BIT       ACC_ACC4
      000000B1H   SFRSYM    DATA     BYTE      LFO0CN
      000000ABH   SFRSYM    DATA     BYTE      CMP1MD
      000000D8H   SFRSYM    DATA     BIT       PCA0CN0_CCF0
      000000E0H.5 SFRSYM    DATA     BIT       ACC_ACC5
      000000B5H   SFRSYM    DATA     BYTE      USB0CF
      00000098H.2 SFRSYM    DATA     BIT       TMR4CN0_TR4
      000000D8H.1 SFRSYM    DATA     BIT       PCA0CN0_CCF1
      000000E0H.6 SFRSYM    DATA     BIT       ACC_ACC6
      000000CCH   SFRSYM    DATA     WORD      TMR2
      0000009AH   SFRSYM    DATA     BYTE      SPI0FCN0
      000000D8H.2 SFRSYM    DATA     BIT       PCA0CN0_CCF2
      000000E0H.7 SFRSYM    DATA     BIT       ACC_ACC7
      00000094H   SFRSYM    DATA     WORD      TMR3
      0000009BH   SFRSYM    DATA     BYTE      SPI0FCN1
      000000A4H   SFRSYM    DATA     WORD      TMR4
      00000094H   SFRSYM    DATA     BYTE      SBCON1
      000000C0H.3 SFRSYM    DATA     BIT       SMB0CN0_ACKRQ
      000000FFH   SFRSYM    DATA     BYTE      VDM0CN
      000000F1H   SFRSYM    DATA     BYTE      P0MDIN
      00000098H.4 SFRSYM    DATA     BIT       SCON0_REN
      000000ACH   SFRSYM    DATA     BYTE      SMB0TC
      000000F2H   SFRSYM    DATA     BYTE      P1MDIN
      000000C8H.4 SFRSYM    DATA     BIT       SCON1_REN
      000000F3H   SFRSYM    DATA     BYTE      P2MDIN
      000000C0H.4 SFRSYM    DATA     BIT       SMB0CN0_STO
      000000B6H   SFRSYM    DATA     BYTE      USB0CDCF
      000000F4H   SFRSYM    DATA     BYTE      P3MDIN
      000000B9H   SFRSYM    DATA     BYTE      I2C0STAT
      000000BBH   SFRSYM    DATA     BYTE      I2C0DOUT
      00000096H   SFRSYM    DATA     BYTE      SBRLH1
      000000FEH   SFRSYM    DATA     BYTE      P0MASK
      000000D8H.5 SFRSYM    DATA     BIT       UART1FCN1_TXHOLD
      000000EEH   SFRSYM    DATA     BYTE      P1MASK
      000000FCH   SFRSYM    DATA     BYTE      P2MASK
      000000D0H.3 SFRSYM    DATA     BIT       PSW_RS0
      000000D8H.7 SFRSYM    DATA     BIT       PCA0CN0_CF
      0000009EH   SFRSYM    DATA     BYTE      PCA0CENT
      000000BAH   SFRSYM    DATA     BYTE      I2C0CN0
      000000D2H   SFRSYM    DATA     BYTE      CRC0ST
      000000F8H.4 SFRSYM    DATA     BIT       SPI0CN0_RXOVRN
      000000D0H.4 SFRSYM    DATA     BIT       PSW_RS1
      00000095H   SFRSYM    DATA     BYTE      SBRLL1
      000000C8H.2 SFRSYM    DATA     BIT       SCON1_RBX
      000000C8H   SFRSYM    DATA     BIT       TMR2CN0_T2XCLK0
      000000C8H.1 SFRSYM    DATA     BIT       TMR2CN0_T2XCLK1
      000000C8H.3 SFRSYM    DATA     BIT       SCON1_TBX
      000000E8H.7 SFRSYM    DATA     BIT       ADC0CN0_ADEN
      000000BEH   SFRSYM    DATA     BYTE      USB0CDCN
LX51 LINKER/LOCATER V4.66.30.0                                                        01/24/2016  18:13:24  PAGE 92


      00000089H   SFRSYM    DATA     BYTE      TMOD
      00000088H   SFRSYM    DATA     BYTE      TCON
      000000CFH   SFRSYM    DATA     BYTE      CRC0FLIP
      000000D0H   SFRSYM    DATA     BIT       PSW_PARITY
      000000A8H.4 SFRSYM    DATA     BIT       IE_ES0
      0000009FH   SFRSYM    DATA     BYTE      CMP0MX
      00000098H   SFRSYM    DATA     BIT       TMR4CN0_T4XCLK0
      000000A8H.1 SFRSYM    DATA     BIT       IE_ET0
      000000AAH   SFRSYM    DATA     BYTE      CMP1MX
      00000098H.1 SFRSYM    DATA     BIT       TMR4CN0_T4XCLK1
      000000A8H.3 SFRSYM    DATA     BIT       IE_ET1
      000000D4H   SFRSYM    DATA     BYTE      P0SKIP
      000000D8H   SFRSYM    DATA     BIT       UART1FCN1_RIE
      000000A8H.5 SFRSYM    DATA     BIT       IE_ET2
      000000D5H   SFRSYM    DATA     BYTE      P1SKIP
      000000CCH   SFRSYM    DATA     BYTE      P2SKIP
      000000E8H   SFRSYM    DATA     BYTE      ADC0CN0
      000000D8H.4 SFRSYM    DATA     BIT       UART1FCN1_TIE
      000000A8H   SFRSYM    DATA     BIT       IE_EX0
      000000B2H   SFRSYM    DATA     BYTE      ADC0CN1
      000000D8H.6 SFRSYM    DATA     BIT       PCA0CN0_CR
      000000A8H.2 SFRSYM    DATA     BIT       IE_EX1
      000000C8H.7 SFRSYM    DATA     BIT       SCON1_OVR
      00000098H.7 SFRSYM    DATA     BIT       SCON0_SMODE
      000000B5H   SFRSYM    DATA     BYTE      DEVICEID
      000000A9H   SFRSYM    DATA     BYTE      CLKSEL
      000000F8H   SFRSYM    DATA     BIT       SPI0CN0_SPIEN
      000000F0H   SFRSYM    DATA     BYTE      B
      000000BEH   SFRSYM    DATA     BYTE      ADC0H
      000000E8H.6 SFRSYM    DATA     BIT       ADC0CN0_ADBMEN
      000000CAH   SFRSYM    DATA     WORD      TMR2RL
      000000BDH   SFRSYM    DATA     BYTE      ADC0L
      00000092H   SFRSYM    DATA     WORD      TMR3RL
      000000A2H   SFRSYM    DATA     WORD      TMR4RL
      000000D8H   SFRSYM    DATA     BYTE      PCA0CN0
      000000E0H   SFRSYM    DATA     BYTE      ACC
      000000FBH   SFRSYM    DATA     WORD      PCA0CP0
      000000E9H   SFRSYM    DATA     WORD      PCA0CP1
      000000EBH   SFRSYM    DATA     WORD      PCA0CP2
      000000BCH   SFRSYM    DATA     BYTE      I2C0DIN
      000000CEH   SFRSYM    DATA     BYTE      CRC0CN0
      0000008CH   SFRSYM    DATA     BYTE      TH0
      00000086H   SFRSYM    DATA     BYTE      CRC0CN1
      000000B8H.4 SFRSYM    DATA     BIT       IP_PS0
      000000FAH   SFRSYM    DATA     BYTE      UART1FCT
      0000008DH   SFRSYM    DATA     BYTE      TH1
      000000FAH   SFRSYM    DATA     BYTE      PCA0H
      000000F5H   SFRSYM    DATA     BYTE      I2C0FCT
      000000B8H.1 SFRSYM    DATA     BIT       IP_PT0
      000000B8H.3 SFRSYM    DATA     BIT       IP_PT1
      000000C0H.2 SFRSYM    DATA     BIT       SMB0CN0_ARBLOST
      000000B8H.5 SFRSYM    DATA     BIT       IP_PT2
      0000008AH   SFRSYM    DATA     BYTE      TL0
      000000D0H.5 SFRSYM    DATA     BIT       PSW_F0
      000000A8H.6 SFRSYM    DATA     BIT       IE_ESPI0
      0000008BH   SFRSYM    DATA     BYTE      TL1
      000000F9H   SFRSYM    DATA     BYTE      PCA0L
      000000C0H   SFRSYM    DATA     BIT       SMB0CN0_SI
      000000D0H.1 SFRSYM    DATA     BIT       PSW_F1
      00000080H   SFRSYM    DATA     BIT       P0_B0
      000000B8H   SFRSYM    DATA     BIT       IP_PX0
      00000090H   SFRSYM    DATA     BIT       P1_B0
LX51 LINKER/LOCATER V4.66.30.0                                                        01/24/2016  18:13:24  PAGE 93


      00000080H.1 SFRSYM    DATA     BIT       P0_B1
      000000B8H.2 SFRSYM    DATA     BIT       IP_PX1
      0000009EH   SFRSYM    DATA     BYTE      UART1LIN
      0000009BH   SFRSYM    DATA     BYTE      CMP0CN0
      00000088H.1 SFRSYM    DATA     BIT       TCON_IE0
      000000A0H   SFRSYM    DATA     BIT       P2_B0
      00000090H.1 SFRSYM    DATA     BIT       P1_B1
      00000080H.2 SFRSYM    DATA     BIT       P0_B2
      000000BFH   SFRSYM    DATA     BYTE      CMP1CN0
      00000099H   SFRSYM    DATA     BYTE      CMP0CN1
      00000088H.3 SFRSYM    DATA     BIT       TCON_IE1
      000000B0H   SFRSYM    DATA     BIT       P3_B0
      000000A0H.1 SFRSYM    DATA     BIT       P2_B1
      00000090H.2 SFRSYM    DATA     BIT       P1_B2
      00000080H.3 SFRSYM    DATA     BIT       P0_B3
      000000C0H   SFRSYM    DATA     BYTE      SMB0CN0
      000000ACH   SFRSYM    DATA     BYTE      CMP1CN1
      000000B0H.1 SFRSYM    DATA     BIT       P3_B1
      000000A0H.2 SFRSYM    DATA     BIT       P2_B2
      00000090H.3 SFRSYM    DATA     BIT       P1_B3
      00000080H.4 SFRSYM    DATA     BIT       P0_B4
      000000A0H.3 SFRSYM    DATA     BIT       P2_B3
      00000090H.4 SFRSYM    DATA     BIT       P1_B4
      00000080H.5 SFRSYM    DATA     BIT       P0_B5
      000000D8H.1 SFRSYM    DATA     BIT       UART1FCN1_RXTO0
      00000090H.5 SFRSYM    DATA     BIT       P1_B5
      00000080H.6 SFRSYM    DATA     BIT       P0_B6
      000000F5H   SFRSYM    DATA     BYTE      EIP1H
      000000D8H.2 SFRSYM    DATA     BIT       UART1FCN1_RXTO1
      00000090H.6 SFRSYM    DATA     BIT       P1_B6
      00000080H.7 SFRSYM    DATA     BIT       P0_B7
      000000C5H   SFRSYM    DATA     BYTE      SMB0RXLN
      000000F6H   SFRSYM    DATA     BYTE      EIP2H
      00000090H.7 SFRSYM    DATA     BIT       P1_B7
      00000083H   SFRSYM    DATA     BYTE      DPH
      000000C4H   SFRSYM    DATA     BYTE      ADC0GTH
      000000C8H.7 SFRSYM    DATA     BIT       TMR2CN0_TF2H
      000000C8H.3 SFRSYM    DATA     BIT       TMR2CN0_T2SPLIT
      000000D0H.6 SFRSYM    DATA     BIT       PSW_AC
      000000F8H   SFRSYM    DATA     BYTE      SPI0CN0
      000000C7H   SFRSYM    DATA     BYTE      HFO0CAL
      00000088H.5 SFRSYM    DATA     BIT       TCON_TF0
      00000098H   SFRSYM    DATA     BIT       SCON0_RI
      000000D6H   SFRSYM    DATA     BYTE      HFO1CAL
      00000082H   SFRSYM    DATA     BYTE      DPL
      00000088H.7 SFRSYM    DATA     BIT       TCON_TF1
      000000C8H   SFRSYM    DATA     BIT       SCON1_RI
      00000099H   SFRSYM    DATA     BYTE      SBUF0
      00000087H   SFRSYM    DATA     BYTE      PCON0
      000000F2H   SFRSYM    DATA     BYTE      IPH
      000000C3H   SFRSYM    DATA     BYTE      ADC0GTL
      00000098H.7 SFRSYM    DATA     BIT       TMR4CN0_TF4H
      00000098H.3 SFRSYM    DATA     BIT       TMR4CN0_T4SPLIT
      000000C8H.6 SFRSYM    DATA     BIT       TMR2CN0_TF2L
      00000098H.1 SFRSYM    DATA     BIT       SCON0_TI
      000000E8H   SFRSYM    DATA     BIT       ADC0CN0_ADCM0
      00000092H   SFRSYM    DATA     BYTE      SBUF1
      0000009AH   SFRSYM    DATA     BYTE      PCON1
      000000C6H   SFRSYM    DATA     BYTE      ADC0LTH
      00000088H   SFRSYM    DATA     BIT       TCON_IT0
      000000C8H.1 SFRSYM    DATA     BIT       SCON1_TI
      000000E8H.1 SFRSYM    DATA     BIT       ADC0CN0_ADCM1
LX51 LINKER/LOCATER V4.66.30.0                                                        01/24/2016  18:13:24  PAGE 94


      000000EFH   SFRSYM    DATA     BYTE      RSTSRC
      000000FDH   SFRSYM    DATA     BYTE      P0MAT
      000000DEH   SFRSYM    DATA     BYTE      CRC0DAT
      00000088H.2 SFRSYM    DATA     BIT       TCON_IT1
      000000E8H.2 SFRSYM    DATA     BIT       ADC0CN0_ADCM2
      000000D7H   SFRSYM    DATA     BYTE      SFRSTACK
      00000098H   SFRSYM    DATA     BYTE      SCON0
      000000F6H   SFRSYM    DATA     BYTE      PRTDRV
      000000EDH   SFRSYM    DATA     BYTE      P1MAT
      000000E8H.3 SFRSYM    DATA     BIT       ADC0CN0_ADWINT
      00000095H   SFRSYM    DATA     WORD      SBRL1
      000000B2H   SFRSYM    DATA     BYTE      USB0AEC
      00000093H   SFRSYM    DATA     BYTE      SMOD1
      000000C8H   SFRSYM    DATA     BYTE      SCON1
      000000FBH   SFRSYM    DATA     BYTE      P2MAT
      00000098H.6 SFRSYM    DATA     BIT       TMR4CN0_TF4L
      000000E8H.4 SFRSYM    DATA     BIT       ADC0CN0_ADBUSY
      000000D6H   SFRSYM    DATA     BYTE      SMB0ADM
      000000C5H   SFRSYM    DATA     BYTE      ADC0LTL
      000000F8H.5 SFRSYM    DATA     BIT       SPI0CN0_MODF
      000000B8H.6 SFRSYM    DATA     BIT       IP_PSPI0
      0000009CH   SFRSYM    DATA     BYTE      PCA0CLR
      000000C8H   SFRSYM    DATA     BYTE      TMR2CN0
      00000091H   SFRSYM    DATA     BYTE      TMR3CN0
      000000FDH   SFRSYM    DATA     BYTE      TMR2CN1
      00000098H   SFRSYM    DATA     BYTE      TMR4CN0
      000000FEH   SFRSYM    DATA     BYTE      TMR3CN1
      000000FFH   SFRSYM    DATA     BYTE      TMR4CN1
      000000D7H   SFRSYM    DATA     BYTE      SMB0ADR
      00000088H.4 SFRSYM    DATA     BIT       TCON_TR0
      000000C8H.4 SFRSYM    DATA     BIT       TMR2CN0_TF2CEN
      00000088H.6 SFRSYM    DATA     BIT       TCON_TR1
      000000C2H   SFRSYM    DATA     BYTE      SMB0DAT
      000000CDH   SFRSYM    DATA     BYTE      TMR2H
      000000A1H   SFRSYM    DATA     BYTE      SPI0CFG
      00000095H   SFRSYM    DATA     BYTE      TMR3H
      000000EFH   SFRSYM    DATA     BYTE      HFOCN
      000000D3H   SFRSYM    DATA     BYTE      CRC0CNT
      000000A5H   SFRSYM    DATA     BYTE      TMR4H
      00000098H.4 SFRSYM    DATA     BIT       TMR4CN0_TF4CEN
      000000EFH   SFRSYM    DATA     BYTE      SMB0FCT
      00000096H   SFRSYM    DATA     BYTE      PCA0POL
      000000CCH   SFRSYM    DATA     BYTE      TMR2L
      000000F8H.7 SFRSYM    DATA     BIT       SPI0CN0_SPIF
      000000AEH   SFRSYM    DATA     BYTE      USB0ADR
      00000094H   SFRSYM    DATA     BYTE      TMR3L
      000000DFH   SFRSYM    DATA     BYTE      ADC0PWR
      000000A8H.7 SFRSYM    DATA     BIT       IE_EA
      000000A4H   SFRSYM    DATA     BYTE      TMR4L
      000000AFH   SFRSYM    DATA     BYTE      USB0DAT
      000000C8H.5 SFRSYM    DATA     BIT       TMR2CN0_TF2LEN
      000000F8H.6 SFRSYM    DATA     BIT       SPI0CN0_WCOL
      000000F8H.2 SFRSYM    DATA     BIT       SPI0CN0_NSSMD0
      000000D0H.7 SFRSYM    DATA     BIT       PSW_CY
      0000009DH   SFRSYM    DATA     BYTE      UART1FCN0
      000000A3H   SFRSYM    DATA     BYTE      SPI0DAT
      000000ADH   SFRSYM    DATA     BYTE      I2C0FCN0
      000000F8H.3 SFRSYM    DATA     BIT       SPI0CN0_NSSMD1
      000000BDH   SFRSYM    DATA     WORD      ADC0
      000000D8H   SFRSYM    DATA     BYTE      UART1FCN1
      000000ABH   SFRSYM    DATA     BYTE      I2C0FCN1
      00000098H.5 SFRSYM    DATA     BIT       TMR4CN0_TF4LEN
LX51 LINKER/LOCATER V4.66.30.0                                                        01/24/2016  18:13:24  PAGE 95


      000000D0H   SFRSYM    DATA     BYTE      PSW
      000000F7H   SFRSYM    DATA     BYTE      PCA0PWM
      000000F7H   SFRSYM    DATA     BYTE      SPI0FCT
      000000B6H   SFRSYM    DATA     BYTE      REVID
      000000B7H   SFRSYM    DATA     BYTE      FLKEY
      000000B3H   SFRSYM    DATA     BYTE      ADC0AC
      01000003H   SYMBOL    CODE     ---       USB_ReadFIFOSetup
      01000DC3H   SYMBOL    CODE     ---       handleUsbEp0Int
      01001A35H   SYMBOL    CODE     ---       handleUsbSuspendInt
      01001B75H   SYMBOL    CODE     ---       handleUsbResumeInt
      010011A2H   SYMBOL    CODE     ---       handleUsbEp0Rx
      010008C2H   SYMBOL    CODE     ---       handleUsbEp0Tx
      01000046H   SYMBOL    CODE     ---       handleUsbResetInt

      01001641H   BLOCK     CODE     ---       LVL=0
      ---         BLOCKEND  ---      ---       LVL=0

      01000A60H   BLOCK     CODE     ---       LVL=0
      01000A7DH   BLOCK     CODE     NEAR LAB  LVL=1
      00000039H   SYMBOL    DATA     BYTE      statusCommon
      0000003AH   SYMBOL    DATA     BYTE      statusIn
      0000003BH   SYMBOL    DATA     BYTE      statusOut
      0000003CH   SYMBOL    DATA     BYTE      indexSave
      ---         BLOCKEND  ---      ---       LVL=1
      01000A60H   LINE      CODE     ---       #61
      01000A7DH   LINE      CODE     ---       #70
      01000A80H   LINE      CODE     ---       #74
      01000A85H   LINE      CODE     ---       #75
      01000A8AH   LINE      CODE     ---       #76
      01000A8FH   LINE      CODE     ---       #86
      01000A94H   LINE      CODE     ---       #89
      01000A99H   LINE      CODE     ---       #90
      01000A99H   LINE      CODE     ---       #92
      01000A9FH   LINE      CODE     ---       #97
      01000AB6H   LINE      CODE     ---       #99
      01000AB6H   LINE      CODE     ---       #100
      01000AB9H   LINE      CODE     ---       #101
      01000AB9H   LINE      CODE     ---       #105
      01000AC4H   LINE      CODE     ---       #106
      01000AC4H   LINE      CODE     ---       #107
      01000AC7H   LINE      CODE     ---       #108
      01000AC7H   LINE      CODE     ---       #128
      01000AC7H   LINE      CODE     ---       #130
      01000ACCH   LINE      CODE     ---       #131
      01000ACCH   LINE      CODE     ---       #132
      01000ACFH   LINE      CODE     ---       #136
      01000AD2H   LINE      CODE     ---       #137
      01000AD2H   LINE      CODE     ---       #138
      01000AD5H   LINE      CODE     ---       #139
      01000AD5H   LINE      CODE     ---       #141
      01000AD5H   LINE      CODE     ---       #143
      01000ADAH   LINE      CODE     ---       #144
      01000ADAH   LINE      CODE     ---       #145
      01000ADDH   LINE      CODE     ---       #146
      01000ADDH   LINE      CODE     ---       #148
      01000AE2H   LINE      CODE     ---       #149
      01000AE2H   LINE      CODE     ---       #150
      01000AE5H   LINE      CODE     ---       #151
      01000AE5H   LINE      CODE     ---       #175
      01000AEAH   LINE      CODE     ---       #176
      01000AEAH   LINE      CODE     ---       #177
      01000AEDH   LINE      CODE     ---       #178
LX51 LINKER/LOCATER V4.66.30.0                                                        01/24/2016  18:13:24  PAGE 96


      01000AEDH   LINE      CODE     ---       #189
      01000AF2H   LINE      CODE     ---       #190
      01000AF2H   LINE      CODE     ---       #191
      01000AF5H   LINE      CODE     ---       #192
      01000AF5H   LINE      CODE     ---       #196
      01000AFAH   LINE      CODE     ---       #197
      01000AFAH   LINE      CODE     ---       #198
      01000AFDH   LINE      CODE     ---       #199
      01000AFDH   LINE      CODE     ---       #202
      01000B02H   LINE      CODE     ---       #206
      01000B05H   LINE      CODE     ---       #208
      ---         BLOCKEND  ---      ---       LVL=0

      01000DC3H   BLOCK     CODE     ---       LVL=0
      01000DC3H   LINE      CODE     ---       #213
      01000DC3H   LINE      CODE     ---       #214
      01000DC3H   LINE      CODE     ---       #215
      01000DC8H   LINE      CODE     ---       #217
      01000DD2H   LINE      CODE     ---       #218
      01000DD2H   LINE      CODE     ---       #219
      01000DDDH   LINE      CODE     ---       #220
      01000DE8H   LINE      CODE     ---       #221
      01000DECH   LINE      CODE     ---       #222
      01000DEFH   LINE      CODE     ---       #223
      01000DEFH   LINE      CODE     ---       #224
      01000DF4H   LINE      CODE     ---       #225
      01000DF4H   LINE      CODE     ---       #226
      01000DFBH   LINE      CODE     ---       #227
      01000DFBH   LINE      CODE     ---       #228
      01000DFBH   LINE      CODE     ---       #229
      01000DFDH   LINE      CODE     ---       #230
      01000E04H   LINE      CODE     ---       #231
      01000E04H   LINE      CODE     ---       #232
      01000E07H   LINE      CODE     ---       #233
      01000E0AH   LINE      CODE     ---       #237
      01000E12H   LINE      CODE     ---       #238
      01000E12H   LINE      CODE     ---       #240
      01000E1CH   LINE      CODE     ---       #241
      01000E1CH   LINE      CODE     ---       #242
      01000E1FH   LINE      CODE     ---       #243
      01000E21H   LINE      CODE     ---       #245
      01000E21H   LINE      CODE     ---       #246
      01000E24H   LINE      CODE     ---       #247
      01000E24H   LINE      CODE     ---       #249
      01000E26H   LINE      CODE     ---       #251
      01000E26H   LINE      CODE     ---       #254
      01000E3AH   LINE      CODE     ---       #258
      01000E3AH   LINE      CODE     ---       #259
      01000E40H   LINE      CODE     ---       #260
      01000E40H   LINE      CODE     ---       #261
      01000E40H   LINE      CODE     ---       #263
      01000E42H   LINE      CODE     ---       #264
      01000E48H   LINE      CODE     ---       #265
      01000E48H   LINE      CODE     ---       #266
      01000E4BH   LINE      CODE     ---       #267
      01000E4DH   LINE      CODE     ---       #269
      01000E4DH   LINE      CODE     ---       #270
      01000E53H   LINE      CODE     ---       #271
      01000E53H   LINE      CODE     ---       #272
      01000E53H   LINE      CODE     ---       #273
      01000E5EH   LINE      CODE     ---       #274
      01000E5EH   LINE      CODE     ---       #275
LX51 LINKER/LOCATER V4.66.30.0                                                        01/24/2016  18:13:24  PAGE 97


      01000E61H   LINE      CODE     ---       #276
      01000E61H   LINE      CODE     ---       #277
      ---         BLOCKEND  ---      ---       LVL=0

      01000003H   BLOCK     CODE     ---       LVL=0
      01000003H   BLOCK     CODE     NEAR LAB  LVL=1
      0000003DH   SYMBOL    DATA     ---       ptr
      ---         BLOCKEND  ---      ---       LVL=1
      01000003H   LINE      CODE     ---       #282
      01000003H   LINE      CODE     ---       #283
      01000003H   LINE      CODE     ---       #284
      01000006H   LINE      CODE     ---       #286
      01000013H   LINE      CODE     ---       #288
      0100001EH   LINE      CODE     ---       #291
      0100002AH   LINE      CODE     ---       #292
      01000036H   LINE      CODE     ---       #293
      01000042H   LINE      CODE     ---       #294
      ---         BLOCKEND  ---      ---       LVL=0

      01000046H   BLOCK     CODE     ---       LVL=0
      01000046H   LINE      CODE     ---       #301
      01000046H   LINE      CODE     ---       #302
      01000046H   LINE      CODE     ---       #304
      0100004AH   LINE      CODE     ---       #308
      0100004EH   LINE      CODE     ---       #317
      01000052H   LINE      CODE     ---       #332
      0100005DH   LINE      CODE     ---       #339
      01000068H   LINE      CODE     ---       #340
      01000073H   LINE      CODE     ---       #354
      01000078H   LINE      CODE     ---       #359
      ---         BLOCKEND  ---      ---       LVL=0

      01001A35H   BLOCK     CODE     ---       LVL=0
      01001A35H   LINE      CODE     ---       #369
      01001A35H   LINE      CODE     ---       #370
      01001A35H   LINE      CODE     ---       #371
      01001A3DH   LINE      CODE     ---       #372
      01001A3DH   LINE      CODE     ---       #373
      01001A42H   LINE      CODE     ---       #376
      01001A45H   LINE      CODE     ---       #378
      01001A45H   LINE      CODE     ---       #379
      ---         BLOCKEND  ---      ---       LVL=0

      01001B75H   BLOCK     CODE     ---       LVL=0
      01001B75H   LINE      CODE     ---       #385
      01001B75H   LINE      CODE     ---       #386
      01001B75H   LINE      CODE     ---       #387
      ---         BLOCKEND  ---      ---       LVL=0

      010008C2H   BLOCK     CODE     ---       LVL=0
      010008C2H   BLOCK     CODE     NEAR LAB  LVL=1
      0000003DH   SYMBOL    DATA     BYTE      count
      0000003EH   SYMBOL    DATA     BYTE      count_snapshot
      0000003FH   SYMBOL    DATA     BYTE      i
      00000021H.1 SYMBOL    BIT      BIT       callback
      ---         BLOCKEND  ---      ---       LVL=1
      010008C2H   LINE      CODE     ---       #393
      010008C2H   LINE      CODE     ---       #394
      010008C2H   LINE      CODE     ---       #396
      010008C8H   LINE      CODE     ---       #400
      010008DDH   LINE      CODE     ---       #404
      010008E0H   LINE      CODE     ---       #410
LX51 LINKER/LOCATER V4.66.30.0                                                        01/24/2016  18:13:24  PAGE 98


      010008EAH   LINE      CODE     ---       #411
      010008EAH   LINE      CODE     ---       #416
      010008EEH   LINE      CODE     ---       #417
      010008EEH   LINE      CODE     ---       #418
      010008FBH   LINE      CODE     ---       #419
      01000900H   LINE      CODE     ---       #420
      01000904H   LINE      CODE     ---       #421
      0100090AH   LINE      CODE     ---       #422
      0100090AH   LINE      CODE     ---       #425
      01000918H   LINE      CODE     ---       #426
      01000918H   LINE      CODE     ---       #427
      0100091EH   LINE      CODE     ---       #428
      01000923H   LINE      CODE     ---       #429
      0100092CH   LINE      CODE     ---       #430
      01000930H   LINE      CODE     ---       #431
      01000930H   LINE      CODE     ---       #435
      01000930H   LINE      CODE     ---       #436
      0100093CH   LINE      CODE     ---       #437
      01000943H   LINE      CODE     ---       #438
      01000943H   LINE      CODE     ---       #440
      01000949H   LINE      CODE     ---       #441
      01000959H   LINE      CODE     ---       #447
      01000962H   LINE      CODE     ---       #448
      01000962H   LINE      CODE     ---       #449
      0100096DH   LINE      CODE     ---       #450
      01000971H   LINE      CODE     ---       #451
      01000975H   LINE      CODE     ---       #452
      01000978H   LINE      CODE     ---       #453
      0100097AH   LINE      CODE     ---       #455
      0100097AH   LINE      CODE     ---       #458
      01000985H   LINE      CODE     ---       #459
      01000985H   LINE      CODE     ---       #461
      01000988H   LINE      CODE     ---       #462
      01000988H   LINE      CODE     ---       #463
      01000993H   LINE      CODE     ---       #464
      01000993H   LINE      CODE     ---       #465
      ---         BLOCKEND  ---      ---       LVL=0

      010011A2H   BLOCK     CODE     ---       LVL=0
      010011A2H   BLOCK     CODE     NEAR LAB  LVL=1
      0000003DH   SYMBOL    DATA     BYTE      count
      0000003EH   SYMBOL    DATA     CHAR      status
      00000021H.1 SYMBOL    BIT      BIT       callback
      ---         BLOCKEND  ---      ---       LVL=1
      010011A2H   LINE      CODE     ---       #470
      010011A2H   LINE      CODE     ---       #471
      010011A2H   LINE      CODE     ---       #474
      010011A8H   LINE      CODE     ---       #477
      010011ADH   LINE      CODE     ---       #481
      010011B8H   LINE      CODE     ---       #482
      010011B8H   LINE      CODE     ---       #483
      010011BCH   LINE      CODE     ---       #484
      010011C1H   LINE      CODE     ---       #485
      010011C4H   LINE      CODE     ---       #486
      010011C6H   LINE      CODE     ---       #488
      010011C6H   LINE      CODE     ---       #489
      010011D0H   LINE      CODE     ---       #490
      010011DDH   LINE      CODE     ---       #491
      010011EBH   LINE      CODE     ---       #492
      010011EEH   LINE      CODE     ---       #498
      010011F8H   LINE      CODE     ---       #499
      010011F8H   LINE      CODE     ---       #500
LX51 LINKER/LOCATER V4.66.30.0                                                        01/24/2016  18:13:24  PAGE 99


      01001203H   LINE      CODE     ---       #501
      01001207H   LINE      CODE     ---       #502
      0100120CH   LINE      CODE     ---       #503
      0100120EH   LINE      CODE     ---       #505
      0100120EH   LINE      CODE     ---       #507
      01001219H   LINE      CODE     ---       #508
      01001219H   LINE      CODE     ---       #509
      01001219H   LINE      CODE     ---       #512
      0100121CH   LINE      CODE     ---       #513
      0100121CH   LINE      CODE     ---       #514
      01001228H   LINE      CODE     ---       #515
      01001228H   LINE      CODE     ---       #516
      ---         BLOCKEND  ---      ---       LVL=0

      010019D3H   BLOCK     CODE     ---       LVL=0
      010019D3H   LINE      CODE     ---       #522
      010019D3H   LINE      CODE     ---       #523
      010019D3H   LINE      CODE     ---       #524
      010019D8H   LINE      CODE     ---       #525
      010019DCH   LINE      CODE     ---       #526
      010019E7H   LINE      CODE     ---       #527
      ---         BLOCKEND  ---      ---       LVL=0

      01001B9BH   BLOCK     CODE     ---       LVL=0
      01001B9BH   LINE      CODE     ---       #533
      ---         BLOCKEND  ---      ---       LVL=0

      ---         MODULE    ---      ---       ASSERT
      01001B97H   PUBLIC    CODE     ---       _slab_Assert

      01001B97H   BLOCK     CODE     ---       LVL=0
      00000000H   SYMBOL    DATA     ---       file
      00000004H   SYMBOL    DATA     INT       line
      01001B97H   LINE      CODE     ---       #8
      01001B97H   LINE      CODE     ---       #9
      01001B97H   LINE      CODE     ---       #10
      01001B97H   LINE      CODE     ---       #11
      01001B97H   LINE      CODE     ---       #13
      ---         BLOCKEND  ---      ---       LVL=0

      ---         MODULE    ---      ---       ?C_INIT
      01000F3BH   PUBLIC    CODE     ---       ?C_START

      ---         MODULE    ---      ---       ?C?CLDPTR
      01000572H   PUBLIC    CODE     ---       ?C?CLDPTR

      ---         MODULE    ---      ---       ?C?CLDOPTR
      0100058BH   PUBLIC    CODE     ---       ?C?CLDOPTR

      ---         MODULE    ---      ---       ?C?ILDOPTR
      010005B8H   PUBLIC    CODE     ---       ?C?ILDOPTR

      ---         MODULE    ---      ---       ?C?PLDPTR
      010005F0H   PUBLIC    CODE     ---       ?C?PLDPTR

      ---         MODULE    ---      ---       ?C?PLDOPTR
      01000610H   PUBLIC    CODE     ---       ?C?PLDOPTR

      ---         MODULE    ---      ---       PRINTF
      0000004AH   PUBLIC    DATA     ---       ?_PRINTF517?BYTE
      0000004AH   PUBLIC    DATA     ---       ?_PRINTF?BYTE
      0000004AH   PUBLIC    DATA     ---       ?_SPRINTF517?BYTE
LX51 LINKER/LOCATER V4.66.30.0                                                        01/24/2016  18:13:24  PAGE 100


      0000004AH   PUBLIC    DATA     ---       ?_SPRINTF?BYTE
      010000E0H   PUBLIC    CODE     ---       _PRINTF
      010000E0H   PUBLIC    CODE     ---       _PRINTF517
      010000DAH   PUBLIC    CODE     ---       _SPRINTF
      010000DAH   PUBLIC    CODE     ---       _SPRINTF517

      ---         MODULE    ---      ---       ?C?CSTPTR
      01000640H   PUBLIC    CODE     ---       ?C?CSTPTR

      ---         MODULE    ---      ---       ?C?PLDIDATA
      01000652H   PUBLIC    CODE     ---       ?C?PLDIDATA

      ---         MODULE    ---      ---       ?C?PLDIIDATA
      0100065BH   PUBLIC    CODE     ---       ?C?PLDIIDATA

      ---         MODULE    ---      ---       ?C?PLDXDATA
      0100066BH   PUBLIC    CODE     ---       ?C?PLDXDATA

      ---         MODULE    ---      ---       ?C?PLDPDATA
      01000674H   PUBLIC    CODE     ---       ?C?PLDPDATA

      ---         MODULE    ---      ---       ?C?PLDCODE
      0100067DH   PUBLIC    CODE     ---       ?C?PLDCODE

      ---         MODULE    ---      ---       ?C?CCASE
      01000689H   PUBLIC    CODE     ---       ?C?CCASE

      ---         MODULE    ---      ---       PUTCHAR
      010017F5H   PUBLIC    CODE     ---       _PUTCHAR



*** WARNING L15: MULTIPLE CALL TO FUNCTION
    NAME:    PRINTF/PRINTF
    CALLER1: ?C_C51STARTUP
    CALLER2: USBIRQHANDLER/EFM8_USBDINT

*** WARNING L15: MULTIPLE CALL TO FUNCTION
    NAME:    _USBD_READ/EFM8_USBD
    CALLER1: ?C_C51STARTUP
    CALLER2: USBIRQHANDLER/EFM8_USBDINT

Program Size: data=120.5 xdata=64 const=188 code=7068
LX51 RUN COMPLETE.  2 WARNING(S),  0 ERROR(S)
